GAS LISTING /tmp/ccE0ce2x.s 			page 1


   1              		.file	"findwayBases.cpp"
   2              		.text
   3              	.Ltext0:
   5              	_Z41__static_initialization_and_destruction_0ii:
   6              	.LVL0:
   7              	.LFB2062:
   8              		.file 1 "Src/findwayBases.cpp"
   1:Src/findwayBases.cpp **** #include <iostream>
   2:Src/findwayBases.cpp **** #include "findwayBases.hpp"
   3:Src/findwayBases.cpp **** 
   4:Src/findwayBases.cpp **** bool            hasIntersection( const struct baseline *b1,  const struct baseline *b2)
   5:Src/findwayBases.cpp **** {
   6:Src/findwayBases.cpp ****     return b1->k != b2->k;
   7:Src/findwayBases.cpp **** }
   8:Src/findwayBases.cpp **** 
   9:Src/findwayBases.cpp **** struct coords   getIntersection(const struct baseline *b1, const struct baseline *b2)
  10:Src/findwayBases.cpp **** {
  11:Src/findwayBases.cpp ****     struct coords ret;
  12:Src/findwayBases.cpp **** 
  13:Src/findwayBases.cpp ****     if(b1->k != INF && b2->k != INF)
  14:Src/findwayBases.cpp ****     {
  15:Src/findwayBases.cpp ****         ret.x = (b2->b - b1->b) / (b1->k - b2->k);
  16:Src/findwayBases.cpp ****         ret.y = (b2->k * b1->b - b1->k * b2->b) / (b2->k - b1->k);
  17:Src/findwayBases.cpp ****     }
  18:Src/findwayBases.cpp ****     else if(b1->k == INF)
  19:Src/findwayBases.cpp ****     {
  20:Src/findwayBases.cpp ****         ret.x = b1->b;
  21:Src/findwayBases.cpp ****         ret.y = b2->k * ret.x + b2->b;
  22:Src/findwayBases.cpp ****     }
  23:Src/findwayBases.cpp ****     else
  24:Src/findwayBases.cpp ****     {
  25:Src/findwayBases.cpp ****         ret.x = b2->b;
  26:Src/findwayBases.cpp ****         ret.y = b1->k * ret.x + b1->b;
  27:Src/findwayBases.cpp ****     }
  28:Src/findwayBases.cpp **** 
  29:Src/findwayBases.cpp ****     return ret;
  30:Src/findwayBases.cpp **** }
  31:Src/findwayBases.cpp **** 
  32:Src/findwayBases.cpp **** //will return NULL if there is no intersections
  33:Src/findwayBases.cpp **** struct coords   getIntersection(const struct obstacle *obst, const struct vect *v)
  34:Src/findwayBases.cpp **** {
  35:Src/findwayBases.cpp ****     if((obst->c->x - v->c->x) / v->dx < 0 || (obst->c->y - v->c->y) / v->dy < 0)
  36:Src/findwayBases.cpp ****         return {-1, -1};
  37:Src/findwayBases.cpp **** 
  38:Src/findwayBases.cpp ****     struct coords   c1,
  39:Src/findwayBases.cpp ****                     c2,
  40:Src/findwayBases.cpp ****                     c3;
  41:Src/findwayBases.cpp **** 
  42:Src/findwayBases.cpp ****     struct baseline b,
  43:Src/findwayBases.cpp ****                     b2;
  44:Src/findwayBases.cpp **** 
  45:Src/findwayBases.cpp ****     b.k = INF;
  46:Src/findwayBases.cpp ****     b.b = obst->c->x;
  47:Src/findwayBases.cpp ****     b2 = vectToBaseline(v);
  48:Src/findwayBases.cpp ****     c1 = getIntersection(&b, &b2);
  49:Src/findwayBases.cpp **** 
  50:Src/findwayBases.cpp ****     std::cout << "found c1\n";
GAS LISTING /tmp/ccE0ce2x.s 			page 2


  51:Src/findwayBases.cpp **** 
  52:Src/findwayBases.cpp ****     b.k = INF;
  53:Src/findwayBases.cpp ****     b.b = obst->c->x + obst->a;
  54:Src/findwayBases.cpp ****     c2 = getIntersection(&b, &b2);
  55:Src/findwayBases.cpp **** 
  56:Src/findwayBases.cpp ****     std::cout << "found c1 and c2\n";
  57:Src/findwayBases.cpp **** 
  58:Src/findwayBases.cpp ****     if(!isDotInside(&c1, obst) && isDotInside(&c2, obst))
  59:Src/findwayBases.cpp ****     {
  60:Src/findwayBases.cpp ****         std::cout << "C1 isn't in obstacle\n";
  61:Src/findwayBases.cpp ****         c1 = c2;
  62:Src/findwayBases.cpp ****     }
  63:Src/findwayBases.cpp ****     //have one intersection in c1 at here
  64:Src/findwayBases.cpp **** 
  65:Src/findwayBases.cpp ****     b.k = 0;
  66:Src/findwayBases.cpp ****     b.b = obst->c->y;
  67:Src/findwayBases.cpp ****     c2 = getIntersection(&b, &b2);
  68:Src/findwayBases.cpp **** 
  69:Src/findwayBases.cpp **** 
  70:Src/findwayBases.cpp ****     b.k = 0;
  71:Src/findwayBases.cpp ****     b.b = obst->c->y + obst->a;
  72:Src/findwayBases.cpp ****     c3 = getIntersection(&b, &b2);
  73:Src/findwayBases.cpp **** 
  74:Src/findwayBases.cpp ****     std::cout << "found c2 and c3\n";
  75:Src/findwayBases.cpp ****     if(!isDotInside(&c2, obst) && isDotInside(&c3, obst))
  76:Src/findwayBases.cpp ****     {
  77:Src/findwayBases.cpp ****         std::cout << "C2 isn't in obstacle\n";
  78:Src/findwayBases.cpp ****         c2 = c3;
  79:Src/findwayBases.cpp ****     }
  80:Src/findwayBases.cpp **** 
  81:Src/findwayBases.cpp ****     if(!isDotInside(&c1, obst))
  82:Src/findwayBases.cpp ****         if(!isDotInside(&c2, obst))
  83:Src/findwayBases.cpp ****             return {-1, -1};        //no intersections
  84:Src/findwayBases.cpp ****         else
  85:Src/findwayBases.cpp ****             return c2;          //intersection only in c2
  86:Src/findwayBases.cpp ****     else
  87:Src/findwayBases.cpp ****         if(!isDotInside(&c2, obst))
  88:Src/findwayBases.cpp ****             return c1;          //intersection only in c1
  89:Src/findwayBases.cpp **** 
  90:Src/findwayBases.cpp **** 
  91:Src/findwayBases.cpp ****     c3 = createCoords(v->c->x, v->c->y);
  92:Src/findwayBases.cpp **** 
  93:Src/findwayBases.cpp ****     COORDS_DATATYPE l1 = getLen(&c3, &c1),
  94:Src/findwayBases.cpp ****                     l2 = getLen(&c3, &c2),
  95:Src/findwayBases.cpp ****                     l3 = getLen(v);
  96:Src/findwayBases.cpp **** 
  97:Src/findwayBases.cpp ****     if(l1 > l2 && l3 >= l1)
  98:Src/findwayBases.cpp ****         return c1;
  99:Src/findwayBases.cpp ****     else if(l3 >= l2)
 100:Src/findwayBases.cpp ****         return c2;
 101:Src/findwayBases.cpp ****     else
 102:Src/findwayBases.cpp ****         return {-1, -1};
 103:Src/findwayBases.cpp **** }
 104:Src/findwayBases.cpp **** 
 105:Src/findwayBases.cpp **** 
 106:Src/findwayBases.cpp **** 
 107:Src/findwayBases.cpp **** 
GAS LISTING /tmp/ccE0ce2x.s 			page 3


 108:Src/findwayBases.cpp **** bool            isDotInside(const struct coords *dot, const struct obstacle *obstacle)
 109:Src/findwayBases.cpp **** {
 110:Src/findwayBases.cpp ****     return      (dot->x >= obstacle->c->x)
 111:Src/findwayBases.cpp ****             &&  (dot->x <= obstacle->c->x + obstacle->a)
 112:Src/findwayBases.cpp ****             &&  (dot->y >= obstacle->c->y)
 113:Src/findwayBases.cpp ****             &&  (dot->y <= obstacle->c->y + obstacle->a);
 114:Src/findwayBases.cpp **** }
 115:Src/findwayBases.cpp **** 
 116:Src/findwayBases.cpp **** struct baseline vectToBaseline(const struct vect *v)
 117:Src/findwayBases.cpp **** {
 118:Src/findwayBases.cpp ****     struct baseline ret;
 119:Src/findwayBases.cpp **** 
 120:Src/findwayBases.cpp ****     ret.k = v->dy / v->dx;
 121:Src/findwayBases.cpp ****     ret.b = v->c->y - v->c->x * ret.k;
 122:Src/findwayBases.cpp **** 
 123:Src/findwayBases.cpp ****     return ret;
 124:Src/findwayBases.cpp **** }
 125:Src/findwayBases.cpp **** 
 126:Src/findwayBases.cpp **** COORDS_DATATYPE getLen(const struct coords *c1, const struct coords *c2)
 127:Src/findwayBases.cpp **** {
 128:Src/findwayBases.cpp ****     COORDS_DATATYPE lx = c1->x - c2->x,
 129:Src/findwayBases.cpp ****                     ly = c1->y - c2->y,
 130:Src/findwayBases.cpp ****                     l  = sqrt(sqr(lx) + sqr(ly));
 131:Src/findwayBases.cpp **** 
 132:Src/findwayBases.cpp ****     return l;
 133:Src/findwayBases.cpp **** }
 134:Src/findwayBases.cpp **** 
 135:Src/findwayBases.cpp **** COORDS_DATATYPE getLen(const struct vect *v)
 136:Src/findwayBases.cpp **** {
 137:Src/findwayBases.cpp ****     COORDS_DATATYPE l = sqrt(sqr(v->dx) + sqr(v->dy));
 138:Src/findwayBases.cpp ****     return l;
 139:Src/findwayBases.cpp **** }
 140:Src/findwayBases.cpp **** 
 141:Src/findwayBases.cpp **** struct coords   createCoords(const COORDS_DATATYPE x, const COORDS_DATATYPE y)
 142:Src/findwayBases.cpp **** {
 143:Src/findwayBases.cpp ****     struct coords ret;
 144:Src/findwayBases.cpp ****     ret.x = x;
 145:Src/findwayBases.cpp ****     ret.y = y;
 146:Src/findwayBases.cpp ****     return ret;
 147:Src/findwayBases.cpp **** }
 148:Src/findwayBases.cpp **** 
 149:Src/findwayBases.cpp **** struct obstacle createObstacle(const COORDS_DATATYPE x, const COORDS_DATATYPE y, const COORDS_DATAT
 150:Src/findwayBases.cpp **** {
 151:Src/findwayBases.cpp ****     struct obstacle ret;
 152:Src/findwayBases.cpp ****     ret.c = (struct coords*)malloc(sizeof(struct coords));
 153:Src/findwayBases.cpp ****     ret.c->x = x;
 154:Src/findwayBases.cpp ****     ret.c->y = y;
 155:Src/findwayBases.cpp ****     ret.a    = a;
 156:Src/findwayBases.cpp ****     for(uint8_t i = 0; i < 4; i++)
 157:Src/findwayBases.cpp ****     {
 158:Src/findwayBases.cpp ****         ret.corners[i] = (struct graphPoint*)malloc(sizeof(struct graphPoint));
 159:Src/findwayBases.cpp ****         ret.corners[i]->c = *getCoordsOfCorner(&ret, i);
 160:Src/findwayBases.cpp ****     }
 161:Src/findwayBases.cpp ****     return ret;
 162:Src/findwayBases.cpp **** }
 163:Src/findwayBases.cpp **** 
 164:Src/findwayBases.cpp **** 
GAS LISTING /tmp/ccE0ce2x.s 			page 4


 165:Src/findwayBases.cpp **** #define CONST 0.4
 166:Src/findwayBases.cpp **** 
 167:Src/findwayBases.cpp **** struct coords*  getCoordsOfCorner(const struct obstacle *obst, const uint8_t corner)
 168:Src/findwayBases.cpp **** {
 169:Src/findwayBases.cpp ****     struct coords *ret = (struct coords*)malloc(sizeof(struct coords));
 170:Src/findwayBases.cpp ****     switch (corner) {
 171:Src/findwayBases.cpp ****         case CORNER_LEFT_BOT:
 172:Src/findwayBases.cpp ****         {
 173:Src/findwayBases.cpp ****             ret->x = obst->c->x - CONST;
 174:Src/findwayBases.cpp ****             ret->y = obst->c->y - CONST;
 175:Src/findwayBases.cpp ****             break;
 176:Src/findwayBases.cpp ****         }
 177:Src/findwayBases.cpp ****         case CORNER_LEFT_TOP:
 178:Src/findwayBases.cpp ****         {
 179:Src/findwayBases.cpp ****             ret->x = obst->c->x - CONST;
 180:Src/findwayBases.cpp ****             ret->y = obst->c->y + obst->a + CONST;
 181:Src/findwayBases.cpp ****             break;
 182:Src/findwayBases.cpp ****         }
 183:Src/findwayBases.cpp ****         case CORNER_RIGHT_BOT:
 184:Src/findwayBases.cpp ****         {
 185:Src/findwayBases.cpp ****             ret->x = obst->c->x + obst->a + CONST;
 186:Src/findwayBases.cpp ****             ret->y = obst->c->y - CONST;
 187:Src/findwayBases.cpp ****             break;
 188:Src/findwayBases.cpp ****         }
 189:Src/findwayBases.cpp ****         case CORNER_RIGHT_TOP:
 190:Src/findwayBases.cpp ****         {
 191:Src/findwayBases.cpp ****             ret->x = obst->c->x + obst->a + CONST;
 192:Src/findwayBases.cpp ****             ret->y = obst->c->y + obst->a + CONST;
 193:Src/findwayBases.cpp ****             break;
 194:Src/findwayBases.cpp ****         }
 195:Src/findwayBases.cpp ****     }
 196:Src/findwayBases.cpp ****     return ret;
 197:Src/findwayBases.cpp **** }
 198:Src/findwayBases.cpp **** 
 199:Src/findwayBases.cpp **** 
 200:Src/findwayBases.cpp **** struct graphPoint* getPoint(const struct obstacle *obst, const uint8_t corner)
 201:Src/findwayBases.cpp **** {
 202:Src/findwayBases.cpp ****     return obst->corners[corner];
 203:Src/findwayBases.cpp **** }
 204:Src/findwayBases.cpp **** 
 205:Src/findwayBases.cpp **** 
 206:Src/findwayBases.cpp **** 
 207:Src/findwayBases.cpp **** bool            hasIntersection(const struct obstacle *obst, const struct vect *v)
 208:Src/findwayBases.cpp **** {
 209:Src/findwayBases.cpp ****     // if((obst->c->x - v->c->x) / v->dx < 0 || (obst->c->y - v->c->y) / v->dy < 0)
 210:Src/findwayBases.cpp ****     //     return false;
 211:Src/findwayBases.cpp ****     //
 212:Src/findwayBases.cpp ****     // struct coords   c1,
 213:Src/findwayBases.cpp ****     //                 c2,
 214:Src/findwayBases.cpp ****     //                 c3;
 215:Src/findwayBases.cpp ****     //
 216:Src/findwayBases.cpp ****     // struct baseline b,
 217:Src/findwayBases.cpp ****     //                 b2;
 218:Src/findwayBases.cpp ****     //
 219:Src/findwayBases.cpp ****     // b.k = INF;
 220:Src/findwayBases.cpp ****     // b.b = obst->c->x;
 221:Src/findwayBases.cpp ****     // b2 = vectToBaseline(v);
GAS LISTING /tmp/ccE0ce2x.s 			page 5


 222:Src/findwayBases.cpp ****     // c1 = getIntersection(&b, &b2);
 223:Src/findwayBases.cpp ****     //
 224:Src/findwayBases.cpp ****     //
 225:Src/findwayBases.cpp ****     // b.k = INF;
 226:Src/findwayBases.cpp ****     // b.b = obst->c->x + obst->a;
 227:Src/findwayBases.cpp ****     // c2 = getIntersection(&b, &b2);
 228:Src/findwayBases.cpp ****     //
 229:Src/findwayBases.cpp ****     //
 230:Src/findwayBases.cpp ****     // if(!isDotInside(&c1, obst) && isDotInside(&c2, obst))
 231:Src/findwayBases.cpp ****     // {
 232:Src/findwayBases.cpp ****     //     std::cout << "c1 not inside\n";
 233:Src/findwayBases.cpp ****     //     c1 = c2;
 234:Src/findwayBases.cpp ****     // }
 235:Src/findwayBases.cpp ****     // //have one intersection in c1 at here
 236:Src/findwayBases.cpp ****     //
 237:Src/findwayBases.cpp ****     // b.k = 0;
 238:Src/findwayBases.cpp ****     // b.b = obst->c->y;
 239:Src/findwayBases.cpp ****     // c2 = getIntersection(&b, &b2);
 240:Src/findwayBases.cpp ****     //
 241:Src/findwayBases.cpp ****     //
 242:Src/findwayBases.cpp ****     // b.k = 0;
 243:Src/findwayBases.cpp ****     // b.b = obst->c->y + obst->a;
 244:Src/findwayBases.cpp ****     // c3 = getIntersection(&b, &b2);
 245:Src/findwayBases.cpp ****     //
 246:Src/findwayBases.cpp ****     // if(!isDotInside(&c2, obst) && isDotInside(&c3, obst))
 247:Src/findwayBases.cpp ****     // {
 248:Src/findwayBases.cpp ****     //     std::cout << "c2 not inside\n";
 249:Src/findwayBases.cpp ****     //     c2 = c3;
 250:Src/findwayBases.cpp ****     // }
 251:Src/findwayBases.cpp ****     //
 252:Src/findwayBases.cpp ****     // if(!isDotInside(&c1, obst)
 253:Src/findwayBases.cpp ****     // && !isDotInside(&c2, obst))
 254:Src/findwayBases.cpp ****     //     return false;
 255:Src/findwayBases.cpp ****     //
 256:Src/findwayBases.cpp ****     // return true;
 257:Src/findwayBases.cpp ****     struct coords c = getIntersection(obst, v);
 258:Src/findwayBases.cpp ****     std::cout << "obst: " << obst->c->x << ":" << obst->c->y << "; vect: " << v->c->x << ":" << v->
 259:Src/findwayBases.cpp ****     if(c.x == -1 && c.y == -1)
 260:Src/findwayBases.cpp ****     {
 261:Src/findwayBases.cpp ****         std::cout << "have no intersection" << std::endl;
 262:Src/findwayBases.cpp ****         return false;
 263:Src/findwayBases.cpp ****     }
 264:Src/findwayBases.cpp ****     else
 265:Src/findwayBases.cpp ****     {
 266:Src/findwayBases.cpp ****         std::cout << "have intersection" << std::endl;
 267:Src/findwayBases.cpp ****         return true;
 268:Src/findwayBases.cpp ****     }
 269:Src/findwayBases.cpp **** }
 270:Src/findwayBases.cpp **** 
 271:Src/findwayBases.cpp **** 
 272:Src/findwayBases.cpp **** void            addTarget(struct graphPoint *start, struct graphPoint *end)
 273:Src/findwayBases.cpp **** {
 274:Src/findwayBases.cpp ****     start->targets = (struct graphPoint**)realloc(start->targets, (++(start->numOfTargets)) * sizeo
 275:Src/findwayBases.cpp ****     start->targets[start->numOfTargets - 1] = end;
 276:Src/findwayBases.cpp **** 
 277:Src/findwayBases.cpp ****     end->targets = (struct graphPoint**)realloc(end->targets, (++(end->numOfTargets)) * sizeof(stru
 278:Src/findwayBases.cpp ****     end->targets[end->numOfTargets - 1] = start;
GAS LISTING /tmp/ccE0ce2x.s 			page 6


 279:Src/findwayBases.cpp **** }
   9              		.loc 1 279 1 view -0
  10              		.cfi_startproc
  11              		.loc 1 279 1 is_stmt 0 view .LVU1
  12 0000 83FF01   		cmpl	$1, %edi
  13 0003 7401     		je	.L7
  14              	.L4:
  15 0005 C3       		ret
  16              	.L7:
  17              		.loc 1 279 1 discriminator 1 view .LVU2
  18 0006 81FEFFFF 		cmpl	$65535, %esi
  18      0000
  19 000c 75F7     		jne	.L4
  20              		.loc 1 279 1 view .LVU3
  21 000e 4883EC08 		subq	$8, %rsp
  22              		.cfi_def_cfa_offset 16
  23              		.file 2 "/usr/include/c++/9.1.0/iostream"
   1:/usr/include/c++/9.1.0/iostream **** // Standard iostream objects -*- C++ -*-
   2:/usr/include/c++/9.1.0/iostream **** 
   3:/usr/include/c++/9.1.0/iostream **** // Copyright (C) 1997-2019 Free Software Foundation, Inc.
   4:/usr/include/c++/9.1.0/iostream **** //
   5:/usr/include/c++/9.1.0/iostream **** // This file is part of the GNU ISO C++ Library.  This library is free
   6:/usr/include/c++/9.1.0/iostream **** // software; you can redistribute it and/or modify it under the
   7:/usr/include/c++/9.1.0/iostream **** // terms of the GNU General Public License as published by the
   8:/usr/include/c++/9.1.0/iostream **** // Free Software Foundation; either version 3, or (at your option)
   9:/usr/include/c++/9.1.0/iostream **** // any later version.
  10:/usr/include/c++/9.1.0/iostream **** 
  11:/usr/include/c++/9.1.0/iostream **** // This library is distributed in the hope that it will be useful,
  12:/usr/include/c++/9.1.0/iostream **** // but WITHOUT ANY WARRANTY; without even the implied warranty of
  13:/usr/include/c++/9.1.0/iostream **** // MERCHANTABILITY or FITNESS FOR A PARTICULAR PURPOSE.  See the
  14:/usr/include/c++/9.1.0/iostream **** // GNU General Public License for more details.
  15:/usr/include/c++/9.1.0/iostream **** 
  16:/usr/include/c++/9.1.0/iostream **** // Under Section 7 of GPL version 3, you are granted additional
  17:/usr/include/c++/9.1.0/iostream **** // permissions described in the GCC Runtime Library Exception, version
  18:/usr/include/c++/9.1.0/iostream **** // 3.1, as published by the Free Software Foundation.
  19:/usr/include/c++/9.1.0/iostream **** 
  20:/usr/include/c++/9.1.0/iostream **** // You should have received a copy of the GNU General Public License and
  21:/usr/include/c++/9.1.0/iostream **** // a copy of the GCC Runtime Library Exception along with this program;
  22:/usr/include/c++/9.1.0/iostream **** // see the files COPYING3 and COPYING.RUNTIME respectively.  If not, see
  23:/usr/include/c++/9.1.0/iostream **** // <http://www.gnu.org/licenses/>.
  24:/usr/include/c++/9.1.0/iostream **** 
  25:/usr/include/c++/9.1.0/iostream **** /** @file include/iostream
  26:/usr/include/c++/9.1.0/iostream ****  *  This is a Standard C++ Library header.
  27:/usr/include/c++/9.1.0/iostream ****  */
  28:/usr/include/c++/9.1.0/iostream **** 
  29:/usr/include/c++/9.1.0/iostream **** //
  30:/usr/include/c++/9.1.0/iostream **** // ISO C++ 14882: 27.3  Standard iostream objects
  31:/usr/include/c++/9.1.0/iostream **** //
  32:/usr/include/c++/9.1.0/iostream **** 
  33:/usr/include/c++/9.1.0/iostream **** #ifndef _GLIBCXX_IOSTREAM
  34:/usr/include/c++/9.1.0/iostream **** #define _GLIBCXX_IOSTREAM 1
  35:/usr/include/c++/9.1.0/iostream **** 
  36:/usr/include/c++/9.1.0/iostream **** #pragma GCC system_header
  37:/usr/include/c++/9.1.0/iostream **** 
  38:/usr/include/c++/9.1.0/iostream **** #include <bits/c++config.h>
  39:/usr/include/c++/9.1.0/iostream **** #include <ostream>
  40:/usr/include/c++/9.1.0/iostream **** #include <istream>
GAS LISTING /tmp/ccE0ce2x.s 			page 7


  41:/usr/include/c++/9.1.0/iostream **** 
  42:/usr/include/c++/9.1.0/iostream **** namespace std _GLIBCXX_VISIBILITY(default)
  43:/usr/include/c++/9.1.0/iostream **** {
  44:/usr/include/c++/9.1.0/iostream **** _GLIBCXX_BEGIN_NAMESPACE_VERSION
  45:/usr/include/c++/9.1.0/iostream **** 
  46:/usr/include/c++/9.1.0/iostream ****   /**
  47:/usr/include/c++/9.1.0/iostream ****    *  @name Standard Stream Objects
  48:/usr/include/c++/9.1.0/iostream ****    *
  49:/usr/include/c++/9.1.0/iostream ****    *  The &lt;iostream&gt; header declares the eight <em>standard stream
  50:/usr/include/c++/9.1.0/iostream ****    *  objects</em>.  For other declarations, see
  51:/usr/include/c++/9.1.0/iostream ****    *  http://gcc.gnu.org/onlinedocs/libstdc++/manual/io.html
  52:/usr/include/c++/9.1.0/iostream ****    *  and the @link iosfwd I/O forward declarations @endlink
  53:/usr/include/c++/9.1.0/iostream ****    *
  54:/usr/include/c++/9.1.0/iostream ****    *  They are required by default to cooperate with the global C
  55:/usr/include/c++/9.1.0/iostream ****    *  library's @c FILE streams, and to be available during program
  56:/usr/include/c++/9.1.0/iostream ****    *  startup and termination. For more information, see the section of the
  57:/usr/include/c++/9.1.0/iostream ****    *  manual linked to above.
  58:/usr/include/c++/9.1.0/iostream ****   */
  59:/usr/include/c++/9.1.0/iostream ****   //@{
  60:/usr/include/c++/9.1.0/iostream ****   extern istream cin;		/// Linked to standard input
  61:/usr/include/c++/9.1.0/iostream ****   extern ostream cout;		/// Linked to standard output
  62:/usr/include/c++/9.1.0/iostream ****   extern ostream cerr;		/// Linked to standard error (unbuffered)
  63:/usr/include/c++/9.1.0/iostream ****   extern ostream clog;		/// Linked to standard error (buffered)
  64:/usr/include/c++/9.1.0/iostream **** 
  65:/usr/include/c++/9.1.0/iostream **** #ifdef _GLIBCXX_USE_WCHAR_T
  66:/usr/include/c++/9.1.0/iostream ****   extern wistream wcin;		/// Linked to standard input
  67:/usr/include/c++/9.1.0/iostream ****   extern wostream wcout;	/// Linked to standard output
  68:/usr/include/c++/9.1.0/iostream ****   extern wostream wcerr;	/// Linked to standard error (unbuffered)
  69:/usr/include/c++/9.1.0/iostream ****   extern wostream wclog;	/// Linked to standard error (buffered)
  70:/usr/include/c++/9.1.0/iostream **** #endif
  71:/usr/include/c++/9.1.0/iostream ****   //@}
  72:/usr/include/c++/9.1.0/iostream **** 
  73:/usr/include/c++/9.1.0/iostream ****   // For construction of filebuffers for cout, cin, cerr, clog et. al.
  74:/usr/include/c++/9.1.0/iostream ****   static ios_base::Init __ioinit;
  24              		.loc 2 74 25 view .LVU4
  25 0012 488D3D00 		leaq	_ZStL8__ioinit(%rip), %rdi
  25      000000
  26              	.LVL1:
  27              		.loc 2 74 25 view .LVU5
  28 0019 E8000000 		call	_ZNSt8ios_base4InitC1Ev@PLT
  28      00
  29              	.LVL2:
  30              		.loc 2 74 25 view .LVU6
  31 001e 488D1500 		leaq	__dso_handle(%rip), %rdx
  31      000000
  32 0025 488D3500 		leaq	_ZStL8__ioinit(%rip), %rsi
  32      000000
  33 002c 488B3D00 		movq	_ZNSt8ios_base4InitD1Ev@GOTPCREL(%rip), %rdi
  33      000000
  34 0033 E8000000 		call	__cxa_atexit@PLT
  34      00
  35              	.LVL3:
  36              		.loc 1 279 1 view .LVU7
  37 0038 4883C408 		addq	$8, %rsp
  38              		.cfi_def_cfa_offset 8
  39 003c C3       		ret
  40              		.cfi_endproc
GAS LISTING /tmp/ccE0ce2x.s 			page 8


  41              	.LFE2062:
  43              		.globl	_Z15hasIntersectionPK8baselineS1_
  45              	_Z15hasIntersectionPK8baselineS1_:
  46              	.LVL4:
  47              	.LFB1718:
   5:Src/findwayBases.cpp ****     return b1->k != b2->k;
  48              		.loc 1 5 1 is_stmt 1 view -0
  49              		.cfi_startproc
   6:Src/findwayBases.cpp **** }
  50              		.loc 1 6 5 view .LVU9
   6:Src/findwayBases.cpp **** }
  51              		.loc 1 6 16 is_stmt 0 view .LVU10
  52 003d F30F1007 		movss	(%rdi), %xmm0
   6:Src/findwayBases.cpp **** }
  53              		.loc 1 6 25 view .LVU11
  54 0041 0F2E06   		ucomiss	(%rsi), %xmm0
  55 0044 0F9AC0   		setp	%al
  56 0047 BA010000 		movl	$1, %edx
  56      00
  57 004c 0F45C2   		cmovne	%edx, %eax
   7:Src/findwayBases.cpp **** 
  58              		.loc 1 7 1 view .LVU12
  59 004f C3       		ret
  60              		.cfi_endproc
  61              	.LFE1718:
  63              		.globl	_Z15getIntersectionPK8baselineS1_
  65              	_Z15getIntersectionPK8baselineS1_:
  66              	.LVL5:
  67              	.LFB1719:
  10:Src/findwayBases.cpp ****     struct coords ret;
  68              		.loc 1 10 1 is_stmt 1 view -0
  69              		.cfi_startproc
  11:Src/findwayBases.cpp **** 
  70              		.loc 1 11 5 view .LVU14
  13:Src/findwayBases.cpp ****     {
  71              		.loc 1 13 5 view .LVU15
  13:Src/findwayBases.cpp ****     {
  72              		.loc 1 13 12 is_stmt 0 view .LVU16
  73 0050 F30F100F 		movss	(%rdi), %xmm1
  74 0054 660FEFD2 		pxor	%xmm2, %xmm2
  75 0058 F30F5AD1 		cvtss2sd	%xmm1, %xmm2
  13:Src/findwayBases.cpp ****     {
  76              		.loc 1 13 17 view .LVU17
  77 005c F20F1005 		movsd	.LC0(%rip), %xmm0
  77      00000000 
  78 0064 F20F5E05 		divsd	.LC1(%rip), %xmm0
  78      00000000 
  13:Src/findwayBases.cpp ****     {
  79              		.loc 1 13 5 view .LVU18
  80 006c 660F2ED0 		ucomisd	%xmm0, %xmm2
  81 0070 7A31     		jp	.L16
  82 0072 752F     		jne	.L16
  83              	.L10:
  18:Src/findwayBases.cpp ****     {
  84              		.loc 1 18 10 is_stmt 1 view .LVU19
  85 0074 660F2ED0 		ucomisd	%xmm0, %xmm2
  86 0078 7A7F     		jp	.L14
GAS LISTING /tmp/ccE0ce2x.s 			page 9


  87 007a 757D     		jne	.L14
  20:Src/findwayBases.cpp ****         ret.y = b2->k * ret.x + b2->b;
  88              		.loc 1 20 9 view .LVU20
  20:Src/findwayBases.cpp ****         ret.y = b2->k * ret.x + b2->b;
  89              		.loc 1 20 21 is_stmt 0 view .LVU21
  90 007c F30F104F 		movss	4(%rdi), %xmm1
  90      04
  20:Src/findwayBases.cpp ****         ret.y = b2->k * ret.x + b2->b;
  91              		.loc 1 20 15 view .LVU22
  92 0081 0F28C1   		movaps	%xmm1, %xmm0
  21:Src/findwayBases.cpp ****     }
  93              		.loc 1 21 9 is_stmt 1 view .LVU23
  21:Src/findwayBases.cpp ****     }
  94              		.loc 1 21 23 is_stmt 0 view .LVU24
  95 0084 F30F590E 		mulss	(%rsi), %xmm1
  21:Src/findwayBases.cpp ****     }
  96              		.loc 1 21 15 view .LVU25
  97 0088 F30F584E 		addss	4(%rsi), %xmm1
  97      04
  98 008d 66480F7E 		movq	%xmm1, %rdx
  98      CA
  99 0092 48C1E220 		salq	$32, %rdx
 100 0096 660F7EC0 		movd	%xmm0, %eax
 101              	.LVL6:
  21:Src/findwayBases.cpp ****     }
 102              		.loc 1 21 15 view .LVU26
 103 009a 4809D0   		orq	%rdx, %rax
 104              	.LVL7:
 105              	.L13:
  29:Src/findwayBases.cpp **** }
 106              		.loc 1 29 5 is_stmt 1 view .LVU27
  30:Src/findwayBases.cpp **** 
 107              		.loc 1 30 1 is_stmt 0 view .LVU28
 108 009d 66480F6E 		movq	%rax, %xmm0
 108      C0
 109 00a2 C3       		ret
 110              	.LVL8:
 111              	.L16:
  13:Src/findwayBases.cpp ****     {
 112              		.loc 1 13 28 discriminator 1 view .LVU29
 113 00a3 F30F101E 		movss	(%rsi), %xmm3
 114 00a7 660FEFE4 		pxor	%xmm4, %xmm4
 115 00ab F30F5AE3 		cvtss2sd	%xmm3, %xmm4
  13:Src/findwayBases.cpp ****     {
 116              		.loc 1 13 21 discriminator 1 view .LVU30
 117 00af 660F2EC4 		ucomisd	%xmm4, %xmm0
 118 00b3 7A02     		jp	.L17
 119 00b5 74BD     		je	.L10
 120              	.L17:
  15:Src/findwayBases.cpp ****         ret.y = (b2->k * b1->b - b1->k * b2->b) / (b2->k - b1->k);
 121              		.loc 1 15 9 is_stmt 1 view .LVU31
  15:Src/findwayBases.cpp ****         ret.y = (b2->k * b1->b - b1->k * b2->b) / (b2->k - b1->k);
 122              		.loc 1 15 22 is_stmt 0 view .LVU32
 123 00b7 F30F1066 		movss	4(%rsi), %xmm4
 123      04
  15:Src/findwayBases.cpp ****         ret.y = (b2->k * b1->b - b1->k * b2->b) / (b2->k - b1->k);
 124              		.loc 1 15 30 view .LVU33
GAS LISTING /tmp/ccE0ce2x.s 			page 10


 125 00bc F30F1057 		movss	4(%rdi), %xmm2
 125      04
  15:Src/findwayBases.cpp ****         ret.y = (b2->k * b1->b - b1->k * b2->b) / (b2->k - b1->k);
 126              		.loc 1 15 24 view .LVU34
 127 00c1 0F28C4   		movaps	%xmm4, %xmm0
 128 00c4 F30F5CC2 		subss	%xmm2, %xmm0
  15:Src/findwayBases.cpp ****         ret.y = (b2->k * b1->b - b1->k * b2->b) / (b2->k - b1->k);
 129              		.loc 1 15 42 view .LVU35
 130 00c8 0F28E9   		movaps	%xmm1, %xmm5
 131 00cb F30F5CEB 		subss	%xmm3, %xmm5
  15:Src/findwayBases.cpp ****         ret.y = (b2->k * b1->b - b1->k * b2->b) / (b2->k - b1->k);
 132              		.loc 1 15 15 view .LVU36
 133 00cf F30F5EC5 		divss	%xmm5, %xmm0
  16:Src/findwayBases.cpp ****     }
 134              		.loc 1 16 9 is_stmt 1 view .LVU37
  16:Src/findwayBases.cpp ****     }
 135              		.loc 1 16 24 is_stmt 0 view .LVU38
 136 00d3 F30F59D3 		mulss	%xmm3, %xmm2
  16:Src/findwayBases.cpp ****     }
 137              		.loc 1 16 40 view .LVU39
 138 00d7 F30F59E1 		mulss	%xmm1, %xmm4
  16:Src/findwayBases.cpp ****     }
 139              		.loc 1 16 32 view .LVU40
 140 00db F30F5CD4 		subss	%xmm4, %xmm2
  16:Src/findwayBases.cpp ****     }
 141              		.loc 1 16 58 view .LVU41
 142 00df F30F5CD9 		subss	%xmm1, %xmm3
  16:Src/findwayBases.cpp ****     }
 143              		.loc 1 16 15 view .LVU42
 144 00e3 F30F5ED3 		divss	%xmm3, %xmm2
 145 00e7 66480F7E 		movq	%xmm2, %rdx
 145      D2
 146 00ec 48C1E220 		salq	$32, %rdx
 147 00f0 660F7EC0 		movd	%xmm0, %eax
 148              	.LVL9:
  16:Src/findwayBases.cpp ****     }
 149              		.loc 1 16 15 view .LVU43
 150 00f4 4809D0   		orq	%rdx, %rax
 151              	.LVL10:
  16:Src/findwayBases.cpp ****     }
 152              		.loc 1 16 15 view .LVU44
 153 00f7 EBA4     		jmp	.L13
 154              	.L14:
  25:Src/findwayBases.cpp ****         ret.y = b1->k * ret.x + b1->b;
 155              		.loc 1 25 9 is_stmt 1 view .LVU45
  25:Src/findwayBases.cpp ****         ret.y = b1->k * ret.x + b1->b;
 156              		.loc 1 25 21 is_stmt 0 view .LVU46
 157 00f9 F30F1056 		movss	4(%rsi), %xmm2
 157      04
  26:Src/findwayBases.cpp ****     }
 158              		.loc 1 26 9 is_stmt 1 view .LVU47
  26:Src/findwayBases.cpp ****     }
 159              		.loc 1 26 23 is_stmt 0 view .LVU48
 160 00fe F30F59CA 		mulss	%xmm2, %xmm1
  26:Src/findwayBases.cpp ****     }
 161              		.loc 1 26 15 view .LVU49
 162 0102 F30F584F 		addss	4(%rdi), %xmm1
GAS LISTING /tmp/ccE0ce2x.s 			page 11


 162      04
 163 0107 66480F7E 		movq	%xmm1, %rdx
 163      CA
 164 010c 48C1E220 		salq	$32, %rdx
 165 0110 660F7ED0 		movd	%xmm2, %eax
 166              	.LVL11:
  26:Src/findwayBases.cpp ****     }
 167              		.loc 1 26 15 view .LVU50
 168 0114 4809D0   		orq	%rdx, %rax
 169              	.LVL12:
  26:Src/findwayBases.cpp ****     }
 170              		.loc 1 26 15 view .LVU51
 171 0117 EB84     		jmp	.L13
 172              		.cfi_endproc
 173              	.LFE1719:
 175              		.globl	_Z11isDotInsidePK6coordsPK8obstacle
 177              	_Z11isDotInsidePK6coordsPK8obstacle:
 178              	.LVL13:
 179              	.LFB1724:
 109:Src/findwayBases.cpp ****     return      (dot->x >= obstacle->c->x)
 180              		.loc 1 109 1 is_stmt 1 view -0
 181              		.cfi_startproc
 110:Src/findwayBases.cpp ****             &&  (dot->x <= obstacle->c->x + obstacle->a)
 182              		.loc 1 110 5 view .LVU53
 110:Src/findwayBases.cpp ****             &&  (dot->x <= obstacle->c->x + obstacle->a)
 183              		.loc 1 110 23 is_stmt 0 view .LVU54
 184 0119 F30F100F 		movss	(%rdi), %xmm1
 110:Src/findwayBases.cpp ****             &&  (dot->x <= obstacle->c->x + obstacle->a)
 185              		.loc 1 110 38 view .LVU55
 186 011d 488B06   		movq	(%rsi), %rax
 110:Src/findwayBases.cpp ****             &&  (dot->x <= obstacle->c->x + obstacle->a)
 187              		.loc 1 110 41 view .LVU56
 188 0120 F30F1000 		movss	(%rax), %xmm0
 113:Src/findwayBases.cpp **** }
 189              		.loc 1 113 13 view .LVU57
 190 0124 0F2FC8   		comiss	%xmm0, %xmm1
 191 0127 722C     		jb	.L31
 111:Src/findwayBases.cpp ****             &&  (dot->y >= obstacle->c->y)
 192              		.loc 1 111 55 view .LVU58
 193 0129 F30F1056 		movss	40(%rsi), %xmm2
 193      28
 111:Src/findwayBases.cpp ****             &&  (dot->y >= obstacle->c->y)
 194              		.loc 1 111 43 view .LVU59
 195 012e F30F58C2 		addss	%xmm2, %xmm0
 111:Src/findwayBases.cpp ****             &&  (dot->y >= obstacle->c->y)
 196              		.loc 1 111 13 view .LVU60
 197 0132 0F2FC1   		comiss	%xmm1, %xmm0
 198 0135 7224     		jb	.L32
 112:Src/findwayBases.cpp ****             &&  (dot->y <= obstacle->c->y + obstacle->a);
 199              		.loc 1 112 23 view .LVU61
 200 0137 F30F1047 		movss	4(%rdi), %xmm0
 200      04
 112:Src/findwayBases.cpp ****             &&  (dot->y <= obstacle->c->y + obstacle->a);
 201              		.loc 1 112 41 view .LVU62
 202 013c F30F1048 		movss	4(%rax), %xmm1
 202      04
 112:Src/findwayBases.cpp ****             &&  (dot->y <= obstacle->c->y + obstacle->a);
GAS LISTING /tmp/ccE0ce2x.s 			page 12


 203              		.loc 1 112 13 view .LVU63
 204 0141 0F2FC1   		comiss	%xmm1, %xmm0
 205 0144 721B     		jb	.L33
 113:Src/findwayBases.cpp **** }
 206              		.loc 1 113 43 discriminator 3 view .LVU64
 207 0146 F30F58D1 		addss	%xmm1, %xmm2
 113:Src/findwayBases.cpp **** }
 208              		.loc 1 113 13 discriminator 3 view .LVU65
 209 014a 0F2FD0   		comiss	%xmm0, %xmm2
 210 014d 7318     		jnb	.L27
 113:Src/findwayBases.cpp **** }
 211              		.loc 1 113 13 view .LVU66
 212 014f B8000000 		movl	$0, %eax
 212      00
 213 0154 C3       		ret
 214              	.L31:
 215 0155 B8000000 		movl	$0, %eax
 215      00
 216 015a C3       		ret
 217              	.L32:
 218 015b B8000000 		movl	$0, %eax
 218      00
 219 0160 C3       		ret
 220              	.L33:
 221 0161 B8000000 		movl	$0, %eax
 221      00
 222 0166 C3       		ret
 223              	.L27:
 224 0167 B8010000 		movl	$1, %eax
 224      00
 114:Src/findwayBases.cpp **** 
 225              		.loc 1 114 1 view .LVU67
 226 016c C3       		ret
 227              		.cfi_endproc
 228              	.LFE1724:
 230              		.globl	_Z14vectToBaselinePK4vect
 232              	_Z14vectToBaselinePK4vect:
 233              	.LVL14:
 234              	.LFB1725:
 117:Src/findwayBases.cpp ****     struct baseline ret;
 235              		.loc 1 117 1 is_stmt 1 view -0
 236              		.cfi_startproc
 118:Src/findwayBases.cpp **** 
 237              		.loc 1 118 5 view .LVU69
 120:Src/findwayBases.cpp ****     ret.b = v->c->y - v->c->x * ret.k;
 238              		.loc 1 120 5 view .LVU70
 120:Src/findwayBases.cpp ****     ret.b = v->c->y - v->c->x * ret.k;
 239              		.loc 1 120 16 is_stmt 0 view .LVU71
 240 016d F30F1047 		movss	12(%rdi), %xmm0
 240      0C
 120:Src/findwayBases.cpp ****     ret.b = v->c->y - v->c->x * ret.k;
 241              		.loc 1 120 19 view .LVU72
 242 0172 F30F5E47 		divss	8(%rdi), %xmm0
 242      08
 120:Src/findwayBases.cpp ****     ret.b = v->c->y - v->c->x * ret.k;
 243              		.loc 1 120 11 view .LVU73
 244 0177 0F28C8   		movaps	%xmm0, %xmm1
GAS LISTING /tmp/ccE0ce2x.s 			page 13


 121:Src/findwayBases.cpp **** 
 245              		.loc 1 121 5 is_stmt 1 view .LVU74
 121:Src/findwayBases.cpp **** 
 246              		.loc 1 121 16 is_stmt 0 view .LVU75
 247 017a 488B17   		movq	(%rdi), %rdx
 121:Src/findwayBases.cpp **** 
 248              		.loc 1 121 19 view .LVU76
 249 017d F30F1052 		movss	4(%rdx), %xmm2
 249      04
 121:Src/findwayBases.cpp **** 
 250              		.loc 1 121 31 view .LVU77
 251 0182 F30F5902 		mulss	(%rdx), %xmm0
 121:Src/findwayBases.cpp **** 
 252              		.loc 1 121 11 view .LVU78
 253 0186 F30F5CD0 		subss	%xmm0, %xmm2
 254 018a 660F7ED0 		movd	%xmm2, %eax
 255 018e 4889C2   		movq	%rax, %rdx
 256 0191 48C1E220 		salq	$32, %rdx
 257 0195 660F7EC8 		movd	%xmm1, %eax
 258              	.LVL15:
 121:Src/findwayBases.cpp **** 
 259              		.loc 1 121 11 view .LVU79
 260 0199 4809D0   		orq	%rdx, %rax
 261              	.LVL16:
 123:Src/findwayBases.cpp **** }
 262              		.loc 1 123 5 is_stmt 1 view .LVU80
 124:Src/findwayBases.cpp **** 
 263              		.loc 1 124 1 is_stmt 0 view .LVU81
 264 019c 66480F6E 		movq	%rax, %xmm0
 264      C0
 265 01a1 C3       		ret
 266              		.cfi_endproc
 267              	.LFE1725:
 269              		.globl	_Z6getLenPK6coordsS1_
 271              	_Z6getLenPK6coordsS1_:
 272              	.LVL17:
 273              	.LFB1726:
 127:Src/findwayBases.cpp ****     COORDS_DATATYPE lx = c1->x - c2->x,
 274              		.loc 1 127 1 is_stmt 1 view -0
 275              		.cfi_startproc
 127:Src/findwayBases.cpp ****     COORDS_DATATYPE lx = c1->x - c2->x,
 276              		.loc 1 127 1 is_stmt 0 view .LVU83
 277 01a2 4883EC08 		subq	$8, %rsp
 278              		.cfi_def_cfa_offset 16
 128:Src/findwayBases.cpp ****                     ly = c1->y - c2->y,
 279              		.loc 1 128 5 is_stmt 1 view .LVU84
 128:Src/findwayBases.cpp ****                     ly = c1->y - c2->y,
 280              		.loc 1 128 30 is_stmt 0 view .LVU85
 281 01a6 F30F1007 		movss	(%rdi), %xmm0
 128:Src/findwayBases.cpp ****                     ly = c1->y - c2->y,
 282              		.loc 1 128 21 view .LVU86
 283 01aa F30F5C06 		subss	(%rsi), %xmm0
 284              	.LVL18:
 129:Src/findwayBases.cpp ****                     l  = sqrt(sqr(lx) + sqr(ly));
 285              		.loc 1 129 30 view .LVU87
 286 01ae F30F104F 		movss	4(%rdi), %xmm1
 286      04
GAS LISTING /tmp/ccE0ce2x.s 			page 14


 129:Src/findwayBases.cpp ****                     l  = sqrt(sqr(lx) + sqr(ly));
 287              		.loc 1 129 21 view .LVU88
 288 01b3 F30F5C4E 		subss	4(%rsi), %xmm1
 288      04
 289              	.LVL19:
 130:Src/findwayBases.cpp **** 
 290              		.loc 1 130 31 view .LVU89
 291 01b8 F30F59C0 		mulss	%xmm0, %xmm0
 292              	.LVL20:
 130:Src/findwayBases.cpp **** 
 293              		.loc 1 130 41 view .LVU90
 294 01bc F30F59C9 		mulss	%xmm1, %xmm1
 295              	.LVL21:
 130:Src/findwayBases.cpp **** 
 296              		.loc 1 130 30 view .LVU91
 297 01c0 F30F58C1 		addss	%xmm1, %xmm0
 298              	.LVL22:
 299              	.LBB98:
 300              	.LBI98:
 301              		.file 3 "/usr/include/c++/9.1.0/cmath"
   1:/usr/include/c++/9.1.0/cmath **** // -*- C++ -*- C forwarding header.
   2:/usr/include/c++/9.1.0/cmath **** 
   3:/usr/include/c++/9.1.0/cmath **** // Copyright (C) 1997-2019 Free Software Foundation, Inc.
   4:/usr/include/c++/9.1.0/cmath **** //
   5:/usr/include/c++/9.1.0/cmath **** // This file is part of the GNU ISO C++ Library.  This library is free
   6:/usr/include/c++/9.1.0/cmath **** // software; you can redistribute it and/or modify it under the
   7:/usr/include/c++/9.1.0/cmath **** // terms of the GNU General Public License as published by the
   8:/usr/include/c++/9.1.0/cmath **** // Free Software Foundation; either version 3, or (at your option)
   9:/usr/include/c++/9.1.0/cmath **** // any later version.
  10:/usr/include/c++/9.1.0/cmath **** 
  11:/usr/include/c++/9.1.0/cmath **** // This library is distributed in the hope that it will be useful,
  12:/usr/include/c++/9.1.0/cmath **** // but WITHOUT ANY WARRANTY; without even the implied warranty of
  13:/usr/include/c++/9.1.0/cmath **** // MERCHANTABILITY or FITNESS FOR A PARTICULAR PURPOSE.  See the
  14:/usr/include/c++/9.1.0/cmath **** // GNU General Public License for more details.
  15:/usr/include/c++/9.1.0/cmath **** 
  16:/usr/include/c++/9.1.0/cmath **** // Under Section 7 of GPL version 3, you are granted additional
  17:/usr/include/c++/9.1.0/cmath **** // permissions described in the GCC Runtime Library Exception, version
  18:/usr/include/c++/9.1.0/cmath **** // 3.1, as published by the Free Software Foundation.
  19:/usr/include/c++/9.1.0/cmath **** 
  20:/usr/include/c++/9.1.0/cmath **** // You should have received a copy of the GNU General Public License and
  21:/usr/include/c++/9.1.0/cmath **** // a copy of the GCC Runtime Library Exception along with this program;
  22:/usr/include/c++/9.1.0/cmath **** // see the files COPYING3 and COPYING.RUNTIME respectively.  If not, see
  23:/usr/include/c++/9.1.0/cmath **** // <http://www.gnu.org/licenses/>.
  24:/usr/include/c++/9.1.0/cmath **** 
  25:/usr/include/c++/9.1.0/cmath **** /** @file include/cmath
  26:/usr/include/c++/9.1.0/cmath ****  *  This is a Standard C++ Library file.  You should @c \#include this file
  27:/usr/include/c++/9.1.0/cmath ****  *  in your programs, rather than any of the @a *.h implementation files.
  28:/usr/include/c++/9.1.0/cmath ****  *
  29:/usr/include/c++/9.1.0/cmath ****  *  This is the C++ version of the Standard C Library header @c math.h,
  30:/usr/include/c++/9.1.0/cmath ****  *  and its contents are (mostly) the same as that header, but are all
  31:/usr/include/c++/9.1.0/cmath ****  *  contained in the namespace @c std (except for names which are defined
  32:/usr/include/c++/9.1.0/cmath ****  *  as macros in C).
  33:/usr/include/c++/9.1.0/cmath ****  */
  34:/usr/include/c++/9.1.0/cmath **** 
  35:/usr/include/c++/9.1.0/cmath **** //
  36:/usr/include/c++/9.1.0/cmath **** // ISO C++ 14882: 26.5  C library
  37:/usr/include/c++/9.1.0/cmath **** //
GAS LISTING /tmp/ccE0ce2x.s 			page 15


  38:/usr/include/c++/9.1.0/cmath **** 
  39:/usr/include/c++/9.1.0/cmath **** #pragma GCC system_header
  40:/usr/include/c++/9.1.0/cmath **** 
  41:/usr/include/c++/9.1.0/cmath **** #include <bits/c++config.h>
  42:/usr/include/c++/9.1.0/cmath **** #include <bits/cpp_type_traits.h>
  43:/usr/include/c++/9.1.0/cmath **** #include <ext/type_traits.h>
  44:/usr/include/c++/9.1.0/cmath **** #define _GLIBCXX_INCLUDE_NEXT_C_HEADERS
  45:/usr/include/c++/9.1.0/cmath **** #include_next <math.h>
  46:/usr/include/c++/9.1.0/cmath **** #undef _GLIBCXX_INCLUDE_NEXT_C_HEADERS
  47:/usr/include/c++/9.1.0/cmath **** #include <bits/std_abs.h>
  48:/usr/include/c++/9.1.0/cmath **** 
  49:/usr/include/c++/9.1.0/cmath **** #ifndef _GLIBCXX_CMATH
  50:/usr/include/c++/9.1.0/cmath **** #define _GLIBCXX_CMATH 1
  51:/usr/include/c++/9.1.0/cmath **** 
  52:/usr/include/c++/9.1.0/cmath **** // Get rid of those macros defined in <math.h> in lieu of real functions.
  53:/usr/include/c++/9.1.0/cmath **** #undef div
  54:/usr/include/c++/9.1.0/cmath **** #undef acos
  55:/usr/include/c++/9.1.0/cmath **** #undef asin
  56:/usr/include/c++/9.1.0/cmath **** #undef atan
  57:/usr/include/c++/9.1.0/cmath **** #undef atan2
  58:/usr/include/c++/9.1.0/cmath **** #undef ceil
  59:/usr/include/c++/9.1.0/cmath **** #undef cos
  60:/usr/include/c++/9.1.0/cmath **** #undef cosh
  61:/usr/include/c++/9.1.0/cmath **** #undef exp
  62:/usr/include/c++/9.1.0/cmath **** #undef fabs
  63:/usr/include/c++/9.1.0/cmath **** #undef floor
  64:/usr/include/c++/9.1.0/cmath **** #undef fmod
  65:/usr/include/c++/9.1.0/cmath **** #undef frexp
  66:/usr/include/c++/9.1.0/cmath **** #undef ldexp
  67:/usr/include/c++/9.1.0/cmath **** #undef log
  68:/usr/include/c++/9.1.0/cmath **** #undef log10
  69:/usr/include/c++/9.1.0/cmath **** #undef modf
  70:/usr/include/c++/9.1.0/cmath **** #undef pow
  71:/usr/include/c++/9.1.0/cmath **** #undef sin
  72:/usr/include/c++/9.1.0/cmath **** #undef sinh
  73:/usr/include/c++/9.1.0/cmath **** #undef sqrt
  74:/usr/include/c++/9.1.0/cmath **** #undef tan
  75:/usr/include/c++/9.1.0/cmath **** #undef tanh
  76:/usr/include/c++/9.1.0/cmath **** 
  77:/usr/include/c++/9.1.0/cmath **** extern "C++"
  78:/usr/include/c++/9.1.0/cmath **** {
  79:/usr/include/c++/9.1.0/cmath **** namespace std _GLIBCXX_VISIBILITY(default)
  80:/usr/include/c++/9.1.0/cmath **** {
  81:/usr/include/c++/9.1.0/cmath **** _GLIBCXX_BEGIN_NAMESPACE_VERSION
  82:/usr/include/c++/9.1.0/cmath **** 
  83:/usr/include/c++/9.1.0/cmath ****   using ::acos;
  84:/usr/include/c++/9.1.0/cmath **** 
  85:/usr/include/c++/9.1.0/cmath **** #ifndef __CORRECT_ISO_CPP_MATH_H_PROTO
  86:/usr/include/c++/9.1.0/cmath ****   inline _GLIBCXX_CONSTEXPR float
  87:/usr/include/c++/9.1.0/cmath ****   acos(float __x)
  88:/usr/include/c++/9.1.0/cmath ****   { return __builtin_acosf(__x); }
  89:/usr/include/c++/9.1.0/cmath **** 
  90:/usr/include/c++/9.1.0/cmath ****   inline _GLIBCXX_CONSTEXPR long double
  91:/usr/include/c++/9.1.0/cmath ****   acos(long double __x)
  92:/usr/include/c++/9.1.0/cmath ****   { return __builtin_acosl(__x); }
  93:/usr/include/c++/9.1.0/cmath **** #endif
  94:/usr/include/c++/9.1.0/cmath **** 
GAS LISTING /tmp/ccE0ce2x.s 			page 16


  95:/usr/include/c++/9.1.0/cmath ****   template<typename _Tp>
  96:/usr/include/c++/9.1.0/cmath ****     inline _GLIBCXX_CONSTEXPR
  97:/usr/include/c++/9.1.0/cmath ****     typename __gnu_cxx::__enable_if<__is_integer<_Tp>::__value, 
  98:/usr/include/c++/9.1.0/cmath ****                                     double>::__type
  99:/usr/include/c++/9.1.0/cmath ****     acos(_Tp __x)
 100:/usr/include/c++/9.1.0/cmath ****     { return __builtin_acos(__x); }
 101:/usr/include/c++/9.1.0/cmath **** 
 102:/usr/include/c++/9.1.0/cmath ****   using ::asin;
 103:/usr/include/c++/9.1.0/cmath **** 
 104:/usr/include/c++/9.1.0/cmath **** #ifndef __CORRECT_ISO_CPP_MATH_H_PROTO
 105:/usr/include/c++/9.1.0/cmath ****   inline _GLIBCXX_CONSTEXPR float
 106:/usr/include/c++/9.1.0/cmath ****   asin(float __x)
 107:/usr/include/c++/9.1.0/cmath ****   { return __builtin_asinf(__x); }
 108:/usr/include/c++/9.1.0/cmath **** 
 109:/usr/include/c++/9.1.0/cmath ****   inline _GLIBCXX_CONSTEXPR long double
 110:/usr/include/c++/9.1.0/cmath ****   asin(long double __x)
 111:/usr/include/c++/9.1.0/cmath ****   { return __builtin_asinl(__x); }
 112:/usr/include/c++/9.1.0/cmath **** #endif
 113:/usr/include/c++/9.1.0/cmath **** 
 114:/usr/include/c++/9.1.0/cmath ****   template<typename _Tp>
 115:/usr/include/c++/9.1.0/cmath ****     inline _GLIBCXX_CONSTEXPR
 116:/usr/include/c++/9.1.0/cmath ****     typename __gnu_cxx::__enable_if<__is_integer<_Tp>::__value,
 117:/usr/include/c++/9.1.0/cmath ****                                     double>::__type
 118:/usr/include/c++/9.1.0/cmath ****     asin(_Tp __x)
 119:/usr/include/c++/9.1.0/cmath ****     { return __builtin_asin(__x); }
 120:/usr/include/c++/9.1.0/cmath **** 
 121:/usr/include/c++/9.1.0/cmath ****   using ::atan;
 122:/usr/include/c++/9.1.0/cmath **** 
 123:/usr/include/c++/9.1.0/cmath **** #ifndef __CORRECT_ISO_CPP_MATH_H_PROTO
 124:/usr/include/c++/9.1.0/cmath ****   inline _GLIBCXX_CONSTEXPR float
 125:/usr/include/c++/9.1.0/cmath ****   atan(float __x)
 126:/usr/include/c++/9.1.0/cmath ****   { return __builtin_atanf(__x); }
 127:/usr/include/c++/9.1.0/cmath **** 
 128:/usr/include/c++/9.1.0/cmath ****   inline _GLIBCXX_CONSTEXPR long double
 129:/usr/include/c++/9.1.0/cmath ****   atan(long double __x)
 130:/usr/include/c++/9.1.0/cmath ****   { return __builtin_atanl(__x); }
 131:/usr/include/c++/9.1.0/cmath **** #endif
 132:/usr/include/c++/9.1.0/cmath **** 
 133:/usr/include/c++/9.1.0/cmath ****   template<typename _Tp>
 134:/usr/include/c++/9.1.0/cmath ****     inline _GLIBCXX_CONSTEXPR
 135:/usr/include/c++/9.1.0/cmath ****     typename __gnu_cxx::__enable_if<__is_integer<_Tp>::__value,
 136:/usr/include/c++/9.1.0/cmath ****                                     double>::__type
 137:/usr/include/c++/9.1.0/cmath ****     atan(_Tp __x)
 138:/usr/include/c++/9.1.0/cmath ****     { return __builtin_atan(__x); }
 139:/usr/include/c++/9.1.0/cmath **** 
 140:/usr/include/c++/9.1.0/cmath ****   using ::atan2;
 141:/usr/include/c++/9.1.0/cmath **** 
 142:/usr/include/c++/9.1.0/cmath **** #ifndef __CORRECT_ISO_CPP_MATH_H_PROTO
 143:/usr/include/c++/9.1.0/cmath ****   inline _GLIBCXX_CONSTEXPR float
 144:/usr/include/c++/9.1.0/cmath ****   atan2(float __y, float __x)
 145:/usr/include/c++/9.1.0/cmath ****   { return __builtin_atan2f(__y, __x); }
 146:/usr/include/c++/9.1.0/cmath **** 
 147:/usr/include/c++/9.1.0/cmath ****   inline _GLIBCXX_CONSTEXPR long double
 148:/usr/include/c++/9.1.0/cmath ****   atan2(long double __y, long double __x)
 149:/usr/include/c++/9.1.0/cmath ****   { return __builtin_atan2l(__y, __x); }
 150:/usr/include/c++/9.1.0/cmath **** #endif
 151:/usr/include/c++/9.1.0/cmath **** 
GAS LISTING /tmp/ccE0ce2x.s 			page 17


 152:/usr/include/c++/9.1.0/cmath ****   template<typename _Tp, typename _Up>
 153:/usr/include/c++/9.1.0/cmath ****     inline _GLIBCXX_CONSTEXPR
 154:/usr/include/c++/9.1.0/cmath ****     typename __gnu_cxx::__promote_2<_Tp, _Up>::__type
 155:/usr/include/c++/9.1.0/cmath ****     atan2(_Tp __y, _Up __x)
 156:/usr/include/c++/9.1.0/cmath ****     {
 157:/usr/include/c++/9.1.0/cmath ****       typedef typename __gnu_cxx::__promote_2<_Tp, _Up>::__type __type;
 158:/usr/include/c++/9.1.0/cmath ****       return atan2(__type(__y), __type(__x));
 159:/usr/include/c++/9.1.0/cmath ****     }
 160:/usr/include/c++/9.1.0/cmath **** 
 161:/usr/include/c++/9.1.0/cmath ****   using ::ceil;
 162:/usr/include/c++/9.1.0/cmath **** 
 163:/usr/include/c++/9.1.0/cmath **** #ifndef __CORRECT_ISO_CPP_MATH_H_PROTO
 164:/usr/include/c++/9.1.0/cmath ****   inline _GLIBCXX_CONSTEXPR float
 165:/usr/include/c++/9.1.0/cmath ****   ceil(float __x)
 166:/usr/include/c++/9.1.0/cmath ****   { return __builtin_ceilf(__x); }
 167:/usr/include/c++/9.1.0/cmath **** 
 168:/usr/include/c++/9.1.0/cmath ****   inline _GLIBCXX_CONSTEXPR long double
 169:/usr/include/c++/9.1.0/cmath ****   ceil(long double __x)
 170:/usr/include/c++/9.1.0/cmath ****   { return __builtin_ceill(__x); }
 171:/usr/include/c++/9.1.0/cmath **** #endif
 172:/usr/include/c++/9.1.0/cmath **** 
 173:/usr/include/c++/9.1.0/cmath ****   template<typename _Tp>
 174:/usr/include/c++/9.1.0/cmath ****     inline _GLIBCXX_CONSTEXPR
 175:/usr/include/c++/9.1.0/cmath ****     typename __gnu_cxx::__enable_if<__is_integer<_Tp>::__value, 
 176:/usr/include/c++/9.1.0/cmath ****                                     double>::__type
 177:/usr/include/c++/9.1.0/cmath ****     ceil(_Tp __x)
 178:/usr/include/c++/9.1.0/cmath ****     { return __builtin_ceil(__x); }
 179:/usr/include/c++/9.1.0/cmath **** 
 180:/usr/include/c++/9.1.0/cmath ****   using ::cos;
 181:/usr/include/c++/9.1.0/cmath **** 
 182:/usr/include/c++/9.1.0/cmath **** #ifndef __CORRECT_ISO_CPP_MATH_H_PROTO
 183:/usr/include/c++/9.1.0/cmath ****   inline _GLIBCXX_CONSTEXPR float
 184:/usr/include/c++/9.1.0/cmath ****   cos(float __x)
 185:/usr/include/c++/9.1.0/cmath ****   { return __builtin_cosf(__x); }
 186:/usr/include/c++/9.1.0/cmath **** 
 187:/usr/include/c++/9.1.0/cmath ****   inline _GLIBCXX_CONSTEXPR long double
 188:/usr/include/c++/9.1.0/cmath ****   cos(long double __x)
 189:/usr/include/c++/9.1.0/cmath ****   { return __builtin_cosl(__x); }
 190:/usr/include/c++/9.1.0/cmath **** #endif
 191:/usr/include/c++/9.1.0/cmath **** 
 192:/usr/include/c++/9.1.0/cmath ****   template<typename _Tp>
 193:/usr/include/c++/9.1.0/cmath ****     inline _GLIBCXX_CONSTEXPR
 194:/usr/include/c++/9.1.0/cmath ****     typename __gnu_cxx::__enable_if<__is_integer<_Tp>::__value,
 195:/usr/include/c++/9.1.0/cmath ****                                     double>::__type
 196:/usr/include/c++/9.1.0/cmath ****     cos(_Tp __x)
 197:/usr/include/c++/9.1.0/cmath ****     { return __builtin_cos(__x); }
 198:/usr/include/c++/9.1.0/cmath **** 
 199:/usr/include/c++/9.1.0/cmath ****   using ::cosh;
 200:/usr/include/c++/9.1.0/cmath **** 
 201:/usr/include/c++/9.1.0/cmath **** #ifndef __CORRECT_ISO_CPP_MATH_H_PROTO
 202:/usr/include/c++/9.1.0/cmath ****   inline _GLIBCXX_CONSTEXPR float
 203:/usr/include/c++/9.1.0/cmath ****   cosh(float __x)
 204:/usr/include/c++/9.1.0/cmath ****   { return __builtin_coshf(__x); }
 205:/usr/include/c++/9.1.0/cmath **** 
 206:/usr/include/c++/9.1.0/cmath ****   inline _GLIBCXX_CONSTEXPR long double
 207:/usr/include/c++/9.1.0/cmath ****   cosh(long double __x)
 208:/usr/include/c++/9.1.0/cmath ****   { return __builtin_coshl(__x); }
GAS LISTING /tmp/ccE0ce2x.s 			page 18


 209:/usr/include/c++/9.1.0/cmath **** #endif
 210:/usr/include/c++/9.1.0/cmath **** 
 211:/usr/include/c++/9.1.0/cmath ****   template<typename _Tp>
 212:/usr/include/c++/9.1.0/cmath ****     inline _GLIBCXX_CONSTEXPR
 213:/usr/include/c++/9.1.0/cmath ****     typename __gnu_cxx::__enable_if<__is_integer<_Tp>::__value,
 214:/usr/include/c++/9.1.0/cmath ****                                     double>::__type
 215:/usr/include/c++/9.1.0/cmath ****     cosh(_Tp __x)
 216:/usr/include/c++/9.1.0/cmath ****     { return __builtin_cosh(__x); }
 217:/usr/include/c++/9.1.0/cmath **** 
 218:/usr/include/c++/9.1.0/cmath ****   using ::exp;
 219:/usr/include/c++/9.1.0/cmath **** 
 220:/usr/include/c++/9.1.0/cmath **** #ifndef __CORRECT_ISO_CPP_MATH_H_PROTO
 221:/usr/include/c++/9.1.0/cmath ****   inline _GLIBCXX_CONSTEXPR float
 222:/usr/include/c++/9.1.0/cmath ****   exp(float __x)
 223:/usr/include/c++/9.1.0/cmath ****   { return __builtin_expf(__x); }
 224:/usr/include/c++/9.1.0/cmath **** 
 225:/usr/include/c++/9.1.0/cmath ****   inline _GLIBCXX_CONSTEXPR long double
 226:/usr/include/c++/9.1.0/cmath ****   exp(long double __x)
 227:/usr/include/c++/9.1.0/cmath ****   { return __builtin_expl(__x); }
 228:/usr/include/c++/9.1.0/cmath **** #endif
 229:/usr/include/c++/9.1.0/cmath **** 
 230:/usr/include/c++/9.1.0/cmath ****   template<typename _Tp>
 231:/usr/include/c++/9.1.0/cmath ****     inline _GLIBCXX_CONSTEXPR
 232:/usr/include/c++/9.1.0/cmath ****     typename __gnu_cxx::__enable_if<__is_integer<_Tp>::__value,
 233:/usr/include/c++/9.1.0/cmath ****                                     double>::__type
 234:/usr/include/c++/9.1.0/cmath ****     exp(_Tp __x)
 235:/usr/include/c++/9.1.0/cmath ****     { return __builtin_exp(__x); }
 236:/usr/include/c++/9.1.0/cmath **** 
 237:/usr/include/c++/9.1.0/cmath ****   using ::fabs;
 238:/usr/include/c++/9.1.0/cmath **** 
 239:/usr/include/c++/9.1.0/cmath **** #ifndef __CORRECT_ISO_CPP_MATH_H_PROTO
 240:/usr/include/c++/9.1.0/cmath ****   inline _GLIBCXX_CONSTEXPR float
 241:/usr/include/c++/9.1.0/cmath ****   fabs(float __x)
 242:/usr/include/c++/9.1.0/cmath ****   { return __builtin_fabsf(__x); }
 243:/usr/include/c++/9.1.0/cmath **** 
 244:/usr/include/c++/9.1.0/cmath ****   inline _GLIBCXX_CONSTEXPR long double
 245:/usr/include/c++/9.1.0/cmath ****   fabs(long double __x)
 246:/usr/include/c++/9.1.0/cmath ****   { return __builtin_fabsl(__x); }
 247:/usr/include/c++/9.1.0/cmath **** #endif
 248:/usr/include/c++/9.1.0/cmath **** 
 249:/usr/include/c++/9.1.0/cmath ****   template<typename _Tp>
 250:/usr/include/c++/9.1.0/cmath ****     inline _GLIBCXX_CONSTEXPR
 251:/usr/include/c++/9.1.0/cmath ****     typename __gnu_cxx::__enable_if<__is_integer<_Tp>::__value,
 252:/usr/include/c++/9.1.0/cmath ****                                     double>::__type
 253:/usr/include/c++/9.1.0/cmath ****     fabs(_Tp __x)
 254:/usr/include/c++/9.1.0/cmath ****     { return __builtin_fabs(__x); }
 255:/usr/include/c++/9.1.0/cmath **** 
 256:/usr/include/c++/9.1.0/cmath ****   using ::floor;
 257:/usr/include/c++/9.1.0/cmath **** 
 258:/usr/include/c++/9.1.0/cmath **** #ifndef __CORRECT_ISO_CPP_MATH_H_PROTO
 259:/usr/include/c++/9.1.0/cmath ****   inline _GLIBCXX_CONSTEXPR float
 260:/usr/include/c++/9.1.0/cmath ****   floor(float __x)
 261:/usr/include/c++/9.1.0/cmath ****   { return __builtin_floorf(__x); }
 262:/usr/include/c++/9.1.0/cmath **** 
 263:/usr/include/c++/9.1.0/cmath ****   inline _GLIBCXX_CONSTEXPR long double
 264:/usr/include/c++/9.1.0/cmath ****   floor(long double __x)
 265:/usr/include/c++/9.1.0/cmath ****   { return __builtin_floorl(__x); }
GAS LISTING /tmp/ccE0ce2x.s 			page 19


 266:/usr/include/c++/9.1.0/cmath **** #endif
 267:/usr/include/c++/9.1.0/cmath **** 
 268:/usr/include/c++/9.1.0/cmath ****   template<typename _Tp>
 269:/usr/include/c++/9.1.0/cmath ****     inline _GLIBCXX_CONSTEXPR
 270:/usr/include/c++/9.1.0/cmath ****     typename __gnu_cxx::__enable_if<__is_integer<_Tp>::__value,
 271:/usr/include/c++/9.1.0/cmath ****                                     double>::__type
 272:/usr/include/c++/9.1.0/cmath ****     floor(_Tp __x)
 273:/usr/include/c++/9.1.0/cmath ****     { return __builtin_floor(__x); }
 274:/usr/include/c++/9.1.0/cmath **** 
 275:/usr/include/c++/9.1.0/cmath ****   using ::fmod;
 276:/usr/include/c++/9.1.0/cmath **** 
 277:/usr/include/c++/9.1.0/cmath **** #ifndef __CORRECT_ISO_CPP_MATH_H_PROTO
 278:/usr/include/c++/9.1.0/cmath ****   inline _GLIBCXX_CONSTEXPR float
 279:/usr/include/c++/9.1.0/cmath ****   fmod(float __x, float __y)
 280:/usr/include/c++/9.1.0/cmath ****   { return __builtin_fmodf(__x, __y); }
 281:/usr/include/c++/9.1.0/cmath **** 
 282:/usr/include/c++/9.1.0/cmath ****   inline _GLIBCXX_CONSTEXPR long double
 283:/usr/include/c++/9.1.0/cmath ****   fmod(long double __x, long double __y)
 284:/usr/include/c++/9.1.0/cmath ****   { return __builtin_fmodl(__x, __y); }
 285:/usr/include/c++/9.1.0/cmath **** #endif
 286:/usr/include/c++/9.1.0/cmath **** 
 287:/usr/include/c++/9.1.0/cmath ****   template<typename _Tp, typename _Up>
 288:/usr/include/c++/9.1.0/cmath ****     inline _GLIBCXX_CONSTEXPR
 289:/usr/include/c++/9.1.0/cmath ****     typename __gnu_cxx::__promote_2<_Tp, _Up>::__type
 290:/usr/include/c++/9.1.0/cmath ****     fmod(_Tp __x, _Up __y)
 291:/usr/include/c++/9.1.0/cmath ****     {
 292:/usr/include/c++/9.1.0/cmath ****       typedef typename __gnu_cxx::__promote_2<_Tp, _Up>::__type __type;
 293:/usr/include/c++/9.1.0/cmath ****       return fmod(__type(__x), __type(__y));
 294:/usr/include/c++/9.1.0/cmath ****     }
 295:/usr/include/c++/9.1.0/cmath **** 
 296:/usr/include/c++/9.1.0/cmath ****   using ::frexp;
 297:/usr/include/c++/9.1.0/cmath **** 
 298:/usr/include/c++/9.1.0/cmath **** #ifndef __CORRECT_ISO_CPP_MATH_H_PROTO
 299:/usr/include/c++/9.1.0/cmath ****   inline float
 300:/usr/include/c++/9.1.0/cmath ****   frexp(float __x, int* __exp)
 301:/usr/include/c++/9.1.0/cmath ****   { return __builtin_frexpf(__x, __exp); }
 302:/usr/include/c++/9.1.0/cmath **** 
 303:/usr/include/c++/9.1.0/cmath ****   inline long double
 304:/usr/include/c++/9.1.0/cmath ****   frexp(long double __x, int* __exp)
 305:/usr/include/c++/9.1.0/cmath ****   { return __builtin_frexpl(__x, __exp); }
 306:/usr/include/c++/9.1.0/cmath **** #endif
 307:/usr/include/c++/9.1.0/cmath **** 
 308:/usr/include/c++/9.1.0/cmath ****   template<typename _Tp>
 309:/usr/include/c++/9.1.0/cmath ****     inline _GLIBCXX_CONSTEXPR
 310:/usr/include/c++/9.1.0/cmath ****     typename __gnu_cxx::__enable_if<__is_integer<_Tp>::__value, 
 311:/usr/include/c++/9.1.0/cmath ****                                     double>::__type
 312:/usr/include/c++/9.1.0/cmath ****     frexp(_Tp __x, int* __exp)
 313:/usr/include/c++/9.1.0/cmath ****     { return __builtin_frexp(__x, __exp); }
 314:/usr/include/c++/9.1.0/cmath **** 
 315:/usr/include/c++/9.1.0/cmath ****   using ::ldexp;
 316:/usr/include/c++/9.1.0/cmath **** 
 317:/usr/include/c++/9.1.0/cmath **** #ifndef __CORRECT_ISO_CPP_MATH_H_PROTO
 318:/usr/include/c++/9.1.0/cmath ****   inline _GLIBCXX_CONSTEXPR float
 319:/usr/include/c++/9.1.0/cmath ****   ldexp(float __x, int __exp)
 320:/usr/include/c++/9.1.0/cmath ****   { return __builtin_ldexpf(__x, __exp); }
 321:/usr/include/c++/9.1.0/cmath **** 
 322:/usr/include/c++/9.1.0/cmath ****   inline _GLIBCXX_CONSTEXPR long double
GAS LISTING /tmp/ccE0ce2x.s 			page 20


 323:/usr/include/c++/9.1.0/cmath ****   ldexp(long double __x, int __exp)
 324:/usr/include/c++/9.1.0/cmath ****   { return __builtin_ldexpl(__x, __exp); }
 325:/usr/include/c++/9.1.0/cmath **** #endif
 326:/usr/include/c++/9.1.0/cmath **** 
 327:/usr/include/c++/9.1.0/cmath ****   template<typename _Tp>
 328:/usr/include/c++/9.1.0/cmath ****     inline _GLIBCXX_CONSTEXPR
 329:/usr/include/c++/9.1.0/cmath ****     typename __gnu_cxx::__enable_if<__is_integer<_Tp>::__value, 
 330:/usr/include/c++/9.1.0/cmath ****                                     double>::__type
 331:/usr/include/c++/9.1.0/cmath ****     ldexp(_Tp __x, int __exp)
 332:/usr/include/c++/9.1.0/cmath ****     { return __builtin_ldexp(__x, __exp); }
 333:/usr/include/c++/9.1.0/cmath **** 
 334:/usr/include/c++/9.1.0/cmath ****   using ::log;
 335:/usr/include/c++/9.1.0/cmath **** 
 336:/usr/include/c++/9.1.0/cmath **** #ifndef __CORRECT_ISO_CPP_MATH_H_PROTO
 337:/usr/include/c++/9.1.0/cmath ****   inline _GLIBCXX_CONSTEXPR float
 338:/usr/include/c++/9.1.0/cmath ****   log(float __x)
 339:/usr/include/c++/9.1.0/cmath ****   { return __builtin_logf(__x); }
 340:/usr/include/c++/9.1.0/cmath **** 
 341:/usr/include/c++/9.1.0/cmath ****   inline _GLIBCXX_CONSTEXPR long double
 342:/usr/include/c++/9.1.0/cmath ****   log(long double __x)
 343:/usr/include/c++/9.1.0/cmath ****   { return __builtin_logl(__x); }
 344:/usr/include/c++/9.1.0/cmath **** #endif
 345:/usr/include/c++/9.1.0/cmath **** 
 346:/usr/include/c++/9.1.0/cmath ****   template<typename _Tp>
 347:/usr/include/c++/9.1.0/cmath ****     inline _GLIBCXX_CONSTEXPR
 348:/usr/include/c++/9.1.0/cmath ****     typename __gnu_cxx::__enable_if<__is_integer<_Tp>::__value, 
 349:/usr/include/c++/9.1.0/cmath ****                                     double>::__type
 350:/usr/include/c++/9.1.0/cmath ****     log(_Tp __x)
 351:/usr/include/c++/9.1.0/cmath ****     { return __builtin_log(__x); }
 352:/usr/include/c++/9.1.0/cmath **** 
 353:/usr/include/c++/9.1.0/cmath ****   using ::log10;
 354:/usr/include/c++/9.1.0/cmath **** 
 355:/usr/include/c++/9.1.0/cmath **** #ifndef __CORRECT_ISO_CPP_MATH_H_PROTO
 356:/usr/include/c++/9.1.0/cmath ****   inline _GLIBCXX_CONSTEXPR float
 357:/usr/include/c++/9.1.0/cmath ****   log10(float __x)
 358:/usr/include/c++/9.1.0/cmath ****   { return __builtin_log10f(__x); }
 359:/usr/include/c++/9.1.0/cmath **** 
 360:/usr/include/c++/9.1.0/cmath ****   inline _GLIBCXX_CONSTEXPR long double
 361:/usr/include/c++/9.1.0/cmath ****   log10(long double __x)
 362:/usr/include/c++/9.1.0/cmath ****   { return __builtin_log10l(__x); }
 363:/usr/include/c++/9.1.0/cmath **** #endif
 364:/usr/include/c++/9.1.0/cmath **** 
 365:/usr/include/c++/9.1.0/cmath ****   template<typename _Tp>
 366:/usr/include/c++/9.1.0/cmath ****     inline _GLIBCXX_CONSTEXPR
 367:/usr/include/c++/9.1.0/cmath ****     typename __gnu_cxx::__enable_if<__is_integer<_Tp>::__value,
 368:/usr/include/c++/9.1.0/cmath ****                                     double>::__type
 369:/usr/include/c++/9.1.0/cmath ****     log10(_Tp __x)
 370:/usr/include/c++/9.1.0/cmath ****     { return __builtin_log10(__x); }
 371:/usr/include/c++/9.1.0/cmath **** 
 372:/usr/include/c++/9.1.0/cmath ****   using ::modf;
 373:/usr/include/c++/9.1.0/cmath **** 
 374:/usr/include/c++/9.1.0/cmath **** #ifndef __CORRECT_ISO_CPP_MATH_H_PROTO
 375:/usr/include/c++/9.1.0/cmath ****   inline float
 376:/usr/include/c++/9.1.0/cmath ****   modf(float __x, float* __iptr)
 377:/usr/include/c++/9.1.0/cmath ****   { return __builtin_modff(__x, __iptr); }
 378:/usr/include/c++/9.1.0/cmath **** 
 379:/usr/include/c++/9.1.0/cmath ****   inline long double
GAS LISTING /tmp/ccE0ce2x.s 			page 21


 380:/usr/include/c++/9.1.0/cmath ****   modf(long double __x, long double* __iptr)
 381:/usr/include/c++/9.1.0/cmath ****   { return __builtin_modfl(__x, __iptr); }
 382:/usr/include/c++/9.1.0/cmath **** #endif
 383:/usr/include/c++/9.1.0/cmath **** 
 384:/usr/include/c++/9.1.0/cmath ****   using ::pow;
 385:/usr/include/c++/9.1.0/cmath **** 
 386:/usr/include/c++/9.1.0/cmath **** #ifndef __CORRECT_ISO_CPP_MATH_H_PROTO
 387:/usr/include/c++/9.1.0/cmath ****   inline _GLIBCXX_CONSTEXPR float
 388:/usr/include/c++/9.1.0/cmath ****   pow(float __x, float __y)
 389:/usr/include/c++/9.1.0/cmath ****   { return __builtin_powf(__x, __y); }
 390:/usr/include/c++/9.1.0/cmath **** 
 391:/usr/include/c++/9.1.0/cmath ****   inline _GLIBCXX_CONSTEXPR long double
 392:/usr/include/c++/9.1.0/cmath ****   pow(long double __x, long double __y)
 393:/usr/include/c++/9.1.0/cmath ****   { return __builtin_powl(__x, __y); }
 394:/usr/include/c++/9.1.0/cmath **** 
 395:/usr/include/c++/9.1.0/cmath **** #if __cplusplus < 201103L
 396:/usr/include/c++/9.1.0/cmath ****   // _GLIBCXX_RESOLVE_LIB_DEFECTS
 397:/usr/include/c++/9.1.0/cmath ****   // DR 550. What should the return type of pow(float,int) be?
 398:/usr/include/c++/9.1.0/cmath ****   inline double
 399:/usr/include/c++/9.1.0/cmath ****   pow(double __x, int __i)
 400:/usr/include/c++/9.1.0/cmath ****   { return __builtin_powi(__x, __i); }
 401:/usr/include/c++/9.1.0/cmath **** 
 402:/usr/include/c++/9.1.0/cmath ****   inline float
 403:/usr/include/c++/9.1.0/cmath ****   pow(float __x, int __n)
 404:/usr/include/c++/9.1.0/cmath ****   { return __builtin_powif(__x, __n); }
 405:/usr/include/c++/9.1.0/cmath **** 
 406:/usr/include/c++/9.1.0/cmath ****   inline long double
 407:/usr/include/c++/9.1.0/cmath ****   pow(long double __x, int __n)
 408:/usr/include/c++/9.1.0/cmath ****   { return __builtin_powil(__x, __n); }
 409:/usr/include/c++/9.1.0/cmath **** #endif
 410:/usr/include/c++/9.1.0/cmath **** #endif
 411:/usr/include/c++/9.1.0/cmath **** 
 412:/usr/include/c++/9.1.0/cmath ****   template<typename _Tp, typename _Up>
 413:/usr/include/c++/9.1.0/cmath ****     inline _GLIBCXX_CONSTEXPR
 414:/usr/include/c++/9.1.0/cmath ****     typename __gnu_cxx::__promote_2<_Tp, _Up>::__type
 415:/usr/include/c++/9.1.0/cmath ****     pow(_Tp __x, _Up __y)
 416:/usr/include/c++/9.1.0/cmath ****     {
 417:/usr/include/c++/9.1.0/cmath ****       typedef typename __gnu_cxx::__promote_2<_Tp, _Up>::__type __type;
 418:/usr/include/c++/9.1.0/cmath ****       return pow(__type(__x), __type(__y));
 419:/usr/include/c++/9.1.0/cmath ****     }
 420:/usr/include/c++/9.1.0/cmath **** 
 421:/usr/include/c++/9.1.0/cmath ****   using ::sin;
 422:/usr/include/c++/9.1.0/cmath **** 
 423:/usr/include/c++/9.1.0/cmath **** #ifndef __CORRECT_ISO_CPP_MATH_H_PROTO
 424:/usr/include/c++/9.1.0/cmath ****   inline _GLIBCXX_CONSTEXPR float
 425:/usr/include/c++/9.1.0/cmath ****   sin(float __x)
 426:/usr/include/c++/9.1.0/cmath ****   { return __builtin_sinf(__x); }
 427:/usr/include/c++/9.1.0/cmath **** 
 428:/usr/include/c++/9.1.0/cmath ****   inline _GLIBCXX_CONSTEXPR long double
 429:/usr/include/c++/9.1.0/cmath ****   sin(long double __x)
 430:/usr/include/c++/9.1.0/cmath ****   { return __builtin_sinl(__x); }
 431:/usr/include/c++/9.1.0/cmath **** #endif
 432:/usr/include/c++/9.1.0/cmath **** 
 433:/usr/include/c++/9.1.0/cmath ****   template<typename _Tp>
 434:/usr/include/c++/9.1.0/cmath ****     inline _GLIBCXX_CONSTEXPR
 435:/usr/include/c++/9.1.0/cmath ****     typename __gnu_cxx::__enable_if<__is_integer<_Tp>::__value, 
 436:/usr/include/c++/9.1.0/cmath ****                                     double>::__type
GAS LISTING /tmp/ccE0ce2x.s 			page 22


 437:/usr/include/c++/9.1.0/cmath ****     sin(_Tp __x)
 438:/usr/include/c++/9.1.0/cmath ****     { return __builtin_sin(__x); }
 439:/usr/include/c++/9.1.0/cmath **** 
 440:/usr/include/c++/9.1.0/cmath ****   using ::sinh;
 441:/usr/include/c++/9.1.0/cmath **** 
 442:/usr/include/c++/9.1.0/cmath **** #ifndef __CORRECT_ISO_CPP_MATH_H_PROTO
 443:/usr/include/c++/9.1.0/cmath ****   inline _GLIBCXX_CONSTEXPR float
 444:/usr/include/c++/9.1.0/cmath ****   sinh(float __x)
 445:/usr/include/c++/9.1.0/cmath ****   { return __builtin_sinhf(__x); }
 446:/usr/include/c++/9.1.0/cmath **** 
 447:/usr/include/c++/9.1.0/cmath ****   inline _GLIBCXX_CONSTEXPR long double
 448:/usr/include/c++/9.1.0/cmath ****   sinh(long double __x)
 449:/usr/include/c++/9.1.0/cmath ****   { return __builtin_sinhl(__x); }
 450:/usr/include/c++/9.1.0/cmath **** #endif
 451:/usr/include/c++/9.1.0/cmath **** 
 452:/usr/include/c++/9.1.0/cmath ****   template<typename _Tp>
 453:/usr/include/c++/9.1.0/cmath ****     inline _GLIBCXX_CONSTEXPR
 454:/usr/include/c++/9.1.0/cmath ****     typename __gnu_cxx::__enable_if<__is_integer<_Tp>::__value, 
 455:/usr/include/c++/9.1.0/cmath ****                                     double>::__type
 456:/usr/include/c++/9.1.0/cmath ****     sinh(_Tp __x)
 457:/usr/include/c++/9.1.0/cmath ****     { return __builtin_sinh(__x); }
 458:/usr/include/c++/9.1.0/cmath **** 
 459:/usr/include/c++/9.1.0/cmath ****   using ::sqrt;
 460:/usr/include/c++/9.1.0/cmath **** 
 461:/usr/include/c++/9.1.0/cmath **** #ifndef __CORRECT_ISO_CPP_MATH_H_PROTO
 462:/usr/include/c++/9.1.0/cmath ****   inline _GLIBCXX_CONSTEXPR float
 463:/usr/include/c++/9.1.0/cmath ****   sqrt(float __x)
 302              		.loc 3 463 3 is_stmt 1 view .LVU92
 303              	.LBB99:
 464:/usr/include/c++/9.1.0/cmath ****   { return __builtin_sqrtf(__x); }
 304              		.loc 3 464 5 view .LVU93
 305              		.loc 3 464 27 is_stmt 0 view .LVU94
 306 01c4 E8000000 		call	sqrtf@PLT
 306      00
 307              	.LVL23:
 308              		.loc 3 464 27 view .LVU95
 309              	.LBE99:
 310              	.LBE98:
 132:Src/findwayBases.cpp **** }
 311              		.loc 1 132 5 is_stmt 1 view .LVU96
 133:Src/findwayBases.cpp **** 
 312              		.loc 1 133 1 is_stmt 0 view .LVU97
 313 01c9 4883C408 		addq	$8, %rsp
 314              		.cfi_def_cfa_offset 8
 315 01cd C3       		ret
 316              		.cfi_endproc
 317              	.LFE1726:
 319              		.globl	_Z6getLenPK4vect
 321              	_Z6getLenPK4vect:
 322              	.LVL24:
 323              	.LFB1727:
 136:Src/findwayBases.cpp ****     COORDS_DATATYPE l = sqrt(sqr(v->dx) + sqr(v->dy));
 324              		.loc 1 136 1 is_stmt 1 view -0
 325              		.cfi_startproc
 136:Src/findwayBases.cpp ****     COORDS_DATATYPE l = sqrt(sqr(v->dx) + sqr(v->dy));
 326              		.loc 1 136 1 is_stmt 0 view .LVU99
 327 01ce 4883EC08 		subq	$8, %rsp
GAS LISTING /tmp/ccE0ce2x.s 			page 23


 328              		.cfi_def_cfa_offset 16
 137:Src/findwayBases.cpp ****     return l;
 329              		.loc 1 137 5 is_stmt 1 view .LVU100
 137:Src/findwayBases.cpp ****     return l;
 330              		.loc 1 137 30 is_stmt 0 view .LVU101
 331 01d2 F30F1047 		movss	8(%rdi), %xmm0
 331      08
 332 01d7 F30F59C0 		mulss	%xmm0, %xmm0
 137:Src/findwayBases.cpp ****     return l;
 333              		.loc 1 137 43 view .LVU102
 334 01db F30F104F 		movss	12(%rdi), %xmm1
 334      0C
 335 01e0 F30F59C9 		mulss	%xmm1, %xmm1
 137:Src/findwayBases.cpp ****     return l;
 336              		.loc 1 137 29 view .LVU103
 337 01e4 F30F58C1 		addss	%xmm1, %xmm0
 338              	.LVL25:
 339              	.LBB100:
 340              	.LBI100:
 463:/usr/include/c++/9.1.0/cmath ****   { return __builtin_sqrtf(__x); }
 341              		.loc 3 463 3 is_stmt 1 view .LVU104
 342              	.LBB101:
 343              		.loc 3 464 5 view .LVU105
 344              		.loc 3 464 27 is_stmt 0 view .LVU106
 345 01e8 E8000000 		call	sqrtf@PLT
 345      00
 346              	.LVL26:
 347              		.loc 3 464 27 view .LVU107
 348              	.LBE101:
 349              	.LBE100:
 138:Src/findwayBases.cpp **** }
 350              		.loc 1 138 5 is_stmt 1 view .LVU108
 139:Src/findwayBases.cpp **** 
 351              		.loc 1 139 1 is_stmt 0 view .LVU109
 352 01ed 4883C408 		addq	$8, %rsp
 353              		.cfi_def_cfa_offset 8
 354 01f1 C3       		ret
 355              		.cfi_endproc
 356              	.LFE1727:
 358              		.globl	_Z12createCoordsff
 360              	_Z12createCoordsff:
 361              	.LVL27:
 362              	.LFB1728:
 142:Src/findwayBases.cpp ****     struct coords ret;
 363              		.loc 1 142 1 is_stmt 1 view -0
 364              		.cfi_startproc
 143:Src/findwayBases.cpp ****     ret.x = x;
 365              		.loc 1 143 5 view .LVU111
 144:Src/findwayBases.cpp ****     ret.y = y;
 366              		.loc 1 144 5 view .LVU112
 145:Src/findwayBases.cpp ****     return ret;
 367              		.loc 1 145 5 view .LVU113
 145:Src/findwayBases.cpp ****     return ret;
 368              		.loc 1 145 11 is_stmt 0 view .LVU114
 369 01f2 660F7EC8 		movd	%xmm1, %eax
 370 01f6 4889C2   		movq	%rax, %rdx
 371 01f9 48C1E220 		salq	$32, %rdx
GAS LISTING /tmp/ccE0ce2x.s 			page 24


 372 01fd 660F7EC0 		movd	%xmm0, %eax
 373              	.LVL28:
 145:Src/findwayBases.cpp ****     return ret;
 374              		.loc 1 145 11 view .LVU115
 375 0201 4809D0   		orq	%rdx, %rax
 376              	.LVL29:
 146:Src/findwayBases.cpp **** }
 377              		.loc 1 146 5 is_stmt 1 view .LVU116
 147:Src/findwayBases.cpp **** 
 378              		.loc 1 147 1 is_stmt 0 view .LVU117
 379 0204 66480F6E 		movq	%rax, %xmm0
 379      C0
 380              	.LVL30:
 147:Src/findwayBases.cpp **** 
 381              		.loc 1 147 1 view .LVU118
 382 0209 C3       		ret
 383              		.cfi_endproc
 384              	.LFE1728:
 386              		.section	.rodata.str1.1,"aMS",@progbits,1
 387              	.LC5:
 388 0000 666F756E 		.string	"found c1\n"
 388      64206331 
 388      0A00
 389              	.LC6:
 390 000a 666F756E 		.string	"found c1 and c2\n"
 390      64206331 
 390      20616E64 
 390      2063320A 
 390      00
 391              	.LC7:
 392 001b 43312069 		.string	"C1 isn't in obstacle\n"
 392      736E2774 
 392      20696E20 
 392      6F627374 
 392      61636C65 
 393              	.LC8:
 394 0031 666F756E 		.string	"found c2 and c3\n"
 394      64206332 
 394      20616E64 
 394      2063330A 
 394      00
 395              	.LC9:
 396 0042 43322069 		.string	"C2 isn't in obstacle\n"
 396      736E2774 
 396      20696E20 
 396      6F627374 
 396      61636C65 
 397              		.text
 398              		.globl	_Z15getIntersectionPK8obstaclePK4vect
 400              	_Z15getIntersectionPK8obstaclePK4vect:
 401              	.LVL31:
 402              	.LFB1720:
  34:Src/findwayBases.cpp ****     if((obst->c->x - v->c->x) / v->dx < 0 || (obst->c->y - v->c->y) / v->dy < 0)
 403              		.loc 1 34 1 is_stmt 1 view -0
 404              		.cfi_startproc
  34:Src/findwayBases.cpp ****     if((obst->c->x - v->c->x) / v->dx < 0 || (obst->c->y - v->c->y) / v->dy < 0)
 405              		.loc 1 34 1 is_stmt 0 view .LVU120
GAS LISTING /tmp/ccE0ce2x.s 			page 25


 406 020a 4156     		pushq	%r14
 407              		.cfi_def_cfa_offset 16
 408              		.cfi_offset 14, -16
 409 020c 4155     		pushq	%r13
 410              		.cfi_def_cfa_offset 24
 411              		.cfi_offset 13, -24
 412 020e 4154     		pushq	%r12
 413              		.cfi_def_cfa_offset 32
 414              		.cfi_offset 12, -32
 415 0210 55       		pushq	%rbp
 416              		.cfi_def_cfa_offset 40
 417              		.cfi_offset 6, -40
 418 0211 53       		pushq	%rbx
 419              		.cfi_def_cfa_offset 48
 420              		.cfi_offset 3, -48
 421 0212 4883EC40 		subq	$64, %rsp
 422              		.cfi_def_cfa_offset 112
  34:Src/findwayBases.cpp ****     if((obst->c->x - v->c->x) / v->dx < 0 || (obst->c->y - v->c->y) / v->dy < 0)
 423              		.loc 1 34 1 view .LVU121
 424 0216 64488B04 		movq	%fs:40, %rax
 424      25280000 
 424      00
 425 021f 48894424 		movq	%rax, 56(%rsp)
 425      38
 426 0224 31C0     		xorl	%eax, %eax
  35:Src/findwayBases.cpp ****         return {-1, -1};
 427              		.loc 1 35 5 is_stmt 1 view .LVU122
  35:Src/findwayBases.cpp ****         return {-1, -1};
 428              		.loc 1 35 15 is_stmt 0 view .LVU123
 429 0226 488B17   		movq	(%rdi), %rdx
  35:Src/findwayBases.cpp ****         return {-1, -1};
 430              		.loc 1 35 18 view .LVU124
 431 0229 F30F1002 		movss	(%rdx), %xmm0
  35:Src/findwayBases.cpp ****         return {-1, -1};
 432              		.loc 1 35 25 view .LVU125
 433 022d 488B06   		movq	(%rsi), %rax
  35:Src/findwayBases.cpp ****         return {-1, -1};
 434              		.loc 1 35 20 view .LVU126
 435 0230 F30F5C00 		subss	(%rax), %xmm0
  35:Src/findwayBases.cpp ****         return {-1, -1};
 436              		.loc 1 35 31 view .LVU127
 437 0234 F30F5E46 		divss	8(%rsi), %xmm0
 437      08
  35:Src/findwayBases.cpp ****         return {-1, -1};
 438              		.loc 1 35 5 view .LVU128
 439 0239 660FEFC9 		pxor	%xmm1, %xmm1
 440 023d 0F2FC8   		comiss	%xmm0, %xmm1
 441 0240 771A     		ja	.L41
 442 0242 4889FB   		movq	%rdi, %rbx
 443 0245 4889F5   		movq	%rsi, %rbp
  35:Src/findwayBases.cpp ****         return {-1, -1};
 444              		.loc 1 35 56 discriminator 1 view .LVU129
 445 0248 F30F1042 		movss	4(%rdx), %xmm0
 445      04
  35:Src/findwayBases.cpp ****         return {-1, -1};
 446              		.loc 1 35 58 discriminator 1 view .LVU130
 447 024d F30F5C40 		subss	4(%rax), %xmm0
GAS LISTING /tmp/ccE0ce2x.s 			page 26


 447      04
  35:Src/findwayBases.cpp ****         return {-1, -1};
 448              		.loc 1 35 69 discriminator 1 view .LVU131
 449 0252 F30F5E46 		divss	12(%rsi), %xmm0
 449      0C
  35:Src/findwayBases.cpp ****         return {-1, -1};
 450              		.loc 1 35 43 discriminator 1 view .LVU132
 451 0257 0F2FC8   		comiss	%xmm0, %xmm1
 452 025a 7638     		jbe	.L59
 453              	.L41:
  36:Src/findwayBases.cpp **** 
 454              		.loc 1 36 9 is_stmt 1 view .LVU133
  36:Src/findwayBases.cpp **** 
 455              		.loc 1 36 23 is_stmt 0 view .LVU134
 456 025c 48BA0000 		movabsq	$-4647714815446351872, %rdx
 456      00000000 
 456      80BF
 457 0266 B8000080 		movl	$3212836864, %eax
 457      BF
 458 026b 4809D0   		orq	%rdx, %rax
 459              	.LVL32:
 460              	.L44:
 103:Src/findwayBases.cpp **** 
 461              		.loc 1 103 1 view .LVU135
 462 026e 488B4C24 		movq	56(%rsp), %rcx
 462      38
 463 0273 6448330C 		xorq	%fs:40, %rcx
 463      25280000 
 463      00
 464 027c 0F85C602 		jne	.L62
 464      0000
 465 0282 66480F6E 		movq	%rax, %xmm0
 465      C0
 466 0287 4883C440 		addq	$64, %rsp
 467              		.cfi_remember_state
 468              		.cfi_def_cfa_offset 48
 469 028b 5B       		popq	%rbx
 470              		.cfi_def_cfa_offset 40
 471 028c 5D       		popq	%rbp
 472              		.cfi_def_cfa_offset 32
 473 028d 415C     		popq	%r12
 474              		.cfi_def_cfa_offset 24
 475 028f 415D     		popq	%r13
 476              		.cfi_def_cfa_offset 16
 477 0291 415E     		popq	%r14
 478              		.cfi_def_cfa_offset 8
 479 0293 C3       		ret
 480              	.LVL33:
 481              	.L59:
 482              		.cfi_restore_state
  38:Src/findwayBases.cpp ****                     c2,
 483              		.loc 1 38 5 is_stmt 1 view .LVU136
  42:Src/findwayBases.cpp ****                     b2;
 484              		.loc 1 42 5 view .LVU137
  42:Src/findwayBases.cpp ****                     b2;
 485              		.loc 1 42 21 is_stmt 0 view .LVU138
 486 0294 C744242C 		movl	$0x00000000, 44(%rsp)
GAS LISTING /tmp/ccE0ce2x.s 			page 27


 486      00000000 
  43:Src/findwayBases.cpp **** 
 487              		.loc 1 43 21 view .LVU139
 488 029c C7442430 		movl	$0x00000000, 48(%rsp)
 488      00000000 
 489 02a4 C7442434 		movl	$0x00000000, 52(%rsp)
 489      00000000 
  45:Src/findwayBases.cpp ****     b.b = obst->c->x;
 490              		.loc 1 45 5 is_stmt 1 view .LVU140
  45:Src/findwayBases.cpp ****     b.b = obst->c->x;
 491              		.loc 1 45 9 is_stmt 0 view .LVU141
 492 02ac F30F1005 		movss	.LC4(%rip), %xmm0
 492      00000000 
 493 02b4 F30F5E05 		divss	.LC2(%rip), %xmm0
 493      00000000 
 494 02bc 66410F7E 		movd	%xmm0, %r12d
 494      C4
 495 02c1 F30F1144 		movss	%xmm0, 40(%rsp)
 495      2428
  46:Src/findwayBases.cpp ****     b2 = vectToBaseline(v);
 496              		.loc 1 46 5 is_stmt 1 view .LVU142
  46:Src/findwayBases.cpp ****     b2 = vectToBaseline(v);
 497              		.loc 1 46 17 is_stmt 0 view .LVU143
 498 02c7 488B07   		movq	(%rdi), %rax
  46:Src/findwayBases.cpp ****     b2 = vectToBaseline(v);
 499              		.loc 1 46 20 view .LVU144
 500 02ca F30F1000 		movss	(%rax), %xmm0
  46:Src/findwayBases.cpp ****     b2 = vectToBaseline(v);
 501              		.loc 1 46 9 view .LVU145
 502 02ce F30F1144 		movss	%xmm0, 44(%rsp)
 502      242C
  47:Src/findwayBases.cpp ****     c1 = getIntersection(&b, &b2);
 503              		.loc 1 47 5 is_stmt 1 view .LVU146
  47:Src/findwayBases.cpp ****     c1 = getIntersection(&b, &b2);
 504              		.loc 1 47 26 is_stmt 0 view .LVU147
 505 02d4 4889F7   		movq	%rsi, %rdi
 506 02d7 E8000000 		call	_Z14vectToBaselinePK4vect
 506      00
 507              	.LVL34:
  47:Src/findwayBases.cpp ****     c1 = getIntersection(&b, &b2);
 508              		.loc 1 47 26 view .LVU148
 509 02dc 660FD644 		movq	%xmm0, 48(%rsp)
 509      2430
  48:Src/findwayBases.cpp **** 
 510              		.loc 1 48 5 is_stmt 1 view .LVU149
  48:Src/findwayBases.cpp **** 
 511              		.loc 1 48 33 is_stmt 0 view .LVU150
 512 02e2 4C8D7424 		leaq	48(%rsp), %r14
 512      30
 513 02e7 4C8D6C24 		leaq	40(%rsp), %r13
 513      28
 514 02ec 4C89F6   		movq	%r14, %rsi
 515 02ef 4C89EF   		movq	%r13, %rdi
 516 02f2 E8000000 		call	_Z15getIntersectionPK8baselineS1_
 516      00
 517              	.LVL35:
 518 02f7 660FD644 		movq	%xmm0, 16(%rsp)
GAS LISTING /tmp/ccE0ce2x.s 			page 28


 518      2410
  50:Src/findwayBases.cpp **** 
 519              		.loc 1 50 5 is_stmt 1 view .LVU151
 520              	.LVL36:
 521              	.LBB152:
 522              	.LBI152:
 523              		.file 4 "/usr/include/c++/9.1.0/ostream"
   1:/usr/include/c++/9.1.0/ostream **** // Output streams -*- C++ -*-
   2:/usr/include/c++/9.1.0/ostream **** 
   3:/usr/include/c++/9.1.0/ostream **** // Copyright (C) 1997-2019 Free Software Foundation, Inc.
   4:/usr/include/c++/9.1.0/ostream **** //
   5:/usr/include/c++/9.1.0/ostream **** // This file is part of the GNU ISO C++ Library.  This library is free
   6:/usr/include/c++/9.1.0/ostream **** // software; you can redistribute it and/or modify it under the
   7:/usr/include/c++/9.1.0/ostream **** // terms of the GNU General Public License as published by the
   8:/usr/include/c++/9.1.0/ostream **** // Free Software Foundation; either version 3, or (at your option)
   9:/usr/include/c++/9.1.0/ostream **** // any later version.
  10:/usr/include/c++/9.1.0/ostream **** 
  11:/usr/include/c++/9.1.0/ostream **** // This library is distributed in the hope that it will be useful,
  12:/usr/include/c++/9.1.0/ostream **** // but WITHOUT ANY WARRANTY; without even the implied warranty of
  13:/usr/include/c++/9.1.0/ostream **** // MERCHANTABILITY or FITNESS FOR A PARTICULAR PURPOSE.  See the
  14:/usr/include/c++/9.1.0/ostream **** // GNU General Public License for more details.
  15:/usr/include/c++/9.1.0/ostream **** 
  16:/usr/include/c++/9.1.0/ostream **** // Under Section 7 of GPL version 3, you are granted additional
  17:/usr/include/c++/9.1.0/ostream **** // permissions described in the GCC Runtime Library Exception, version
  18:/usr/include/c++/9.1.0/ostream **** // 3.1, as published by the Free Software Foundation.
  19:/usr/include/c++/9.1.0/ostream **** 
  20:/usr/include/c++/9.1.0/ostream **** // You should have received a copy of the GNU General Public License and
  21:/usr/include/c++/9.1.0/ostream **** // a copy of the GCC Runtime Library Exception along with this program;
  22:/usr/include/c++/9.1.0/ostream **** // see the files COPYING3 and COPYING.RUNTIME respectively.  If not, see
  23:/usr/include/c++/9.1.0/ostream **** // <http://www.gnu.org/licenses/>.
  24:/usr/include/c++/9.1.0/ostream **** 
  25:/usr/include/c++/9.1.0/ostream **** /** @file include/ostream
  26:/usr/include/c++/9.1.0/ostream ****  *  This is a Standard C++ Library header.
  27:/usr/include/c++/9.1.0/ostream ****  */
  28:/usr/include/c++/9.1.0/ostream **** 
  29:/usr/include/c++/9.1.0/ostream **** //
  30:/usr/include/c++/9.1.0/ostream **** // ISO C++ 14882: 27.6.2  Output streams
  31:/usr/include/c++/9.1.0/ostream **** //
  32:/usr/include/c++/9.1.0/ostream **** 
  33:/usr/include/c++/9.1.0/ostream **** #ifndef _GLIBCXX_OSTREAM
  34:/usr/include/c++/9.1.0/ostream **** #define _GLIBCXX_OSTREAM 1
  35:/usr/include/c++/9.1.0/ostream **** 
  36:/usr/include/c++/9.1.0/ostream **** #pragma GCC system_header
  37:/usr/include/c++/9.1.0/ostream **** 
  38:/usr/include/c++/9.1.0/ostream **** #include <ios>
  39:/usr/include/c++/9.1.0/ostream **** #include <bits/ostream_insert.h>
  40:/usr/include/c++/9.1.0/ostream **** 
  41:/usr/include/c++/9.1.0/ostream **** namespace std _GLIBCXX_VISIBILITY(default)
  42:/usr/include/c++/9.1.0/ostream **** {
  43:/usr/include/c++/9.1.0/ostream **** _GLIBCXX_BEGIN_NAMESPACE_VERSION
  44:/usr/include/c++/9.1.0/ostream **** 
  45:/usr/include/c++/9.1.0/ostream ****   /**
  46:/usr/include/c++/9.1.0/ostream ****    *  @brief  Template class basic_ostream.
  47:/usr/include/c++/9.1.0/ostream ****    *  @ingroup io
  48:/usr/include/c++/9.1.0/ostream ****    *
  49:/usr/include/c++/9.1.0/ostream ****    *  @tparam _CharT  Type of character stream.
  50:/usr/include/c++/9.1.0/ostream ****    *  @tparam _Traits  Traits for character type, defaults to
GAS LISTING /tmp/ccE0ce2x.s 			page 29


  51:/usr/include/c++/9.1.0/ostream ****    *                   char_traits<_CharT>.
  52:/usr/include/c++/9.1.0/ostream ****    *
  53:/usr/include/c++/9.1.0/ostream ****    *  This is the base class for all output streams.  It provides text
  54:/usr/include/c++/9.1.0/ostream ****    *  formatting of all builtin types, and communicates with any class
  55:/usr/include/c++/9.1.0/ostream ****    *  derived from basic_streambuf to do the actual output.
  56:/usr/include/c++/9.1.0/ostream ****   */
  57:/usr/include/c++/9.1.0/ostream ****   template<typename _CharT, typename _Traits>
  58:/usr/include/c++/9.1.0/ostream ****     class basic_ostream : virtual public basic_ios<_CharT, _Traits>
  59:/usr/include/c++/9.1.0/ostream ****     {
  60:/usr/include/c++/9.1.0/ostream ****     public:
  61:/usr/include/c++/9.1.0/ostream ****       // Types (inherited from basic_ios):
  62:/usr/include/c++/9.1.0/ostream ****       typedef _CharT			 		char_type;
  63:/usr/include/c++/9.1.0/ostream ****       typedef typename _Traits::int_type 		int_type;
  64:/usr/include/c++/9.1.0/ostream ****       typedef typename _Traits::pos_type 		pos_type;
  65:/usr/include/c++/9.1.0/ostream ****       typedef typename _Traits::off_type 		off_type;
  66:/usr/include/c++/9.1.0/ostream ****       typedef _Traits			 		traits_type;
  67:/usr/include/c++/9.1.0/ostream **** 
  68:/usr/include/c++/9.1.0/ostream ****       // Non-standard Types:
  69:/usr/include/c++/9.1.0/ostream ****       typedef basic_streambuf<_CharT, _Traits> 		__streambuf_type;
  70:/usr/include/c++/9.1.0/ostream ****       typedef basic_ios<_CharT, _Traits>		__ios_type;
  71:/usr/include/c++/9.1.0/ostream ****       typedef basic_ostream<_CharT, _Traits>		__ostream_type;
  72:/usr/include/c++/9.1.0/ostream ****       typedef num_put<_CharT, ostreambuf_iterator<_CharT, _Traits> >
  73:/usr/include/c++/9.1.0/ostream ****       							__num_put_type;
  74:/usr/include/c++/9.1.0/ostream ****       typedef ctype<_CharT>	      			__ctype_type;
  75:/usr/include/c++/9.1.0/ostream **** 
  76:/usr/include/c++/9.1.0/ostream ****       /**
  77:/usr/include/c++/9.1.0/ostream ****        *  @brief  Base constructor.
  78:/usr/include/c++/9.1.0/ostream ****        *
  79:/usr/include/c++/9.1.0/ostream ****        *  This ctor is almost never called by the user directly, rather from
  80:/usr/include/c++/9.1.0/ostream ****        *  derived classes' initialization lists, which pass a pointer to
  81:/usr/include/c++/9.1.0/ostream ****        *  their own stream buffer.
  82:/usr/include/c++/9.1.0/ostream ****       */
  83:/usr/include/c++/9.1.0/ostream ****       explicit
  84:/usr/include/c++/9.1.0/ostream ****       basic_ostream(__streambuf_type* __sb)
  85:/usr/include/c++/9.1.0/ostream ****       { this->init(__sb); }
  86:/usr/include/c++/9.1.0/ostream **** 
  87:/usr/include/c++/9.1.0/ostream ****       /**
  88:/usr/include/c++/9.1.0/ostream ****        *  @brief  Base destructor.
  89:/usr/include/c++/9.1.0/ostream ****        *
  90:/usr/include/c++/9.1.0/ostream ****        *  This does very little apart from providing a virtual base dtor.
  91:/usr/include/c++/9.1.0/ostream ****       */
  92:/usr/include/c++/9.1.0/ostream ****       virtual
  93:/usr/include/c++/9.1.0/ostream ****       ~basic_ostream() { }
  94:/usr/include/c++/9.1.0/ostream **** 
  95:/usr/include/c++/9.1.0/ostream ****       /// Safe prefix/suffix operations.
  96:/usr/include/c++/9.1.0/ostream ****       class sentry;
  97:/usr/include/c++/9.1.0/ostream ****       friend class sentry;
  98:/usr/include/c++/9.1.0/ostream **** 
  99:/usr/include/c++/9.1.0/ostream ****       //@{
 100:/usr/include/c++/9.1.0/ostream ****       /**
 101:/usr/include/c++/9.1.0/ostream ****        *  @brief  Interface for manipulators.
 102:/usr/include/c++/9.1.0/ostream ****        *
 103:/usr/include/c++/9.1.0/ostream ****        *  Manipulators such as @c std::endl and @c std::hex use these
 104:/usr/include/c++/9.1.0/ostream ****        *  functions in constructs like "std::cout << std::endl".  For more
 105:/usr/include/c++/9.1.0/ostream ****        *  information, see the iomanip header.
 106:/usr/include/c++/9.1.0/ostream ****       */
 107:/usr/include/c++/9.1.0/ostream ****       __ostream_type&
GAS LISTING /tmp/ccE0ce2x.s 			page 30


 108:/usr/include/c++/9.1.0/ostream ****       operator<<(__ostream_type& (*__pf)(__ostream_type&))
 109:/usr/include/c++/9.1.0/ostream ****       {
 110:/usr/include/c++/9.1.0/ostream **** 	// _GLIBCXX_RESOLVE_LIB_DEFECTS
 111:/usr/include/c++/9.1.0/ostream **** 	// DR 60. What is a formatted input function?
 112:/usr/include/c++/9.1.0/ostream **** 	// The inserters for manipulators are *not* formatted output functions.
 113:/usr/include/c++/9.1.0/ostream **** 	return __pf(*this);
 114:/usr/include/c++/9.1.0/ostream ****       }
 115:/usr/include/c++/9.1.0/ostream **** 
 116:/usr/include/c++/9.1.0/ostream ****       __ostream_type&
 117:/usr/include/c++/9.1.0/ostream ****       operator<<(__ios_type& (*__pf)(__ios_type&))
 118:/usr/include/c++/9.1.0/ostream ****       {
 119:/usr/include/c++/9.1.0/ostream **** 	// _GLIBCXX_RESOLVE_LIB_DEFECTS
 120:/usr/include/c++/9.1.0/ostream **** 	// DR 60. What is a formatted input function?
 121:/usr/include/c++/9.1.0/ostream **** 	// The inserters for manipulators are *not* formatted output functions.
 122:/usr/include/c++/9.1.0/ostream **** 	__pf(*this);
 123:/usr/include/c++/9.1.0/ostream **** 	return *this;
 124:/usr/include/c++/9.1.0/ostream ****       }
 125:/usr/include/c++/9.1.0/ostream **** 
 126:/usr/include/c++/9.1.0/ostream ****       __ostream_type&
 127:/usr/include/c++/9.1.0/ostream ****       operator<<(ios_base& (*__pf) (ios_base&))
 128:/usr/include/c++/9.1.0/ostream ****       {
 129:/usr/include/c++/9.1.0/ostream **** 	// _GLIBCXX_RESOLVE_LIB_DEFECTS
 130:/usr/include/c++/9.1.0/ostream **** 	// DR 60. What is a formatted input function?
 131:/usr/include/c++/9.1.0/ostream **** 	// The inserters for manipulators are *not* formatted output functions.
 132:/usr/include/c++/9.1.0/ostream **** 	__pf(*this);
 133:/usr/include/c++/9.1.0/ostream **** 	return *this;
 134:/usr/include/c++/9.1.0/ostream ****       }
 135:/usr/include/c++/9.1.0/ostream ****       //@}
 136:/usr/include/c++/9.1.0/ostream **** 
 137:/usr/include/c++/9.1.0/ostream ****       //@{
 138:/usr/include/c++/9.1.0/ostream ****       /**
 139:/usr/include/c++/9.1.0/ostream ****        *  @name Inserters
 140:/usr/include/c++/9.1.0/ostream ****        *
 141:/usr/include/c++/9.1.0/ostream ****        *  All the @c operator<< functions (aka <em>formatted output
 142:/usr/include/c++/9.1.0/ostream ****        *  functions</em>) have some common behavior.  Each starts by
 143:/usr/include/c++/9.1.0/ostream ****        *  constructing a temporary object of type std::basic_ostream::sentry.
 144:/usr/include/c++/9.1.0/ostream ****        *  This can have several effects, concluding with the setting of a
 145:/usr/include/c++/9.1.0/ostream ****        *  status flag; see the sentry documentation for more.
 146:/usr/include/c++/9.1.0/ostream ****        *
 147:/usr/include/c++/9.1.0/ostream ****        *  If the sentry status is good, the function tries to generate
 148:/usr/include/c++/9.1.0/ostream ****        *  whatever data is appropriate for the type of the argument.
 149:/usr/include/c++/9.1.0/ostream ****        *
 150:/usr/include/c++/9.1.0/ostream ****        *  If an exception is thrown during insertion, ios_base::badbit
 151:/usr/include/c++/9.1.0/ostream ****        *  will be turned on in the stream's error state without causing an
 152:/usr/include/c++/9.1.0/ostream ****        *  ios_base::failure to be thrown.  The original exception will then
 153:/usr/include/c++/9.1.0/ostream ****        *  be rethrown.
 154:/usr/include/c++/9.1.0/ostream ****       */
 155:/usr/include/c++/9.1.0/ostream **** 
 156:/usr/include/c++/9.1.0/ostream ****       //@{
 157:/usr/include/c++/9.1.0/ostream ****       /**
 158:/usr/include/c++/9.1.0/ostream ****        *  @brief Integer arithmetic inserters
 159:/usr/include/c++/9.1.0/ostream ****        *  @param  __n A variable of builtin integral type.
 160:/usr/include/c++/9.1.0/ostream ****        *  @return  @c *this if successful
 161:/usr/include/c++/9.1.0/ostream ****        *
 162:/usr/include/c++/9.1.0/ostream ****        *  These functions use the stream's current locale (specifically, the
 163:/usr/include/c++/9.1.0/ostream ****        *  @c num_get facet) to perform numeric formatting.
 164:/usr/include/c++/9.1.0/ostream ****       */
GAS LISTING /tmp/ccE0ce2x.s 			page 31


 165:/usr/include/c++/9.1.0/ostream ****       __ostream_type&
 166:/usr/include/c++/9.1.0/ostream ****       operator<<(long __n)
 167:/usr/include/c++/9.1.0/ostream ****       { return _M_insert(__n); }
 168:/usr/include/c++/9.1.0/ostream **** 
 169:/usr/include/c++/9.1.0/ostream ****       __ostream_type&
 170:/usr/include/c++/9.1.0/ostream ****       operator<<(unsigned long __n)
 171:/usr/include/c++/9.1.0/ostream ****       { return _M_insert(__n); }
 172:/usr/include/c++/9.1.0/ostream **** 
 173:/usr/include/c++/9.1.0/ostream ****       __ostream_type&
 174:/usr/include/c++/9.1.0/ostream ****       operator<<(bool __n)
 175:/usr/include/c++/9.1.0/ostream ****       { return _M_insert(__n); }
 176:/usr/include/c++/9.1.0/ostream **** 
 177:/usr/include/c++/9.1.0/ostream ****       __ostream_type&
 178:/usr/include/c++/9.1.0/ostream ****       operator<<(short __n);
 179:/usr/include/c++/9.1.0/ostream **** 
 180:/usr/include/c++/9.1.0/ostream ****       __ostream_type&
 181:/usr/include/c++/9.1.0/ostream ****       operator<<(unsigned short __n)
 182:/usr/include/c++/9.1.0/ostream ****       {
 183:/usr/include/c++/9.1.0/ostream **** 	// _GLIBCXX_RESOLVE_LIB_DEFECTS
 184:/usr/include/c++/9.1.0/ostream **** 	// 117. basic_ostream uses nonexistent num_put member functions.
 185:/usr/include/c++/9.1.0/ostream **** 	return _M_insert(static_cast<unsigned long>(__n));
 186:/usr/include/c++/9.1.0/ostream ****       }
 187:/usr/include/c++/9.1.0/ostream **** 
 188:/usr/include/c++/9.1.0/ostream ****       __ostream_type&
 189:/usr/include/c++/9.1.0/ostream ****       operator<<(int __n);
 190:/usr/include/c++/9.1.0/ostream **** 
 191:/usr/include/c++/9.1.0/ostream ****       __ostream_type&
 192:/usr/include/c++/9.1.0/ostream ****       operator<<(unsigned int __n)
 193:/usr/include/c++/9.1.0/ostream ****       {
 194:/usr/include/c++/9.1.0/ostream **** 	// _GLIBCXX_RESOLVE_LIB_DEFECTS
 195:/usr/include/c++/9.1.0/ostream **** 	// 117. basic_ostream uses nonexistent num_put member functions.
 196:/usr/include/c++/9.1.0/ostream **** 	return _M_insert(static_cast<unsigned long>(__n));
 197:/usr/include/c++/9.1.0/ostream ****       }
 198:/usr/include/c++/9.1.0/ostream **** 
 199:/usr/include/c++/9.1.0/ostream **** #ifdef _GLIBCXX_USE_LONG_LONG
 200:/usr/include/c++/9.1.0/ostream ****       __ostream_type&
 201:/usr/include/c++/9.1.0/ostream ****       operator<<(long long __n)
 202:/usr/include/c++/9.1.0/ostream ****       { return _M_insert(__n); }
 203:/usr/include/c++/9.1.0/ostream **** 
 204:/usr/include/c++/9.1.0/ostream ****       __ostream_type&
 205:/usr/include/c++/9.1.0/ostream ****       operator<<(unsigned long long __n)
 206:/usr/include/c++/9.1.0/ostream ****       { return _M_insert(__n); }
 207:/usr/include/c++/9.1.0/ostream **** #endif
 208:/usr/include/c++/9.1.0/ostream ****       //@}
 209:/usr/include/c++/9.1.0/ostream **** 
 210:/usr/include/c++/9.1.0/ostream ****       //@{
 211:/usr/include/c++/9.1.0/ostream ****       /**
 212:/usr/include/c++/9.1.0/ostream ****        *  @brief  Floating point arithmetic inserters
 213:/usr/include/c++/9.1.0/ostream ****        *  @param  __f A variable of builtin floating point type.
 214:/usr/include/c++/9.1.0/ostream ****        *  @return  @c *this if successful
 215:/usr/include/c++/9.1.0/ostream ****        *
 216:/usr/include/c++/9.1.0/ostream ****        *  These functions use the stream's current locale (specifically, the
 217:/usr/include/c++/9.1.0/ostream ****        *  @c num_get facet) to perform numeric formatting.
 218:/usr/include/c++/9.1.0/ostream ****       */
 219:/usr/include/c++/9.1.0/ostream ****       __ostream_type&
 220:/usr/include/c++/9.1.0/ostream ****       operator<<(double __f)
 221:/usr/include/c++/9.1.0/ostream ****       { return _M_insert(__f); }
GAS LISTING /tmp/ccE0ce2x.s 			page 32


 222:/usr/include/c++/9.1.0/ostream **** 
 223:/usr/include/c++/9.1.0/ostream ****       __ostream_type&
 224:/usr/include/c++/9.1.0/ostream ****       operator<<(float __f)
 225:/usr/include/c++/9.1.0/ostream ****       {
 226:/usr/include/c++/9.1.0/ostream **** 	// _GLIBCXX_RESOLVE_LIB_DEFECTS
 227:/usr/include/c++/9.1.0/ostream **** 	// 117. basic_ostream uses nonexistent num_put member functions.
 228:/usr/include/c++/9.1.0/ostream **** 	return _M_insert(static_cast<double>(__f));
 229:/usr/include/c++/9.1.0/ostream ****       }
 230:/usr/include/c++/9.1.0/ostream **** 
 231:/usr/include/c++/9.1.0/ostream ****       __ostream_type&
 232:/usr/include/c++/9.1.0/ostream ****       operator<<(long double __f)
 233:/usr/include/c++/9.1.0/ostream ****       { return _M_insert(__f); }
 234:/usr/include/c++/9.1.0/ostream ****       //@}
 235:/usr/include/c++/9.1.0/ostream **** 
 236:/usr/include/c++/9.1.0/ostream ****       /**
 237:/usr/include/c++/9.1.0/ostream ****        *  @brief  Pointer arithmetic inserters
 238:/usr/include/c++/9.1.0/ostream ****        *  @param  __p A variable of pointer type.
 239:/usr/include/c++/9.1.0/ostream ****        *  @return  @c *this if successful
 240:/usr/include/c++/9.1.0/ostream ****        *
 241:/usr/include/c++/9.1.0/ostream ****        *  These functions use the stream's current locale (specifically, the
 242:/usr/include/c++/9.1.0/ostream ****        *  @c num_get facet) to perform numeric formatting.
 243:/usr/include/c++/9.1.0/ostream ****       */
 244:/usr/include/c++/9.1.0/ostream ****       __ostream_type&
 245:/usr/include/c++/9.1.0/ostream ****       operator<<(const void* __p)
 246:/usr/include/c++/9.1.0/ostream ****       { return _M_insert(__p); }
 247:/usr/include/c++/9.1.0/ostream **** 
 248:/usr/include/c++/9.1.0/ostream **** #if __cplusplus >= 201703L
 249:/usr/include/c++/9.1.0/ostream ****       __ostream_type&
 250:/usr/include/c++/9.1.0/ostream ****       operator<<(nullptr_t)
 251:/usr/include/c++/9.1.0/ostream ****       { return *this << "nullptr"; }
 252:/usr/include/c++/9.1.0/ostream **** #endif
 253:/usr/include/c++/9.1.0/ostream **** 
 254:/usr/include/c++/9.1.0/ostream ****       /**
 255:/usr/include/c++/9.1.0/ostream ****        *  @brief  Extracting from another streambuf.
 256:/usr/include/c++/9.1.0/ostream ****        *  @param  __sb  A pointer to a streambuf
 257:/usr/include/c++/9.1.0/ostream ****        *
 258:/usr/include/c++/9.1.0/ostream ****        *  This function behaves like one of the basic arithmetic extractors,
 259:/usr/include/c++/9.1.0/ostream ****        *  in that it also constructs a sentry object and has the same error
 260:/usr/include/c++/9.1.0/ostream ****        *  handling behavior.
 261:/usr/include/c++/9.1.0/ostream ****        *
 262:/usr/include/c++/9.1.0/ostream ****        *  If @p __sb is NULL, the stream will set failbit in its error state.
 263:/usr/include/c++/9.1.0/ostream ****        *
 264:/usr/include/c++/9.1.0/ostream ****        *  Characters are extracted from @p __sb and inserted into @c *this
 265:/usr/include/c++/9.1.0/ostream ****        *  until one of the following occurs:
 266:/usr/include/c++/9.1.0/ostream ****        *
 267:/usr/include/c++/9.1.0/ostream ****        *  - the input stream reaches end-of-file,
 268:/usr/include/c++/9.1.0/ostream ****        *  - insertion into the output sequence fails (in this case, the
 269:/usr/include/c++/9.1.0/ostream ****        *    character that would have been inserted is not extracted), or
 270:/usr/include/c++/9.1.0/ostream ****        *  - an exception occurs while getting a character from @p __sb, which
 271:/usr/include/c++/9.1.0/ostream ****        *    sets failbit in the error state
 272:/usr/include/c++/9.1.0/ostream ****        *
 273:/usr/include/c++/9.1.0/ostream ****        *  If the function inserts no characters, failbit is set.
 274:/usr/include/c++/9.1.0/ostream ****       */
 275:/usr/include/c++/9.1.0/ostream ****       __ostream_type&
 276:/usr/include/c++/9.1.0/ostream ****       operator<<(__streambuf_type* __sb);
 277:/usr/include/c++/9.1.0/ostream ****       //@}
 278:/usr/include/c++/9.1.0/ostream **** 
GAS LISTING /tmp/ccE0ce2x.s 			page 33


 279:/usr/include/c++/9.1.0/ostream ****       //@{
 280:/usr/include/c++/9.1.0/ostream ****       /**
 281:/usr/include/c++/9.1.0/ostream ****        *  @name Unformatted Output Functions
 282:/usr/include/c++/9.1.0/ostream ****        *
 283:/usr/include/c++/9.1.0/ostream ****        *  All the unformatted output functions have some common behavior.
 284:/usr/include/c++/9.1.0/ostream ****        *  Each starts by constructing a temporary object of type
 285:/usr/include/c++/9.1.0/ostream ****        *  std::basic_ostream::sentry.  This has several effects, concluding
 286:/usr/include/c++/9.1.0/ostream ****        *  with the setting of a status flag; see the sentry documentation
 287:/usr/include/c++/9.1.0/ostream ****        *  for more.
 288:/usr/include/c++/9.1.0/ostream ****        *
 289:/usr/include/c++/9.1.0/ostream ****        *  If the sentry status is good, the function tries to generate
 290:/usr/include/c++/9.1.0/ostream ****        *  whatever data is appropriate for the type of the argument.
 291:/usr/include/c++/9.1.0/ostream ****        *
 292:/usr/include/c++/9.1.0/ostream ****        *  If an exception is thrown during insertion, ios_base::badbit
 293:/usr/include/c++/9.1.0/ostream ****        *  will be turned on in the stream's error state.  If badbit is on in
 294:/usr/include/c++/9.1.0/ostream ****        *  the stream's exceptions mask, the exception will be rethrown
 295:/usr/include/c++/9.1.0/ostream ****        *  without completing its actions.
 296:/usr/include/c++/9.1.0/ostream ****       */
 297:/usr/include/c++/9.1.0/ostream **** 
 298:/usr/include/c++/9.1.0/ostream ****       /**
 299:/usr/include/c++/9.1.0/ostream ****        *  @brief  Simple insertion.
 300:/usr/include/c++/9.1.0/ostream ****        *  @param  __c  The character to insert.
 301:/usr/include/c++/9.1.0/ostream ****        *  @return  *this
 302:/usr/include/c++/9.1.0/ostream ****        *
 303:/usr/include/c++/9.1.0/ostream ****        *  Tries to insert @p __c.
 304:/usr/include/c++/9.1.0/ostream ****        *
 305:/usr/include/c++/9.1.0/ostream ****        *  @note  This function is not overloaded on signed char and
 306:/usr/include/c++/9.1.0/ostream ****        *         unsigned char.
 307:/usr/include/c++/9.1.0/ostream ****       */
 308:/usr/include/c++/9.1.0/ostream ****       __ostream_type&
 309:/usr/include/c++/9.1.0/ostream ****       put(char_type __c);
 310:/usr/include/c++/9.1.0/ostream **** 
 311:/usr/include/c++/9.1.0/ostream ****       /**
 312:/usr/include/c++/9.1.0/ostream ****        *  @brief  Core write functionality, without sentry.
 313:/usr/include/c++/9.1.0/ostream ****        *  @param  __s  The array to insert.
 314:/usr/include/c++/9.1.0/ostream ****        *  @param  __n  Maximum number of characters to insert.
 315:/usr/include/c++/9.1.0/ostream ****       */
 316:/usr/include/c++/9.1.0/ostream ****       void
 317:/usr/include/c++/9.1.0/ostream ****       _M_write(const char_type* __s, streamsize __n)
 318:/usr/include/c++/9.1.0/ostream ****       {
 319:/usr/include/c++/9.1.0/ostream **** 	const streamsize __put = this->rdbuf()->sputn(__s, __n);
 320:/usr/include/c++/9.1.0/ostream **** 	if (__put != __n)
 321:/usr/include/c++/9.1.0/ostream **** 	  this->setstate(ios_base::badbit);
 322:/usr/include/c++/9.1.0/ostream ****       }
 323:/usr/include/c++/9.1.0/ostream **** 
 324:/usr/include/c++/9.1.0/ostream ****       /**
 325:/usr/include/c++/9.1.0/ostream ****        *  @brief  Character string insertion.
 326:/usr/include/c++/9.1.0/ostream ****        *  @param  __s  The array to insert.
 327:/usr/include/c++/9.1.0/ostream ****        *  @param  __n  Maximum number of characters to insert.
 328:/usr/include/c++/9.1.0/ostream ****        *  @return  *this
 329:/usr/include/c++/9.1.0/ostream ****        *
 330:/usr/include/c++/9.1.0/ostream ****        *  Characters are copied from @p __s and inserted into the stream until
 331:/usr/include/c++/9.1.0/ostream ****        *  one of the following happens:
 332:/usr/include/c++/9.1.0/ostream ****        *
 333:/usr/include/c++/9.1.0/ostream ****        *  - @p __n characters are inserted
 334:/usr/include/c++/9.1.0/ostream ****        *  - inserting into the output sequence fails (in this case, badbit
 335:/usr/include/c++/9.1.0/ostream ****        *    will be set in the stream's error state)
GAS LISTING /tmp/ccE0ce2x.s 			page 34


 336:/usr/include/c++/9.1.0/ostream ****        *
 337:/usr/include/c++/9.1.0/ostream ****        *  @note  This function is not overloaded on signed char and
 338:/usr/include/c++/9.1.0/ostream ****        *         unsigned char.
 339:/usr/include/c++/9.1.0/ostream ****       */
 340:/usr/include/c++/9.1.0/ostream ****       __ostream_type&
 341:/usr/include/c++/9.1.0/ostream ****       write(const char_type* __s, streamsize __n);
 342:/usr/include/c++/9.1.0/ostream ****       //@}
 343:/usr/include/c++/9.1.0/ostream **** 
 344:/usr/include/c++/9.1.0/ostream ****       /**
 345:/usr/include/c++/9.1.0/ostream ****        *  @brief  Synchronizing the stream buffer.
 346:/usr/include/c++/9.1.0/ostream ****        *  @return  *this
 347:/usr/include/c++/9.1.0/ostream ****        *
 348:/usr/include/c++/9.1.0/ostream ****        *  If @c rdbuf() is a null pointer, changes nothing.
 349:/usr/include/c++/9.1.0/ostream ****        *
 350:/usr/include/c++/9.1.0/ostream ****        *  Otherwise, calls @c rdbuf()->pubsync(), and if that returns -1,
 351:/usr/include/c++/9.1.0/ostream ****        *  sets badbit.
 352:/usr/include/c++/9.1.0/ostream ****       */
 353:/usr/include/c++/9.1.0/ostream ****       __ostream_type&
 354:/usr/include/c++/9.1.0/ostream ****       flush();
 355:/usr/include/c++/9.1.0/ostream **** 
 356:/usr/include/c++/9.1.0/ostream ****       /**
 357:/usr/include/c++/9.1.0/ostream ****        *  @brief  Getting the current write position.
 358:/usr/include/c++/9.1.0/ostream ****        *  @return  A file position object.
 359:/usr/include/c++/9.1.0/ostream ****        *
 360:/usr/include/c++/9.1.0/ostream ****        *  If @c fail() is not false, returns @c pos_type(-1) to indicate
 361:/usr/include/c++/9.1.0/ostream ****        *  failure.  Otherwise returns @c rdbuf()->pubseekoff(0,cur,out).
 362:/usr/include/c++/9.1.0/ostream ****       */
 363:/usr/include/c++/9.1.0/ostream ****       pos_type
 364:/usr/include/c++/9.1.0/ostream ****       tellp();
 365:/usr/include/c++/9.1.0/ostream **** 
 366:/usr/include/c++/9.1.0/ostream ****       /**
 367:/usr/include/c++/9.1.0/ostream ****        *  @brief  Changing the current write position.
 368:/usr/include/c++/9.1.0/ostream ****        *  @param  __pos  A file position object.
 369:/usr/include/c++/9.1.0/ostream ****        *  @return  *this
 370:/usr/include/c++/9.1.0/ostream ****        *
 371:/usr/include/c++/9.1.0/ostream ****        *  If @c fail() is not true, calls @c rdbuf()->pubseekpos(pos).  If
 372:/usr/include/c++/9.1.0/ostream ****        *  that function fails, sets failbit.
 373:/usr/include/c++/9.1.0/ostream ****       */
 374:/usr/include/c++/9.1.0/ostream ****       __ostream_type&
 375:/usr/include/c++/9.1.0/ostream ****       seekp(pos_type);
 376:/usr/include/c++/9.1.0/ostream **** 
 377:/usr/include/c++/9.1.0/ostream ****       /**
 378:/usr/include/c++/9.1.0/ostream ****        *  @brief  Changing the current write position.
 379:/usr/include/c++/9.1.0/ostream ****        *  @param  __off  A file offset object.
 380:/usr/include/c++/9.1.0/ostream ****        *  @param  __dir  The direction in which to seek.
 381:/usr/include/c++/9.1.0/ostream ****        *  @return  *this
 382:/usr/include/c++/9.1.0/ostream ****        *
 383:/usr/include/c++/9.1.0/ostream ****        *  If @c fail() is not true, calls @c rdbuf()->pubseekoff(off,dir).
 384:/usr/include/c++/9.1.0/ostream ****        *  If that function fails, sets failbit.
 385:/usr/include/c++/9.1.0/ostream ****       */
 386:/usr/include/c++/9.1.0/ostream ****        __ostream_type&
 387:/usr/include/c++/9.1.0/ostream ****       seekp(off_type, ios_base::seekdir);
 388:/usr/include/c++/9.1.0/ostream **** 
 389:/usr/include/c++/9.1.0/ostream ****     protected:
 390:/usr/include/c++/9.1.0/ostream ****       basic_ostream()
 391:/usr/include/c++/9.1.0/ostream ****       { this->init(0); }
 392:/usr/include/c++/9.1.0/ostream **** 
GAS LISTING /tmp/ccE0ce2x.s 			page 35


 393:/usr/include/c++/9.1.0/ostream **** #if __cplusplus >= 201103L
 394:/usr/include/c++/9.1.0/ostream ****       // Non-standard constructor that does not call init()
 395:/usr/include/c++/9.1.0/ostream ****       basic_ostream(basic_iostream<_CharT, _Traits>&) { }
 396:/usr/include/c++/9.1.0/ostream **** 
 397:/usr/include/c++/9.1.0/ostream ****       basic_ostream(const basic_ostream&) = delete;
 398:/usr/include/c++/9.1.0/ostream **** 
 399:/usr/include/c++/9.1.0/ostream ****       basic_ostream(basic_ostream&& __rhs)
 400:/usr/include/c++/9.1.0/ostream ****       : __ios_type()
 401:/usr/include/c++/9.1.0/ostream ****       { __ios_type::move(__rhs); }
 402:/usr/include/c++/9.1.0/ostream **** 
 403:/usr/include/c++/9.1.0/ostream ****       // 27.7.3.3 Assign/swap
 404:/usr/include/c++/9.1.0/ostream **** 
 405:/usr/include/c++/9.1.0/ostream ****       basic_ostream& operator=(const basic_ostream&) = delete;
 406:/usr/include/c++/9.1.0/ostream **** 
 407:/usr/include/c++/9.1.0/ostream ****       basic_ostream&
 408:/usr/include/c++/9.1.0/ostream ****       operator=(basic_ostream&& __rhs)
 409:/usr/include/c++/9.1.0/ostream ****       {
 410:/usr/include/c++/9.1.0/ostream **** 	swap(__rhs);
 411:/usr/include/c++/9.1.0/ostream **** 	return *this;
 412:/usr/include/c++/9.1.0/ostream ****       }
 413:/usr/include/c++/9.1.0/ostream **** 
 414:/usr/include/c++/9.1.0/ostream ****       void
 415:/usr/include/c++/9.1.0/ostream ****       swap(basic_ostream& __rhs)
 416:/usr/include/c++/9.1.0/ostream ****       { __ios_type::swap(__rhs); }
 417:/usr/include/c++/9.1.0/ostream **** #endif
 418:/usr/include/c++/9.1.0/ostream **** 
 419:/usr/include/c++/9.1.0/ostream ****       template<typename _ValueT>
 420:/usr/include/c++/9.1.0/ostream **** 	__ostream_type&
 421:/usr/include/c++/9.1.0/ostream **** 	_M_insert(_ValueT __v);
 422:/usr/include/c++/9.1.0/ostream ****     };
 423:/usr/include/c++/9.1.0/ostream **** 
 424:/usr/include/c++/9.1.0/ostream ****   /**
 425:/usr/include/c++/9.1.0/ostream ****    *  @brief  Performs setup work for output streams.
 426:/usr/include/c++/9.1.0/ostream ****    *
 427:/usr/include/c++/9.1.0/ostream ****    *  Objects of this class are created before all of the standard
 428:/usr/include/c++/9.1.0/ostream ****    *  inserters are run.  It is responsible for <em>exception-safe prefix and
 429:/usr/include/c++/9.1.0/ostream ****    *  suffix operations</em>.
 430:/usr/include/c++/9.1.0/ostream ****   */
 431:/usr/include/c++/9.1.0/ostream ****   template <typename _CharT, typename _Traits>
 432:/usr/include/c++/9.1.0/ostream ****     class basic_ostream<_CharT, _Traits>::sentry
 433:/usr/include/c++/9.1.0/ostream ****     {
 434:/usr/include/c++/9.1.0/ostream ****       // Data Members.
 435:/usr/include/c++/9.1.0/ostream ****       bool 				_M_ok;
 436:/usr/include/c++/9.1.0/ostream ****       basic_ostream<_CharT, _Traits>& 	_M_os;
 437:/usr/include/c++/9.1.0/ostream **** 
 438:/usr/include/c++/9.1.0/ostream ****     public:
 439:/usr/include/c++/9.1.0/ostream ****       /**
 440:/usr/include/c++/9.1.0/ostream ****        *  @brief  The constructor performs preparatory work.
 441:/usr/include/c++/9.1.0/ostream ****        *  @param  __os  The output stream to guard.
 442:/usr/include/c++/9.1.0/ostream ****        *
 443:/usr/include/c++/9.1.0/ostream ****        *  If the stream state is good (@a __os.good() is true), then if the
 444:/usr/include/c++/9.1.0/ostream ****        *  stream is tied to another output stream, @c is.tie()->flush()
 445:/usr/include/c++/9.1.0/ostream ****        *  is called to synchronize the output sequences.
 446:/usr/include/c++/9.1.0/ostream ****        *
 447:/usr/include/c++/9.1.0/ostream ****        *  If the stream state is still good, then the sentry state becomes
 448:/usr/include/c++/9.1.0/ostream ****        *  true (@a okay).
 449:/usr/include/c++/9.1.0/ostream ****       */
GAS LISTING /tmp/ccE0ce2x.s 			page 36


 450:/usr/include/c++/9.1.0/ostream ****       explicit
 451:/usr/include/c++/9.1.0/ostream ****       sentry(basic_ostream<_CharT, _Traits>& __os);
 452:/usr/include/c++/9.1.0/ostream **** 
 453:/usr/include/c++/9.1.0/ostream **** #pragma GCC diagnostic push
 454:/usr/include/c++/9.1.0/ostream **** #pragma GCC diagnostic ignored "-Wdeprecated-declarations"
 455:/usr/include/c++/9.1.0/ostream ****       /**
 456:/usr/include/c++/9.1.0/ostream ****        *  @brief  Possibly flushes the stream.
 457:/usr/include/c++/9.1.0/ostream ****        *
 458:/usr/include/c++/9.1.0/ostream ****        *  If @c ios_base::unitbuf is set in @c os.flags(), and
 459:/usr/include/c++/9.1.0/ostream ****        *  @c std::uncaught_exception() is true, the sentry destructor calls
 460:/usr/include/c++/9.1.0/ostream ****        *  @c flush() on the output stream.
 461:/usr/include/c++/9.1.0/ostream ****       */
 462:/usr/include/c++/9.1.0/ostream ****       ~sentry()
 463:/usr/include/c++/9.1.0/ostream ****       {
 464:/usr/include/c++/9.1.0/ostream **** 	// XXX MT
 465:/usr/include/c++/9.1.0/ostream **** 	if (bool(_M_os.flags() & ios_base::unitbuf) && !uncaught_exception())
 466:/usr/include/c++/9.1.0/ostream **** 	  {
 467:/usr/include/c++/9.1.0/ostream **** 	    // Can't call flush directly or else will get into recursive lock.
 468:/usr/include/c++/9.1.0/ostream **** 	    if (_M_os.rdbuf() && _M_os.rdbuf()->pubsync() == -1)
 469:/usr/include/c++/9.1.0/ostream **** 	      _M_os.setstate(ios_base::badbit);
 470:/usr/include/c++/9.1.0/ostream **** 	  }
 471:/usr/include/c++/9.1.0/ostream ****       }
 472:/usr/include/c++/9.1.0/ostream **** #pragma GCC diagnostic pop
 473:/usr/include/c++/9.1.0/ostream **** 
 474:/usr/include/c++/9.1.0/ostream ****       /**
 475:/usr/include/c++/9.1.0/ostream ****        *  @brief  Quick status checking.
 476:/usr/include/c++/9.1.0/ostream ****        *  @return  The sentry state.
 477:/usr/include/c++/9.1.0/ostream ****        *
 478:/usr/include/c++/9.1.0/ostream ****        *  For ease of use, sentries may be converted to booleans.  The
 479:/usr/include/c++/9.1.0/ostream ****        *  return value is that of the sentry state (true == okay).
 480:/usr/include/c++/9.1.0/ostream ****       */
 481:/usr/include/c++/9.1.0/ostream **** #if __cplusplus >= 201103L
 482:/usr/include/c++/9.1.0/ostream ****       explicit
 483:/usr/include/c++/9.1.0/ostream **** #endif
 484:/usr/include/c++/9.1.0/ostream ****       operator bool() const
 485:/usr/include/c++/9.1.0/ostream ****       { return _M_ok; }
 486:/usr/include/c++/9.1.0/ostream ****     };
 487:/usr/include/c++/9.1.0/ostream **** 
 488:/usr/include/c++/9.1.0/ostream ****   //@{
 489:/usr/include/c++/9.1.0/ostream ****   /**
 490:/usr/include/c++/9.1.0/ostream ****    *  @brief  Character inserters
 491:/usr/include/c++/9.1.0/ostream ****    *  @param  __out  An output stream.
 492:/usr/include/c++/9.1.0/ostream ****    *  @param  __c  A character.
 493:/usr/include/c++/9.1.0/ostream ****    *  @return  out
 494:/usr/include/c++/9.1.0/ostream ****    *
 495:/usr/include/c++/9.1.0/ostream ****    *  Behaves like one of the formatted arithmetic inserters described in
 496:/usr/include/c++/9.1.0/ostream ****    *  std::basic_ostream.  After constructing a sentry object with good
 497:/usr/include/c++/9.1.0/ostream ****    *  status, this function inserts a single character and any required
 498:/usr/include/c++/9.1.0/ostream ****    *  padding (as determined by [22.2.2.2.2]).  @c __out.width(0) is then
 499:/usr/include/c++/9.1.0/ostream ****    *  called.
 500:/usr/include/c++/9.1.0/ostream ****    *
 501:/usr/include/c++/9.1.0/ostream ****    *  If @p __c is of type @c char and the character type of the stream is not
 502:/usr/include/c++/9.1.0/ostream ****    *  @c char, the character is widened before insertion.
 503:/usr/include/c++/9.1.0/ostream ****   */
 504:/usr/include/c++/9.1.0/ostream ****   template<typename _CharT, typename _Traits>
 505:/usr/include/c++/9.1.0/ostream ****     inline basic_ostream<_CharT, _Traits>&
 506:/usr/include/c++/9.1.0/ostream ****     operator<<(basic_ostream<_CharT, _Traits>& __out, _CharT __c)
GAS LISTING /tmp/ccE0ce2x.s 			page 37


 507:/usr/include/c++/9.1.0/ostream ****     { return __ostream_insert(__out, &__c, 1); }
 508:/usr/include/c++/9.1.0/ostream **** 
 509:/usr/include/c++/9.1.0/ostream ****   template<typename _CharT, typename _Traits>
 510:/usr/include/c++/9.1.0/ostream ****     inline basic_ostream<_CharT, _Traits>&
 511:/usr/include/c++/9.1.0/ostream ****     operator<<(basic_ostream<_CharT, _Traits>& __out, char __c)
 512:/usr/include/c++/9.1.0/ostream ****     { return (__out << __out.widen(__c)); }
 513:/usr/include/c++/9.1.0/ostream **** 
 514:/usr/include/c++/9.1.0/ostream ****   // Specialization
 515:/usr/include/c++/9.1.0/ostream ****   template <class _Traits>
 516:/usr/include/c++/9.1.0/ostream ****     inline basic_ostream<char, _Traits>&
 517:/usr/include/c++/9.1.0/ostream ****     operator<<(basic_ostream<char, _Traits>& __out, char __c)
 518:/usr/include/c++/9.1.0/ostream ****     { return __ostream_insert(__out, &__c, 1); }
 519:/usr/include/c++/9.1.0/ostream **** 
 520:/usr/include/c++/9.1.0/ostream ****   // Signed and unsigned
 521:/usr/include/c++/9.1.0/ostream ****   template<class _Traits>
 522:/usr/include/c++/9.1.0/ostream ****     inline basic_ostream<char, _Traits>&
 523:/usr/include/c++/9.1.0/ostream ****     operator<<(basic_ostream<char, _Traits>& __out, signed char __c)
 524:/usr/include/c++/9.1.0/ostream ****     { return (__out << static_cast<char>(__c)); }
 525:/usr/include/c++/9.1.0/ostream **** 
 526:/usr/include/c++/9.1.0/ostream ****   template<class _Traits>
 527:/usr/include/c++/9.1.0/ostream ****     inline basic_ostream<char, _Traits>&
 528:/usr/include/c++/9.1.0/ostream ****     operator<<(basic_ostream<char, _Traits>& __out, unsigned char __c)
 529:/usr/include/c++/9.1.0/ostream ****     { return (__out << static_cast<char>(__c)); }
 530:/usr/include/c++/9.1.0/ostream ****   //@}
 531:/usr/include/c++/9.1.0/ostream **** 
 532:/usr/include/c++/9.1.0/ostream ****   //@{
 533:/usr/include/c++/9.1.0/ostream ****   /**
 534:/usr/include/c++/9.1.0/ostream ****    *  @brief  String inserters
 535:/usr/include/c++/9.1.0/ostream ****    *  @param  __out  An output stream.
 536:/usr/include/c++/9.1.0/ostream ****    *  @param  __s  A character string.
 537:/usr/include/c++/9.1.0/ostream ****    *  @return  out
 538:/usr/include/c++/9.1.0/ostream ****    *  @pre  @p __s must be a non-NULL pointer
 539:/usr/include/c++/9.1.0/ostream ****    *
 540:/usr/include/c++/9.1.0/ostream ****    *  Behaves like one of the formatted arithmetic inserters described in
 541:/usr/include/c++/9.1.0/ostream ****    *  std::basic_ostream.  After constructing a sentry object with good
 542:/usr/include/c++/9.1.0/ostream ****    *  status, this function inserts @c traits::length(__s) characters starting
 543:/usr/include/c++/9.1.0/ostream ****    *  at @p __s, widened if necessary, followed by any required padding (as
 544:/usr/include/c++/9.1.0/ostream ****    *  determined by [22.2.2.2.2]).  @c __out.width(0) is then called.
 545:/usr/include/c++/9.1.0/ostream ****   */
 546:/usr/include/c++/9.1.0/ostream ****   template<typename _CharT, typename _Traits>
 547:/usr/include/c++/9.1.0/ostream ****     inline basic_ostream<_CharT, _Traits>&
 548:/usr/include/c++/9.1.0/ostream ****     operator<<(basic_ostream<_CharT, _Traits>& __out, const _CharT* __s)
 549:/usr/include/c++/9.1.0/ostream ****     {
 550:/usr/include/c++/9.1.0/ostream ****       if (!__s)
 551:/usr/include/c++/9.1.0/ostream **** 	__out.setstate(ios_base::badbit);
 552:/usr/include/c++/9.1.0/ostream ****       else
 553:/usr/include/c++/9.1.0/ostream **** 	__ostream_insert(__out, __s,
 554:/usr/include/c++/9.1.0/ostream **** 			 static_cast<streamsize>(_Traits::length(__s)));
 555:/usr/include/c++/9.1.0/ostream ****       return __out;
 556:/usr/include/c++/9.1.0/ostream ****     }
 557:/usr/include/c++/9.1.0/ostream **** 
 558:/usr/include/c++/9.1.0/ostream ****   template<typename _CharT, typename _Traits>
 559:/usr/include/c++/9.1.0/ostream ****     basic_ostream<_CharT, _Traits> &
 560:/usr/include/c++/9.1.0/ostream ****     operator<<(basic_ostream<_CharT, _Traits>& __out, const char* __s);
 561:/usr/include/c++/9.1.0/ostream **** 
 562:/usr/include/c++/9.1.0/ostream ****   // Partial specializations
 563:/usr/include/c++/9.1.0/ostream ****   template<class _Traits>
GAS LISTING /tmp/ccE0ce2x.s 			page 38


 564:/usr/include/c++/9.1.0/ostream ****     inline basic_ostream<char, _Traits>&
 565:/usr/include/c++/9.1.0/ostream ****     operator<<(basic_ostream<char, _Traits>& __out, const char* __s)
 524              		.loc 4 565 5 view .LVU152
 525              		.loc 4 565 5 is_stmt 0 view .LVU153
 526              	.LBE152:
 527              		.file 5 "/usr/include/c++/9.1.0/bits/char_traits.h"
   1:/usr/include/c++/9.1.0/bits/char_traits.h **** // Character Traits for use by standard string and iostream -*- C++ -*-
   2:/usr/include/c++/9.1.0/bits/char_traits.h **** 
   3:/usr/include/c++/9.1.0/bits/char_traits.h **** // Copyright (C) 1997-2019 Free Software Foundation, Inc.
   4:/usr/include/c++/9.1.0/bits/char_traits.h **** //
   5:/usr/include/c++/9.1.0/bits/char_traits.h **** // This file is part of the GNU ISO C++ Library.  This library is free
   6:/usr/include/c++/9.1.0/bits/char_traits.h **** // software; you can redistribute it and/or modify it under the
   7:/usr/include/c++/9.1.0/bits/char_traits.h **** // terms of the GNU General Public License as published by the
   8:/usr/include/c++/9.1.0/bits/char_traits.h **** // Free Software Foundation; either version 3, or (at your option)
   9:/usr/include/c++/9.1.0/bits/char_traits.h **** // any later version.
  10:/usr/include/c++/9.1.0/bits/char_traits.h **** 
  11:/usr/include/c++/9.1.0/bits/char_traits.h **** // This library is distributed in the hope that it will be useful,
  12:/usr/include/c++/9.1.0/bits/char_traits.h **** // but WITHOUT ANY WARRANTY; without even the implied warranty of
  13:/usr/include/c++/9.1.0/bits/char_traits.h **** // MERCHANTABILITY or FITNESS FOR A PARTICULAR PURPOSE.  See the
  14:/usr/include/c++/9.1.0/bits/char_traits.h **** // GNU General Public License for more details.
  15:/usr/include/c++/9.1.0/bits/char_traits.h **** 
  16:/usr/include/c++/9.1.0/bits/char_traits.h **** // Under Section 7 of GPL version 3, you are granted additional
  17:/usr/include/c++/9.1.0/bits/char_traits.h **** // permissions described in the GCC Runtime Library Exception, version
  18:/usr/include/c++/9.1.0/bits/char_traits.h **** // 3.1, as published by the Free Software Foundation.
  19:/usr/include/c++/9.1.0/bits/char_traits.h **** 
  20:/usr/include/c++/9.1.0/bits/char_traits.h **** // You should have received a copy of the GNU General Public License and
  21:/usr/include/c++/9.1.0/bits/char_traits.h **** // a copy of the GCC Runtime Library Exception along with this program;
  22:/usr/include/c++/9.1.0/bits/char_traits.h **** // see the files COPYING3 and COPYING.RUNTIME respectively.  If not, see
  23:/usr/include/c++/9.1.0/bits/char_traits.h **** // <http://www.gnu.org/licenses/>.
  24:/usr/include/c++/9.1.0/bits/char_traits.h **** 
  25:/usr/include/c++/9.1.0/bits/char_traits.h **** /** @file bits/char_traits.h
  26:/usr/include/c++/9.1.0/bits/char_traits.h ****  *  This is an internal header file, included by other library headers.
  27:/usr/include/c++/9.1.0/bits/char_traits.h ****  *  Do not attempt to use it directly. @headername{string}
  28:/usr/include/c++/9.1.0/bits/char_traits.h ****  */
  29:/usr/include/c++/9.1.0/bits/char_traits.h **** 
  30:/usr/include/c++/9.1.0/bits/char_traits.h **** //
  31:/usr/include/c++/9.1.0/bits/char_traits.h **** // ISO C++ 14882: 21  Strings library
  32:/usr/include/c++/9.1.0/bits/char_traits.h **** //
  33:/usr/include/c++/9.1.0/bits/char_traits.h **** 
  34:/usr/include/c++/9.1.0/bits/char_traits.h **** #ifndef _CHAR_TRAITS_H
  35:/usr/include/c++/9.1.0/bits/char_traits.h **** #define _CHAR_TRAITS_H 1
  36:/usr/include/c++/9.1.0/bits/char_traits.h **** 
  37:/usr/include/c++/9.1.0/bits/char_traits.h **** #pragma GCC system_header
  38:/usr/include/c++/9.1.0/bits/char_traits.h **** 
  39:/usr/include/c++/9.1.0/bits/char_traits.h **** #include <bits/stl_algobase.h>  // std::copy, std::fill_n
  40:/usr/include/c++/9.1.0/bits/char_traits.h **** #include <bits/postypes.h>      // For streampos
  41:/usr/include/c++/9.1.0/bits/char_traits.h **** #include <cwchar>               // For WEOF, wmemmove, wmemset, etc.
  42:/usr/include/c++/9.1.0/bits/char_traits.h **** 
  43:/usr/include/c++/9.1.0/bits/char_traits.h **** #ifndef _GLIBCXX_ALWAYS_INLINE
  44:/usr/include/c++/9.1.0/bits/char_traits.h **** # define _GLIBCXX_ALWAYS_INLINE inline __attribute__((__always_inline__))
  45:/usr/include/c++/9.1.0/bits/char_traits.h **** #endif
  46:/usr/include/c++/9.1.0/bits/char_traits.h **** 
  47:/usr/include/c++/9.1.0/bits/char_traits.h **** namespace __gnu_cxx _GLIBCXX_VISIBILITY(default)
  48:/usr/include/c++/9.1.0/bits/char_traits.h **** {
  49:/usr/include/c++/9.1.0/bits/char_traits.h **** _GLIBCXX_BEGIN_NAMESPACE_VERSION
  50:/usr/include/c++/9.1.0/bits/char_traits.h **** 
  51:/usr/include/c++/9.1.0/bits/char_traits.h ****   /**
GAS LISTING /tmp/ccE0ce2x.s 			page 39


  52:/usr/include/c++/9.1.0/bits/char_traits.h ****    *  @brief  Mapping from character type to associated types.
  53:/usr/include/c++/9.1.0/bits/char_traits.h ****    *
  54:/usr/include/c++/9.1.0/bits/char_traits.h ****    *  @note This is an implementation class for the generic version
  55:/usr/include/c++/9.1.0/bits/char_traits.h ****    *  of char_traits.  It defines int_type, off_type, pos_type, and
  56:/usr/include/c++/9.1.0/bits/char_traits.h ****    *  state_type.  By default these are unsigned long, streamoff,
  57:/usr/include/c++/9.1.0/bits/char_traits.h ****    *  streampos, and mbstate_t.  Users who need a different set of
  58:/usr/include/c++/9.1.0/bits/char_traits.h ****    *  types, but who don't need to change the definitions of any function
  59:/usr/include/c++/9.1.0/bits/char_traits.h ****    *  defined in char_traits, can specialize __gnu_cxx::_Char_types
  60:/usr/include/c++/9.1.0/bits/char_traits.h ****    *  while leaving __gnu_cxx::char_traits alone. */
  61:/usr/include/c++/9.1.0/bits/char_traits.h ****   template<typename _CharT>
  62:/usr/include/c++/9.1.0/bits/char_traits.h ****     struct _Char_types
  63:/usr/include/c++/9.1.0/bits/char_traits.h ****     {
  64:/usr/include/c++/9.1.0/bits/char_traits.h ****       typedef unsigned long   int_type;
  65:/usr/include/c++/9.1.0/bits/char_traits.h ****       typedef std::streampos  pos_type;
  66:/usr/include/c++/9.1.0/bits/char_traits.h ****       typedef std::streamoff  off_type;
  67:/usr/include/c++/9.1.0/bits/char_traits.h ****       typedef std::mbstate_t  state_type;
  68:/usr/include/c++/9.1.0/bits/char_traits.h ****     };
  69:/usr/include/c++/9.1.0/bits/char_traits.h **** 
  70:/usr/include/c++/9.1.0/bits/char_traits.h **** 
  71:/usr/include/c++/9.1.0/bits/char_traits.h ****   /**
  72:/usr/include/c++/9.1.0/bits/char_traits.h ****    *  @brief  Base class used to implement std::char_traits.
  73:/usr/include/c++/9.1.0/bits/char_traits.h ****    *
  74:/usr/include/c++/9.1.0/bits/char_traits.h ****    *  @note For any given actual character type, this definition is
  75:/usr/include/c++/9.1.0/bits/char_traits.h ****    *  probably wrong.  (Most of the member functions are likely to be
  76:/usr/include/c++/9.1.0/bits/char_traits.h ****    *  right, but the int_type and state_type typedefs, and the eof()
  77:/usr/include/c++/9.1.0/bits/char_traits.h ****    *  member function, are likely to be wrong.)  The reason this class
  78:/usr/include/c++/9.1.0/bits/char_traits.h ****    *  exists is so users can specialize it.  Classes in namespace std
  79:/usr/include/c++/9.1.0/bits/char_traits.h ****    *  may not be specialized for fundamental types, but classes in
  80:/usr/include/c++/9.1.0/bits/char_traits.h ****    *  namespace __gnu_cxx may be.
  81:/usr/include/c++/9.1.0/bits/char_traits.h ****    *
  82:/usr/include/c++/9.1.0/bits/char_traits.h ****    *  See https://gcc.gnu.org/onlinedocs/libstdc++/manual/strings.html#strings.string.character_typ
  83:/usr/include/c++/9.1.0/bits/char_traits.h ****    *  for advice on how to make use of this class for @a unusual character
  84:/usr/include/c++/9.1.0/bits/char_traits.h ****    *  types. Also, check out include/ext/pod_char_traits.h.  
  85:/usr/include/c++/9.1.0/bits/char_traits.h ****    */
  86:/usr/include/c++/9.1.0/bits/char_traits.h ****   template<typename _CharT>
  87:/usr/include/c++/9.1.0/bits/char_traits.h ****     struct char_traits
  88:/usr/include/c++/9.1.0/bits/char_traits.h ****     {
  89:/usr/include/c++/9.1.0/bits/char_traits.h ****       typedef _CharT                                    char_type;
  90:/usr/include/c++/9.1.0/bits/char_traits.h ****       typedef typename _Char_types<_CharT>::int_type    int_type;
  91:/usr/include/c++/9.1.0/bits/char_traits.h ****       typedef typename _Char_types<_CharT>::pos_type    pos_type;
  92:/usr/include/c++/9.1.0/bits/char_traits.h ****       typedef typename _Char_types<_CharT>::off_type    off_type;
  93:/usr/include/c++/9.1.0/bits/char_traits.h ****       typedef typename _Char_types<_CharT>::state_type  state_type;
  94:/usr/include/c++/9.1.0/bits/char_traits.h **** 
  95:/usr/include/c++/9.1.0/bits/char_traits.h ****       static _GLIBCXX14_CONSTEXPR void
  96:/usr/include/c++/9.1.0/bits/char_traits.h ****       assign(char_type& __c1, const char_type& __c2)
  97:/usr/include/c++/9.1.0/bits/char_traits.h ****       { __c1 = __c2; }
  98:/usr/include/c++/9.1.0/bits/char_traits.h **** 
  99:/usr/include/c++/9.1.0/bits/char_traits.h ****       static _GLIBCXX_CONSTEXPR bool
 100:/usr/include/c++/9.1.0/bits/char_traits.h ****       eq(const char_type& __c1, const char_type& __c2)
 101:/usr/include/c++/9.1.0/bits/char_traits.h ****       { return __c1 == __c2; }
 102:/usr/include/c++/9.1.0/bits/char_traits.h **** 
 103:/usr/include/c++/9.1.0/bits/char_traits.h ****       static _GLIBCXX_CONSTEXPR bool
 104:/usr/include/c++/9.1.0/bits/char_traits.h ****       lt(const char_type& __c1, const char_type& __c2)
 105:/usr/include/c++/9.1.0/bits/char_traits.h ****       { return __c1 < __c2; }
 106:/usr/include/c++/9.1.0/bits/char_traits.h **** 
 107:/usr/include/c++/9.1.0/bits/char_traits.h ****       static _GLIBCXX14_CONSTEXPR int
 108:/usr/include/c++/9.1.0/bits/char_traits.h ****       compare(const char_type* __s1, const char_type* __s2, std::size_t __n);
GAS LISTING /tmp/ccE0ce2x.s 			page 40


 109:/usr/include/c++/9.1.0/bits/char_traits.h **** 
 110:/usr/include/c++/9.1.0/bits/char_traits.h ****       static _GLIBCXX14_CONSTEXPR std::size_t
 111:/usr/include/c++/9.1.0/bits/char_traits.h ****       length(const char_type* __s);
 112:/usr/include/c++/9.1.0/bits/char_traits.h **** 
 113:/usr/include/c++/9.1.0/bits/char_traits.h ****       static _GLIBCXX14_CONSTEXPR const char_type*
 114:/usr/include/c++/9.1.0/bits/char_traits.h ****       find(const char_type* __s, std::size_t __n, const char_type& __a);
 115:/usr/include/c++/9.1.0/bits/char_traits.h **** 
 116:/usr/include/c++/9.1.0/bits/char_traits.h ****       static char_type*
 117:/usr/include/c++/9.1.0/bits/char_traits.h ****       move(char_type* __s1, const char_type* __s2, std::size_t __n);
 118:/usr/include/c++/9.1.0/bits/char_traits.h **** 
 119:/usr/include/c++/9.1.0/bits/char_traits.h ****       static char_type*
 120:/usr/include/c++/9.1.0/bits/char_traits.h ****       copy(char_type* __s1, const char_type* __s2, std::size_t __n);
 121:/usr/include/c++/9.1.0/bits/char_traits.h **** 
 122:/usr/include/c++/9.1.0/bits/char_traits.h ****       static char_type*
 123:/usr/include/c++/9.1.0/bits/char_traits.h ****       assign(char_type* __s, std::size_t __n, char_type __a);
 124:/usr/include/c++/9.1.0/bits/char_traits.h **** 
 125:/usr/include/c++/9.1.0/bits/char_traits.h ****       static _GLIBCXX_CONSTEXPR char_type
 126:/usr/include/c++/9.1.0/bits/char_traits.h ****       to_char_type(const int_type& __c)
 127:/usr/include/c++/9.1.0/bits/char_traits.h ****       { return static_cast<char_type>(__c); }
 128:/usr/include/c++/9.1.0/bits/char_traits.h **** 
 129:/usr/include/c++/9.1.0/bits/char_traits.h ****       static _GLIBCXX_CONSTEXPR int_type
 130:/usr/include/c++/9.1.0/bits/char_traits.h ****       to_int_type(const char_type& __c)
 131:/usr/include/c++/9.1.0/bits/char_traits.h ****       { return static_cast<int_type>(__c); }
 132:/usr/include/c++/9.1.0/bits/char_traits.h **** 
 133:/usr/include/c++/9.1.0/bits/char_traits.h ****       static _GLIBCXX_CONSTEXPR bool
 134:/usr/include/c++/9.1.0/bits/char_traits.h ****       eq_int_type(const int_type& __c1, const int_type& __c2)
 135:/usr/include/c++/9.1.0/bits/char_traits.h ****       { return __c1 == __c2; }
 136:/usr/include/c++/9.1.0/bits/char_traits.h **** 
 137:/usr/include/c++/9.1.0/bits/char_traits.h ****       static _GLIBCXX_CONSTEXPR int_type
 138:/usr/include/c++/9.1.0/bits/char_traits.h ****       eof()
 139:/usr/include/c++/9.1.0/bits/char_traits.h ****       { return static_cast<int_type>(_GLIBCXX_STDIO_EOF); }
 140:/usr/include/c++/9.1.0/bits/char_traits.h **** 
 141:/usr/include/c++/9.1.0/bits/char_traits.h ****       static _GLIBCXX_CONSTEXPR int_type
 142:/usr/include/c++/9.1.0/bits/char_traits.h ****       not_eof(const int_type& __c)
 143:/usr/include/c++/9.1.0/bits/char_traits.h ****       { return !eq_int_type(__c, eof()) ? __c : to_int_type(char_type()); }
 144:/usr/include/c++/9.1.0/bits/char_traits.h ****     };
 145:/usr/include/c++/9.1.0/bits/char_traits.h **** 
 146:/usr/include/c++/9.1.0/bits/char_traits.h ****   template<typename _CharT>
 147:/usr/include/c++/9.1.0/bits/char_traits.h ****     _GLIBCXX14_CONSTEXPR int
 148:/usr/include/c++/9.1.0/bits/char_traits.h ****     char_traits<_CharT>::
 149:/usr/include/c++/9.1.0/bits/char_traits.h ****     compare(const char_type* __s1, const char_type* __s2, std::size_t __n)
 150:/usr/include/c++/9.1.0/bits/char_traits.h ****     {
 151:/usr/include/c++/9.1.0/bits/char_traits.h ****       for (std::size_t __i = 0; __i < __n; ++__i)
 152:/usr/include/c++/9.1.0/bits/char_traits.h **** 	if (lt(__s1[__i], __s2[__i]))
 153:/usr/include/c++/9.1.0/bits/char_traits.h **** 	  return -1;
 154:/usr/include/c++/9.1.0/bits/char_traits.h **** 	else if (lt(__s2[__i], __s1[__i]))
 155:/usr/include/c++/9.1.0/bits/char_traits.h **** 	  return 1;
 156:/usr/include/c++/9.1.0/bits/char_traits.h ****       return 0;
 157:/usr/include/c++/9.1.0/bits/char_traits.h ****     }
 158:/usr/include/c++/9.1.0/bits/char_traits.h **** 
 159:/usr/include/c++/9.1.0/bits/char_traits.h ****   template<typename _CharT>
 160:/usr/include/c++/9.1.0/bits/char_traits.h ****     _GLIBCXX14_CONSTEXPR std::size_t
 161:/usr/include/c++/9.1.0/bits/char_traits.h ****     char_traits<_CharT>::
 162:/usr/include/c++/9.1.0/bits/char_traits.h ****     length(const char_type* __p)
 163:/usr/include/c++/9.1.0/bits/char_traits.h ****     {
 164:/usr/include/c++/9.1.0/bits/char_traits.h ****       std::size_t __i = 0;
 165:/usr/include/c++/9.1.0/bits/char_traits.h ****       while (!eq(__p[__i], char_type()))
GAS LISTING /tmp/ccE0ce2x.s 			page 41


 166:/usr/include/c++/9.1.0/bits/char_traits.h ****         ++__i;
 167:/usr/include/c++/9.1.0/bits/char_traits.h ****       return __i;
 168:/usr/include/c++/9.1.0/bits/char_traits.h ****     }
 169:/usr/include/c++/9.1.0/bits/char_traits.h **** 
 170:/usr/include/c++/9.1.0/bits/char_traits.h ****   template<typename _CharT>
 171:/usr/include/c++/9.1.0/bits/char_traits.h ****     _GLIBCXX14_CONSTEXPR const typename char_traits<_CharT>::char_type*
 172:/usr/include/c++/9.1.0/bits/char_traits.h ****     char_traits<_CharT>::
 173:/usr/include/c++/9.1.0/bits/char_traits.h ****     find(const char_type* __s, std::size_t __n, const char_type& __a)
 174:/usr/include/c++/9.1.0/bits/char_traits.h ****     {
 175:/usr/include/c++/9.1.0/bits/char_traits.h ****       for (std::size_t __i = 0; __i < __n; ++__i)
 176:/usr/include/c++/9.1.0/bits/char_traits.h ****         if (eq(__s[__i], __a))
 177:/usr/include/c++/9.1.0/bits/char_traits.h ****           return __s + __i;
 178:/usr/include/c++/9.1.0/bits/char_traits.h ****       return 0;
 179:/usr/include/c++/9.1.0/bits/char_traits.h ****     }
 180:/usr/include/c++/9.1.0/bits/char_traits.h **** 
 181:/usr/include/c++/9.1.0/bits/char_traits.h ****   template<typename _CharT>
 182:/usr/include/c++/9.1.0/bits/char_traits.h ****     typename char_traits<_CharT>::char_type*
 183:/usr/include/c++/9.1.0/bits/char_traits.h ****     char_traits<_CharT>::
 184:/usr/include/c++/9.1.0/bits/char_traits.h ****     move(char_type* __s1, const char_type* __s2, std::size_t __n)
 185:/usr/include/c++/9.1.0/bits/char_traits.h ****     {
 186:/usr/include/c++/9.1.0/bits/char_traits.h ****       if (__n == 0)
 187:/usr/include/c++/9.1.0/bits/char_traits.h **** 	return __s1;
 188:/usr/include/c++/9.1.0/bits/char_traits.h ****       return static_cast<_CharT*>(__builtin_memmove(__s1, __s2,
 189:/usr/include/c++/9.1.0/bits/char_traits.h **** 						    __n * sizeof(char_type)));
 190:/usr/include/c++/9.1.0/bits/char_traits.h ****     }
 191:/usr/include/c++/9.1.0/bits/char_traits.h **** 
 192:/usr/include/c++/9.1.0/bits/char_traits.h ****   template<typename _CharT>
 193:/usr/include/c++/9.1.0/bits/char_traits.h ****     typename char_traits<_CharT>::char_type*
 194:/usr/include/c++/9.1.0/bits/char_traits.h ****     char_traits<_CharT>::
 195:/usr/include/c++/9.1.0/bits/char_traits.h ****     copy(char_type* __s1, const char_type* __s2, std::size_t __n)
 196:/usr/include/c++/9.1.0/bits/char_traits.h ****     {
 197:/usr/include/c++/9.1.0/bits/char_traits.h ****       // NB: Inline std::copy so no recursive dependencies.
 198:/usr/include/c++/9.1.0/bits/char_traits.h ****       std::copy(__s2, __s2 + __n, __s1);
 199:/usr/include/c++/9.1.0/bits/char_traits.h ****       return __s1;
 200:/usr/include/c++/9.1.0/bits/char_traits.h ****     }
 201:/usr/include/c++/9.1.0/bits/char_traits.h **** 
 202:/usr/include/c++/9.1.0/bits/char_traits.h ****   template<typename _CharT>
 203:/usr/include/c++/9.1.0/bits/char_traits.h ****     typename char_traits<_CharT>::char_type*
 204:/usr/include/c++/9.1.0/bits/char_traits.h ****     char_traits<_CharT>::
 205:/usr/include/c++/9.1.0/bits/char_traits.h ****     assign(char_type* __s, std::size_t __n, char_type __a)
 206:/usr/include/c++/9.1.0/bits/char_traits.h ****     {
 207:/usr/include/c++/9.1.0/bits/char_traits.h ****       // NB: Inline std::fill_n so no recursive dependencies.
 208:/usr/include/c++/9.1.0/bits/char_traits.h ****       std::fill_n(__s, __n, __a);
 209:/usr/include/c++/9.1.0/bits/char_traits.h ****       return __s;
 210:/usr/include/c++/9.1.0/bits/char_traits.h ****     }
 211:/usr/include/c++/9.1.0/bits/char_traits.h **** 
 212:/usr/include/c++/9.1.0/bits/char_traits.h **** _GLIBCXX_END_NAMESPACE_VERSION
 213:/usr/include/c++/9.1.0/bits/char_traits.h **** } // namespace
 214:/usr/include/c++/9.1.0/bits/char_traits.h **** 
 215:/usr/include/c++/9.1.0/bits/char_traits.h **** namespace std _GLIBCXX_VISIBILITY(default)
 216:/usr/include/c++/9.1.0/bits/char_traits.h **** {
 217:/usr/include/c++/9.1.0/bits/char_traits.h **** _GLIBCXX_BEGIN_NAMESPACE_VERSION
 218:/usr/include/c++/9.1.0/bits/char_traits.h **** 
 219:/usr/include/c++/9.1.0/bits/char_traits.h **** #if __cplusplus >= 201703L
 220:/usr/include/c++/9.1.0/bits/char_traits.h **** #define __cpp_lib_constexpr_char_traits 201611
 221:/usr/include/c++/9.1.0/bits/char_traits.h **** 
 222:/usr/include/c++/9.1.0/bits/char_traits.h ****   /**
GAS LISTING /tmp/ccE0ce2x.s 			page 42


 223:/usr/include/c++/9.1.0/bits/char_traits.h ****    *  @brief Determine whether the characters of a NULL-terminated
 224:/usr/include/c++/9.1.0/bits/char_traits.h ****    *  string are known at compile time.
 225:/usr/include/c++/9.1.0/bits/char_traits.h ****    *  @param  __s  The string.
 226:/usr/include/c++/9.1.0/bits/char_traits.h ****    *
 227:/usr/include/c++/9.1.0/bits/char_traits.h ****    *  Assumes that _CharT is a built-in character type.
 228:/usr/include/c++/9.1.0/bits/char_traits.h ****    */
 229:/usr/include/c++/9.1.0/bits/char_traits.h ****   template<typename _CharT>
 230:/usr/include/c++/9.1.0/bits/char_traits.h ****     static _GLIBCXX_ALWAYS_INLINE constexpr bool
 231:/usr/include/c++/9.1.0/bits/char_traits.h ****     __constant_string_p(const _CharT* __s)
 232:/usr/include/c++/9.1.0/bits/char_traits.h ****     {
 233:/usr/include/c++/9.1.0/bits/char_traits.h **** #ifdef _GLIBCXX_HAVE_BUILTIN_IS_CONSTANT_EVALUATED
 234:/usr/include/c++/9.1.0/bits/char_traits.h ****       (void) __s;
 235:/usr/include/c++/9.1.0/bits/char_traits.h ****       // In constexpr contexts all strings should be constant.
 236:/usr/include/c++/9.1.0/bits/char_traits.h ****       return __builtin_is_constant_evaluated();
 237:/usr/include/c++/9.1.0/bits/char_traits.h **** #else
 238:/usr/include/c++/9.1.0/bits/char_traits.h ****       while (__builtin_constant_p(*__s) && *__s)
 239:/usr/include/c++/9.1.0/bits/char_traits.h **** 	__s++;
 240:/usr/include/c++/9.1.0/bits/char_traits.h ****       return __builtin_constant_p(*__s);
 241:/usr/include/c++/9.1.0/bits/char_traits.h **** #endif
 242:/usr/include/c++/9.1.0/bits/char_traits.h ****     }
 243:/usr/include/c++/9.1.0/bits/char_traits.h **** 
 244:/usr/include/c++/9.1.0/bits/char_traits.h ****   /**
 245:/usr/include/c++/9.1.0/bits/char_traits.h ****    *  @brief Determine whether the characters of a character array are
 246:/usr/include/c++/9.1.0/bits/char_traits.h ****    *  known at compile time.
 247:/usr/include/c++/9.1.0/bits/char_traits.h ****    *  @param  __a  The character array.
 248:/usr/include/c++/9.1.0/bits/char_traits.h ****    *  @param  __n  Number of characters.
 249:/usr/include/c++/9.1.0/bits/char_traits.h ****    *
 250:/usr/include/c++/9.1.0/bits/char_traits.h ****    *  Assumes that _CharT is a built-in character type.
 251:/usr/include/c++/9.1.0/bits/char_traits.h ****    */
 252:/usr/include/c++/9.1.0/bits/char_traits.h ****   template<typename _CharT>
 253:/usr/include/c++/9.1.0/bits/char_traits.h ****     static _GLIBCXX_ALWAYS_INLINE constexpr bool
 254:/usr/include/c++/9.1.0/bits/char_traits.h ****     __constant_char_array_p(const _CharT* __a, size_t __n)
 255:/usr/include/c++/9.1.0/bits/char_traits.h ****     {
 256:/usr/include/c++/9.1.0/bits/char_traits.h **** #ifdef _GLIBCXX_HAVE_BUILTIN_IS_CONSTANT_EVALUATED
 257:/usr/include/c++/9.1.0/bits/char_traits.h ****       (void) __a;
 258:/usr/include/c++/9.1.0/bits/char_traits.h ****       (void) __n;
 259:/usr/include/c++/9.1.0/bits/char_traits.h ****       // In constexpr contexts all character arrays should be constant.
 260:/usr/include/c++/9.1.0/bits/char_traits.h ****       return __builtin_is_constant_evaluated();
 261:/usr/include/c++/9.1.0/bits/char_traits.h **** #else
 262:/usr/include/c++/9.1.0/bits/char_traits.h ****       size_t __i = 0;
 263:/usr/include/c++/9.1.0/bits/char_traits.h ****       while (__i < __n && __builtin_constant_p(__a[__i]))
 264:/usr/include/c++/9.1.0/bits/char_traits.h **** 	__i++;
 265:/usr/include/c++/9.1.0/bits/char_traits.h ****       return __i == __n;
 266:/usr/include/c++/9.1.0/bits/char_traits.h **** #endif
 267:/usr/include/c++/9.1.0/bits/char_traits.h ****     }
 268:/usr/include/c++/9.1.0/bits/char_traits.h **** #endif
 269:/usr/include/c++/9.1.0/bits/char_traits.h **** 
 270:/usr/include/c++/9.1.0/bits/char_traits.h ****   // 21.1
 271:/usr/include/c++/9.1.0/bits/char_traits.h ****   /**
 272:/usr/include/c++/9.1.0/bits/char_traits.h ****    *  @brief  Basis for explicit traits specializations.
 273:/usr/include/c++/9.1.0/bits/char_traits.h ****    *
 274:/usr/include/c++/9.1.0/bits/char_traits.h ****    *  @note  For any given actual character type, this definition is
 275:/usr/include/c++/9.1.0/bits/char_traits.h ****    *  probably wrong.  Since this is just a thin wrapper around
 276:/usr/include/c++/9.1.0/bits/char_traits.h ****    *  __gnu_cxx::char_traits, it is possible to achieve a more
 277:/usr/include/c++/9.1.0/bits/char_traits.h ****    *  appropriate definition by specializing __gnu_cxx::char_traits.
 278:/usr/include/c++/9.1.0/bits/char_traits.h ****    *
 279:/usr/include/c++/9.1.0/bits/char_traits.h ****    *  See https://gcc.gnu.org/onlinedocs/libstdc++/manual/strings.html#strings.string.character_typ
GAS LISTING /tmp/ccE0ce2x.s 			page 43


 280:/usr/include/c++/9.1.0/bits/char_traits.h ****    *  for advice on how to make use of this class for @a unusual character
 281:/usr/include/c++/9.1.0/bits/char_traits.h ****    *  types. Also, check out include/ext/pod_char_traits.h.
 282:/usr/include/c++/9.1.0/bits/char_traits.h ****   */
 283:/usr/include/c++/9.1.0/bits/char_traits.h ****   template<class _CharT>
 284:/usr/include/c++/9.1.0/bits/char_traits.h ****     struct char_traits : public __gnu_cxx::char_traits<_CharT>
 285:/usr/include/c++/9.1.0/bits/char_traits.h ****     { };
 286:/usr/include/c++/9.1.0/bits/char_traits.h **** 
 287:/usr/include/c++/9.1.0/bits/char_traits.h **** 
 288:/usr/include/c++/9.1.0/bits/char_traits.h ****   /// 21.1.3.1  char_traits specializations
 289:/usr/include/c++/9.1.0/bits/char_traits.h ****   template<>
 290:/usr/include/c++/9.1.0/bits/char_traits.h ****     struct char_traits<char>
 291:/usr/include/c++/9.1.0/bits/char_traits.h ****     {
 292:/usr/include/c++/9.1.0/bits/char_traits.h ****       typedef char              char_type;
 293:/usr/include/c++/9.1.0/bits/char_traits.h ****       typedef int               int_type;
 294:/usr/include/c++/9.1.0/bits/char_traits.h ****       typedef streampos         pos_type;
 295:/usr/include/c++/9.1.0/bits/char_traits.h ****       typedef streamoff         off_type;
 296:/usr/include/c++/9.1.0/bits/char_traits.h ****       typedef mbstate_t         state_type;
 297:/usr/include/c++/9.1.0/bits/char_traits.h **** 
 298:/usr/include/c++/9.1.0/bits/char_traits.h ****       static _GLIBCXX17_CONSTEXPR void
 299:/usr/include/c++/9.1.0/bits/char_traits.h ****       assign(char_type& __c1, const char_type& __c2) _GLIBCXX_NOEXCEPT
 300:/usr/include/c++/9.1.0/bits/char_traits.h ****       { __c1 = __c2; }
 301:/usr/include/c++/9.1.0/bits/char_traits.h **** 
 302:/usr/include/c++/9.1.0/bits/char_traits.h ****       static _GLIBCXX_CONSTEXPR bool
 303:/usr/include/c++/9.1.0/bits/char_traits.h ****       eq(const char_type& __c1, const char_type& __c2) _GLIBCXX_NOEXCEPT
 304:/usr/include/c++/9.1.0/bits/char_traits.h ****       { return __c1 == __c2; }
 305:/usr/include/c++/9.1.0/bits/char_traits.h **** 
 306:/usr/include/c++/9.1.0/bits/char_traits.h ****       static _GLIBCXX_CONSTEXPR bool
 307:/usr/include/c++/9.1.0/bits/char_traits.h ****       lt(const char_type& __c1, const char_type& __c2) _GLIBCXX_NOEXCEPT
 308:/usr/include/c++/9.1.0/bits/char_traits.h ****       {
 309:/usr/include/c++/9.1.0/bits/char_traits.h **** 	// LWG 467.
 310:/usr/include/c++/9.1.0/bits/char_traits.h **** 	return (static_cast<unsigned char>(__c1)
 311:/usr/include/c++/9.1.0/bits/char_traits.h **** 		< static_cast<unsigned char>(__c2));
 312:/usr/include/c++/9.1.0/bits/char_traits.h ****       }
 313:/usr/include/c++/9.1.0/bits/char_traits.h **** 
 314:/usr/include/c++/9.1.0/bits/char_traits.h ****       static _GLIBCXX17_CONSTEXPR int
 315:/usr/include/c++/9.1.0/bits/char_traits.h ****       compare(const char_type* __s1, const char_type* __s2, size_t __n)
 316:/usr/include/c++/9.1.0/bits/char_traits.h ****       {
 317:/usr/include/c++/9.1.0/bits/char_traits.h **** 	if (__n == 0)
 318:/usr/include/c++/9.1.0/bits/char_traits.h **** 	  return 0;
 319:/usr/include/c++/9.1.0/bits/char_traits.h **** #if __cplusplus >= 201703L
 320:/usr/include/c++/9.1.0/bits/char_traits.h **** 	if (__builtin_constant_p(__n)
 321:/usr/include/c++/9.1.0/bits/char_traits.h **** 	    && __constant_char_array_p(__s1, __n)
 322:/usr/include/c++/9.1.0/bits/char_traits.h **** 	    && __constant_char_array_p(__s2, __n))
 323:/usr/include/c++/9.1.0/bits/char_traits.h **** 	  return __gnu_cxx::char_traits<char_type>::compare(__s1, __s2, __n);
 324:/usr/include/c++/9.1.0/bits/char_traits.h **** #endif
 325:/usr/include/c++/9.1.0/bits/char_traits.h **** 	return __builtin_memcmp(__s1, __s2, __n);
 326:/usr/include/c++/9.1.0/bits/char_traits.h ****       }
 327:/usr/include/c++/9.1.0/bits/char_traits.h **** 
 328:/usr/include/c++/9.1.0/bits/char_traits.h ****       static _GLIBCXX17_CONSTEXPR size_t
 329:/usr/include/c++/9.1.0/bits/char_traits.h ****       length(const char_type* __s)
 330:/usr/include/c++/9.1.0/bits/char_traits.h ****       {
 331:/usr/include/c++/9.1.0/bits/char_traits.h **** #if __cplusplus >= 201703L
 332:/usr/include/c++/9.1.0/bits/char_traits.h **** 	if (__constant_string_p(__s))
 333:/usr/include/c++/9.1.0/bits/char_traits.h **** 	  return __gnu_cxx::char_traits<char_type>::length(__s);
 334:/usr/include/c++/9.1.0/bits/char_traits.h **** #endif
 335:/usr/include/c++/9.1.0/bits/char_traits.h **** 	return __builtin_strlen(__s);
 528              		.loc 5 335 2 is_stmt 1 view .LVU154
GAS LISTING /tmp/ccE0ce2x.s 			page 44


 529              	.LBB154:
 530              	.LBB153:
 566:/usr/include/c++/9.1.0/ostream ****     {
 567:/usr/include/c++/9.1.0/ostream ****       if (!__s)
 568:/usr/include/c++/9.1.0/ostream **** 	__out.setstate(ios_base::badbit);
 569:/usr/include/c++/9.1.0/ostream ****       else
 570:/usr/include/c++/9.1.0/ostream **** 	__ostream_insert(__out, __s,
 531              		.loc 4 570 18 is_stmt 0 view .LVU155
 532 02fd BA090000 		movl	$9, %edx
 532      00
 533 0302 488D3500 		leaq	.LC5(%rip), %rsi
 533      000000
 534 0309 488D3D00 		leaq	_ZSt4cout(%rip), %rdi
 534      000000
 535 0310 E8000000 		call	_ZSt16__ostream_insertIcSt11char_traitsIcEERSt13basic_ostreamIT_T0_ES6_PKS3_l@PLT
 535      00
 536              	.LVL37:
 537              		.loc 4 570 18 view .LVU156
 538              	.LBE153:
 539              	.LBE154:
  52:Src/findwayBases.cpp ****     b.b = obst->c->x + obst->a;
 540              		.loc 1 52 5 is_stmt 1 view .LVU157
  52:Src/findwayBases.cpp ****     b.b = obst->c->x + obst->a;
 541              		.loc 1 52 9 is_stmt 0 view .LVU158
 542 0315 44896424 		movl	%r12d, 40(%rsp)
 542      28
  53:Src/findwayBases.cpp ****     c2 = getIntersection(&b, &b2);
 543              		.loc 1 53 5 is_stmt 1 view .LVU159
  53:Src/findwayBases.cpp ****     c2 = getIntersection(&b, &b2);
 544              		.loc 1 53 17 is_stmt 0 view .LVU160
 545 031a 488B03   		movq	(%rbx), %rax
  53:Src/findwayBases.cpp ****     c2 = getIntersection(&b, &b2);
 546              		.loc 1 53 30 view .LVU161
 547 031d F30F1043 		movss	40(%rbx), %xmm0
 547      28
  53:Src/findwayBases.cpp ****     c2 = getIntersection(&b, &b2);
 548              		.loc 1 53 22 view .LVU162
 549 0322 F30F5800 		addss	(%rax), %xmm0
  53:Src/findwayBases.cpp ****     c2 = getIntersection(&b, &b2);
 550              		.loc 1 53 9 view .LVU163
 551 0326 F30F1144 		movss	%xmm0, 44(%rsp)
 551      242C
  54:Src/findwayBases.cpp **** 
 552              		.loc 1 54 5 is_stmt 1 view .LVU164
  54:Src/findwayBases.cpp **** 
 553              		.loc 1 54 33 is_stmt 0 view .LVU165
 554 032c 4C89F6   		movq	%r14, %rsi
 555 032f 4C89EF   		movq	%r13, %rdi
 556 0332 E8000000 		call	_Z15getIntersectionPK8baselineS1_
 556      00
 557              	.LVL38:
 558 0337 660FD644 		movq	%xmm0, 24(%rsp)
 558      2418
  56:Src/findwayBases.cpp **** 
 559              		.loc 1 56 5 is_stmt 1 view .LVU166
 560              	.LVL39:
 561              	.LBB155:
GAS LISTING /tmp/ccE0ce2x.s 			page 45


 562              	.LBI155:
 565:/usr/include/c++/9.1.0/ostream ****     {
 563              		.loc 4 565 5 view .LVU167
 565:/usr/include/c++/9.1.0/ostream ****     {
 564              		.loc 4 565 5 is_stmt 0 view .LVU168
 565              	.LBE155:
 566              		.loc 5 335 2 is_stmt 1 view .LVU169
 567              	.LBB157:
 568              	.LBB156:
 569              		.loc 4 570 18 is_stmt 0 view .LVU170
 570 033d BA100000 		movl	$16, %edx
 570      00
 571 0342 488D3500 		leaq	.LC6(%rip), %rsi
 571      000000
 572 0349 488D3D00 		leaq	_ZSt4cout(%rip), %rdi
 572      000000
 573 0350 E8000000 		call	_ZSt16__ostream_insertIcSt11char_traitsIcEERSt13basic_ostreamIT_T0_ES6_PKS3_l@PLT
 573      00
 574              	.LVL40:
 575              		.loc 4 570 18 view .LVU171
 576              	.LBE156:
 577              	.LBE157:
  58:Src/findwayBases.cpp ****     {
 578              		.loc 1 58 5 is_stmt 1 view .LVU172
  58:Src/findwayBases.cpp ****     {
 579              		.loc 1 58 20 is_stmt 0 view .LVU173
 580 0355 488D7C24 		leaq	16(%rsp), %rdi
 580      10
 581 035a 4889DE   		movq	%rbx, %rsi
 582 035d E8000000 		call	_Z11isDotInsidePK6coordsPK8obstacle
 582      00
 583              	.LVL41:
  58:Src/findwayBases.cpp ****     {
 584              		.loc 1 58 32 view .LVU174
 585 0362 84C0     		testb	%al, %al
 586 0364 7515     		jne	.L45
  58:Src/findwayBases.cpp ****     {
 587              		.loc 1 58 46 discriminator 1 view .LVU175
 588 0366 488D7C24 		leaq	24(%rsp), %rdi
 588      18
 589 036b 4889DE   		movq	%rbx, %rsi
 590 036e E8000000 		call	_Z11isDotInsidePK6coordsPK8obstacle
 590      00
 591              	.LVL42:
  58:Src/findwayBases.cpp ****     {
 592              		.loc 1 58 32 discriminator 1 view .LVU176
 593 0373 84C0     		testb	%al, %al
 594 0375 0F85CB00 		jne	.L63
 594      0000
 595              	.L45:
  65:Src/findwayBases.cpp ****     b.b = obst->c->y;
 596              		.loc 1 65 5 is_stmt 1 view .LVU177
  65:Src/findwayBases.cpp ****     b.b = obst->c->y;
 597              		.loc 1 65 9 is_stmt 0 view .LVU178
 598 037b C7442428 		movl	$0x00000000, 40(%rsp)
 598      00000000 
  66:Src/findwayBases.cpp ****     c2 = getIntersection(&b, &b2);
GAS LISTING /tmp/ccE0ce2x.s 			page 46


 599              		.loc 1 66 5 is_stmt 1 view .LVU179
  66:Src/findwayBases.cpp ****     c2 = getIntersection(&b, &b2);
 600              		.loc 1 66 17 is_stmt 0 view .LVU180
 601 0383 4C8B33   		movq	(%rbx), %r14
  66:Src/findwayBases.cpp ****     c2 = getIntersection(&b, &b2);
 602              		.loc 1 66 20 view .LVU181
 603 0386 F3410F10 		movss	4(%r14), %xmm0
 603      4604
  66:Src/findwayBases.cpp ****     c2 = getIntersection(&b, &b2);
 604              		.loc 1 66 9 view .LVU182
 605 038c F30F1144 		movss	%xmm0, 44(%rsp)
 605      242C
  67:Src/findwayBases.cpp **** 
 606              		.loc 1 67 5 is_stmt 1 view .LVU183
  67:Src/findwayBases.cpp **** 
 607              		.loc 1 67 33 is_stmt 0 view .LVU184
 608 0392 4C8D6C24 		leaq	48(%rsp), %r13
 608      30
 609 0397 4C8D6424 		leaq	40(%rsp), %r12
 609      28
 610 039c 4C89EE   		movq	%r13, %rsi
 611 039f 4C89E7   		movq	%r12, %rdi
 612 03a2 E8000000 		call	_Z15getIntersectionPK8baselineS1_
 612      00
 613              	.LVL43:
 614 03a7 660FD644 		movq	%xmm0, 24(%rsp)
 614      2418
  70:Src/findwayBases.cpp ****     b.b = obst->c->y + obst->a;
 615              		.loc 1 70 5 is_stmt 1 view .LVU185
  71:Src/findwayBases.cpp ****     c3 = getIntersection(&b, &b2);
 616              		.loc 1 71 5 view .LVU186
  71:Src/findwayBases.cpp ****     c3 = getIntersection(&b, &b2);
 617              		.loc 1 71 30 is_stmt 0 view .LVU187
 618 03ad F30F1043 		movss	40(%rbx), %xmm0
 618      28
  71:Src/findwayBases.cpp ****     c3 = getIntersection(&b, &b2);
 619              		.loc 1 71 22 view .LVU188
 620 03b2 F3410F58 		addss	4(%r14), %xmm0
 620      4604
  71:Src/findwayBases.cpp ****     c3 = getIntersection(&b, &b2);
 621              		.loc 1 71 9 view .LVU189
 622 03b8 F30F1144 		movss	%xmm0, 44(%rsp)
 622      242C
  72:Src/findwayBases.cpp **** 
 623              		.loc 1 72 5 is_stmt 1 view .LVU190
  72:Src/findwayBases.cpp **** 
 624              		.loc 1 72 33 is_stmt 0 view .LVU191
 625 03be 4C89EE   		movq	%r13, %rsi
 626 03c1 4C89E7   		movq	%r12, %rdi
 627 03c4 E8000000 		call	_Z15getIntersectionPK8baselineS1_
 627      00
 628              	.LVL44:
 629 03c9 660FD644 		movq	%xmm0, 32(%rsp)
 629      2420
  74:Src/findwayBases.cpp ****     if(!isDotInside(&c2, obst) && isDotInside(&c3, obst))
 630              		.loc 1 74 5 is_stmt 1 view .LVU192
 631              	.LVL45:
GAS LISTING /tmp/ccE0ce2x.s 			page 47


 632              	.LBB158:
 633              	.LBI158:
 565:/usr/include/c++/9.1.0/ostream ****     {
 634              		.loc 4 565 5 view .LVU193
 565:/usr/include/c++/9.1.0/ostream ****     {
 635              		.loc 4 565 5 is_stmt 0 view .LVU194
 636              	.LBE158:
 637              		.loc 5 335 2 is_stmt 1 view .LVU195
 638              	.LBB160:
 639              	.LBB159:
 640              		.loc 4 570 18 is_stmt 0 view .LVU196
 641 03cf BA100000 		movl	$16, %edx
 641      00
 642 03d4 488D3500 		leaq	.LC8(%rip), %rsi
 642      000000
 643 03db 488D3D00 		leaq	_ZSt4cout(%rip), %rdi
 643      000000
 644 03e2 E8000000 		call	_ZSt16__ostream_insertIcSt11char_traitsIcEERSt13basic_ostreamIT_T0_ES6_PKS3_l@PLT
 644      00
 645              	.LVL46:
 646              		.loc 4 570 18 view .LVU197
 647              	.LBE159:
 648              	.LBE160:
  75:Src/findwayBases.cpp ****     {
 649              		.loc 1 75 5 is_stmt 1 view .LVU198
  75:Src/findwayBases.cpp ****     {
 650              		.loc 1 75 20 is_stmt 0 view .LVU199
 651 03e7 488D7C24 		leaq	24(%rsp), %rdi
 651      18
 652 03ec 4889DE   		movq	%rbx, %rsi
 653 03ef E8000000 		call	_Z11isDotInsidePK6coordsPK8obstacle
 653      00
 654              	.LVL47:
  75:Src/findwayBases.cpp ****     {
 655              		.loc 1 75 32 view .LVU200
 656 03f4 84C0     		testb	%al, %al
 657 03f6 7511     		jne	.L46
  75:Src/findwayBases.cpp ****     {
 658              		.loc 1 75 46 discriminator 1 view .LVU201
 659 03f8 488D7C24 		leaq	32(%rsp), %rdi
 659      20
 660 03fd 4889DE   		movq	%rbx, %rsi
 661 0400 E8000000 		call	_Z11isDotInsidePK6coordsPK8obstacle
 661      00
 662              	.LVL48:
  75:Src/findwayBases.cpp ****     {
 663              		.loc 1 75 32 discriminator 1 view .LVU202
 664 0405 84C0     		testb	%al, %al
 665 0407 7564     		jne	.L64
 666              	.L46:
  81:Src/findwayBases.cpp ****         if(!isDotInside(&c2, obst))
 667              		.loc 1 81 5 is_stmt 1 view .LVU203
  81:Src/findwayBases.cpp ****         if(!isDotInside(&c2, obst))
 668              		.loc 1 81 20 is_stmt 0 view .LVU204
 669 0409 488D7C24 		leaq	16(%rsp), %rdi
 669      10
 670 040e 4889DE   		movq	%rbx, %rsi
GAS LISTING /tmp/ccE0ce2x.s 			page 48


 671 0411 E8000000 		call	_Z11isDotInsidePK6coordsPK8obstacle
 671      00
 672              	.LVL49:
  81:Src/findwayBases.cpp ****         if(!isDotInside(&c2, obst))
 673              		.loc 1 81 5 view .LVU205
 674 0416 84C0     		testb	%al, %al
 675 0418 0F858000 		jne	.L47
 675      0000
  82:Src/findwayBases.cpp ****             return {-1, -1};        //no intersections
 676              		.loc 1 82 9 is_stmt 1 view .LVU206
  82:Src/findwayBases.cpp ****             return {-1, -1};        //no intersections
 677              		.loc 1 82 24 is_stmt 0 view .LVU207
 678 041e 488D7C24 		leaq	24(%rsp), %rdi
 678      18
 679 0423 4889DE   		movq	%rbx, %rsi
 680 0426 E8000000 		call	_Z11isDotInsidePK6coordsPK8obstacle
 680      00
 681              	.LVL50:
  82:Src/findwayBases.cpp ****             return {-1, -1};        //no intersections
 682              		.loc 1 82 9 view .LVU208
 683 042b 84C0     		testb	%al, %al
 684 042d 7565     		jne	.L48
  83:Src/findwayBases.cpp ****         else
 685              		.loc 1 83 13 is_stmt 1 view .LVU209
  83:Src/findwayBases.cpp ****         else
 686              		.loc 1 83 27 is_stmt 0 view .LVU210
 687 042f 48BA0000 		movabsq	$-4647714815446351872, %rdx
 687      00000000 
 687      80BF
 688 0439 B8000080 		movl	$3212836864, %eax
 688      BF
 689 043e 4809D0   		orq	%rdx, %rax
 690 0441 E928FEFF 		jmp	.L44
 690      FF
 691              	.L63:
  60:Src/findwayBases.cpp ****         c1 = c2;
 692              		.loc 1 60 9 is_stmt 1 view .LVU211
 693              	.LVL51:
 694              	.LBB161:
 695              	.LBI161:
 565:/usr/include/c++/9.1.0/ostream ****     {
 696              		.loc 4 565 5 view .LVU212
 565:/usr/include/c++/9.1.0/ostream ****     {
 697              		.loc 4 565 5 is_stmt 0 view .LVU213
 698              	.LBE161:
 699              		.loc 5 335 2 is_stmt 1 view .LVU214
 700              	.LBB163:
 701              	.LBB162:
 702              		.loc 4 570 18 is_stmt 0 view .LVU215
 703 0446 BA150000 		movl	$21, %edx
 703      00
 704 044b 488D3500 		leaq	.LC7(%rip), %rsi
 704      000000
 705 0452 488D3D00 		leaq	_ZSt4cout(%rip), %rdi
 705      000000
 706 0459 E8000000 		call	_ZSt16__ostream_insertIcSt11char_traitsIcEERSt13basic_ostreamIT_T0_ES6_PKS3_l@PLT
 706      00
GAS LISTING /tmp/ccE0ce2x.s 			page 49


 707              	.LVL52:
 708              		.loc 4 570 18 view .LVU216
 709              	.LBE162:
 710              	.LBE163:
  61:Src/findwayBases.cpp ****     }
 711              		.loc 1 61 9 is_stmt 1 view .LVU217
  61:Src/findwayBases.cpp ****     }
 712              		.loc 1 61 12 is_stmt 0 view .LVU218
 713 045e 488B4424 		movq	24(%rsp), %rax
 713      18
 714 0463 48894424 		movq	%rax, 16(%rsp)
 714      10
 715 0468 E90EFFFF 		jmp	.L45
 715      FF
 716              	.L64:
  77:Src/findwayBases.cpp ****         c2 = c3;
 717              		.loc 1 77 9 is_stmt 1 view .LVU219
 718              	.LVL53:
 719              	.LBB164:
 720              	.LBI164:
 565:/usr/include/c++/9.1.0/ostream ****     {
 721              		.loc 4 565 5 view .LVU220
 565:/usr/include/c++/9.1.0/ostream ****     {
 722              		.loc 4 565 5 is_stmt 0 view .LVU221
 723              	.LBE164:
 724              		.loc 5 335 2 is_stmt 1 view .LVU222
 725              	.LBB166:
 726              	.LBB165:
 727              		.loc 4 570 18 is_stmt 0 view .LVU223
 728 046d BA150000 		movl	$21, %edx
 728      00
 729 0472 488D3500 		leaq	.LC9(%rip), %rsi
 729      000000
 730 0479 488D3D00 		leaq	_ZSt4cout(%rip), %rdi
 730      000000
 731 0480 E8000000 		call	_ZSt16__ostream_insertIcSt11char_traitsIcEERSt13basic_ostreamIT_T0_ES6_PKS3_l@PLT
 731      00
 732              	.LVL54:
 733              		.loc 4 570 18 view .LVU224
 734              	.LBE165:
 735              	.LBE166:
  78:Src/findwayBases.cpp ****     }
 736              		.loc 1 78 9 is_stmt 1 view .LVU225
  78:Src/findwayBases.cpp ****     }
 737              		.loc 1 78 12 is_stmt 0 view .LVU226
 738 0485 488B4424 		movq	32(%rsp), %rax
 738      20
 739 048a 48894424 		movq	%rax, 24(%rsp)
 739      18
 740 048f E975FFFF 		jmp	.L46
 740      FF
 741              	.L48:
  85:Src/findwayBases.cpp ****     else
 742              		.loc 1 85 13 is_stmt 1 view .LVU227
  85:Src/findwayBases.cpp ****     else
 743              		.loc 1 85 20 is_stmt 0 view .LVU228
 744 0494 488B4424 		movq	24(%rsp), %rax
GAS LISTING /tmp/ccE0ce2x.s 			page 50


 744      18
 745 0499 E9D0FDFF 		jmp	.L44
 745      FF
 746              	.L47:
  87:Src/findwayBases.cpp ****             return c1;          //intersection only in c1
 747              		.loc 1 87 9 is_stmt 1 view .LVU229
  87:Src/findwayBases.cpp ****             return c1;          //intersection only in c1
 748              		.loc 1 87 24 is_stmt 0 view .LVU230
 749 049e 488D7C24 		leaq	24(%rsp), %rdi
 749      18
 750 04a3 4889DE   		movq	%rbx, %rsi
 751 04a6 E8000000 		call	_Z11isDotInsidePK6coordsPK8obstacle
 751      00
 752              	.LVL55:
  87:Src/findwayBases.cpp ****             return c1;          //intersection only in c1
 753              		.loc 1 87 9 view .LVU231
 754 04ab 84C0     		testb	%al, %al
 755 04ad 750A     		jne	.L49
  88:Src/findwayBases.cpp **** 
 756              		.loc 1 88 13 is_stmt 1 view .LVU232
  88:Src/findwayBases.cpp **** 
 757              		.loc 1 88 20 is_stmt 0 view .LVU233
 758 04af 488B4424 		movq	16(%rsp), %rax
 758      10
 759 04b4 E9B5FDFF 		jmp	.L44
 759      FF
 760              	.L49:
  91:Src/findwayBases.cpp **** 
 761              		.loc 1 91 5 is_stmt 1 view .LVU234
  91:Src/findwayBases.cpp **** 
 762              		.loc 1 91 35 is_stmt 0 view .LVU235
 763 04b9 488B4500 		movq	0(%rbp), %rax
  91:Src/findwayBases.cpp **** 
 764              		.loc 1 91 39 view .LVU236
 765 04bd F30F1048 		movss	4(%rax), %xmm1
 765      04
 766 04c2 F30F1000 		movss	(%rax), %xmm0
 767 04c6 E8000000 		call	_Z12createCoordsff
 767      00
 768              	.LVL56:
 769 04cb 660FD644 		movq	%xmm0, 32(%rsp)
 769      2420
  93:Src/findwayBases.cpp ****                     l2 = getLen(&c3, &c2),
 770              		.loc 1 93 5 is_stmt 1 view .LVU237
  93:Src/findwayBases.cpp ****                     l2 = getLen(&c3, &c2),
 771              		.loc 1 93 32 is_stmt 0 view .LVU238
 772 04d1 488D7424 		leaq	16(%rsp), %rsi
 772      10
 773 04d6 488D5C24 		leaq	32(%rsp), %rbx
 773      20
 774              	.LVL57:
  93:Src/findwayBases.cpp ****                     l2 = getLen(&c3, &c2),
 775              		.loc 1 93 32 view .LVU239
 776 04db 4889DF   		movq	%rbx, %rdi
 777 04de E8000000 		call	_Z6getLenPK6coordsS1_
 777      00
 778              	.LVL58:
GAS LISTING /tmp/ccE0ce2x.s 			page 51


 779 04e3 F30F1144 		movss	%xmm0, 12(%rsp)
 779      240C
 780              	.LVL59:
  94:Src/findwayBases.cpp ****                     l3 = getLen(v);
 781              		.loc 1 94 32 view .LVU240
 782 04e9 488D7424 		leaq	24(%rsp), %rsi
 782      18
 783 04ee 4889DF   		movq	%rbx, %rdi
 784 04f1 E8000000 		call	_Z6getLenPK6coordsS1_
 784      00
 785              	.LVL60:
  94:Src/findwayBases.cpp ****                     l3 = getLen(v);
 786              		.loc 1 94 32 view .LVU241
 787 04f6 F30F1144 		movss	%xmm0, 8(%rsp)
 787      2408
 788              	.LVL61:
  95:Src/findwayBases.cpp **** 
 789              		.loc 1 95 32 view .LVU242
 790 04fc 4889EF   		movq	%rbp, %rdi
 791 04ff E8000000 		call	_Z6getLenPK4vect
 791      00
 792              	.LVL62:
  97:Src/findwayBases.cpp ****         return c1;
 793              		.loc 1 97 5 is_stmt 1 view .LVU243
 794 0504 F30F105C 		movss	12(%rsp), %xmm3
 794      240C
 795 050a 0F2F5C24 		comiss	8(%rsp), %xmm3
 795      08
 796 050f 760F     		jbe	.L50
  97:Src/findwayBases.cpp ****         return c1;
 797              		.loc 1 97 16 is_stmt 0 discriminator 1 view .LVU244
 798 0511 0F2FC3   		comiss	%xmm3, %xmm0
 799 0514 720A     		jb	.L50
  98:Src/findwayBases.cpp ****     else if(l3 >= l2)
 800              		.loc 1 98 9 is_stmt 1 view .LVU245
  98:Src/findwayBases.cpp ****     else if(l3 >= l2)
 801              		.loc 1 98 16 is_stmt 0 view .LVU246
 802 0516 488B4424 		movq	16(%rsp), %rax
 802      10
 803 051b E94EFDFF 		jmp	.L44
 803      FF
 804              	.L50:
  99:Src/findwayBases.cpp ****         return c2;
 805              		.loc 1 99 10 is_stmt 1 view .LVU247
 806 0520 0F2F4424 		comiss	8(%rsp), %xmm0
 806      08
 807 0525 720A     		jb	.L60
 100:Src/findwayBases.cpp ****     else
 808              		.loc 1 100 9 view .LVU248
 100:Src/findwayBases.cpp ****     else
 809              		.loc 1 100 16 is_stmt 0 view .LVU249
 810 0527 488B4424 		movq	24(%rsp), %rax
 810      18
 811 052c E93DFDFF 		jmp	.L44
 811      FF
 812              	.L60:
 102:Src/findwayBases.cpp **** }
GAS LISTING /tmp/ccE0ce2x.s 			page 52


 813              		.loc 1 102 9 is_stmt 1 view .LVU250
 102:Src/findwayBases.cpp **** }
 814              		.loc 1 102 23 is_stmt 0 view .LVU251
 815 0531 48BA0000 		movabsq	$-4647714815446351872, %rdx
 815      00000000 
 815      80BF
 816 053b B8000080 		movl	$3212836864, %eax
 816      BF
 817 0540 4809D0   		orq	%rdx, %rax
 818 0543 E926FDFF 		jmp	.L44
 818      FF
 819              	.LVL63:
 820              	.L62:
 103:Src/findwayBases.cpp **** 
 821              		.loc 1 103 1 view .LVU252
 822 0548 E8000000 		call	__stack_chk_fail@PLT
 822      00
 823              	.LVL64:
 824              		.cfi_endproc
 825              	.LFE1720:
 827              		.globl	_Z17getCoordsOfCornerPK8obstacleh
 829              	_Z17getCoordsOfCornerPK8obstacleh:
 830              	.LVL65:
 831              	.LFB1733:
 168:Src/findwayBases.cpp ****     struct coords *ret = (struct coords*)malloc(sizeof(struct coords));
 832              		.loc 1 168 1 is_stmt 1 view -0
 833              		.cfi_startproc
 168:Src/findwayBases.cpp ****     struct coords *ret = (struct coords*)malloc(sizeof(struct coords));
 834              		.loc 1 168 1 is_stmt 0 view .LVU254
 835 054d 55       		pushq	%rbp
 836              		.cfi_def_cfa_offset 16
 837              		.cfi_offset 6, -16
 838 054e 53       		pushq	%rbx
 839              		.cfi_def_cfa_offset 24
 840              		.cfi_offset 3, -24
 841 054f 4883EC08 		subq	$8, %rsp
 842              		.cfi_def_cfa_offset 32
 843 0553 4889FD   		movq	%rdi, %rbp
 844 0556 89F3     		movl	%esi, %ebx
 169:Src/findwayBases.cpp ****     switch (corner) {
 845              		.loc 1 169 5 is_stmt 1 view .LVU255
 169:Src/findwayBases.cpp ****     switch (corner) {
 846              		.loc 1 169 48 is_stmt 0 view .LVU256
 847 0558 BF080000 		movl	$8, %edi
 847      00
 848              	.LVL66:
 169:Src/findwayBases.cpp ****     switch (corner) {
 849              		.loc 1 169 48 view .LVU257
 850 055d E8000000 		call	malloc@PLT
 850      00
 851              	.LVL67:
 170:Src/findwayBases.cpp ****         case CORNER_LEFT_BOT:
 852              		.loc 1 170 5 is_stmt 1 view .LVU258
 853 0562 80FB02   		cmpb	$2, %bl
 854 0565 0F84CF00 		je	.L66
 854      0000
 855 056b 774E     		ja	.L67
GAS LISTING /tmp/ccE0ce2x.s 			page 53


 856 056d 84DB     		testb	%bl, %bl
 857 056f 0F848800 		je	.L68
 857      0000
 858 0575 80FB01   		cmpb	$1, %bl
 859 0578 0F85B500 		jne	.L65
 859      0000
 177:Src/findwayBases.cpp ****         {
 860              		.loc 1 177 9 view .LVU259
 178:Src/findwayBases.cpp ****             ret->x = obst->c->x - CONST;
 861              		.loc 1 178 9 view .LVU260
 179:Src/findwayBases.cpp ****             ret->y = obst->c->y + obst->a + CONST;
 862              		.loc 1 179 13 view .LVU261
 179:Src/findwayBases.cpp ****             ret->y = obst->c->y + obst->a + CONST;
 863              		.loc 1 179 28 is_stmt 0 view .LVU262
 864 057e 488B5500 		movq	0(%rbp), %rdx
 179:Src/findwayBases.cpp ****             ret->y = obst->c->y + obst->a + CONST;
 865              		.loc 1 179 31 view .LVU263
 866 0582 660FEFC9 		pxor	%xmm1, %xmm1
 867 0586 F30F5A0A 		cvtss2sd	(%rdx), %xmm1
 179:Src/findwayBases.cpp ****             ret->y = obst->c->y + obst->a + CONST;
 868              		.loc 1 179 33 view .LVU264
 869 058a F20F1015 		movsd	.LC10(%rip), %xmm2
 869      00000000 
 870 0592 F20F5CCA 		subsd	%xmm2, %xmm1
 871 0596 F20F5AC9 		cvtsd2ss	%xmm1, %xmm1
 179:Src/findwayBases.cpp ****             ret->y = obst->c->y + obst->a + CONST;
 872              		.loc 1 179 20 view .LVU265
 873 059a F30F1108 		movss	%xmm1, (%rax)
 180:Src/findwayBases.cpp ****             break;
 874              		.loc 1 180 13 is_stmt 1 view .LVU266
 180:Src/findwayBases.cpp ****             break;
 875              		.loc 1 180 41 is_stmt 0 view .LVU267
 876 059e F30F1045 		movss	40(%rbp), %xmm0
 876      28
 180:Src/findwayBases.cpp ****             break;
 877              		.loc 1 180 33 view .LVU268
 878 05a3 F30F5842 		addss	4(%rdx), %xmm0
 878      04
 879 05a8 F30F5AC0 		cvtss2sd	%xmm0, %xmm0
 180:Src/findwayBases.cpp ****             break;
 880              		.loc 1 180 43 view .LVU269
 881 05ac F20F58C2 		addsd	%xmm2, %xmm0
 882 05b0 F20F5AC0 		cvtsd2ss	%xmm0, %xmm0
 180:Src/findwayBases.cpp ****             break;
 883              		.loc 1 180 20 view .LVU270
 884 05b4 F30F1140 		movss	%xmm0, 4(%rax)
 884      04
 181:Src/findwayBases.cpp ****         }
 885              		.loc 1 181 13 is_stmt 1 view .LVU271
 886 05b9 EB78     		jmp	.L65
 887              	.L67:
 170:Src/findwayBases.cpp ****         case CORNER_LEFT_BOT:
 888              		.loc 1 170 5 is_stmt 0 view .LVU272
 889 05bb 80FB03   		cmpb	$3, %bl
 890 05be 7573     		jne	.L65
 183:Src/findwayBases.cpp ****         {
 891              		.loc 1 183 9 is_stmt 1 view .LVU273
GAS LISTING /tmp/ccE0ce2x.s 			page 54


 184:Src/findwayBases.cpp ****             ret->x = obst->c->x + obst->a + CONST;
 892              		.loc 1 184 9 view .LVU274
 185:Src/findwayBases.cpp ****             ret->y = obst->c->y - CONST;
 893              		.loc 1 185 13 view .LVU275
 185:Src/findwayBases.cpp ****             ret->y = obst->c->y - CONST;
 894              		.loc 1 185 28 is_stmt 0 view .LVU276
 895 05c0 488B5500 		movq	0(%rbp), %rdx
 185:Src/findwayBases.cpp ****             ret->y = obst->c->y - CONST;
 896              		.loc 1 185 41 view .LVU277
 897 05c4 F30F1045 		movss	40(%rbp), %xmm0
 897      28
 185:Src/findwayBases.cpp ****             ret->y = obst->c->y - CONST;
 898              		.loc 1 185 33 view .LVU278
 899 05c9 F30F5802 		addss	(%rdx), %xmm0
 900 05cd F30F5AC0 		cvtss2sd	%xmm0, %xmm0
 185:Src/findwayBases.cpp ****             ret->y = obst->c->y - CONST;
 901              		.loc 1 185 43 view .LVU279
 902 05d1 F20F100D 		movsd	.LC10(%rip), %xmm1
 902      00000000 
 903 05d9 F20F58C1 		addsd	%xmm1, %xmm0
 904 05dd F20F5AC0 		cvtsd2ss	%xmm0, %xmm0
 185:Src/findwayBases.cpp ****             ret->y = obst->c->y - CONST;
 905              		.loc 1 185 20 view .LVU280
 906 05e1 F30F1100 		movss	%xmm0, (%rax)
 186:Src/findwayBases.cpp ****             break;
 907              		.loc 1 186 13 is_stmt 1 view .LVU281
 186:Src/findwayBases.cpp ****             break;
 908              		.loc 1 186 31 is_stmt 0 view .LVU282
 909 05e5 660FEFC0 		pxor	%xmm0, %xmm0
 910 05e9 F30F5A42 		cvtss2sd	4(%rdx), %xmm0
 910      04
 186:Src/findwayBases.cpp ****             break;
 911              		.loc 1 186 33 view .LVU283
 912 05ee F20F5CC1 		subsd	%xmm1, %xmm0
 913 05f2 F20F5AC0 		cvtsd2ss	%xmm0, %xmm0
 186:Src/findwayBases.cpp ****             break;
 914              		.loc 1 186 20 view .LVU284
 915 05f6 F30F1140 		movss	%xmm0, 4(%rax)
 915      04
 187:Src/findwayBases.cpp ****         }
 916              		.loc 1 187 13 is_stmt 1 view .LVU285
 917 05fb EB36     		jmp	.L65
 918              	.L68:
 171:Src/findwayBases.cpp ****         {
 919              		.loc 1 171 9 view .LVU286
 172:Src/findwayBases.cpp ****             ret->x = obst->c->x - CONST;
 920              		.loc 1 172 9 view .LVU287
 173:Src/findwayBases.cpp ****             ret->y = obst->c->y - CONST;
 921              		.loc 1 173 13 view .LVU288
 173:Src/findwayBases.cpp ****             ret->y = obst->c->y - CONST;
 922              		.loc 1 173 28 is_stmt 0 view .LVU289
 923 05fd 488B5500 		movq	0(%rbp), %rdx
 173:Src/findwayBases.cpp ****             ret->y = obst->c->y - CONST;
 924              		.loc 1 173 31 view .LVU290
 925 0601 660FEFC0 		pxor	%xmm0, %xmm0
 926 0605 F30F5A02 		cvtss2sd	(%rdx), %xmm0
 173:Src/findwayBases.cpp ****             ret->y = obst->c->y - CONST;
GAS LISTING /tmp/ccE0ce2x.s 			page 55


 927              		.loc 1 173 33 view .LVU291
 928 0609 F20F100D 		movsd	.LC10(%rip), %xmm1
 928      00000000 
 929 0611 F20F5CC1 		subsd	%xmm1, %xmm0
 930 0615 F20F5AC0 		cvtsd2ss	%xmm0, %xmm0
 173:Src/findwayBases.cpp ****             ret->y = obst->c->y - CONST;
 931              		.loc 1 173 20 view .LVU292
 932 0619 F30F1100 		movss	%xmm0, (%rax)
 174:Src/findwayBases.cpp ****             break;
 933              		.loc 1 174 13 is_stmt 1 view .LVU293
 174:Src/findwayBases.cpp ****             break;
 934              		.loc 1 174 31 is_stmt 0 view .LVU294
 935 061d 660FEFC0 		pxor	%xmm0, %xmm0
 936 0621 F30F5A42 		cvtss2sd	4(%rdx), %xmm0
 936      04
 174:Src/findwayBases.cpp ****             break;
 937              		.loc 1 174 33 view .LVU295
 938 0626 F20F5CC1 		subsd	%xmm1, %xmm0
 939 062a F20F5AC0 		cvtsd2ss	%xmm0, %xmm0
 174:Src/findwayBases.cpp ****             break;
 940              		.loc 1 174 20 view .LVU296
 941 062e F30F1140 		movss	%xmm0, 4(%rax)
 941      04
 175:Src/findwayBases.cpp ****         }
 942              		.loc 1 175 13 is_stmt 1 view .LVU297
 943              	.L65:
 197:Src/findwayBases.cpp **** 
 944              		.loc 1 197 1 is_stmt 0 view .LVU298
 945 0633 4883C408 		addq	$8, %rsp
 946              		.cfi_remember_state
 947              		.cfi_def_cfa_offset 24
 948 0637 5B       		popq	%rbx
 949              		.cfi_def_cfa_offset 16
 950 0638 5D       		popq	%rbp
 951              		.cfi_def_cfa_offset 8
 952              	.LVL68:
 197:Src/findwayBases.cpp **** 
 953              		.loc 1 197 1 view .LVU299
 954 0639 C3       		ret
 955              	.LVL69:
 956              	.L66:
 957              		.cfi_restore_state
 189:Src/findwayBases.cpp ****         {
 958              		.loc 1 189 9 is_stmt 1 view .LVU300
 190:Src/findwayBases.cpp ****             ret->x = obst->c->x + obst->a + CONST;
 959              		.loc 1 190 9 view .LVU301
 191:Src/findwayBases.cpp ****             ret->y = obst->c->y + obst->a + CONST;
 960              		.loc 1 191 13 view .LVU302
 191:Src/findwayBases.cpp ****             ret->y = obst->c->y + obst->a + CONST;
 961              		.loc 1 191 28 is_stmt 0 view .LVU303
 962 063a 488B5500 		movq	0(%rbp), %rdx
 191:Src/findwayBases.cpp ****             ret->y = obst->c->y + obst->a + CONST;
 963              		.loc 1 191 41 view .LVU304
 964 063e F30F1045 		movss	40(%rbp), %xmm0
 964      28
 191:Src/findwayBases.cpp ****             ret->y = obst->c->y + obst->a + CONST;
 965              		.loc 1 191 33 view .LVU305
GAS LISTING /tmp/ccE0ce2x.s 			page 56


 966 0643 0F28C8   		movaps	%xmm0, %xmm1
 967 0646 F30F580A 		addss	(%rdx), %xmm1
 968 064a F30F5AC9 		cvtss2sd	%xmm1, %xmm1
 191:Src/findwayBases.cpp ****             ret->y = obst->c->y + obst->a + CONST;
 969              		.loc 1 191 43 view .LVU306
 970 064e F20F1015 		movsd	.LC10(%rip), %xmm2
 970      00000000 
 971 0656 F20F58CA 		addsd	%xmm2, %xmm1
 972 065a F20F5AC9 		cvtsd2ss	%xmm1, %xmm1
 191:Src/findwayBases.cpp ****             ret->y = obst->c->y + obst->a + CONST;
 973              		.loc 1 191 20 view .LVU307
 974 065e F30F1108 		movss	%xmm1, (%rax)
 192:Src/findwayBases.cpp ****             break;
 975              		.loc 1 192 13 is_stmt 1 view .LVU308
 192:Src/findwayBases.cpp ****             break;
 976              		.loc 1 192 33 is_stmt 0 view .LVU309
 977 0662 F30F5842 		addss	4(%rdx), %xmm0
 977      04
 978 0667 F30F5AC0 		cvtss2sd	%xmm0, %xmm0
 192:Src/findwayBases.cpp ****             break;
 979              		.loc 1 192 43 view .LVU310
 980 066b F20F58C2 		addsd	%xmm2, %xmm0
 981 066f F20F5AC0 		cvtsd2ss	%xmm0, %xmm0
 192:Src/findwayBases.cpp ****             break;
 982              		.loc 1 192 20 view .LVU311
 983 0673 F30F1140 		movss	%xmm0, 4(%rax)
 983      04
 193:Src/findwayBases.cpp ****         }
 984              		.loc 1 193 13 is_stmt 1 view .LVU312
 196:Src/findwayBases.cpp **** }
 985              		.loc 1 196 5 view .LVU313
 196:Src/findwayBases.cpp **** }
 986              		.loc 1 196 12 is_stmt 0 view .LVU314
 987 0678 EBB9     		jmp	.L65
 988              		.cfi_endproc
 989              	.LFE1733:
 991              		.globl	_Z14createObstaclefff
 993              	_Z14createObstaclefff:
 994              	.LVL70:
 995              	.LFB1729:
 150:Src/findwayBases.cpp ****     struct obstacle ret;
 996              		.loc 1 150 1 is_stmt 1 view -0
 997              		.cfi_startproc
 150:Src/findwayBases.cpp ****     struct obstacle ret;
 998              		.loc 1 150 1 is_stmt 0 view .LVU316
 999 067a 4155     		pushq	%r13
 1000              		.cfi_def_cfa_offset 16
 1001              		.cfi_offset 13, -16
 1002 067c 4154     		pushq	%r12
 1003              		.cfi_def_cfa_offset 24
 1004              		.cfi_offset 12, -24
 1005 067e 55       		pushq	%rbp
 1006              		.cfi_def_cfa_offset 32
 1007              		.cfi_offset 6, -32
 1008 067f 53       		pushq	%rbx
 1009              		.cfi_def_cfa_offset 40
 1010              		.cfi_offset 3, -40
GAS LISTING /tmp/ccE0ce2x.s 			page 57


 1011 0680 4883EC08 		subq	$8, %rsp
 1012              		.cfi_def_cfa_offset 48
 1013 0684 4889FB   		movq	%rdi, %rbx
 1014 0687 66410F7E 		movd	%xmm0, %r13d
 1014      C5
 1015 068c 66410F7E 		movd	%xmm1, %r12d
 1015      CC
 1016 0691 660F7ED5 		movd	%xmm2, %ebp
 151:Src/findwayBases.cpp ****     ret.c = (struct coords*)malloc(sizeof(struct coords));
 1017              		.loc 1 151 5 is_stmt 1 view .LVU317
 151:Src/findwayBases.cpp ****     ret.c = (struct coords*)malloc(sizeof(struct coords));
 1018              		.loc 1 151 21 is_stmt 0 view .LVU318
 1019 0695 48C74708 		movq	$0, 8(%rdi)
 1019      00000000 
 1020 069d 48C74710 		movq	$0, 16(%rdi)
 1020      00000000 
 1021 06a5 48C74718 		movq	$0, 24(%rdi)
 1021      00000000 
 1022 06ad 48C74720 		movq	$0, 32(%rdi)
 1022      00000000 
 152:Src/findwayBases.cpp ****     ret.c->x = x;
 1023              		.loc 1 152 5 is_stmt 1 view .LVU319
 152:Src/findwayBases.cpp ****     ret.c->x = x;
 1024              		.loc 1 152 35 is_stmt 0 view .LVU320
 1025 06b5 BF080000 		movl	$8, %edi
 1025      00
 1026              	.LVL71:
 152:Src/findwayBases.cpp ****     ret.c->x = x;
 1027              		.loc 1 152 35 view .LVU321
 1028 06ba E8000000 		call	malloc@PLT
 1028      00
 1029              	.LVL72:
 152:Src/findwayBases.cpp ****     ret.c->x = x;
 1030              		.loc 1 152 11 view .LVU322
 1031 06bf 488903   		movq	%rax, (%rbx)
 153:Src/findwayBases.cpp ****     ret.c->y = y;
 1032              		.loc 1 153 5 is_stmt 1 view .LVU323
 153:Src/findwayBases.cpp ****     ret.c->y = y;
 1033              		.loc 1 153 14 is_stmt 0 view .LVU324
 1034 06c2 448928   		movl	%r13d, (%rax)
 154:Src/findwayBases.cpp ****     ret.a    = a;
 1035              		.loc 1 154 5 is_stmt 1 view .LVU325
 154:Src/findwayBases.cpp ****     ret.a    = a;
 1036              		.loc 1 154 14 is_stmt 0 view .LVU326
 1037 06c5 44896004 		movl	%r12d, 4(%rax)
 155:Src/findwayBases.cpp ****     for(uint8_t i = 0; i < 4; i++)
 1038              		.loc 1 155 5 is_stmt 1 view .LVU327
 155:Src/findwayBases.cpp ****     for(uint8_t i = 0; i < 4; i++)
 1039              		.loc 1 155 14 is_stmt 0 view .LVU328
 1040 06c9 896B28   		movl	%ebp, 40(%rbx)
 156:Src/findwayBases.cpp ****     {
 1041              		.loc 1 156 5 is_stmt 1 view .LVU329
 1042              	.LVL73:
 1043              	.LBB167:
 156:Src/findwayBases.cpp ****     {
 1044              		.loc 1 156 17 is_stmt 0 view .LVU330
 1045 06cc BD000000 		movl	$0, %ebp
GAS LISTING /tmp/ccE0ce2x.s 			page 58


 1045      00
 1046              	.LVL74:
 156:Src/findwayBases.cpp ****     {
 1047              		.loc 1 156 17 view .LVU331
 1048 06d1 EB33     		jmp	.L75
 1049              	.LVL75:
 1050              	.L77:
 158:Src/findwayBases.cpp ****         ret.corners[i]->c = *getCoordsOfCorner(&ret, i);
 1051              		.loc 1 158 9 is_stmt 1 discriminator 2 view .LVU332
 158:Src/findwayBases.cpp ****         ret.corners[i]->c = *getCoordsOfCorner(&ret, i);
 1052              		.loc 1 158 21 is_stmt 0 discriminator 2 view .LVU333
 1053 06d3 440FB6ED 		movzbl	%bpl, %r13d
 158:Src/findwayBases.cpp ****         ret.corners[i]->c = *getCoordsOfCorner(&ret, i);
 1054              		.loc 1 158 52 discriminator 2 view .LVU334
 1055 06d7 BF180000 		movl	$24, %edi
 1055      00
 1056 06dc E8000000 		call	malloc@PLT
 1056      00
 1057              	.LVL76:
 158:Src/findwayBases.cpp ****         ret.corners[i]->c = *getCoordsOfCorner(&ret, i);
 1058              		.loc 1 158 24 discriminator 2 view .LVU335
 1059 06e1 4D63E5   		movslq	%r13d, %r12
 1060 06e4 4A8944E3 		movq	%rax, 8(%rbx,%r12,8)
 1060      08
 159:Src/findwayBases.cpp ****     }
 1061              		.loc 1 159 9 is_stmt 1 discriminator 2 view .LVU336
 159:Src/findwayBases.cpp ****     }
 1062              		.loc 1 159 47 is_stmt 0 discriminator 2 view .LVU337
 1063 06e9 4489EE   		movl	%r13d, %esi
 1064 06ec 4889DF   		movq	%rbx, %rdi
 1065 06ef E8000000 		call	_Z17getCoordsOfCornerPK8obstacleh
 1065      00
 1066              	.LVL77:
 1067 06f4 4889C2   		movq	%rax, %rdx
 159:Src/findwayBases.cpp ****     }
 1068              		.loc 1 159 22 discriminator 2 view .LVU338
 1069 06f7 4A8B44E3 		movq	8(%rbx,%r12,8), %rax
 1069      08
 159:Src/findwayBases.cpp ****     }
 1070              		.loc 1 159 27 discriminator 2 view .LVU339
 1071 06fc 488B12   		movq	(%rdx), %rdx
 1072 06ff 48895010 		movq	%rdx, 16(%rax)
 156:Src/findwayBases.cpp ****     {
 1073              		.loc 1 156 5 discriminator 2 view .LVU340
 1074 0703 83C501   		addl	$1, %ebp
 1075              	.LVL78:
 1076              	.L75:
 156:Src/findwayBases.cpp ****     {
 1077              		.loc 1 156 26 discriminator 3 view .LVU341
 1078 0706 4080FD03 		cmpb	$3, %bpl
 1079 070a 76C7     		jbe	.L77
 1080              	.LBE167:
 162:Src/findwayBases.cpp **** 
 1081              		.loc 1 162 1 view .LVU342
 1082 070c 4889D8   		movq	%rbx, %rax
 1083 070f 4883C408 		addq	$8, %rsp
 1084              		.cfi_def_cfa_offset 40
GAS LISTING /tmp/ccE0ce2x.s 			page 59


 1085 0713 5B       		popq	%rbx
 1086              		.cfi_def_cfa_offset 32
 1087              	.LVL79:
 162:Src/findwayBases.cpp **** 
 1088              		.loc 1 162 1 view .LVU343
 1089 0714 5D       		popq	%rbp
 1090              		.cfi_def_cfa_offset 24
 1091              	.LVL80:
 162:Src/findwayBases.cpp **** 
 1092              		.loc 1 162 1 view .LVU344
 1093 0715 415C     		popq	%r12
 1094              		.cfi_def_cfa_offset 16
 1095 0717 415D     		popq	%r13
 1096              		.cfi_def_cfa_offset 8
 1097 0719 C3       		ret
 1098              		.cfi_endproc
 1099              	.LFE1729:
 1101              		.globl	_Z8getPointPK8obstacleh
 1103              	_Z8getPointPK8obstacleh:
 1104              	.LVL81:
 1105              	.LFB1734:
 201:Src/findwayBases.cpp ****     return obst->corners[corner];
 1106              		.loc 1 201 1 is_stmt 1 view -0
 1107              		.cfi_startproc
 202:Src/findwayBases.cpp **** }
 1108              		.loc 1 202 5 view .LVU346
 202:Src/findwayBases.cpp **** }
 1109              		.loc 1 202 32 is_stmt 0 view .LVU347
 1110 071a 400FB6F6 		movzbl	%sil, %esi
 202:Src/findwayBases.cpp **** }
 1111              		.loc 1 202 32 view .LVU348
 1112 071e 488B44F7 		movq	8(%rdi,%rsi,8), %rax
 1112      08
 203:Src/findwayBases.cpp **** 
 1113              		.loc 1 203 1 view .LVU349
 1114 0723 C3       		ret
 1115              		.cfi_endproc
 1116              	.LFE1734:
 1118              		.section	.rodata.str1.1
 1119              	.LC11:
 1120 0058 6F627374 		.string	"obst: "
 1120      3A2000
 1121              	.LC12:
 1122 005f 3A00     		.string	":"
 1123              	.LC13:
 1124 0061 3B207665 		.string	"; vect: "
 1124      63743A20 
 1124      00
 1125              	.LC14:
 1126 006a 68617665 		.string	"have no intersection"
 1126      206E6F20 
 1126      696E7465 
 1126      72736563 
 1126      74696F6E 
 1127              	.LC15:
 1128 007f 68617665 		.string	"have intersection"
 1128      20696E74 
GAS LISTING /tmp/ccE0ce2x.s 			page 60


 1128      65727365 
 1128      6374696F 
 1128      6E00
 1129              		.text
 1130              		.globl	_Z15hasIntersectionPK8obstaclePK4vect
 1132              	_Z15hasIntersectionPK8obstaclePK4vect:
 1133              	.LVL82:
 1134              	.LFB1735:
 208:Src/findwayBases.cpp ****     // if((obst->c->x - v->c->x) / v->dx < 0 || (obst->c->y - v->c->y) / v->dy < 0)
 1135              		.loc 1 208 1 is_stmt 1 view -0
 1136              		.cfi_startproc
 208:Src/findwayBases.cpp ****     // if((obst->c->x - v->c->x) / v->dx < 0 || (obst->c->y - v->c->y) / v->dy < 0)
 1137              		.loc 1 208 1 is_stmt 0 view .LVU351
 1138 0724 4155     		pushq	%r13
 1139              		.cfi_def_cfa_offset 16
 1140              		.cfi_offset 13, -16
 1141 0726 4154     		pushq	%r12
 1142              		.cfi_def_cfa_offset 24
 1143              		.cfi_offset 12, -24
 1144 0728 55       		pushq	%rbp
 1145              		.cfi_def_cfa_offset 32
 1146              		.cfi_offset 6, -32
 1147 0729 53       		pushq	%rbx
 1148              		.cfi_def_cfa_offset 40
 1149              		.cfi_offset 3, -40
 1150 072a 4883EC08 		subq	$8, %rsp
 1151              		.cfi_def_cfa_offset 48
 1152 072e 4989FC   		movq	%rdi, %r12
 1153 0731 4889F5   		movq	%rsi, %rbp
 257:Src/findwayBases.cpp ****     std::cout << "obst: " << obst->c->x << ":" << obst->c->y << "; vect: " << v->c->x << ":" << v->
 1154              		.loc 1 257 5 is_stmt 1 view .LVU352
 257:Src/findwayBases.cpp ****     std::cout << "obst: " << obst->c->x << ":" << obst->c->y << "; vect: " << v->c->x << ":" << v->
 1155              		.loc 1 257 46 is_stmt 0 view .LVU353
 1156 0734 E8000000 		call	_Z15getIntersectionPK8obstaclePK4vect
 1156      00
 1157              	.LVL83:
 257:Src/findwayBases.cpp ****     std::cout << "obst: " << obst->c->x << ":" << obst->c->y << "; vect: " << v->c->x << ":" << v->
 1158              		.loc 1 257 46 view .LVU354
 1159 0739 66480F7E 		movq	%xmm0, %rbx
 1159      C3
 1160              	.LVL84:
 258:Src/findwayBases.cpp ****     if(c.x == -1 && c.y == -1)
 1161              		.loc 1 258 5 is_stmt 1 view .LVU355
 1162              	.LBB212:
 1163              	.LBI212:
 565:/usr/include/c++/9.1.0/ostream ****     {
 1164              		.loc 4 565 5 view .LVU356
 565:/usr/include/c++/9.1.0/ostream ****     {
 1165              		.loc 4 565 5 is_stmt 0 view .LVU357
 1166              	.LBE212:
 1167              		.loc 5 335 2 is_stmt 1 view .LVU358
 1168              	.LBB214:
 1169              	.LBB213:
 1170              		.loc 4 570 18 is_stmt 0 view .LVU359
 1171 073e BA060000 		movl	$6, %edx
 1171      00
 1172 0743 488D3500 		leaq	.LC11(%rip), %rsi
GAS LISTING /tmp/ccE0ce2x.s 			page 61


 1172      000000
 1173 074a 488D3D00 		leaq	_ZSt4cout(%rip), %rdi
 1173      000000
 1174 0751 E8000000 		call	_ZSt16__ostream_insertIcSt11char_traitsIcEERSt13basic_ostreamIT_T0_ES6_PKS3_l@PLT
 1174      00
 1175              	.LVL85:
 1176              		.loc 4 570 18 view .LVU360
 1177              	.LBE213:
 1178              	.LBE214:
 258:Src/findwayBases.cpp ****     if(c.x == -1 && c.y == -1)
 1179              		.loc 1 258 36 view .LVU361
 1180 0756 498B0424 		movq	(%r12), %rax
 1181              	.LVL86:
 1182              	.LBB215:
 1183              	.LBI215:
 224:/usr/include/c++/9.1.0/ostream ****       {
 1184              		.loc 4 224 7 is_stmt 1 view .LVU362
 1185              	.LBB216:
 228:/usr/include/c++/9.1.0/ostream ****       }
 1186              		.loc 4 228 43 is_stmt 0 view .LVU363
 1187 075a 660FEFC0 		pxor	%xmm0, %xmm0
 1188 075e F30F5A00 		cvtss2sd	(%rax), %xmm0
 1189 0762 488D3D00 		leaq	_ZSt4cout(%rip), %rdi
 1189      000000
 1190 0769 E8000000 		call	_ZNSo9_M_insertIdEERSoT_@PLT
 1190      00
 1191              	.LVL87:
 228:/usr/include/c++/9.1.0/ostream ****       }
 1192              		.loc 4 228 43 view .LVU364
 1193 076e 4989C5   		movq	%rax, %r13
 1194              	.LVL88:
 228:/usr/include/c++/9.1.0/ostream ****       }
 1195              		.loc 4 228 43 view .LVU365
 1196              	.LBE216:
 1197              	.LBE215:
 1198              	.LBB217:
 1199              	.LBI217:
 565:/usr/include/c++/9.1.0/ostream ****     {
 1200              		.loc 4 565 5 is_stmt 1 view .LVU366
 565:/usr/include/c++/9.1.0/ostream ****     {
 1201              		.loc 4 565 5 is_stmt 0 view .LVU367
 1202              	.LBE217:
 1203              		.loc 5 335 2 is_stmt 1 view .LVU368
 1204              	.LBB219:
 1205              	.LBB218:
 1206              		.loc 4 570 18 is_stmt 0 view .LVU369
 1207 0771 BA010000 		movl	$1, %edx
 1207      00
 1208 0776 488D3500 		leaq	.LC12(%rip), %rsi
 1208      000000
 1209 077d 4889C7   		movq	%rax, %rdi
 1210 0780 E8000000 		call	_ZSt16__ostream_insertIcSt11char_traitsIcEERSt13basic_ostreamIT_T0_ES6_PKS3_l@PLT
 1210      00
 1211              	.LVL89:
 1212              		.loc 4 570 18 view .LVU370
 1213              	.LBE218:
 1214              	.LBE219:
GAS LISTING /tmp/ccE0ce2x.s 			page 62


 258:Src/findwayBases.cpp ****     if(c.x == -1 && c.y == -1)
 1215              		.loc 1 258 57 view .LVU371
 1216 0785 498B0424 		movq	(%r12), %rax
 1217              	.LVL90:
 1218              	.LBB220:
 1219              	.LBI220:
 224:/usr/include/c++/9.1.0/ostream ****       {
 1220              		.loc 4 224 7 is_stmt 1 view .LVU372
 1221              	.LBB221:
 228:/usr/include/c++/9.1.0/ostream ****       }
 1222              		.loc 4 228 43 is_stmt 0 view .LVU373
 1223 0789 660FEFC0 		pxor	%xmm0, %xmm0
 1224 078d F30F5A40 		cvtss2sd	4(%rax), %xmm0
 1224      04
 1225 0792 4C89EF   		movq	%r13, %rdi
 1226 0795 E8000000 		call	_ZNSo9_M_insertIdEERSoT_@PLT
 1226      00
 1227              	.LVL91:
 228:/usr/include/c++/9.1.0/ostream ****       }
 1228              		.loc 4 228 43 view .LVU374
 1229 079a 4989C4   		movq	%rax, %r12
 1230              	.LVL92:
 228:/usr/include/c++/9.1.0/ostream ****       }
 1231              		.loc 4 228 43 view .LVU375
 1232              	.LBE221:
 1233              	.LBE220:
 1234              	.LBB222:
 1235              	.LBI222:
 565:/usr/include/c++/9.1.0/ostream ****     {
 1236              		.loc 4 565 5 is_stmt 1 view .LVU376
 565:/usr/include/c++/9.1.0/ostream ****     {
 1237              		.loc 4 565 5 is_stmt 0 view .LVU377
 1238              	.LBE222:
 1239              		.loc 5 335 2 is_stmt 1 view .LVU378
 1240              	.LBB224:
 1241              	.LBB223:
 1242              		.loc 4 570 18 is_stmt 0 view .LVU379
 1243 079d BA080000 		movl	$8, %edx
 1243      00
 1244 07a2 488D3500 		leaq	.LC13(%rip), %rsi
 1244      000000
 1245 07a9 4889C7   		movq	%rax, %rdi
 1246 07ac E8000000 		call	_ZSt16__ostream_insertIcSt11char_traitsIcEERSt13basic_ostreamIT_T0_ES6_PKS3_l@PLT
 1246      00
 1247              	.LVL93:
 1248              		.loc 4 570 18 view .LVU380
 1249              	.LBE223:
 1250              	.LBE224:
 258:Src/findwayBases.cpp ****     if(c.x == -1 && c.y == -1)
 1251              		.loc 1 258 82 view .LVU381
 1252 07b1 488B4500 		movq	0(%rbp), %rax
 1253              	.LVL94:
 1254              	.LBB225:
 1255              	.LBI225:
 224:/usr/include/c++/9.1.0/ostream ****       {
 1256              		.loc 4 224 7 is_stmt 1 view .LVU382
 1257              	.LBB226:
GAS LISTING /tmp/ccE0ce2x.s 			page 63


 228:/usr/include/c++/9.1.0/ostream ****       }
 1258              		.loc 4 228 43 is_stmt 0 view .LVU383
 1259 07b5 660FEFC0 		pxor	%xmm0, %xmm0
 1260 07b9 F30F5A00 		cvtss2sd	(%rax), %xmm0
 1261 07bd 4C89E7   		movq	%r12, %rdi
 1262 07c0 E8000000 		call	_ZNSo9_M_insertIdEERSoT_@PLT
 1262      00
 1263              	.LVL95:
 228:/usr/include/c++/9.1.0/ostream ****       }
 1264              		.loc 4 228 43 view .LVU384
 1265 07c5 4989C4   		movq	%rax, %r12
 1266              	.LVL96:
 228:/usr/include/c++/9.1.0/ostream ****       }
 1267              		.loc 4 228 43 view .LVU385
 1268              	.LBE226:
 1269              	.LBE225:
 1270              	.LBB227:
 1271              	.LBI227:
 565:/usr/include/c++/9.1.0/ostream ****     {
 1272              		.loc 4 565 5 is_stmt 1 view .LVU386
 565:/usr/include/c++/9.1.0/ostream ****     {
 1273              		.loc 4 565 5 is_stmt 0 view .LVU387
 1274              	.LBE227:
 1275              		.loc 5 335 2 is_stmt 1 view .LVU388
 1276              	.LBB229:
 1277              	.LBB228:
 1278              		.loc 4 570 18 is_stmt 0 view .LVU389
 1279 07c8 BA010000 		movl	$1, %edx
 1279      00
 1280 07cd 488D3500 		leaq	.LC12(%rip), %rsi
 1280      000000
 1281 07d4 4889C7   		movq	%rax, %rdi
 1282 07d7 E8000000 		call	_ZSt16__ostream_insertIcSt11char_traitsIcEERSt13basic_ostreamIT_T0_ES6_PKS3_l@PLT
 1282      00
 1283              	.LVL97:
 1284              		.loc 4 570 18 view .LVU390
 1285              	.LBE228:
 1286              	.LBE229:
 258:Src/findwayBases.cpp ****     if(c.x == -1 && c.y == -1)
 1287              		.loc 1 258 100 view .LVU391
 1288 07dc 488B4500 		movq	0(%rbp), %rax
 1289              	.LVL98:
 1290              	.LBB230:
 1291              	.LBI230:
 224:/usr/include/c++/9.1.0/ostream ****       {
 1292              		.loc 4 224 7 is_stmt 1 view .LVU392
 1293              	.LBB231:
 228:/usr/include/c++/9.1.0/ostream ****       }
 1294              		.loc 4 228 43 is_stmt 0 view .LVU393
 1295 07e0 660FEFC0 		pxor	%xmm0, %xmm0
 1296 07e4 F30F5A40 		cvtss2sd	4(%rax), %xmm0
 1296      04
 1297 07e9 4C89E7   		movq	%r12, %rdi
 1298 07ec E8000000 		call	_ZNSo9_M_insertIdEERSoT_@PLT
 1298      00
 1299              	.LVL99:
 228:/usr/include/c++/9.1.0/ostream ****       }
GAS LISTING /tmp/ccE0ce2x.s 			page 64


 1300              		.loc 4 228 43 view .LVU394
 1301              	.LBE231:
 1302              	.LBE230:
 259:Src/findwayBases.cpp ****     {
 1303              		.loc 1 259 5 is_stmt 1 view .LVU395
 259:Src/findwayBases.cpp ****     {
 1304              		.loc 1 259 10 is_stmt 0 view .LVU396
 1305 07f1 660F6EC3 		movd	%ebx, %xmm0
 259:Src/findwayBases.cpp ****     {
 1306              		.loc 1 259 5 view .LVU397
 1307 07f5 0F2E0500 		ucomiss	.LC3(%rip), %xmm0
 1307      000000
 1308 07fc 7A13     		jp	.L80
 1309 07fe 7511     		jne	.L80
 259:Src/findwayBases.cpp ****     {
 1310              		.loc 1 259 23 discriminator 1 view .LVU398
 1311 0800 48C1EB20 		shrq	$32, %rbx
 259:Src/findwayBases.cpp ****     {
 1312              		.loc 1 259 23 discriminator 1 view .LVU399
 1313 0804 660F6EC3 		movd	%ebx, %xmm0
 259:Src/findwayBases.cpp ****     {
 1314              		.loc 1 259 18 discriminator 1 view .LVU400
 1315 0808 0F2E0500 		ucomiss	.LC3(%rip), %xmm0
 1315      000000
 1316 080f 7B70     		jnp	.L93
 1317              	.L80:
 266:Src/findwayBases.cpp ****         return true;
 1318              		.loc 1 266 9 is_stmt 1 view .LVU401
 1319              	.LVL100:
 1320              	.LBB232:
 1321              	.LBI232:
 565:/usr/include/c++/9.1.0/ostream ****     {
 1322              		.loc 4 565 5 view .LVU402
 565:/usr/include/c++/9.1.0/ostream ****     {
 1323              		.loc 4 565 5 is_stmt 0 view .LVU403
 1324              	.LBE232:
 1325              		.loc 5 335 2 is_stmt 1 view .LVU404
 1326              	.LBB234:
 1327              	.LBB233:
 1328              		.loc 4 570 18 is_stmt 0 view .LVU405
 1329 0811 BA110000 		movl	$17, %edx
 1329      00
 1330 0816 488D3500 		leaq	.LC15(%rip), %rsi
 1330      000000
 1331 081d 488D3D00 		leaq	_ZSt4cout(%rip), %rdi
 1331      000000
 1332 0824 E8000000 		call	_ZSt16__ostream_insertIcSt11char_traitsIcEERSt13basic_ostreamIT_T0_ES6_PKS3_l@PLT
 1332      00
 1333              	.LVL101:
 1334              		.loc 4 570 18 view .LVU406
 1335              	.LBE233:
 1336              	.LBE234:
 1337              	.LBB235:
 1338              	.LBI235:
 108:/usr/include/c++/9.1.0/ostream ****       {
 1339              		.loc 4 108 7 is_stmt 1 view .LVU407
 1340              	.LBB236:
GAS LISTING /tmp/ccE0ce2x.s 			page 65


 1341              	.LBI236:
 571:/usr/include/c++/9.1.0/ostream **** 			 static_cast<streamsize>(_Traits::length(__s)));
 572:/usr/include/c++/9.1.0/ostream ****       return __out;
 573:/usr/include/c++/9.1.0/ostream ****     }
 574:/usr/include/c++/9.1.0/ostream **** 
 575:/usr/include/c++/9.1.0/ostream ****   // Signed and unsigned
 576:/usr/include/c++/9.1.0/ostream ****   template<class _Traits>
 577:/usr/include/c++/9.1.0/ostream ****     inline basic_ostream<char, _Traits>&
 578:/usr/include/c++/9.1.0/ostream ****     operator<<(basic_ostream<char, _Traits>& __out, const signed char* __s)
 579:/usr/include/c++/9.1.0/ostream ****     { return (__out << reinterpret_cast<const char*>(__s)); }
 580:/usr/include/c++/9.1.0/ostream **** 
 581:/usr/include/c++/9.1.0/ostream ****   template<class _Traits>
 582:/usr/include/c++/9.1.0/ostream ****     inline basic_ostream<char, _Traits> &
 583:/usr/include/c++/9.1.0/ostream ****     operator<<(basic_ostream<char, _Traits>& __out, const unsigned char* __s)
 584:/usr/include/c++/9.1.0/ostream ****     { return (__out << reinterpret_cast<const char*>(__s)); }
 585:/usr/include/c++/9.1.0/ostream ****   //@}
 586:/usr/include/c++/9.1.0/ostream **** 
 587:/usr/include/c++/9.1.0/ostream ****   // Standard basic_ostream manipulators
 588:/usr/include/c++/9.1.0/ostream **** 
 589:/usr/include/c++/9.1.0/ostream ****   /**
 590:/usr/include/c++/9.1.0/ostream ****    *  @brief  Write a newline and flush the stream.
 591:/usr/include/c++/9.1.0/ostream ****    *
 592:/usr/include/c++/9.1.0/ostream ****    *  This manipulator is often mistakenly used when a simple newline is
 593:/usr/include/c++/9.1.0/ostream ****    *  desired, leading to poor buffering performance.  See
 594:/usr/include/c++/9.1.0/ostream ****    *  https://gcc.gnu.org/onlinedocs/libstdc++/manual/streambufs.html#io.streambuf.buffering
 595:/usr/include/c++/9.1.0/ostream ****    *  for more on this subject.
 596:/usr/include/c++/9.1.0/ostream ****   */
 597:/usr/include/c++/9.1.0/ostream ****   template<typename _CharT, typename _Traits>
 598:/usr/include/c++/9.1.0/ostream ****     inline basic_ostream<_CharT, _Traits>&
 599:/usr/include/c++/9.1.0/ostream ****     endl(basic_ostream<_CharT, _Traits>& __os)
 1342              		.loc 4 599 5 view .LVU408
 1343              	.LBB237:
 600:/usr/include/c++/9.1.0/ostream ****     { return flush(__os.put(__os.widen('\n'))); }
 1344              		.loc 4 600 19 is_stmt 0 view .LVU409
 1345 0829 488D0500 		leaq	_ZSt4cout(%rip), %rax
 1345      000000
 1346 0830 488B1500 		movq	_ZSt4cout(%rip), %rdx
 1346      000000
 1347 0837 480342E8 		addq	-24(%rdx), %rax
 1348              	.LVL102:
 1349              	.LBB238:
 1350              	.LBI238:
 1351              		.file 6 "/usr/include/c++/9.1.0/bits/basic_ios.h"
   1:/usr/include/c++/9.1.0/bits/basic_ios.h **** // Iostreams base classes -*- C++ -*-
   2:/usr/include/c++/9.1.0/bits/basic_ios.h **** 
   3:/usr/include/c++/9.1.0/bits/basic_ios.h **** // Copyright (C) 1997-2019 Free Software Foundation, Inc.
   4:/usr/include/c++/9.1.0/bits/basic_ios.h **** //
   5:/usr/include/c++/9.1.0/bits/basic_ios.h **** // This file is part of the GNU ISO C++ Library.  This library is free
   6:/usr/include/c++/9.1.0/bits/basic_ios.h **** // software; you can redistribute it and/or modify it under the
   7:/usr/include/c++/9.1.0/bits/basic_ios.h **** // terms of the GNU General Public License as published by the
   8:/usr/include/c++/9.1.0/bits/basic_ios.h **** // Free Software Foundation; either version 3, or (at your option)
   9:/usr/include/c++/9.1.0/bits/basic_ios.h **** // any later version.
  10:/usr/include/c++/9.1.0/bits/basic_ios.h **** 
  11:/usr/include/c++/9.1.0/bits/basic_ios.h **** // This library is distributed in the hope that it will be useful,
  12:/usr/include/c++/9.1.0/bits/basic_ios.h **** // but WITHOUT ANY WARRANTY; without even the implied warranty of
  13:/usr/include/c++/9.1.0/bits/basic_ios.h **** // MERCHANTABILITY or FITNESS FOR A PARTICULAR PURPOSE.  See the
  14:/usr/include/c++/9.1.0/bits/basic_ios.h **** // GNU General Public License for more details.
GAS LISTING /tmp/ccE0ce2x.s 			page 66


  15:/usr/include/c++/9.1.0/bits/basic_ios.h **** 
  16:/usr/include/c++/9.1.0/bits/basic_ios.h **** // Under Section 7 of GPL version 3, you are granted additional
  17:/usr/include/c++/9.1.0/bits/basic_ios.h **** // permissions described in the GCC Runtime Library Exception, version
  18:/usr/include/c++/9.1.0/bits/basic_ios.h **** // 3.1, as published by the Free Software Foundation.
  19:/usr/include/c++/9.1.0/bits/basic_ios.h **** 
  20:/usr/include/c++/9.1.0/bits/basic_ios.h **** // You should have received a copy of the GNU General Public License and
  21:/usr/include/c++/9.1.0/bits/basic_ios.h **** // a copy of the GCC Runtime Library Exception along with this program;
  22:/usr/include/c++/9.1.0/bits/basic_ios.h **** // see the files COPYING3 and COPYING.RUNTIME respectively.  If not, see
  23:/usr/include/c++/9.1.0/bits/basic_ios.h **** // <http://www.gnu.org/licenses/>.
  24:/usr/include/c++/9.1.0/bits/basic_ios.h **** 
  25:/usr/include/c++/9.1.0/bits/basic_ios.h **** /** @file bits/basic_ios.h
  26:/usr/include/c++/9.1.0/bits/basic_ios.h ****  *  This is an internal header file, included by other library headers.
  27:/usr/include/c++/9.1.0/bits/basic_ios.h ****  *  Do not attempt to use it directly. @headername{ios}
  28:/usr/include/c++/9.1.0/bits/basic_ios.h ****  */
  29:/usr/include/c++/9.1.0/bits/basic_ios.h **** 
  30:/usr/include/c++/9.1.0/bits/basic_ios.h **** #ifndef _BASIC_IOS_H
  31:/usr/include/c++/9.1.0/bits/basic_ios.h **** #define _BASIC_IOS_H 1
  32:/usr/include/c++/9.1.0/bits/basic_ios.h **** 
  33:/usr/include/c++/9.1.0/bits/basic_ios.h **** #pragma GCC system_header
  34:/usr/include/c++/9.1.0/bits/basic_ios.h **** 
  35:/usr/include/c++/9.1.0/bits/basic_ios.h **** #include <bits/localefwd.h>
  36:/usr/include/c++/9.1.0/bits/basic_ios.h **** #include <bits/locale_classes.h>
  37:/usr/include/c++/9.1.0/bits/basic_ios.h **** #include <bits/locale_facets.h>
  38:/usr/include/c++/9.1.0/bits/basic_ios.h **** #include <bits/streambuf_iterator.h>
  39:/usr/include/c++/9.1.0/bits/basic_ios.h **** #include <bits/move.h>
  40:/usr/include/c++/9.1.0/bits/basic_ios.h **** 
  41:/usr/include/c++/9.1.0/bits/basic_ios.h **** namespace std _GLIBCXX_VISIBILITY(default)
  42:/usr/include/c++/9.1.0/bits/basic_ios.h **** {
  43:/usr/include/c++/9.1.0/bits/basic_ios.h **** _GLIBCXX_BEGIN_NAMESPACE_VERSION
  44:/usr/include/c++/9.1.0/bits/basic_ios.h **** 
  45:/usr/include/c++/9.1.0/bits/basic_ios.h ****   template<typename _Facet>
  46:/usr/include/c++/9.1.0/bits/basic_ios.h ****     inline const _Facet&
  47:/usr/include/c++/9.1.0/bits/basic_ios.h ****     __check_facet(const _Facet* __f)
  48:/usr/include/c++/9.1.0/bits/basic_ios.h ****     {
  49:/usr/include/c++/9.1.0/bits/basic_ios.h ****       if (!__f)
  50:/usr/include/c++/9.1.0/bits/basic_ios.h **** 	__throw_bad_cast();
  51:/usr/include/c++/9.1.0/bits/basic_ios.h ****       return *__f;
  52:/usr/include/c++/9.1.0/bits/basic_ios.h ****     }
  53:/usr/include/c++/9.1.0/bits/basic_ios.h **** 
  54:/usr/include/c++/9.1.0/bits/basic_ios.h ****   /**
  55:/usr/include/c++/9.1.0/bits/basic_ios.h ****    *  @brief Template class basic_ios, virtual base class for all
  56:/usr/include/c++/9.1.0/bits/basic_ios.h ****    *  stream classes. 
  57:/usr/include/c++/9.1.0/bits/basic_ios.h ****    *  @ingroup io
  58:/usr/include/c++/9.1.0/bits/basic_ios.h ****    *
  59:/usr/include/c++/9.1.0/bits/basic_ios.h ****    *  @tparam _CharT  Type of character stream.
  60:/usr/include/c++/9.1.0/bits/basic_ios.h ****    *  @tparam _Traits  Traits for character type, defaults to
  61:/usr/include/c++/9.1.0/bits/basic_ios.h ****    *                   char_traits<_CharT>.
  62:/usr/include/c++/9.1.0/bits/basic_ios.h ****    *
  63:/usr/include/c++/9.1.0/bits/basic_ios.h ****    *  Most of the member functions called dispatched on stream objects
  64:/usr/include/c++/9.1.0/bits/basic_ios.h ****    *  (e.g., @c std::cout.foo(bar);) are consolidated in this class.
  65:/usr/include/c++/9.1.0/bits/basic_ios.h ****   */
  66:/usr/include/c++/9.1.0/bits/basic_ios.h ****   template<typename _CharT, typename _Traits>
  67:/usr/include/c++/9.1.0/bits/basic_ios.h ****     class basic_ios : public ios_base
  68:/usr/include/c++/9.1.0/bits/basic_ios.h ****     {
  69:/usr/include/c++/9.1.0/bits/basic_ios.h ****     public:
  70:/usr/include/c++/9.1.0/bits/basic_ios.h ****       //@{
  71:/usr/include/c++/9.1.0/bits/basic_ios.h ****       /**
GAS LISTING /tmp/ccE0ce2x.s 			page 67


  72:/usr/include/c++/9.1.0/bits/basic_ios.h ****        *  These are standard types.  They permit a standardized way of
  73:/usr/include/c++/9.1.0/bits/basic_ios.h ****        *  referring to names of (or names dependent on) the template
  74:/usr/include/c++/9.1.0/bits/basic_ios.h ****        *  parameters, which are specific to the implementation.
  75:/usr/include/c++/9.1.0/bits/basic_ios.h ****       */
  76:/usr/include/c++/9.1.0/bits/basic_ios.h ****       typedef _CharT                                 char_type;
  77:/usr/include/c++/9.1.0/bits/basic_ios.h ****       typedef typename _Traits::int_type             int_type;
  78:/usr/include/c++/9.1.0/bits/basic_ios.h ****       typedef typename _Traits::pos_type             pos_type;
  79:/usr/include/c++/9.1.0/bits/basic_ios.h ****       typedef typename _Traits::off_type             off_type;
  80:/usr/include/c++/9.1.0/bits/basic_ios.h ****       typedef _Traits                                traits_type;
  81:/usr/include/c++/9.1.0/bits/basic_ios.h ****       //@}
  82:/usr/include/c++/9.1.0/bits/basic_ios.h **** 
  83:/usr/include/c++/9.1.0/bits/basic_ios.h ****       //@{
  84:/usr/include/c++/9.1.0/bits/basic_ios.h ****       /**
  85:/usr/include/c++/9.1.0/bits/basic_ios.h ****        *  These are non-standard types.
  86:/usr/include/c++/9.1.0/bits/basic_ios.h ****       */
  87:/usr/include/c++/9.1.0/bits/basic_ios.h ****       typedef ctype<_CharT>                          __ctype_type;
  88:/usr/include/c++/9.1.0/bits/basic_ios.h ****       typedef num_put<_CharT, ostreambuf_iterator<_CharT, _Traits> >
  89:/usr/include/c++/9.1.0/bits/basic_ios.h **** 						     __num_put_type;
  90:/usr/include/c++/9.1.0/bits/basic_ios.h ****       typedef num_get<_CharT, istreambuf_iterator<_CharT, _Traits> >
  91:/usr/include/c++/9.1.0/bits/basic_ios.h **** 						     __num_get_type;
  92:/usr/include/c++/9.1.0/bits/basic_ios.h ****       //@}
  93:/usr/include/c++/9.1.0/bits/basic_ios.h **** 
  94:/usr/include/c++/9.1.0/bits/basic_ios.h ****       // Data members:
  95:/usr/include/c++/9.1.0/bits/basic_ios.h ****     protected:
  96:/usr/include/c++/9.1.0/bits/basic_ios.h ****       basic_ostream<_CharT, _Traits>*                _M_tie;
  97:/usr/include/c++/9.1.0/bits/basic_ios.h ****       mutable char_type                              _M_fill;
  98:/usr/include/c++/9.1.0/bits/basic_ios.h ****       mutable bool                                   _M_fill_init;
  99:/usr/include/c++/9.1.0/bits/basic_ios.h ****       basic_streambuf<_CharT, _Traits>*              _M_streambuf;
 100:/usr/include/c++/9.1.0/bits/basic_ios.h **** 
 101:/usr/include/c++/9.1.0/bits/basic_ios.h ****       // Cached use_facet<ctype>, which is based on the current locale info.
 102:/usr/include/c++/9.1.0/bits/basic_ios.h ****       const __ctype_type*                            _M_ctype;
 103:/usr/include/c++/9.1.0/bits/basic_ios.h ****       // For ostream.
 104:/usr/include/c++/9.1.0/bits/basic_ios.h ****       const __num_put_type*                          _M_num_put;
 105:/usr/include/c++/9.1.0/bits/basic_ios.h ****       // For istream.
 106:/usr/include/c++/9.1.0/bits/basic_ios.h ****       const __num_get_type*                          _M_num_get;
 107:/usr/include/c++/9.1.0/bits/basic_ios.h **** 
 108:/usr/include/c++/9.1.0/bits/basic_ios.h ****     public:
 109:/usr/include/c++/9.1.0/bits/basic_ios.h ****       //@{
 110:/usr/include/c++/9.1.0/bits/basic_ios.h ****       /**
 111:/usr/include/c++/9.1.0/bits/basic_ios.h ****        *  @brief  The quick-and-easy status check.
 112:/usr/include/c++/9.1.0/bits/basic_ios.h ****        *
 113:/usr/include/c++/9.1.0/bits/basic_ios.h ****        *  This allows you to write constructs such as
 114:/usr/include/c++/9.1.0/bits/basic_ios.h ****        *  <code>if (!a_stream) ...</code> and <code>while (a_stream) ...</code>
 115:/usr/include/c++/9.1.0/bits/basic_ios.h ****       */
 116:/usr/include/c++/9.1.0/bits/basic_ios.h **** #if __cplusplus >= 201103L
 117:/usr/include/c++/9.1.0/bits/basic_ios.h ****       explicit operator bool() const
 118:/usr/include/c++/9.1.0/bits/basic_ios.h ****       { return !this->fail(); }
 119:/usr/include/c++/9.1.0/bits/basic_ios.h **** #else
 120:/usr/include/c++/9.1.0/bits/basic_ios.h ****       operator void*() const
 121:/usr/include/c++/9.1.0/bits/basic_ios.h ****       { return this->fail() ? 0 : const_cast<basic_ios*>(this); }
 122:/usr/include/c++/9.1.0/bits/basic_ios.h **** #endif
 123:/usr/include/c++/9.1.0/bits/basic_ios.h **** 
 124:/usr/include/c++/9.1.0/bits/basic_ios.h ****       bool
 125:/usr/include/c++/9.1.0/bits/basic_ios.h ****       operator!() const
 126:/usr/include/c++/9.1.0/bits/basic_ios.h ****       { return this->fail(); }
 127:/usr/include/c++/9.1.0/bits/basic_ios.h ****       //@}
 128:/usr/include/c++/9.1.0/bits/basic_ios.h **** 
GAS LISTING /tmp/ccE0ce2x.s 			page 68


 129:/usr/include/c++/9.1.0/bits/basic_ios.h ****       /**
 130:/usr/include/c++/9.1.0/bits/basic_ios.h ****        *  @brief  Returns the error state of the stream buffer.
 131:/usr/include/c++/9.1.0/bits/basic_ios.h ****        *  @return  A bit pattern (well, isn't everything?)
 132:/usr/include/c++/9.1.0/bits/basic_ios.h ****        *
 133:/usr/include/c++/9.1.0/bits/basic_ios.h ****        *  See std::ios_base::iostate for the possible bit values.  Most
 134:/usr/include/c++/9.1.0/bits/basic_ios.h ****        *  users will call one of the interpreting wrappers, e.g., good().
 135:/usr/include/c++/9.1.0/bits/basic_ios.h ****       */
 136:/usr/include/c++/9.1.0/bits/basic_ios.h ****       iostate
 137:/usr/include/c++/9.1.0/bits/basic_ios.h ****       rdstate() const
 138:/usr/include/c++/9.1.0/bits/basic_ios.h ****       { return _M_streambuf_state; }
 139:/usr/include/c++/9.1.0/bits/basic_ios.h **** 
 140:/usr/include/c++/9.1.0/bits/basic_ios.h ****       /**
 141:/usr/include/c++/9.1.0/bits/basic_ios.h ****        *  @brief  [Re]sets the error state.
 142:/usr/include/c++/9.1.0/bits/basic_ios.h ****        *  @param  __state  The new state flag(s) to set.
 143:/usr/include/c++/9.1.0/bits/basic_ios.h ****        *
 144:/usr/include/c++/9.1.0/bits/basic_ios.h ****        *  See std::ios_base::iostate for the possible bit values.  Most
 145:/usr/include/c++/9.1.0/bits/basic_ios.h ****        *  users will not need to pass an argument.
 146:/usr/include/c++/9.1.0/bits/basic_ios.h ****       */
 147:/usr/include/c++/9.1.0/bits/basic_ios.h ****       void
 148:/usr/include/c++/9.1.0/bits/basic_ios.h ****       clear(iostate __state = goodbit);
 149:/usr/include/c++/9.1.0/bits/basic_ios.h **** 
 150:/usr/include/c++/9.1.0/bits/basic_ios.h ****       /**
 151:/usr/include/c++/9.1.0/bits/basic_ios.h ****        *  @brief  Sets additional flags in the error state.
 152:/usr/include/c++/9.1.0/bits/basic_ios.h ****        *  @param  __state  The additional state flag(s) to set.
 153:/usr/include/c++/9.1.0/bits/basic_ios.h ****        *
 154:/usr/include/c++/9.1.0/bits/basic_ios.h ****        *  See std::ios_base::iostate for the possible bit values.
 155:/usr/include/c++/9.1.0/bits/basic_ios.h ****       */
 156:/usr/include/c++/9.1.0/bits/basic_ios.h ****       void
 157:/usr/include/c++/9.1.0/bits/basic_ios.h ****       setstate(iostate __state)
 158:/usr/include/c++/9.1.0/bits/basic_ios.h ****       { this->clear(this->rdstate() | __state); }
 159:/usr/include/c++/9.1.0/bits/basic_ios.h **** 
 160:/usr/include/c++/9.1.0/bits/basic_ios.h ****       // Flip the internal state on for the proper state bits, then
 161:/usr/include/c++/9.1.0/bits/basic_ios.h ****       // rethrows the propagated exception if bit also set in
 162:/usr/include/c++/9.1.0/bits/basic_ios.h ****       // exceptions().
 163:/usr/include/c++/9.1.0/bits/basic_ios.h ****       void
 164:/usr/include/c++/9.1.0/bits/basic_ios.h ****       _M_setstate(iostate __state)
 165:/usr/include/c++/9.1.0/bits/basic_ios.h ****       {
 166:/usr/include/c++/9.1.0/bits/basic_ios.h **** 	// 27.6.1.2.1 Common requirements.
 167:/usr/include/c++/9.1.0/bits/basic_ios.h **** 	// Turn this on without causing an ios::failure to be thrown.
 168:/usr/include/c++/9.1.0/bits/basic_ios.h **** 	_M_streambuf_state |= __state;
 169:/usr/include/c++/9.1.0/bits/basic_ios.h **** 	if (this->exceptions() & __state)
 170:/usr/include/c++/9.1.0/bits/basic_ios.h **** 	  __throw_exception_again;
 171:/usr/include/c++/9.1.0/bits/basic_ios.h ****       }
 172:/usr/include/c++/9.1.0/bits/basic_ios.h **** 
 173:/usr/include/c++/9.1.0/bits/basic_ios.h ****       /**
 174:/usr/include/c++/9.1.0/bits/basic_ios.h ****        *  @brief  Fast error checking.
 175:/usr/include/c++/9.1.0/bits/basic_ios.h ****        *  @return  True if no error flags are set.
 176:/usr/include/c++/9.1.0/bits/basic_ios.h ****        *
 177:/usr/include/c++/9.1.0/bits/basic_ios.h ****        *  A wrapper around rdstate.
 178:/usr/include/c++/9.1.0/bits/basic_ios.h ****       */
 179:/usr/include/c++/9.1.0/bits/basic_ios.h ****       bool
 180:/usr/include/c++/9.1.0/bits/basic_ios.h ****       good() const
 181:/usr/include/c++/9.1.0/bits/basic_ios.h ****       { return this->rdstate() == 0; }
 182:/usr/include/c++/9.1.0/bits/basic_ios.h **** 
 183:/usr/include/c++/9.1.0/bits/basic_ios.h ****       /**
 184:/usr/include/c++/9.1.0/bits/basic_ios.h ****        *  @brief  Fast error checking.
 185:/usr/include/c++/9.1.0/bits/basic_ios.h ****        *  @return  True if the eofbit is set.
GAS LISTING /tmp/ccE0ce2x.s 			page 69


 186:/usr/include/c++/9.1.0/bits/basic_ios.h ****        *
 187:/usr/include/c++/9.1.0/bits/basic_ios.h ****        *  Note that other iostate flags may also be set.
 188:/usr/include/c++/9.1.0/bits/basic_ios.h ****       */
 189:/usr/include/c++/9.1.0/bits/basic_ios.h ****       bool
 190:/usr/include/c++/9.1.0/bits/basic_ios.h ****       eof() const
 191:/usr/include/c++/9.1.0/bits/basic_ios.h ****       { return (this->rdstate() & eofbit) != 0; }
 192:/usr/include/c++/9.1.0/bits/basic_ios.h **** 
 193:/usr/include/c++/9.1.0/bits/basic_ios.h ****       /**
 194:/usr/include/c++/9.1.0/bits/basic_ios.h ****        *  @brief  Fast error checking.
 195:/usr/include/c++/9.1.0/bits/basic_ios.h ****        *  @return  True if either the badbit or the failbit is set.
 196:/usr/include/c++/9.1.0/bits/basic_ios.h ****        *
 197:/usr/include/c++/9.1.0/bits/basic_ios.h ****        *  Checking the badbit in fail() is historical practice.
 198:/usr/include/c++/9.1.0/bits/basic_ios.h ****        *  Note that other iostate flags may also be set.
 199:/usr/include/c++/9.1.0/bits/basic_ios.h ****       */
 200:/usr/include/c++/9.1.0/bits/basic_ios.h ****       bool
 201:/usr/include/c++/9.1.0/bits/basic_ios.h ****       fail() const
 202:/usr/include/c++/9.1.0/bits/basic_ios.h ****       { return (this->rdstate() & (badbit | failbit)) != 0; }
 203:/usr/include/c++/9.1.0/bits/basic_ios.h **** 
 204:/usr/include/c++/9.1.0/bits/basic_ios.h ****       /**
 205:/usr/include/c++/9.1.0/bits/basic_ios.h ****        *  @brief  Fast error checking.
 206:/usr/include/c++/9.1.0/bits/basic_ios.h ****        *  @return  True if the badbit is set.
 207:/usr/include/c++/9.1.0/bits/basic_ios.h ****        *
 208:/usr/include/c++/9.1.0/bits/basic_ios.h ****        *  Note that other iostate flags may also be set.
 209:/usr/include/c++/9.1.0/bits/basic_ios.h ****       */
 210:/usr/include/c++/9.1.0/bits/basic_ios.h ****       bool
 211:/usr/include/c++/9.1.0/bits/basic_ios.h ****       bad() const
 212:/usr/include/c++/9.1.0/bits/basic_ios.h ****       { return (this->rdstate() & badbit) != 0; }
 213:/usr/include/c++/9.1.0/bits/basic_ios.h **** 
 214:/usr/include/c++/9.1.0/bits/basic_ios.h ****       /**
 215:/usr/include/c++/9.1.0/bits/basic_ios.h ****        *  @brief  Throwing exceptions on errors.
 216:/usr/include/c++/9.1.0/bits/basic_ios.h ****        *  @return  The current exceptions mask.
 217:/usr/include/c++/9.1.0/bits/basic_ios.h ****        *
 218:/usr/include/c++/9.1.0/bits/basic_ios.h ****        *  This changes nothing in the stream.  See the one-argument version
 219:/usr/include/c++/9.1.0/bits/basic_ios.h ****        *  of exceptions(iostate) for the meaning of the return value.
 220:/usr/include/c++/9.1.0/bits/basic_ios.h ****       */
 221:/usr/include/c++/9.1.0/bits/basic_ios.h ****       iostate
 222:/usr/include/c++/9.1.0/bits/basic_ios.h ****       exceptions() const
 223:/usr/include/c++/9.1.0/bits/basic_ios.h ****       { return _M_exception; }
 224:/usr/include/c++/9.1.0/bits/basic_ios.h **** 
 225:/usr/include/c++/9.1.0/bits/basic_ios.h ****       /**
 226:/usr/include/c++/9.1.0/bits/basic_ios.h ****        *  @brief  Throwing exceptions on errors.
 227:/usr/include/c++/9.1.0/bits/basic_ios.h ****        *  @param  __except  The new exceptions mask.
 228:/usr/include/c++/9.1.0/bits/basic_ios.h ****        *
 229:/usr/include/c++/9.1.0/bits/basic_ios.h ****        *  By default, error flags are set silently.  You can set an
 230:/usr/include/c++/9.1.0/bits/basic_ios.h ****        *  exceptions mask for each stream; if a bit in the mask becomes set
 231:/usr/include/c++/9.1.0/bits/basic_ios.h ****        *  in the error flags, then an exception of type
 232:/usr/include/c++/9.1.0/bits/basic_ios.h ****        *  std::ios_base::failure is thrown.
 233:/usr/include/c++/9.1.0/bits/basic_ios.h ****        *
 234:/usr/include/c++/9.1.0/bits/basic_ios.h ****        *  If the error flag is already set when the exceptions mask is
 235:/usr/include/c++/9.1.0/bits/basic_ios.h ****        *  added, the exception is immediately thrown.  Try running the
 236:/usr/include/c++/9.1.0/bits/basic_ios.h ****        *  following under GCC 3.1 or later:
 237:/usr/include/c++/9.1.0/bits/basic_ios.h ****        *  @code
 238:/usr/include/c++/9.1.0/bits/basic_ios.h ****        *  #include <iostream>
 239:/usr/include/c++/9.1.0/bits/basic_ios.h ****        *  #include <fstream>
 240:/usr/include/c++/9.1.0/bits/basic_ios.h ****        *  #include <exception>
 241:/usr/include/c++/9.1.0/bits/basic_ios.h ****        *
 242:/usr/include/c++/9.1.0/bits/basic_ios.h ****        *  int main()
GAS LISTING /tmp/ccE0ce2x.s 			page 70


 243:/usr/include/c++/9.1.0/bits/basic_ios.h ****        *  {
 244:/usr/include/c++/9.1.0/bits/basic_ios.h ****        *      std::set_terminate (__gnu_cxx::__verbose_terminate_handler);
 245:/usr/include/c++/9.1.0/bits/basic_ios.h ****        *
 246:/usr/include/c++/9.1.0/bits/basic_ios.h ****        *      std::ifstream f ("/etc/motd");
 247:/usr/include/c++/9.1.0/bits/basic_ios.h ****        *
 248:/usr/include/c++/9.1.0/bits/basic_ios.h ****        *      std::cerr << "Setting badbit\n";
 249:/usr/include/c++/9.1.0/bits/basic_ios.h ****        *      f.setstate (std::ios_base::badbit);
 250:/usr/include/c++/9.1.0/bits/basic_ios.h ****        *
 251:/usr/include/c++/9.1.0/bits/basic_ios.h ****        *      std::cerr << "Setting exception mask\n";
 252:/usr/include/c++/9.1.0/bits/basic_ios.h ****        *      f.exceptions (std::ios_base::badbit);
 253:/usr/include/c++/9.1.0/bits/basic_ios.h ****        *  }
 254:/usr/include/c++/9.1.0/bits/basic_ios.h ****        *  @endcode
 255:/usr/include/c++/9.1.0/bits/basic_ios.h ****       */
 256:/usr/include/c++/9.1.0/bits/basic_ios.h ****       void
 257:/usr/include/c++/9.1.0/bits/basic_ios.h ****       exceptions(iostate __except)
 258:/usr/include/c++/9.1.0/bits/basic_ios.h ****       {
 259:/usr/include/c++/9.1.0/bits/basic_ios.h ****         _M_exception = __except;
 260:/usr/include/c++/9.1.0/bits/basic_ios.h ****         this->clear(_M_streambuf_state);
 261:/usr/include/c++/9.1.0/bits/basic_ios.h ****       }
 262:/usr/include/c++/9.1.0/bits/basic_ios.h **** 
 263:/usr/include/c++/9.1.0/bits/basic_ios.h ****       // Constructor/destructor:
 264:/usr/include/c++/9.1.0/bits/basic_ios.h ****       /**
 265:/usr/include/c++/9.1.0/bits/basic_ios.h ****        *  @brief  Constructor performs initialization.
 266:/usr/include/c++/9.1.0/bits/basic_ios.h ****        *
 267:/usr/include/c++/9.1.0/bits/basic_ios.h ****        *  The parameter is passed by derived streams.
 268:/usr/include/c++/9.1.0/bits/basic_ios.h ****       */
 269:/usr/include/c++/9.1.0/bits/basic_ios.h ****       explicit
 270:/usr/include/c++/9.1.0/bits/basic_ios.h ****       basic_ios(basic_streambuf<_CharT, _Traits>* __sb)
 271:/usr/include/c++/9.1.0/bits/basic_ios.h ****       : ios_base(), _M_tie(0), _M_fill(), _M_fill_init(false), _M_streambuf(0),
 272:/usr/include/c++/9.1.0/bits/basic_ios.h **** 	_M_ctype(0), _M_num_put(0), _M_num_get(0)
 273:/usr/include/c++/9.1.0/bits/basic_ios.h ****       { this->init(__sb); }
 274:/usr/include/c++/9.1.0/bits/basic_ios.h **** 
 275:/usr/include/c++/9.1.0/bits/basic_ios.h ****       /**
 276:/usr/include/c++/9.1.0/bits/basic_ios.h ****        *  @brief  Empty.
 277:/usr/include/c++/9.1.0/bits/basic_ios.h ****        *
 278:/usr/include/c++/9.1.0/bits/basic_ios.h ****        *  The destructor does nothing.  More specifically, it does not
 279:/usr/include/c++/9.1.0/bits/basic_ios.h ****        *  destroy the streambuf held by rdbuf().
 280:/usr/include/c++/9.1.0/bits/basic_ios.h ****       */
 281:/usr/include/c++/9.1.0/bits/basic_ios.h ****       virtual
 282:/usr/include/c++/9.1.0/bits/basic_ios.h ****       ~basic_ios() { }
 283:/usr/include/c++/9.1.0/bits/basic_ios.h **** 
 284:/usr/include/c++/9.1.0/bits/basic_ios.h ****       // Members:
 285:/usr/include/c++/9.1.0/bits/basic_ios.h ****       /**
 286:/usr/include/c++/9.1.0/bits/basic_ios.h ****        *  @brief  Fetches the current @e tied stream.
 287:/usr/include/c++/9.1.0/bits/basic_ios.h ****        *  @return  A pointer to the tied stream, or NULL if the stream is
 288:/usr/include/c++/9.1.0/bits/basic_ios.h ****        *           not tied.
 289:/usr/include/c++/9.1.0/bits/basic_ios.h ****        *
 290:/usr/include/c++/9.1.0/bits/basic_ios.h ****        *  A stream may be @e tied (or synchronized) to a second output
 291:/usr/include/c++/9.1.0/bits/basic_ios.h ****        *  stream.  When this stream performs any I/O, the tied stream is
 292:/usr/include/c++/9.1.0/bits/basic_ios.h ****        *  first flushed.  For example, @c std::cin is tied to @c std::cout.
 293:/usr/include/c++/9.1.0/bits/basic_ios.h ****       */
 294:/usr/include/c++/9.1.0/bits/basic_ios.h ****       basic_ostream<_CharT, _Traits>*
 295:/usr/include/c++/9.1.0/bits/basic_ios.h ****       tie() const
 296:/usr/include/c++/9.1.0/bits/basic_ios.h ****       { return _M_tie; }
 297:/usr/include/c++/9.1.0/bits/basic_ios.h **** 
 298:/usr/include/c++/9.1.0/bits/basic_ios.h ****       /**
 299:/usr/include/c++/9.1.0/bits/basic_ios.h ****        *  @brief  Ties this stream to an output stream.
GAS LISTING /tmp/ccE0ce2x.s 			page 71


 300:/usr/include/c++/9.1.0/bits/basic_ios.h ****        *  @param  __tiestr  The output stream.
 301:/usr/include/c++/9.1.0/bits/basic_ios.h ****        *  @return  The previously tied output stream, or NULL if the stream
 302:/usr/include/c++/9.1.0/bits/basic_ios.h ****        *           was not tied.
 303:/usr/include/c++/9.1.0/bits/basic_ios.h ****        *
 304:/usr/include/c++/9.1.0/bits/basic_ios.h ****        *  This sets up a new tie; see tie() for more.
 305:/usr/include/c++/9.1.0/bits/basic_ios.h ****       */
 306:/usr/include/c++/9.1.0/bits/basic_ios.h ****       basic_ostream<_CharT, _Traits>*
 307:/usr/include/c++/9.1.0/bits/basic_ios.h ****       tie(basic_ostream<_CharT, _Traits>* __tiestr)
 308:/usr/include/c++/9.1.0/bits/basic_ios.h ****       {
 309:/usr/include/c++/9.1.0/bits/basic_ios.h ****         basic_ostream<_CharT, _Traits>* __old = _M_tie;
 310:/usr/include/c++/9.1.0/bits/basic_ios.h ****         _M_tie = __tiestr;
 311:/usr/include/c++/9.1.0/bits/basic_ios.h ****         return __old;
 312:/usr/include/c++/9.1.0/bits/basic_ios.h ****       }
 313:/usr/include/c++/9.1.0/bits/basic_ios.h **** 
 314:/usr/include/c++/9.1.0/bits/basic_ios.h ****       /**
 315:/usr/include/c++/9.1.0/bits/basic_ios.h ****        *  @brief  Accessing the underlying buffer.
 316:/usr/include/c++/9.1.0/bits/basic_ios.h ****        *  @return  The current stream buffer.
 317:/usr/include/c++/9.1.0/bits/basic_ios.h ****        *
 318:/usr/include/c++/9.1.0/bits/basic_ios.h ****        *  This does not change the state of the stream.
 319:/usr/include/c++/9.1.0/bits/basic_ios.h ****       */
 320:/usr/include/c++/9.1.0/bits/basic_ios.h ****       basic_streambuf<_CharT, _Traits>*
 321:/usr/include/c++/9.1.0/bits/basic_ios.h ****       rdbuf() const
 322:/usr/include/c++/9.1.0/bits/basic_ios.h ****       { return _M_streambuf; }
 323:/usr/include/c++/9.1.0/bits/basic_ios.h **** 
 324:/usr/include/c++/9.1.0/bits/basic_ios.h ****       /**
 325:/usr/include/c++/9.1.0/bits/basic_ios.h ****        *  @brief  Changing the underlying buffer.
 326:/usr/include/c++/9.1.0/bits/basic_ios.h ****        *  @param  __sb  The new stream buffer.
 327:/usr/include/c++/9.1.0/bits/basic_ios.h ****        *  @return  The previous stream buffer.
 328:/usr/include/c++/9.1.0/bits/basic_ios.h ****        *
 329:/usr/include/c++/9.1.0/bits/basic_ios.h ****        *  Associates a new buffer with the current stream, and clears the
 330:/usr/include/c++/9.1.0/bits/basic_ios.h ****        *  error state.
 331:/usr/include/c++/9.1.0/bits/basic_ios.h ****        *
 332:/usr/include/c++/9.1.0/bits/basic_ios.h ****        *  Due to historical accidents which the LWG refuses to correct, the
 333:/usr/include/c++/9.1.0/bits/basic_ios.h ****        *  I/O library suffers from a design error:  this function is hidden
 334:/usr/include/c++/9.1.0/bits/basic_ios.h ****        *  in derived classes by overrides of the zero-argument @c rdbuf(),
 335:/usr/include/c++/9.1.0/bits/basic_ios.h ****        *  which is non-virtual for hysterical raisins.  As a result, you
 336:/usr/include/c++/9.1.0/bits/basic_ios.h ****        *  must use explicit qualifications to access this function via any
 337:/usr/include/c++/9.1.0/bits/basic_ios.h ****        *  derived class.  For example:
 338:/usr/include/c++/9.1.0/bits/basic_ios.h ****        *
 339:/usr/include/c++/9.1.0/bits/basic_ios.h ****        *  @code
 340:/usr/include/c++/9.1.0/bits/basic_ios.h ****        *  std::fstream     foo;         // or some other derived type
 341:/usr/include/c++/9.1.0/bits/basic_ios.h ****        *  std::streambuf*  p = .....;
 342:/usr/include/c++/9.1.0/bits/basic_ios.h ****        *
 343:/usr/include/c++/9.1.0/bits/basic_ios.h ****        *  foo.ios::rdbuf(p);            // ios == basic_ios<char>
 344:/usr/include/c++/9.1.0/bits/basic_ios.h ****        *  @endcode
 345:/usr/include/c++/9.1.0/bits/basic_ios.h ****       */
 346:/usr/include/c++/9.1.0/bits/basic_ios.h ****       basic_streambuf<_CharT, _Traits>*
 347:/usr/include/c++/9.1.0/bits/basic_ios.h ****       rdbuf(basic_streambuf<_CharT, _Traits>* __sb);
 348:/usr/include/c++/9.1.0/bits/basic_ios.h **** 
 349:/usr/include/c++/9.1.0/bits/basic_ios.h ****       /**
 350:/usr/include/c++/9.1.0/bits/basic_ios.h ****        *  @brief  Copies fields of __rhs into this.
 351:/usr/include/c++/9.1.0/bits/basic_ios.h ****        *  @param  __rhs  The source values for the copies.
 352:/usr/include/c++/9.1.0/bits/basic_ios.h ****        *  @return  Reference to this object.
 353:/usr/include/c++/9.1.0/bits/basic_ios.h ****        *
 354:/usr/include/c++/9.1.0/bits/basic_ios.h ****        *  All fields of __rhs are copied into this object except that rdbuf()
 355:/usr/include/c++/9.1.0/bits/basic_ios.h ****        *  and rdstate() remain unchanged.  All values in the pword and iword
 356:/usr/include/c++/9.1.0/bits/basic_ios.h ****        *  arrays are copied.  Before copying, each callback is invoked with
GAS LISTING /tmp/ccE0ce2x.s 			page 72


 357:/usr/include/c++/9.1.0/bits/basic_ios.h ****        *  erase_event.  After copying, each (new) callback is invoked with
 358:/usr/include/c++/9.1.0/bits/basic_ios.h ****        *  copyfmt_event.  The final step is to copy exceptions().
 359:/usr/include/c++/9.1.0/bits/basic_ios.h ****       */
 360:/usr/include/c++/9.1.0/bits/basic_ios.h ****       basic_ios&
 361:/usr/include/c++/9.1.0/bits/basic_ios.h ****       copyfmt(const basic_ios& __rhs);
 362:/usr/include/c++/9.1.0/bits/basic_ios.h **** 
 363:/usr/include/c++/9.1.0/bits/basic_ios.h ****       /**
 364:/usr/include/c++/9.1.0/bits/basic_ios.h ****        *  @brief  Retrieves the @a empty character.
 365:/usr/include/c++/9.1.0/bits/basic_ios.h ****        *  @return  The current fill character.
 366:/usr/include/c++/9.1.0/bits/basic_ios.h ****        *
 367:/usr/include/c++/9.1.0/bits/basic_ios.h ****        *  It defaults to a space (' ') in the current locale.
 368:/usr/include/c++/9.1.0/bits/basic_ios.h ****       */
 369:/usr/include/c++/9.1.0/bits/basic_ios.h ****       char_type
 370:/usr/include/c++/9.1.0/bits/basic_ios.h ****       fill() const
 371:/usr/include/c++/9.1.0/bits/basic_ios.h ****       {
 372:/usr/include/c++/9.1.0/bits/basic_ios.h **** 	if (!_M_fill_init)
 373:/usr/include/c++/9.1.0/bits/basic_ios.h **** 	  {
 374:/usr/include/c++/9.1.0/bits/basic_ios.h **** 	    _M_fill = this->widen(' ');
 375:/usr/include/c++/9.1.0/bits/basic_ios.h **** 	    _M_fill_init = true;
 376:/usr/include/c++/9.1.0/bits/basic_ios.h **** 	  }
 377:/usr/include/c++/9.1.0/bits/basic_ios.h **** 	return _M_fill;
 378:/usr/include/c++/9.1.0/bits/basic_ios.h ****       }
 379:/usr/include/c++/9.1.0/bits/basic_ios.h **** 
 380:/usr/include/c++/9.1.0/bits/basic_ios.h ****       /**
 381:/usr/include/c++/9.1.0/bits/basic_ios.h ****        *  @brief  Sets a new @a empty character.
 382:/usr/include/c++/9.1.0/bits/basic_ios.h ****        *  @param  __ch  The new character.
 383:/usr/include/c++/9.1.0/bits/basic_ios.h ****        *  @return  The previous fill character.
 384:/usr/include/c++/9.1.0/bits/basic_ios.h ****        *
 385:/usr/include/c++/9.1.0/bits/basic_ios.h ****        *  The fill character is used to fill out space when P+ characters
 386:/usr/include/c++/9.1.0/bits/basic_ios.h ****        *  have been requested (e.g., via setw), Q characters are actually
 387:/usr/include/c++/9.1.0/bits/basic_ios.h ****        *  used, and Q<P.  It defaults to a space (' ') in the current locale.
 388:/usr/include/c++/9.1.0/bits/basic_ios.h ****       */
 389:/usr/include/c++/9.1.0/bits/basic_ios.h ****       char_type
 390:/usr/include/c++/9.1.0/bits/basic_ios.h ****       fill(char_type __ch)
 391:/usr/include/c++/9.1.0/bits/basic_ios.h ****       {
 392:/usr/include/c++/9.1.0/bits/basic_ios.h **** 	char_type __old = this->fill();
 393:/usr/include/c++/9.1.0/bits/basic_ios.h **** 	_M_fill = __ch;
 394:/usr/include/c++/9.1.0/bits/basic_ios.h **** 	return __old;
 395:/usr/include/c++/9.1.0/bits/basic_ios.h ****       }
 396:/usr/include/c++/9.1.0/bits/basic_ios.h **** 
 397:/usr/include/c++/9.1.0/bits/basic_ios.h ****       // Locales:
 398:/usr/include/c++/9.1.0/bits/basic_ios.h ****       /**
 399:/usr/include/c++/9.1.0/bits/basic_ios.h ****        *  @brief  Moves to a new locale.
 400:/usr/include/c++/9.1.0/bits/basic_ios.h ****        *  @param  __loc  The new locale.
 401:/usr/include/c++/9.1.0/bits/basic_ios.h ****        *  @return  The previous locale.
 402:/usr/include/c++/9.1.0/bits/basic_ios.h ****        *
 403:/usr/include/c++/9.1.0/bits/basic_ios.h ****        *  Calls @c ios_base::imbue(loc), and if a stream buffer is associated
 404:/usr/include/c++/9.1.0/bits/basic_ios.h ****        *  with this stream, calls that buffer's @c pubimbue(loc).
 405:/usr/include/c++/9.1.0/bits/basic_ios.h ****        *
 406:/usr/include/c++/9.1.0/bits/basic_ios.h ****        *  Additional l10n notes are at
 407:/usr/include/c++/9.1.0/bits/basic_ios.h ****        *  http://gcc.gnu.org/onlinedocs/libstdc++/manual/localization.html
 408:/usr/include/c++/9.1.0/bits/basic_ios.h ****       */
 409:/usr/include/c++/9.1.0/bits/basic_ios.h ****       locale
 410:/usr/include/c++/9.1.0/bits/basic_ios.h ****       imbue(const locale& __loc);
 411:/usr/include/c++/9.1.0/bits/basic_ios.h **** 
 412:/usr/include/c++/9.1.0/bits/basic_ios.h ****       /**
 413:/usr/include/c++/9.1.0/bits/basic_ios.h ****        *  @brief  Squeezes characters.
GAS LISTING /tmp/ccE0ce2x.s 			page 73


 414:/usr/include/c++/9.1.0/bits/basic_ios.h ****        *  @param  __c  The character to narrow.
 415:/usr/include/c++/9.1.0/bits/basic_ios.h ****        *  @param  __dfault  The character to narrow.
 416:/usr/include/c++/9.1.0/bits/basic_ios.h ****        *  @return  The narrowed character.
 417:/usr/include/c++/9.1.0/bits/basic_ios.h ****        *
 418:/usr/include/c++/9.1.0/bits/basic_ios.h ****        *  Maps a character of @c char_type to a character of @c char,
 419:/usr/include/c++/9.1.0/bits/basic_ios.h ****        *  if possible.
 420:/usr/include/c++/9.1.0/bits/basic_ios.h ****        *
 421:/usr/include/c++/9.1.0/bits/basic_ios.h ****        *  Returns the result of
 422:/usr/include/c++/9.1.0/bits/basic_ios.h ****        *  @code
 423:/usr/include/c++/9.1.0/bits/basic_ios.h ****        *    std::use_facet<ctype<char_type> >(getloc()).narrow(c,dfault)
 424:/usr/include/c++/9.1.0/bits/basic_ios.h ****        *  @endcode
 425:/usr/include/c++/9.1.0/bits/basic_ios.h ****        *
 426:/usr/include/c++/9.1.0/bits/basic_ios.h ****        *  Additional l10n notes are at
 427:/usr/include/c++/9.1.0/bits/basic_ios.h ****        *  http://gcc.gnu.org/onlinedocs/libstdc++/manual/localization.html
 428:/usr/include/c++/9.1.0/bits/basic_ios.h ****       */
 429:/usr/include/c++/9.1.0/bits/basic_ios.h ****       char
 430:/usr/include/c++/9.1.0/bits/basic_ios.h ****       narrow(char_type __c, char __dfault) const
 431:/usr/include/c++/9.1.0/bits/basic_ios.h ****       { return __check_facet(_M_ctype).narrow(__c, __dfault); }
 432:/usr/include/c++/9.1.0/bits/basic_ios.h **** 
 433:/usr/include/c++/9.1.0/bits/basic_ios.h ****       /**
 434:/usr/include/c++/9.1.0/bits/basic_ios.h ****        *  @brief  Widens characters.
 435:/usr/include/c++/9.1.0/bits/basic_ios.h ****        *  @param  __c  The character to widen.
 436:/usr/include/c++/9.1.0/bits/basic_ios.h ****        *  @return  The widened character.
 437:/usr/include/c++/9.1.0/bits/basic_ios.h ****        *
 438:/usr/include/c++/9.1.0/bits/basic_ios.h ****        *  Maps a character of @c char to a character of @c char_type.
 439:/usr/include/c++/9.1.0/bits/basic_ios.h ****        *
 440:/usr/include/c++/9.1.0/bits/basic_ios.h ****        *  Returns the result of
 441:/usr/include/c++/9.1.0/bits/basic_ios.h ****        *  @code
 442:/usr/include/c++/9.1.0/bits/basic_ios.h ****        *    std::use_facet<ctype<char_type> >(getloc()).widen(c)
 443:/usr/include/c++/9.1.0/bits/basic_ios.h ****        *  @endcode
 444:/usr/include/c++/9.1.0/bits/basic_ios.h ****        *
 445:/usr/include/c++/9.1.0/bits/basic_ios.h ****        *  Additional l10n notes are at
 446:/usr/include/c++/9.1.0/bits/basic_ios.h ****        *  http://gcc.gnu.org/onlinedocs/libstdc++/manual/localization.html
 447:/usr/include/c++/9.1.0/bits/basic_ios.h ****       */
 448:/usr/include/c++/9.1.0/bits/basic_ios.h ****       char_type
 449:/usr/include/c++/9.1.0/bits/basic_ios.h ****       widen(char __c) const
 1352              		.loc 6 449 7 is_stmt 1 view .LVU410
 1353              	.LBB239:
 450:/usr/include/c++/9.1.0/bits/basic_ios.h ****       { return __check_facet(_M_ctype).widen(__c); }
 1354              		.loc 6 450 30 is_stmt 0 view .LVU411
 1355 083b 488B98F0 		movq	240(%rax), %rbx
 1355      000000
 1356              	.LVL103:
 1357              	.LBB240:
 1358              	.LBI240:
  47:/usr/include/c++/9.1.0/bits/basic_ios.h ****     {
 1359              		.loc 6 47 5 is_stmt 1 view .LVU412
 1360              	.LBB241:
  49:/usr/include/c++/9.1.0/bits/basic_ios.h **** 	__throw_bad_cast();
 1361              		.loc 6 49 7 is_stmt 0 view .LVU413
 1362 0842 4885DB   		testq	%rbx, %rbx
 1363 0845 0F84B600 		je	.L94
 1363      0000
 1364              	.LVL104:
  49:/usr/include/c++/9.1.0/bits/basic_ios.h **** 	__throw_bad_cast();
 1365              		.loc 6 49 7 view .LVU414
 1366              	.LBE241:
GAS LISTING /tmp/ccE0ce2x.s 			page 74


 1367              	.LBE240:
 1368              	.LBB243:
 1369              	.LBI243:
 1370              		.file 7 "/usr/include/c++/9.1.0/bits/locale_facets.h"
   1:/usr/include/c++/9.1.0/bits/locale_facets.h **** // Locale support -*- C++ -*-
   2:/usr/include/c++/9.1.0/bits/locale_facets.h **** 
   3:/usr/include/c++/9.1.0/bits/locale_facets.h **** // Copyright (C) 1997-2019 Free Software Foundation, Inc.
   4:/usr/include/c++/9.1.0/bits/locale_facets.h **** //
   5:/usr/include/c++/9.1.0/bits/locale_facets.h **** // This file is part of the GNU ISO C++ Library.  This library is free
   6:/usr/include/c++/9.1.0/bits/locale_facets.h **** // software; you can redistribute it and/or modify it under the
   7:/usr/include/c++/9.1.0/bits/locale_facets.h **** // terms of the GNU General Public License as published by the
   8:/usr/include/c++/9.1.0/bits/locale_facets.h **** // Free Software Foundation; either version 3, or (at your option)
   9:/usr/include/c++/9.1.0/bits/locale_facets.h **** // any later version.
  10:/usr/include/c++/9.1.0/bits/locale_facets.h **** 
  11:/usr/include/c++/9.1.0/bits/locale_facets.h **** // This library is distributed in the hope that it will be useful,
  12:/usr/include/c++/9.1.0/bits/locale_facets.h **** // but WITHOUT ANY WARRANTY; without even the implied warranty of
  13:/usr/include/c++/9.1.0/bits/locale_facets.h **** // MERCHANTABILITY or FITNESS FOR A PARTICULAR PURPOSE.  See the
  14:/usr/include/c++/9.1.0/bits/locale_facets.h **** // GNU General Public License for more details.
  15:/usr/include/c++/9.1.0/bits/locale_facets.h **** 
  16:/usr/include/c++/9.1.0/bits/locale_facets.h **** // Under Section 7 of GPL version 3, you are granted additional
  17:/usr/include/c++/9.1.0/bits/locale_facets.h **** // permissions described in the GCC Runtime Library Exception, version
  18:/usr/include/c++/9.1.0/bits/locale_facets.h **** // 3.1, as published by the Free Software Foundation.
  19:/usr/include/c++/9.1.0/bits/locale_facets.h **** 
  20:/usr/include/c++/9.1.0/bits/locale_facets.h **** // You should have received a copy of the GNU General Public License and
  21:/usr/include/c++/9.1.0/bits/locale_facets.h **** // a copy of the GCC Runtime Library Exception along with this program;
  22:/usr/include/c++/9.1.0/bits/locale_facets.h **** // see the files COPYING3 and COPYING.RUNTIME respectively.  If not, see
  23:/usr/include/c++/9.1.0/bits/locale_facets.h **** // <http://www.gnu.org/licenses/>.
  24:/usr/include/c++/9.1.0/bits/locale_facets.h **** 
  25:/usr/include/c++/9.1.0/bits/locale_facets.h **** /** @file bits/locale_facets.h
  26:/usr/include/c++/9.1.0/bits/locale_facets.h ****  *  This is an internal header file, included by other library headers.
  27:/usr/include/c++/9.1.0/bits/locale_facets.h ****  *  Do not attempt to use it directly. @headername{locale}
  28:/usr/include/c++/9.1.0/bits/locale_facets.h ****  */
  29:/usr/include/c++/9.1.0/bits/locale_facets.h **** 
  30:/usr/include/c++/9.1.0/bits/locale_facets.h **** //
  31:/usr/include/c++/9.1.0/bits/locale_facets.h **** // ISO C++ 14882: 22.1  Locales
  32:/usr/include/c++/9.1.0/bits/locale_facets.h **** //
  33:/usr/include/c++/9.1.0/bits/locale_facets.h **** 
  34:/usr/include/c++/9.1.0/bits/locale_facets.h **** #ifndef _LOCALE_FACETS_H
  35:/usr/include/c++/9.1.0/bits/locale_facets.h **** #define _LOCALE_FACETS_H 1
  36:/usr/include/c++/9.1.0/bits/locale_facets.h **** 
  37:/usr/include/c++/9.1.0/bits/locale_facets.h **** #pragma GCC system_header
  38:/usr/include/c++/9.1.0/bits/locale_facets.h **** 
  39:/usr/include/c++/9.1.0/bits/locale_facets.h **** #include <cwctype>	// For wctype_t
  40:/usr/include/c++/9.1.0/bits/locale_facets.h **** #include <cctype>
  41:/usr/include/c++/9.1.0/bits/locale_facets.h **** #include <bits/ctype_base.h>
  42:/usr/include/c++/9.1.0/bits/locale_facets.h **** #include <iosfwd>
  43:/usr/include/c++/9.1.0/bits/locale_facets.h **** #include <bits/ios_base.h>  // For ios_base, ios_base::iostate
  44:/usr/include/c++/9.1.0/bits/locale_facets.h **** #include <streambuf>
  45:/usr/include/c++/9.1.0/bits/locale_facets.h **** #include <bits/cpp_type_traits.h>
  46:/usr/include/c++/9.1.0/bits/locale_facets.h **** #include <ext/type_traits.h>
  47:/usr/include/c++/9.1.0/bits/locale_facets.h **** #include <ext/numeric_traits.h>
  48:/usr/include/c++/9.1.0/bits/locale_facets.h **** #include <bits/streambuf_iterator.h>
  49:/usr/include/c++/9.1.0/bits/locale_facets.h **** 
  50:/usr/include/c++/9.1.0/bits/locale_facets.h **** namespace std _GLIBCXX_VISIBILITY(default)
  51:/usr/include/c++/9.1.0/bits/locale_facets.h **** {
  52:/usr/include/c++/9.1.0/bits/locale_facets.h **** _GLIBCXX_BEGIN_NAMESPACE_VERSION
  53:/usr/include/c++/9.1.0/bits/locale_facets.h **** 
GAS LISTING /tmp/ccE0ce2x.s 			page 75


  54:/usr/include/c++/9.1.0/bits/locale_facets.h ****   // NB: Don't instantiate required wchar_t facets if no wchar_t support.
  55:/usr/include/c++/9.1.0/bits/locale_facets.h **** #ifdef _GLIBCXX_USE_WCHAR_T
  56:/usr/include/c++/9.1.0/bits/locale_facets.h **** # define  _GLIBCXX_NUM_FACETS 28
  57:/usr/include/c++/9.1.0/bits/locale_facets.h **** # define  _GLIBCXX_NUM_CXX11_FACETS 16
  58:/usr/include/c++/9.1.0/bits/locale_facets.h **** #else
  59:/usr/include/c++/9.1.0/bits/locale_facets.h **** # define  _GLIBCXX_NUM_FACETS 14
  60:/usr/include/c++/9.1.0/bits/locale_facets.h **** # define  _GLIBCXX_NUM_CXX11_FACETS 8
  61:/usr/include/c++/9.1.0/bits/locale_facets.h **** #endif
  62:/usr/include/c++/9.1.0/bits/locale_facets.h **** #ifdef _GLIBCXX_USE_CHAR8_T
  63:/usr/include/c++/9.1.0/bits/locale_facets.h **** # define _GLIBCXX_NUM_UNICODE_FACETS 4
  64:/usr/include/c++/9.1.0/bits/locale_facets.h **** #else
  65:/usr/include/c++/9.1.0/bits/locale_facets.h **** # define _GLIBCXX_NUM_UNICODE_FACETS 2
  66:/usr/include/c++/9.1.0/bits/locale_facets.h **** #endif
  67:/usr/include/c++/9.1.0/bits/locale_facets.h **** 
  68:/usr/include/c++/9.1.0/bits/locale_facets.h ****   // Convert string to numeric value of type _Tp and store results.
  69:/usr/include/c++/9.1.0/bits/locale_facets.h ****   // NB: This is specialized for all required types, there is no
  70:/usr/include/c++/9.1.0/bits/locale_facets.h ****   // generic definition.
  71:/usr/include/c++/9.1.0/bits/locale_facets.h ****   template<typename _Tp>
  72:/usr/include/c++/9.1.0/bits/locale_facets.h ****     void
  73:/usr/include/c++/9.1.0/bits/locale_facets.h ****     __convert_to_v(const char*, _Tp&, ios_base::iostate&,
  74:/usr/include/c++/9.1.0/bits/locale_facets.h **** 		   const __c_locale&) throw();
  75:/usr/include/c++/9.1.0/bits/locale_facets.h **** 
  76:/usr/include/c++/9.1.0/bits/locale_facets.h ****   // Explicit specializations for required types.
  77:/usr/include/c++/9.1.0/bits/locale_facets.h ****   template<>
  78:/usr/include/c++/9.1.0/bits/locale_facets.h ****     void
  79:/usr/include/c++/9.1.0/bits/locale_facets.h ****     __convert_to_v(const char*, float&, ios_base::iostate&,
