GAS LISTING /tmp/ccDAqEnA.s 			page 1


   1              		.file	"findwayBases.cpp"
   2              		.text
   3              	.Ltext0:
   5              	_Z41__static_initialization_and_destruction_0ii:
   6              	.LVL0:
   7              	.LFB2076:
   8              		.file 1 "Src/findwayBases.cpp"
   1:Src/findwayBases.cpp **** #include <iostream>
   2:Src/findwayBases.cpp **** #include "findwayBases.hpp"
   3:Src/findwayBases.cpp **** 
   4:Src/findwayBases.cpp **** bool            hasIntersection( const struct baseline *b1,  const struct baseline *b2)
   5:Src/findwayBases.cpp **** {
   6:Src/findwayBases.cpp ****     return b1->k != b2->k;
   7:Src/findwayBases.cpp **** }
   8:Src/findwayBases.cpp **** 
   9:Src/findwayBases.cpp **** struct coords   getIntersection(const struct baseline *b1, const struct baseline *b2)
  10:Src/findwayBases.cpp **** {
  11:Src/findwayBases.cpp ****     struct coords ret;
  12:Src/findwayBases.cpp ****     if(b1->k == b2->k)
  13:Src/findwayBases.cpp ****         ret = {0, 0};
  14:Src/findwayBases.cpp ****     else 
  15:Src/findwayBases.cpp ****     {
  16:Src/findwayBases.cpp ****         if(abs(b1->k) != INF && abs(b2->k) != INF)
  17:Src/findwayBases.cpp ****         {
  18:Src/findwayBases.cpp ****             ret.x = (b2->b - b1->b) / (b1->k - b2->k);
  19:Src/findwayBases.cpp ****             ret.y = (b2->k * b1->b - b1->k * b2->b) / (b2->k - b1->k);
  20:Src/findwayBases.cpp ****         }
  21:Src/findwayBases.cpp ****         else if(abs(b1->k) == INF)
  22:Src/findwayBases.cpp ****         {
  23:Src/findwayBases.cpp ****             ret.x = b1->b;
  24:Src/findwayBases.cpp ****             ret.y = b2->k * ret.x + b2->b;
  25:Src/findwayBases.cpp ****         }
  26:Src/findwayBases.cpp ****         else
  27:Src/findwayBases.cpp ****         {
  28:Src/findwayBases.cpp ****             ret.x = b2->b;
  29:Src/findwayBases.cpp ****             ret.y = b1->k * ret.x + b1->b;
  30:Src/findwayBases.cpp ****         }
  31:Src/findwayBases.cpp ****     }
  32:Src/findwayBases.cpp **** 
  33:Src/findwayBases.cpp ****     return ret;
  34:Src/findwayBases.cpp **** }
  35:Src/findwayBases.cpp **** 
  36:Src/findwayBases.cpp **** bool isCoDirectional(const struct vect *v, const struct coords *c)
  37:Src/findwayBases.cpp **** {
  38:Src/findwayBases.cpp ****     return (sgn(v->dx) == sgn(c->x - v->c->x) && sgn(v->dy) == sgn(c->y - v->c->y));
  39:Src/findwayBases.cpp **** }
  40:Src/findwayBases.cpp **** 
  41:Src/findwayBases.cpp **** 
  42:Src/findwayBases.cpp **** //will return NULL if there is no intersections
  43:Src/findwayBases.cpp **** struct coords   getIntersection(const struct obstacle *obst, const struct vect *v)
  44:Src/findwayBases.cpp **** {
  45:Src/findwayBases.cpp ****     struct coords inter1, inter2, tgt;
  46:Src/findwayBases.cpp ****     tgt = {(v->dx + v->c->x), (v->dy + v->c->y)};
  47:Src/findwayBases.cpp ****     struct baseline b1,
  48:Src/findwayBases.cpp ****                     b2;
  49:Src/findwayBases.cpp ****     COORDS_DATATYPE l1 = 0, l2 = 0, lv = 0;
  50:Src/findwayBases.cpp **** 
GAS LISTING /tmp/ccDAqEnA.s 			page 2


  51:Src/findwayBases.cpp ****     lv = getLen(v);
  52:Src/findwayBases.cpp **** 
  53:Src/findwayBases.cpp ****     b1 = vectToBaseline(v);
  54:Src/findwayBases.cpp **** 
  55:Src/findwayBases.cpp ****     b2.k = INF;
  56:Src/findwayBases.cpp ****     b2.b = obst->c->x;
  57:Src/findwayBases.cpp **** 
  58:Src/findwayBases.cpp ****     inter1 = getIntersection(&b1, &b2);
  59:Src/findwayBases.cpp ****     if(isDotInside(&inter1, obst))
  60:Src/findwayBases.cpp ****     {
  61:Src/findwayBases.cpp ****         l1 = getLen(v->c, &inter1);
  62:Src/findwayBases.cpp ****         if(!(isCoDirectional(v, &inter1) && l1 <= lv))
  63:Src/findwayBases.cpp ****         {
  64:Src/findwayBases.cpp ****             l1 = 0;
  65:Src/findwayBases.cpp ****             inter1 = {0, 0};
  66:Src/findwayBases.cpp ****         }
  67:Src/findwayBases.cpp ****     }
  68:Src/findwayBases.cpp ****     else
  69:Src/findwayBases.cpp ****     {
  70:Src/findwayBases.cpp ****         l1 = 0;
  71:Src/findwayBases.cpp ****         inter1 = {0, 0};
  72:Src/findwayBases.cpp ****     }
  73:Src/findwayBases.cpp **** 
  74:Src/findwayBases.cpp ****     b2.b += obst->a;
  75:Src/findwayBases.cpp **** 
  76:Src/findwayBases.cpp ****     inter2 = getIntersection(&b1, &b2);
  77:Src/findwayBases.cpp ****     if(isDotInside(&inter2, obst))
  78:Src/findwayBases.cpp ****     {
  79:Src/findwayBases.cpp ****         l2 = getLen(v->c, &inter2);
  80:Src/findwayBases.cpp ****         if(!(isCoDirectional(v, &inter2) && l2 <= lv))
  81:Src/findwayBases.cpp ****         {
  82:Src/findwayBases.cpp ****             inter2 = {0, 0};
  83:Src/findwayBases.cpp ****             l2 = 0;
  84:Src/findwayBases.cpp ****         }
  85:Src/findwayBases.cpp ****         else if(inter1.eq(0, 0) || l2 < l1)
  86:Src/findwayBases.cpp ****         {
  87:Src/findwayBases.cpp ****             inter1 = inter2;
  88:Src/findwayBases.cpp ****             l1 = l2;
  89:Src/findwayBases.cpp ****             l2 = 0;
  90:Src/findwayBases.cpp ****             inter2 = {0, 0};
  91:Src/findwayBases.cpp ****         }
  92:Src/findwayBases.cpp ****         else
  93:Src/findwayBases.cpp ****         {
  94:Src/findwayBases.cpp ****             l2 = 0;
  95:Src/findwayBases.cpp ****             inter2 = {0, 0};
  96:Src/findwayBases.cpp ****         }
  97:Src/findwayBases.cpp ****     }
  98:Src/findwayBases.cpp ****     else
  99:Src/findwayBases.cpp ****     {
 100:Src/findwayBases.cpp ****         l2 = 0;
 101:Src/findwayBases.cpp ****         inter2 = {0, 0};
 102:Src/findwayBases.cpp ****     }
 103:Src/findwayBases.cpp **** 
 104:Src/findwayBases.cpp ****     // if(!inter2.eq(0, 0))
 105:Src/findwayBases.cpp ****     // {
 106:Src/findwayBases.cpp ****     //     if(!inter1.eq(0, 0))
 107:Src/findwayBases.cpp ****     //     {
GAS LISTING /tmp/ccDAqEnA.s 			page 3


 108:Src/findwayBases.cpp ****     //         if(l1 <= lv)
 109:Src/findwayBases.cpp ****     //         {
 110:Src/findwayBases.cpp ****     //             if(l2 <= lv)
 111:Src/findwayBases.cpp ****     //             {
 112:Src/findwayBases.cpp ****     //                 if(l2 < l1)
 113:Src/findwayBases.cpp ****     //                 {
 114:Src/findwayBases.cpp ****     //                     inter1 = inter2;
 115:Src/findwayBases.cpp ****     //                     l1 = l2;
 116:Src/findwayBases.cpp **** 
 117:Src/findwayBases.cpp ****     //                     l2 = 0;
 118:Src/findwayBases.cpp ****     //                     inter2 = {0, 0};
 119:Src/findwayBases.cpp ****     //                 }
 120:Src/findwayBases.cpp ****     //             }
 121:Src/findwayBases.cpp ****     //             else 
 122:Src/findwayBases.cpp ****     //             {
 123:Src/findwayBases.cpp ****     //                 l2 = 0;
 124:Src/findwayBases.cpp ****     //                 inter2 = {0, 0};
 125:Src/findwayBases.cpp ****     //             }
 126:Src/findwayBases.cpp ****     //         }
 127:Src/findwayBases.cpp ****     //         else
 128:Src/findwayBases.cpp ****     //         {
 129:Src/findwayBases.cpp ****     //             if(l2 <= lv)
 130:Src/findwayBases.cpp ****     //             {
 131:Src/findwayBases.cpp ****     //                 inter1 = inter2;
 132:Src/findwayBases.cpp ****     //                 l1 = l2;
 133:Src/findwayBases.cpp **** 
 134:Src/findwayBases.cpp ****     //                 l2 = 0;
 135:Src/findwayBases.cpp ****     //                 inter2 = {0, 0};
 136:Src/findwayBases.cpp ****     //             }
 137:Src/findwayBases.cpp ****     //             else
 138:Src/findwayBases.cpp ****     //             {
 139:Src/findwayBases.cpp ****     //                 l1 = 0;
 140:Src/findwayBases.cpp ****     //                 inter1 = {0, 0};
 141:Src/findwayBases.cpp **** 
 142:Src/findwayBases.cpp ****     //                 l2 = 0;
 143:Src/findwayBases.cpp ****     //                 inter2 = {0, 0};
 144:Src/findwayBases.cpp ****     //             }
 145:Src/findwayBases.cpp ****                 
 146:Src/findwayBases.cpp ****     //         }
 147:Src/findwayBases.cpp ****     //     }
 148:Src/findwayBases.cpp ****     //     else
 149:Src/findwayBases.cpp ****     //     {
 150:Src/findwayBases.cpp ****     //         if(l2 <= lv)
 151:Src/findwayBases.cpp ****     //         {
 152:Src/findwayBases.cpp ****     //             inter1 = inter2;
 153:Src/findwayBases.cpp ****     //             l1 = l2;
 154:Src/findwayBases.cpp **** 
 155:Src/findwayBases.cpp ****     //             l2 = 0;
 156:Src/findwayBases.cpp ****     //             inter2 = {0, 0};
 157:Src/findwayBases.cpp ****     //         }
 158:Src/findwayBases.cpp ****     //         else
 159:Src/findwayBases.cpp ****     //         {
 160:Src/findwayBases.cpp ****     //             inter1 = {0, 0};
 161:Src/findwayBases.cpp ****     //             l1 = 0;
 162:Src/findwayBases.cpp **** 
 163:Src/findwayBases.cpp ****     //             l2 = 0;
 164:Src/findwayBases.cpp ****     //             inter2 = {0, 0};
GAS LISTING /tmp/ccDAqEnA.s 			page 4


 165:Src/findwayBases.cpp ****     //         }
 166:Src/findwayBases.cpp ****     //     }   
 167:Src/findwayBases.cpp ****     // }
 168:Src/findwayBases.cpp ****     // else if(!inter1.eq(0, 0))
 169:Src/findwayBases.cpp ****     // {
 170:Src/findwayBases.cpp ****     //     if(l1 > lv)
 171:Src/findwayBases.cpp ****     //     {
 172:Src/findwayBases.cpp ****     //         inter1 = {0, 0};
 173:Src/findwayBases.cpp ****     //         l1 = 0;
 174:Src/findwayBases.cpp ****     //     }
 175:Src/findwayBases.cpp ****     //     l2 = 0;
 176:Src/findwayBases.cpp ****     //     inter2 = {0, 0};
 177:Src/findwayBases.cpp ****     // }
 178:Src/findwayBases.cpp ****     // else 
 179:Src/findwayBases.cpp ****     // {
 180:Src/findwayBases.cpp ****     //     l1 = 0;
 181:Src/findwayBases.cpp ****     //     inter1 = {0, 0};
 182:Src/findwayBases.cpp **** 
 183:Src/findwayBases.cpp ****     //     l2 = 0;
 184:Src/findwayBases.cpp ****     //     inter2 = {0, 0};
 185:Src/findwayBases.cpp ****     // }
 186:Src/findwayBases.cpp **** 
 187:Src/findwayBases.cpp ****     b2.k = 0;
 188:Src/findwayBases.cpp ****     b2.b = obst->c->y;
 189:Src/findwayBases.cpp ****     inter2 = getIntersection(&b1, &b2);
 190:Src/findwayBases.cpp ****     if(isDotInside(&inter2, obst))
 191:Src/findwayBases.cpp ****     {
 192:Src/findwayBases.cpp ****         l2 = getLen(v->c, &inter2);
 193:Src/findwayBases.cpp ****         if(!(isCoDirectional(v, &inter2) && l2 <= lv))
 194:Src/findwayBases.cpp ****         {
 195:Src/findwayBases.cpp ****             inter2 = {0, 0};
 196:Src/findwayBases.cpp ****             l2 = 0;
 197:Src/findwayBases.cpp ****         }
 198:Src/findwayBases.cpp ****         else if(inter1.eq(0, 0) || l2 < l1)
 199:Src/findwayBases.cpp ****         {
 200:Src/findwayBases.cpp ****             inter1 = inter2;
 201:Src/findwayBases.cpp ****             l1 = l2;
 202:Src/findwayBases.cpp ****             l2 = 0;
 203:Src/findwayBases.cpp ****             inter2 = {0, 0};
 204:Src/findwayBases.cpp ****         }
 205:Src/findwayBases.cpp ****         else
 206:Src/findwayBases.cpp ****         {
 207:Src/findwayBases.cpp ****             l2 = 0;
 208:Src/findwayBases.cpp ****             inter2 = {0, 0};
 209:Src/findwayBases.cpp ****         }
 210:Src/findwayBases.cpp ****     }
 211:Src/findwayBases.cpp ****     else
 212:Src/findwayBases.cpp ****     {
 213:Src/findwayBases.cpp ****         l2 = 0;
 214:Src/findwayBases.cpp ****         inter2 = {0, 0};
 215:Src/findwayBases.cpp ****     }
 216:Src/findwayBases.cpp **** 
 217:Src/findwayBases.cpp ****     
 218:Src/findwayBases.cpp ****     b2.b += obst->a;
 219:Src/findwayBases.cpp **** 
 220:Src/findwayBases.cpp ****     inter2 = getIntersection(&b1, &b2);
 221:Src/findwayBases.cpp ****     if(isDotInside(&inter2, obst))
GAS LISTING /tmp/ccDAqEnA.s 			page 5


 222:Src/findwayBases.cpp ****     {
 223:Src/findwayBases.cpp ****         l2 = getLen(v->c, &inter2);
 224:Src/findwayBases.cpp ****         if(!(isCoDirectional(v, &inter2) && l2 <= lv))
 225:Src/findwayBases.cpp ****         {
 226:Src/findwayBases.cpp ****             inter2 = {0, 0};
 227:Src/findwayBases.cpp ****             l2 = 0;
 228:Src/findwayBases.cpp ****         }
 229:Src/findwayBases.cpp ****         else if(inter1.eq(0, 0) || l2 < l1)
 230:Src/findwayBases.cpp ****         {
 231:Src/findwayBases.cpp ****             inter1 = inter2;
 232:Src/findwayBases.cpp ****             l1 = l2;
 233:Src/findwayBases.cpp ****             l2 = 0;
 234:Src/findwayBases.cpp ****             inter2 = {0, 0};
 235:Src/findwayBases.cpp ****         }
 236:Src/findwayBases.cpp ****         else
 237:Src/findwayBases.cpp ****         {
 238:Src/findwayBases.cpp ****             l2 = 0;
 239:Src/findwayBases.cpp ****             inter2 = {0, 0};
 240:Src/findwayBases.cpp ****         }
 241:Src/findwayBases.cpp ****     }
 242:Src/findwayBases.cpp ****     else
 243:Src/findwayBases.cpp ****     {
 244:Src/findwayBases.cpp ****         l2 = 0;
 245:Src/findwayBases.cpp ****         inter2 = {0, 0};
 246:Src/findwayBases.cpp ****     }
 247:Src/findwayBases.cpp **** 
 248:Src/findwayBases.cpp ****     return inter1;
 249:Src/findwayBases.cpp ****     
 250:Src/findwayBases.cpp ****     // struct coords   c,
 251:Src/findwayBases.cpp ****     //                 c2,
 252:Src/findwayBases.cpp ****     //                 c3;
 253:Src/findwayBases.cpp **** 
 254:Src/findwayBases.cpp ****     // struct baseline b,
 255:Src/findwayBases.cpp ****     //                 b2;
 256:Src/findwayBases.cpp **** 
 257:Src/findwayBases.cpp ****     // COORDS_DATATYPE l1,
 258:Src/findwayBases.cpp ****     //                 l2,
 259:Src/findwayBases.cpp ****     //                 l3;
 260:Src/findwayBases.cpp ****     // c3 = {(v->dx + v->c->x), (v->dy + v->c->y)};
 261:Src/findwayBases.cpp ****     // l3 = getLen(v->c, &c3);
 262:Src/findwayBases.cpp **** 
 263:Src/findwayBases.cpp ****     // b.k = INF;
 264:Src/findwayBases.cpp ****     // b.b = obst->c->x;
 265:Src/findwayBases.cpp ****     // b2 = vectToBaseline(v);
 266:Src/findwayBases.cpp ****     // c = getIntersection(&b, &b2);
 267:Src/findwayBases.cpp **** 
 268:Src/findwayBases.cpp ****     // b.k = INF;
 269:Src/findwayBases.cpp ****     // b.b = obst->c->x + obst->a;
 270:Src/findwayBases.cpp ****     // c2 = getIntersection(&b, &b2);
 271:Src/findwayBases.cpp ****     // l1 = getLen(v->c, &c);
 272:Src/findwayBases.cpp ****     // if(!isDotInside(&c, obst) && isDotInside(&c2, obst))
 273:Src/findwayBases.cpp ****     // {
 274:Src/findwayBases.cpp ****     //     c = c2;
 275:Src/findwayBases.cpp ****     // }
 276:Src/findwayBases.cpp ****     // else if(isDotInside(&c, obst) && isDotInside(&c2, obst))
 277:Src/findwayBases.cpp ****     // {
 278:Src/findwayBases.cpp ****     //     l2 = getLen(v->c, &c2);
GAS LISTING /tmp/ccDAqEnA.s 			page 6


 279:Src/findwayBases.cpp ****     //     if(l1 < l2 && l1 <= l3)
 280:Src/findwayBases.cpp ****     //         c = c2;
 281:Src/findwayBases.cpp ****     // }
 282:Src/findwayBases.cpp **** 
 283:Src/findwayBases.cpp ****     // b.k = 0;
 284:Src/findwayBases.cpp ****     // b.b = obst->c->y;
 285:Src/findwayBases.cpp ****     // c2 = getIntersection(&b, &b2);
 286:Src/findwayBases.cpp ****     // if(isDotInside(&c2, obst))
 287:Src/findwayBases.cpp ****     // {
 288:Src/findwayBases.cpp ****     //     l2 = getLen(v->c, &c2);
 289:Src/findwayBases.cpp ****     //     if(l1 < l2 && l1 <= l3)
 290:Src/findwayBases.cpp ****     //         c = c2;
 291:Src/findwayBases.cpp ****     // }
 292:Src/findwayBases.cpp **** 
 293:Src/findwayBases.cpp **** 
 294:Src/findwayBases.cpp ****     // b.k = 0;
 295:Src/findwayBases.cpp ****     // b.b = obst->c->y + obst->a;
 296:Src/findwayBases.cpp ****     // c2 = getIntersection(&b, &b2);
 297:Src/findwayBases.cpp ****     // if(isDotInside(&c2, obst))
 298:Src/findwayBases.cpp ****     // {
 299:Src/findwayBases.cpp ****     //     l2 = getLen(v->c, &c2);
 300:Src/findwayBases.cpp ****     //     if(l2 < l1 && l2 <= l3)
 301:Src/findwayBases.cpp ****     //         c = c2;
 302:Src/findwayBases.cpp ****     // }
 303:Src/findwayBases.cpp **** 
 304:Src/findwayBases.cpp ****     // if(isDotInside(&c, obst))
 305:Src/findwayBases.cpp ****     // {
 306:Src/findwayBases.cpp ****     //     if(isDotInside(&c2, obst))
 307:Src/findwayBases.cpp ****     //     {
 308:Src/findwayBases.cpp ****     //         l1 = getLen(v->c, &c);
 309:Src/findwayBases.cpp ****     //         l2 = getLen(v->c, &c2);
 310:Src/findwayBases.cpp ****     //         if(l1 < l2 && l1 <= l3)
 311:Src/findwayBases.cpp ****     //             return c;
 312:Src/findwayBases.cpp ****     //         else if(l2 <= l3)
 313:Src/findwayBases.cpp ****     //             return c2;
 314:Src/findwayBases.cpp ****     //         else
 315:Src/findwayBases.cpp ****     //             return {0, 0};
 316:Src/findwayBases.cpp ****     //     }
 317:Src/findwayBases.cpp ****     //     else
 318:Src/findwayBases.cpp ****     //         return c;
 319:Src/findwayBases.cpp ****     // }
 320:Src/findwayBases.cpp ****     // else if(isDotInside(&c2, obst) &&  getLen(v->c, &c2) <= l3)
 321:Src/findwayBases.cpp ****     //     return c2;
 322:Src/findwayBases.cpp ****     // else
 323:Src/findwayBases.cpp ****     //     return {0, 0};
 324:Src/findwayBases.cpp **** }
 325:Src/findwayBases.cpp **** 
 326:Src/findwayBases.cpp **** 
 327:Src/findwayBases.cpp **** 
 328:Src/findwayBases.cpp **** 
 329:Src/findwayBases.cpp **** bool            isDotInside(const struct coords *dot, const struct obstacle *obstacle)
 330:Src/findwayBases.cpp **** {
 331:Src/findwayBases.cpp ****     return      (dot->x >= obstacle->c->x)
 332:Src/findwayBases.cpp ****             &&  (dot->x <= obstacle->c->x + obstacle->a)
 333:Src/findwayBases.cpp ****             &&  (dot->y >= obstacle->c->y)
 334:Src/findwayBases.cpp ****             &&  (dot->y <= obstacle->c->y + obstacle->a);
 335:Src/findwayBases.cpp **** }
GAS LISTING /tmp/ccDAqEnA.s 			page 7


 336:Src/findwayBases.cpp **** 
 337:Src/findwayBases.cpp **** struct baseline vectToBaseline(const struct vect *v)
 338:Src/findwayBases.cpp **** {
 339:Src/findwayBases.cpp ****     struct baseline ret;
 340:Src/findwayBases.cpp **** 
 341:Src/findwayBases.cpp ****     ret.k = ((float)v->dy / (float)v->dx);
 342:Src/findwayBases.cpp **** 
 343:Src/findwayBases.cpp ****     if(v->dx != 0)
 344:Src/findwayBases.cpp ****         ret.b = v->c->y - v->c->x * ret.k;
 345:Src/findwayBases.cpp ****     else
 346:Src/findwayBases.cpp ****         ret.b = v->c->x;
 347:Src/findwayBases.cpp **** 
 348:Src/findwayBases.cpp ****     return ret;
 349:Src/findwayBases.cpp **** }
 350:Src/findwayBases.cpp **** 
 351:Src/findwayBases.cpp **** COORDS_DATATYPE getLen(const struct coords *c1, const struct coords *c2)
 352:Src/findwayBases.cpp **** {
 353:Src/findwayBases.cpp ****     COORDS_DATATYPE lx = c1->x - c2->x,
 354:Src/findwayBases.cpp ****                     ly = c1->y - c2->y,
 355:Src/findwayBases.cpp ****                     l  = sqrt(sqr(lx) + sqr(ly));
 356:Src/findwayBases.cpp **** 
 357:Src/findwayBases.cpp ****     return l;
 358:Src/findwayBases.cpp **** }
 359:Src/findwayBases.cpp **** 
 360:Src/findwayBases.cpp **** COORDS_DATATYPE getLen(const struct vect *v)
 361:Src/findwayBases.cpp **** {
 362:Src/findwayBases.cpp ****     COORDS_DATATYPE l = sqrt(sqr(v->dx) + sqr(v->dy));
 363:Src/findwayBases.cpp ****     return l;
 364:Src/findwayBases.cpp **** }
 365:Src/findwayBases.cpp **** 
 366:Src/findwayBases.cpp **** struct coords   createCoords(const COORDS_DATATYPE x, const COORDS_DATATYPE y)
 367:Src/findwayBases.cpp **** {
 368:Src/findwayBases.cpp ****     struct coords ret;
 369:Src/findwayBases.cpp ****     ret.x = x;
 370:Src/findwayBases.cpp ****     ret.y = y;
 371:Src/findwayBases.cpp ****     return ret;
 372:Src/findwayBases.cpp **** }
 373:Src/findwayBases.cpp **** 
 374:Src/findwayBases.cpp **** struct obstacle createObstacle(const COORDS_DATATYPE x, const COORDS_DATATYPE y, const COORDS_DATAT
 375:Src/findwayBases.cpp **** {
 376:Src/findwayBases.cpp ****     struct obstacle ret;
 377:Src/findwayBases.cpp ****     ret.c = (struct coords*)malloc(sizeof(struct coords));
 378:Src/findwayBases.cpp ****     ret.c->x = x;
 379:Src/findwayBases.cpp ****     ret.c->y = y;
 380:Src/findwayBases.cpp ****     ret.a    = a;
 381:Src/findwayBases.cpp ****     for(uint8_t i = 0; i < 4; i++)
 382:Src/findwayBases.cpp ****     {
 383:Src/findwayBases.cpp ****         ret.corners[i] = (struct graphPoint*)malloc(sizeof(struct graphPoint));
 384:Src/findwayBases.cpp ****         ret.corners[i]->c = *getCoordsOfCorner(&ret, i);
 385:Src/findwayBases.cpp ****     }
 386:Src/findwayBases.cpp **** 
 387:Src/findwayBases.cpp ****     return ret;
 388:Src/findwayBases.cpp **** }
 389:Src/findwayBases.cpp **** 
 390:Src/findwayBases.cpp **** 
 391:Src/findwayBases.cpp **** #define CONST 0.4
 392:Src/findwayBases.cpp **** 
GAS LISTING /tmp/ccDAqEnA.s 			page 8


 393:Src/findwayBases.cpp **** struct coords*  getCoordsOfCorner(const struct obstacle *obst, const uint8_t corner)
 394:Src/findwayBases.cpp **** {
 395:Src/findwayBases.cpp ****     struct coords *ret = (struct coords*)malloc(sizeof(struct coords));
 396:Src/findwayBases.cpp ****     switch (corner) {
 397:Src/findwayBases.cpp ****         case CORNER_LEFT_BOT:
 398:Src/findwayBases.cpp ****         {
 399:Src/findwayBases.cpp ****             ret->x = obst->c->x - CONST;
 400:Src/findwayBases.cpp ****             ret->y = obst->c->y - CONST;
 401:Src/findwayBases.cpp ****             break;
 402:Src/findwayBases.cpp ****         }
 403:Src/findwayBases.cpp ****         case CORNER_LEFT_TOP:
 404:Src/findwayBases.cpp ****         {
 405:Src/findwayBases.cpp ****             ret->x = obst->c->x - CONST;
 406:Src/findwayBases.cpp ****             ret->y = obst->c->y + obst->a + CONST;
 407:Src/findwayBases.cpp ****             break;
 408:Src/findwayBases.cpp ****         }
 409:Src/findwayBases.cpp ****         case CORNER_RIGHT_BOT:
 410:Src/findwayBases.cpp ****         {
 411:Src/findwayBases.cpp ****             ret->x = obst->c->x + obst->a + CONST;
 412:Src/findwayBases.cpp ****             ret->y = obst->c->y - CONST;
 413:Src/findwayBases.cpp ****             break;
 414:Src/findwayBases.cpp ****         }
 415:Src/findwayBases.cpp ****         case CORNER_RIGHT_TOP:
 416:Src/findwayBases.cpp ****         {
 417:Src/findwayBases.cpp ****             ret->x = obst->c->x + obst->a + CONST;
 418:Src/findwayBases.cpp ****             ret->y = obst->c->y + obst->a + CONST;
 419:Src/findwayBases.cpp ****             break;
 420:Src/findwayBases.cpp ****         }
 421:Src/findwayBases.cpp ****     }
 422:Src/findwayBases.cpp ****     return ret;
 423:Src/findwayBases.cpp **** }
 424:Src/findwayBases.cpp **** 
 425:Src/findwayBases.cpp **** 
 426:Src/findwayBases.cpp **** struct graphPoint* getPoint(const struct obstacle *obst, const uint8_t corner)
 427:Src/findwayBases.cpp **** {
 428:Src/findwayBases.cpp ****     return obst->corners[corner];
 429:Src/findwayBases.cpp **** }
 430:Src/findwayBases.cpp **** 
 431:Src/findwayBases.cpp **** 
 432:Src/findwayBases.cpp **** 
 433:Src/findwayBases.cpp **** bool            hasIntersection(const struct obstacle *obst, const struct vect *v)
 434:Src/findwayBases.cpp **** {
 435:Src/findwayBases.cpp ****     struct coords c = getIntersection(obst, v);
 436:Src/findwayBases.cpp ****     // std::cout << "obst: " << obst->c->x << ":" << obst->c->y << "; vect: " << v->c->x << ":" << 
 437:Src/findwayBases.cpp ****     if((c.x == 0 && c.y == 0) || c.eq(v->c) || (((v->dx + v->c->x) == c.x) && ((v->dy + v->c->y) ==
 438:Src/findwayBases.cpp ****     {
 439:Src/findwayBases.cpp ****         // std::cout << "have no intersection" << std::endl;
 440:Src/findwayBases.cpp ****         return false;
 441:Src/findwayBases.cpp ****     }
 442:Src/findwayBases.cpp ****     else
 443:Src/findwayBases.cpp ****     {
 444:Src/findwayBases.cpp ****         // std::cout << "have intersection" << std::endl;
 445:Src/findwayBases.cpp ****         return true;
 446:Src/findwayBases.cpp ****     }
 447:Src/findwayBases.cpp **** }
 448:Src/findwayBases.cpp **** 
 449:Src/findwayBases.cpp **** 
GAS LISTING /tmp/ccDAqEnA.s 			page 9


 450:Src/findwayBases.cpp **** void            addTarget(struct graphPoint *start, struct graphPoint *end)
 451:Src/findwayBases.cpp **** {
 452:Src/findwayBases.cpp ****     // std::cout << "ADD TARGET ";
 453:Src/findwayBases.cpp ****     if(start == end) 
 454:Src/findwayBases.cpp ****     {
 455:Src/findwayBases.cpp ****         // std::cout << "ST=EN ";
 456:Src/findwayBases.cpp ****         return;
 457:Src/findwayBases.cpp ****     }
 458:Src/findwayBases.cpp ****     for(size_t i = 0; i < start->numOfTargets; i++)
 459:Src/findwayBases.cpp ****         if(start->targets[i] == end)
 460:Src/findwayBases.cpp ****         {
 461:Src/findwayBases.cpp ****             // std::cout << "ALREADY EXISTS ";
 462:Src/findwayBases.cpp ****             return;
 463:Src/findwayBases.cpp ****         }
 464:Src/findwayBases.cpp ****     for(size_t i = 0; i < end->numOfTargets; i++)
 465:Src/findwayBases.cpp ****         if(end->targets[i] == start)
 466:Src/findwayBases.cpp ****         {
 467:Src/findwayBases.cpp ****             // std::cout << "ALREADY EXISTS ";
 468:Src/findwayBases.cpp ****             return;
 469:Src/findwayBases.cpp ****         }
 470:Src/findwayBases.cpp **** 
 471:Src/findwayBases.cpp ****     start->targets = (struct graphPoint**)realloc(start->targets, (++(start->numOfTargets)) * sizeo
 472:Src/findwayBases.cpp ****     start->targets[start->numOfTargets - 1] = end;
 473:Src/findwayBases.cpp **** 
 474:Src/findwayBases.cpp ****     end->targets = (struct graphPoint**)realloc(end->targets, (++(end->numOfTargets)) * sizeof(stru
 475:Src/findwayBases.cpp ****     end->targets[end->numOfTargets - 1] = start;
 476:Src/findwayBases.cpp **** }
 477:Src/findwayBases.cpp **** 
 478:Src/findwayBases.cpp **** 
 479:Src/findwayBases.cpp **** COORDS_DATATYPE getWayPrice(struct graphPoint *start, struct graphPoint *end)
 480:Src/findwayBases.cpp **** {
 481:Src/findwayBases.cpp ****     return sqrt(pow(start->c.x - end->c.x, 2) + pow(start->c.y - end->c.y, 2));
 482:Src/findwayBases.cpp **** }
 483:Src/findwayBases.cpp **** 
 484:Src/findwayBases.cpp **** COORDS_DATATYPE getWayPrice(struct coords *start, struct coords *end)
 485:Src/findwayBases.cpp **** {
 486:Src/findwayBases.cpp ****     return sqrt(pow(start->x - end->x, 2) + pow(start->y - end->y, 2));
 487:Src/findwayBases.cpp **** }
   9              		.loc 1 487 1 view -0
  10              		.cfi_startproc
  11              		.loc 1 487 1 is_stmt 0 view .LVU1
  12 0000 83FF01   		cmpl	$1, %edi
  13 0003 7401     		je	.L7
  14              	.L4:
  15 0005 C3       		ret
  16              	.L7:
  17              		.loc 1 487 1 discriminator 1 view .LVU2
  18 0006 81FEFFFF 		cmpl	$65535, %esi
  18      0000
  19 000c 75F7     		jne	.L4
  20              		.loc 1 487 1 view .LVU3
  21 000e 4883EC08 		subq	$8, %rsp
  22              		.cfi_def_cfa_offset 16
  23              		.file 2 "/usr/include/c++/9.2.0/iostream"
   1:/usr/include/c++/9.2.0/iostream **** // Standard iostream objects -*- C++ -*-
   2:/usr/include/c++/9.2.0/iostream **** 
   3:/usr/include/c++/9.2.0/iostream **** // Copyright (C) 1997-2019 Free Software Foundation, Inc.
GAS LISTING /tmp/ccDAqEnA.s 			page 10


   4:/usr/include/c++/9.2.0/iostream **** //
   5:/usr/include/c++/9.2.0/iostream **** // This file is part of the GNU ISO C++ Library.  This library is free
   6:/usr/include/c++/9.2.0/iostream **** // software; you can redistribute it and/or modify it under the
   7:/usr/include/c++/9.2.0/iostream **** // terms of the GNU General Public License as published by the
   8:/usr/include/c++/9.2.0/iostream **** // Free Software Foundation; either version 3, or (at your option)
   9:/usr/include/c++/9.2.0/iostream **** // any later version.
  10:/usr/include/c++/9.2.0/iostream **** 
  11:/usr/include/c++/9.2.0/iostream **** // This library is distributed in the hope that it will be useful,
  12:/usr/include/c++/9.2.0/iostream **** // but WITHOUT ANY WARRANTY; without even the implied warranty of
  13:/usr/include/c++/9.2.0/iostream **** // MERCHANTABILITY or FITNESS FOR A PARTICULAR PURPOSE.  See the
  14:/usr/include/c++/9.2.0/iostream **** // GNU General Public License for more details.
  15:/usr/include/c++/9.2.0/iostream **** 
  16:/usr/include/c++/9.2.0/iostream **** // Under Section 7 of GPL version 3, you are granted additional
  17:/usr/include/c++/9.2.0/iostream **** // permissions described in the GCC Runtime Library Exception, version
  18:/usr/include/c++/9.2.0/iostream **** // 3.1, as published by the Free Software Foundation.
  19:/usr/include/c++/9.2.0/iostream **** 
  20:/usr/include/c++/9.2.0/iostream **** // You should have received a copy of the GNU General Public License and
  21:/usr/include/c++/9.2.0/iostream **** // a copy of the GCC Runtime Library Exception along with this program;
  22:/usr/include/c++/9.2.0/iostream **** // see the files COPYING3 and COPYING.RUNTIME respectively.  If not, see
  23:/usr/include/c++/9.2.0/iostream **** // <http://www.gnu.org/licenses/>.
  24:/usr/include/c++/9.2.0/iostream **** 
  25:/usr/include/c++/9.2.0/iostream **** /** @file include/iostream
  26:/usr/include/c++/9.2.0/iostream ****  *  This is a Standard C++ Library header.
  27:/usr/include/c++/9.2.0/iostream ****  */
  28:/usr/include/c++/9.2.0/iostream **** 
  29:/usr/include/c++/9.2.0/iostream **** //
  30:/usr/include/c++/9.2.0/iostream **** // ISO C++ 14882: 27.3  Standard iostream objects
  31:/usr/include/c++/9.2.0/iostream **** //
  32:/usr/include/c++/9.2.0/iostream **** 
  33:/usr/include/c++/9.2.0/iostream **** #ifndef _GLIBCXX_IOSTREAM
  34:/usr/include/c++/9.2.0/iostream **** #define _GLIBCXX_IOSTREAM 1
  35:/usr/include/c++/9.2.0/iostream **** 
  36:/usr/include/c++/9.2.0/iostream **** #pragma GCC system_header
  37:/usr/include/c++/9.2.0/iostream **** 
  38:/usr/include/c++/9.2.0/iostream **** #include <bits/c++config.h>
  39:/usr/include/c++/9.2.0/iostream **** #include <ostream>
  40:/usr/include/c++/9.2.0/iostream **** #include <istream>
  41:/usr/include/c++/9.2.0/iostream **** 
  42:/usr/include/c++/9.2.0/iostream **** namespace std _GLIBCXX_VISIBILITY(default)
  43:/usr/include/c++/9.2.0/iostream **** {
  44:/usr/include/c++/9.2.0/iostream **** _GLIBCXX_BEGIN_NAMESPACE_VERSION
  45:/usr/include/c++/9.2.0/iostream **** 
  46:/usr/include/c++/9.2.0/iostream ****   /**
  47:/usr/include/c++/9.2.0/iostream ****    *  @name Standard Stream Objects
  48:/usr/include/c++/9.2.0/iostream ****    *
  49:/usr/include/c++/9.2.0/iostream ****    *  The &lt;iostream&gt; header declares the eight <em>standard stream
  50:/usr/include/c++/9.2.0/iostream ****    *  objects</em>.  For other declarations, see
  51:/usr/include/c++/9.2.0/iostream ****    *  http://gcc.gnu.org/onlinedocs/libstdc++/manual/io.html
  52:/usr/include/c++/9.2.0/iostream ****    *  and the @link iosfwd I/O forward declarations @endlink
  53:/usr/include/c++/9.2.0/iostream ****    *
  54:/usr/include/c++/9.2.0/iostream ****    *  They are required by default to cooperate with the global C
  55:/usr/include/c++/9.2.0/iostream ****    *  library's @c FILE streams, and to be available during program
  56:/usr/include/c++/9.2.0/iostream ****    *  startup and termination. For more information, see the section of the
  57:/usr/include/c++/9.2.0/iostream ****    *  manual linked to above.
  58:/usr/include/c++/9.2.0/iostream ****   */
  59:/usr/include/c++/9.2.0/iostream ****   //@{
  60:/usr/include/c++/9.2.0/iostream ****   extern istream cin;		/// Linked to standard input
GAS LISTING /tmp/ccDAqEnA.s 			page 11


  61:/usr/include/c++/9.2.0/iostream ****   extern ostream cout;		/// Linked to standard output
  62:/usr/include/c++/9.2.0/iostream ****   extern ostream cerr;		/// Linked to standard error (unbuffered)
  63:/usr/include/c++/9.2.0/iostream ****   extern ostream clog;		/// Linked to standard error (buffered)
  64:/usr/include/c++/9.2.0/iostream **** 
  65:/usr/include/c++/9.2.0/iostream **** #ifdef _GLIBCXX_USE_WCHAR_T
  66:/usr/include/c++/9.2.0/iostream ****   extern wistream wcin;		/// Linked to standard input
  67:/usr/include/c++/9.2.0/iostream ****   extern wostream wcout;	/// Linked to standard output
  68:/usr/include/c++/9.2.0/iostream ****   extern wostream wcerr;	/// Linked to standard error (unbuffered)
  69:/usr/include/c++/9.2.0/iostream ****   extern wostream wclog;	/// Linked to standard error (buffered)
  70:/usr/include/c++/9.2.0/iostream **** #endif
  71:/usr/include/c++/9.2.0/iostream ****   //@}
  72:/usr/include/c++/9.2.0/iostream **** 
  73:/usr/include/c++/9.2.0/iostream ****   // For construction of filebuffers for cout, cin, cerr, clog et. al.
  74:/usr/include/c++/9.2.0/iostream ****   static ios_base::Init __ioinit;
  24              		.loc 2 74 25 view .LVU4
  25 0012 488D3D00 		leaq	_ZStL8__ioinit(%rip), %rdi
  25      000000
  26              	.LVL1:
  27              		.loc 2 74 25 view .LVU5
  28 0019 E8000000 		call	_ZNSt8ios_base4InitC1Ev@PLT
  28      00
  29              	.LVL2:
  30              		.loc 2 74 25 view .LVU6
  31 001e 488D1500 		leaq	__dso_handle(%rip), %rdx
  31      000000
  32 0025 488D3500 		leaq	_ZStL8__ioinit(%rip), %rsi
  32      000000
  33 002c 488B3D00 		movq	_ZNSt8ios_base4InitD1Ev@GOTPCREL(%rip), %rdi
  33      000000
  34 0033 E8000000 		call	__cxa_atexit@PLT
  34      00
  35              	.LVL3:
  36              		.loc 1 487 1 view .LVU7
  37 0038 4883C408 		addq	$8, %rsp
  38              		.cfi_def_cfa_offset 8
  39 003c C3       		ret
  40              		.cfi_endproc
  41              	.LFE2076:
  43              		.globl	_Z15hasIntersectionPK8baselineS1_
  45              	_Z15hasIntersectionPK8baselineS1_:
  46              	.LVL4:
  47              	.LFB1724:
   5:Src/findwayBases.cpp ****     return b1->k != b2->k;
  48              		.loc 1 5 1 is_stmt 1 view -0
  49              		.cfi_startproc
   6:Src/findwayBases.cpp **** }
  50              		.loc 1 6 5 view .LVU9
   6:Src/findwayBases.cpp **** }
  51              		.loc 1 6 16 is_stmt 0 view .LVU10
  52 003d F30F1007 		movss	(%rdi), %xmm0
   6:Src/findwayBases.cpp **** }
  53              		.loc 1 6 25 view .LVU11
  54 0041 0F2E06   		ucomiss	(%rsi), %xmm0
  55 0044 0F9AC0   		setp	%al
  56 0047 BA010000 		movl	$1, %edx
  56      00
  57 004c 0F45C2   		cmovne	%edx, %eax
GAS LISTING /tmp/ccDAqEnA.s 			page 12


   7:Src/findwayBases.cpp **** 
  58              		.loc 1 7 1 view .LVU12
  59 004f C3       		ret
  60              		.cfi_endproc
  61              	.LFE1724:
  63              		.globl	_Z15getIntersectionPK8baselineS1_
  65              	_Z15getIntersectionPK8baselineS1_:
  66              	.LVL5:
  67              	.LFB1725:
  10:Src/findwayBases.cpp ****     struct coords ret;
  68              		.loc 1 10 1 is_stmt 1 view -0
  69              		.cfi_startproc
  11:Src/findwayBases.cpp ****     if(b1->k == b2->k)
  70              		.loc 1 11 5 view .LVU14
  12:Src/findwayBases.cpp ****         ret = {0, 0};
  71              		.loc 1 12 5 view .LVU15
  12:Src/findwayBases.cpp ****         ret = {0, 0};
  72              		.loc 1 12 12 is_stmt 0 view .LVU16
  73 0050 F30F1007 		movss	(%rdi), %xmm0
  12:Src/findwayBases.cpp ****         ret = {0, 0};
  74              		.loc 1 12 21 view .LVU17
  75 0054 F30F100E 		movss	(%rsi), %xmm1
  12:Src/findwayBases.cpp ****         ret = {0, 0};
  76              		.loc 1 12 5 view .LVU18
  77 0058 0F2EC1   		ucomiss	%xmm1, %xmm0
  78 005b 7A07     		jp	.L10
  79 005d 7505     		jne	.L10
  13:Src/findwayBases.cpp ****     else 
  80              		.loc 1 13 9 is_stmt 1 view .LVU19
  13:Src/findwayBases.cpp ****     else 
  81              		.loc 1 13 13 is_stmt 0 view .LVU20
  82 005f 660FEFC0 		pxor	%xmm0, %xmm0
  83              	.LVL6:
  13:Src/findwayBases.cpp ****     else 
  84              		.loc 1 13 13 view .LVU21
  85 0063 C3       		ret
  86              	.L10:
  16:Src/findwayBases.cpp ****         {
  87              		.loc 1 16 9 is_stmt 1 view .LVU22
  88              	.LVL7:
  89              	.LBB28:
  90              	.LBI28:
  91              		.file 3 "/usr/include/c++/9.2.0/bits/std_abs.h"
   1:/usr/include/c++/9.2.0/bits/std_abs.h **** // -*- C++ -*- C library enhancements header.
   2:/usr/include/c++/9.2.0/bits/std_abs.h **** 
   3:/usr/include/c++/9.2.0/bits/std_abs.h **** // Copyright (C) 2016-2019 Free Software Foundation, Inc.
   4:/usr/include/c++/9.2.0/bits/std_abs.h **** //
   5:/usr/include/c++/9.2.0/bits/std_abs.h **** // This file is part of the GNU ISO C++ Library.  This library is free
   6:/usr/include/c++/9.2.0/bits/std_abs.h **** // software; you can redistribute it and/or modify it under the
   7:/usr/include/c++/9.2.0/bits/std_abs.h **** // terms of the GNU General Public License as published by the
   8:/usr/include/c++/9.2.0/bits/std_abs.h **** // Free Software Foundation; either version 3, or (at your option)
   9:/usr/include/c++/9.2.0/bits/std_abs.h **** // any later version.
  10:/usr/include/c++/9.2.0/bits/std_abs.h **** 
  11:/usr/include/c++/9.2.0/bits/std_abs.h **** // This library is distributed in the hope that it will be useful,
  12:/usr/include/c++/9.2.0/bits/std_abs.h **** // but WITHOUT ANY WARRANTY; without even the implied warranty of
  13:/usr/include/c++/9.2.0/bits/std_abs.h **** // MERCHANTABILITY or FITNESS FOR A PARTICULAR PURPOSE.  See the
  14:/usr/include/c++/9.2.0/bits/std_abs.h **** // GNU General Public License for more details.
GAS LISTING /tmp/ccDAqEnA.s 			page 13


  15:/usr/include/c++/9.2.0/bits/std_abs.h **** 
  16:/usr/include/c++/9.2.0/bits/std_abs.h **** // Under Section 7 of GPL version 3, you are granted additional
  17:/usr/include/c++/9.2.0/bits/std_abs.h **** // permissions described in the GCC Runtime Library Exception, version
  18:/usr/include/c++/9.2.0/bits/std_abs.h **** // 3.1, as published by the Free Software Foundation.
  19:/usr/include/c++/9.2.0/bits/std_abs.h **** 
  20:/usr/include/c++/9.2.0/bits/std_abs.h **** // You should have received a copy of the GNU General Public License and
  21:/usr/include/c++/9.2.0/bits/std_abs.h **** // a copy of the GCC Runtime Library Exception along with this program;
  22:/usr/include/c++/9.2.0/bits/std_abs.h **** // see the files COPYING3 and COPYING.RUNTIME respectively.  If not, see
  23:/usr/include/c++/9.2.0/bits/std_abs.h **** // <http://www.gnu.org/licenses/>.
  24:/usr/include/c++/9.2.0/bits/std_abs.h **** 
  25:/usr/include/c++/9.2.0/bits/std_abs.h **** /** @file include/bits/std_abs.h
  26:/usr/include/c++/9.2.0/bits/std_abs.h ****  *  This is an internal header file, included by other library headers.
  27:/usr/include/c++/9.2.0/bits/std_abs.h ****  *  Do not attempt to use it directly. @headername{cmath, cstdlib}
  28:/usr/include/c++/9.2.0/bits/std_abs.h ****  */
  29:/usr/include/c++/9.2.0/bits/std_abs.h **** 
  30:/usr/include/c++/9.2.0/bits/std_abs.h **** #ifndef _GLIBCXX_BITS_STD_ABS_H
  31:/usr/include/c++/9.2.0/bits/std_abs.h **** #define _GLIBCXX_BITS_STD_ABS_H
  32:/usr/include/c++/9.2.0/bits/std_abs.h **** 
  33:/usr/include/c++/9.2.0/bits/std_abs.h **** #pragma GCC system_header
  34:/usr/include/c++/9.2.0/bits/std_abs.h **** 
  35:/usr/include/c++/9.2.0/bits/std_abs.h **** #include <bits/c++config.h>
  36:/usr/include/c++/9.2.0/bits/std_abs.h **** 
  37:/usr/include/c++/9.2.0/bits/std_abs.h **** #define _GLIBCXX_INCLUDE_NEXT_C_HEADERS
  38:/usr/include/c++/9.2.0/bits/std_abs.h **** #include_next <stdlib.h>
  39:/usr/include/c++/9.2.0/bits/std_abs.h **** #ifdef __CORRECT_ISO_CPP_MATH_H_PROTO
  40:/usr/include/c++/9.2.0/bits/std_abs.h **** # include_next <math.h>
  41:/usr/include/c++/9.2.0/bits/std_abs.h **** #endif
  42:/usr/include/c++/9.2.0/bits/std_abs.h **** #undef _GLIBCXX_INCLUDE_NEXT_C_HEADERS
  43:/usr/include/c++/9.2.0/bits/std_abs.h **** 
  44:/usr/include/c++/9.2.0/bits/std_abs.h **** #undef abs
  45:/usr/include/c++/9.2.0/bits/std_abs.h **** 
  46:/usr/include/c++/9.2.0/bits/std_abs.h **** extern "C++"
  47:/usr/include/c++/9.2.0/bits/std_abs.h **** {
  48:/usr/include/c++/9.2.0/bits/std_abs.h **** namespace std _GLIBCXX_VISIBILITY(default)
  49:/usr/include/c++/9.2.0/bits/std_abs.h **** {
  50:/usr/include/c++/9.2.0/bits/std_abs.h **** _GLIBCXX_BEGIN_NAMESPACE_VERSION
  51:/usr/include/c++/9.2.0/bits/std_abs.h **** 
  52:/usr/include/c++/9.2.0/bits/std_abs.h ****   using ::abs;
  53:/usr/include/c++/9.2.0/bits/std_abs.h **** 
  54:/usr/include/c++/9.2.0/bits/std_abs.h **** #ifndef __CORRECT_ISO_CPP_STDLIB_H_PROTO
  55:/usr/include/c++/9.2.0/bits/std_abs.h ****   inline long
  56:/usr/include/c++/9.2.0/bits/std_abs.h ****   abs(long __i) { return __builtin_labs(__i); }
  57:/usr/include/c++/9.2.0/bits/std_abs.h **** #endif
  58:/usr/include/c++/9.2.0/bits/std_abs.h **** 
  59:/usr/include/c++/9.2.0/bits/std_abs.h **** #ifdef _GLIBCXX_USE_LONG_LONG
  60:/usr/include/c++/9.2.0/bits/std_abs.h ****   inline long long
  61:/usr/include/c++/9.2.0/bits/std_abs.h ****   abs(long long __x) { return __builtin_llabs (__x); }
  62:/usr/include/c++/9.2.0/bits/std_abs.h **** #endif
  63:/usr/include/c++/9.2.0/bits/std_abs.h **** 
  64:/usr/include/c++/9.2.0/bits/std_abs.h **** // _GLIBCXX_RESOLVE_LIB_DEFECTS
  65:/usr/include/c++/9.2.0/bits/std_abs.h **** // 2192. Validity and return type of std::abs(0u) is unclear
  66:/usr/include/c++/9.2.0/bits/std_abs.h **** // 2294. <cstdlib> should declare abs(double)
  67:/usr/include/c++/9.2.0/bits/std_abs.h **** // 2735. std::abs(short), std::abs(signed char) and others should return int
  68:/usr/include/c++/9.2.0/bits/std_abs.h **** 
  69:/usr/include/c++/9.2.0/bits/std_abs.h **** #ifndef __CORRECT_ISO_CPP_MATH_H_PROTO
  70:/usr/include/c++/9.2.0/bits/std_abs.h ****   inline _GLIBCXX_CONSTEXPR double
  71:/usr/include/c++/9.2.0/bits/std_abs.h ****   abs(double __x)
GAS LISTING /tmp/ccDAqEnA.s 			page 14


  72:/usr/include/c++/9.2.0/bits/std_abs.h ****   { return __builtin_fabs(__x); }
  73:/usr/include/c++/9.2.0/bits/std_abs.h **** 
  74:/usr/include/c++/9.2.0/bits/std_abs.h ****   inline _GLIBCXX_CONSTEXPR float
  75:/usr/include/c++/9.2.0/bits/std_abs.h ****   abs(float __x)
  92              		.loc 3 75 3 view .LVU23
  93              	.LBB29:
  76:/usr/include/c++/9.2.0/bits/std_abs.h ****   { return __builtin_fabsf(__x); }
  94              		.loc 3 76 5 view .LVU24
  95              		.loc 3 76 31 is_stmt 0 view .LVU25
  96 0064 0F28D8   		movaps	%xmm0, %xmm3
  97 0067 0F541D00 		andps	.LC1(%rip), %xmm3
  97      000000
  98              	.LVL8:
  99              		.loc 3 76 31 view .LVU26
 100              	.LBE29:
 101              	.LBE28:
  16:Src/findwayBases.cpp ****         {
 102              		.loc 1 16 15 view .LVU27
 103 006e F30F5ADB 		cvtss2sd	%xmm3, %xmm3
  16:Src/findwayBases.cpp ****         {
 104              		.loc 1 16 26 view .LVU28
 105 0072 F20F1015 		movsd	.LC2(%rip), %xmm2
 105      00000000 
 106 007a F20F5E15 		divsd	.LC3(%rip), %xmm2
 106      00000000 
  16:Src/findwayBases.cpp ****         {
 107              		.loc 1 16 30 view .LVU29
 108 0082 660F2EDA 		ucomisd	%xmm2, %xmm3
 109 0086 7A36     		jp	.L19
 110 0088 7534     		jne	.L19
 111              	.L13:
  21:Src/findwayBases.cpp ****         {
 112              		.loc 1 21 14 is_stmt 1 discriminator 4 view .LVU30
 113              	.LVL9:
 114              		.loc 3 76 5 discriminator 4 view .LVU31
  21:Src/findwayBases.cpp ****         {
 115              		.loc 1 21 14 is_stmt 0 discriminator 4 view .LVU32
 116 008a 660F2EDA 		ucomisd	%xmm2, %xmm3
 117 008e 0F8A8800 		jp	.L16
 117      0000
 118 0094 0F858200 		jne	.L16
 118      0000
  23:Src/findwayBases.cpp ****             ret.y = b2->k * ret.x + b2->b;
 119              		.loc 1 23 13 is_stmt 1 view .LVU33
  23:Src/findwayBases.cpp ****             ret.y = b2->k * ret.x + b2->b;
 120              		.loc 1 23 25 is_stmt 0 view .LVU34
 121 009a F30F1057 		movss	4(%rdi), %xmm2
 121      04
  24:Src/findwayBases.cpp ****         }
 122              		.loc 1 24 13 is_stmt 1 view .LVU35
  24:Src/findwayBases.cpp ****         }
 123              		.loc 1 24 27 is_stmt 0 view .LVU36
 124 009f F30F59CA 		mulss	%xmm2, %xmm1
  24:Src/findwayBases.cpp ****         }
 125              		.loc 1 24 19 view .LVU37
 126 00a3 F30F584E 		addss	4(%rsi), %xmm1
 126      04
GAS LISTING /tmp/ccDAqEnA.s 			page 15


 127 00a8 66480F7E 		movq	%xmm1, %rax
 127      C8
 128 00ad 48C1E020 		salq	$32, %rax
 129 00b1 660F7ED2 		movd	%xmm2, %edx
 130              	.LVL10:
  24:Src/findwayBases.cpp ****         }
 131              		.loc 1 24 19 view .LVU38
 132 00b5 4809C2   		orq	%rax, %rdx
 133              	.LVL11:
  24:Src/findwayBases.cpp ****         }
 134              		.loc 1 24 19 view .LVU39
 135 00b8 66480F6E 		movq	%rdx, %xmm0
 135      C2
 136 00bd C3       		ret
 137              	.LVL12:
 138              	.L19:
 139              	.LBB30:
 140              	.LBI30:
  75:/usr/include/c++/9.2.0/bits/std_abs.h ****   { return __builtin_fabsf(__x); }
 141              		.loc 3 75 3 is_stmt 1 discriminator 1 view .LVU40
 142              	.LBB31:
 143              		.loc 3 76 5 discriminator 1 view .LVU41
 144              		.loc 3 76 31 is_stmt 0 discriminator 1 view .LVU42
 145 00be 0F28E1   		movaps	%xmm1, %xmm4
 146 00c1 0F542500 		andps	.LC1(%rip), %xmm4
 146      000000
 147              	.LVL13:
 148              		.loc 3 76 31 discriminator 1 view .LVU43
 149              	.LBE31:
 150              	.LBE30:
  16:Src/findwayBases.cpp ****         {
 151              		.loc 1 16 36 discriminator 1 view .LVU44
 152 00c8 F30F5AE4 		cvtss2sd	%xmm4, %xmm4
  16:Src/findwayBases.cpp ****         {
 153              		.loc 1 16 30 discriminator 1 view .LVU45
 154 00cc 660F2ED4 		ucomisd	%xmm4, %xmm2
 155 00d0 7A02     		jp	.L20
 156 00d2 74B6     		je	.L13
 157              	.L20:
  18:Src/findwayBases.cpp ****             ret.y = (b2->k * b1->b - b1->k * b2->b) / (b2->k - b1->k);
 158              		.loc 1 18 13 is_stmt 1 view .LVU46
  18:Src/findwayBases.cpp ****             ret.y = (b2->k * b1->b - b1->k * b2->b) / (b2->k - b1->k);
 159              		.loc 1 18 26 is_stmt 0 view .LVU47
 160 00d4 F30F1066 		movss	4(%rsi), %xmm4
 160      04
  18:Src/findwayBases.cpp ****             ret.y = (b2->k * b1->b - b1->k * b2->b) / (b2->k - b1->k);
 161              		.loc 1 18 34 view .LVU48
 162 00d9 F30F105F 		movss	4(%rdi), %xmm3
 162      04
  18:Src/findwayBases.cpp ****             ret.y = (b2->k * b1->b - b1->k * b2->b) / (b2->k - b1->k);
 163              		.loc 1 18 28 view .LVU49
 164 00de 0F28D4   		movaps	%xmm4, %xmm2
 165 00e1 F30F5CD3 		subss	%xmm3, %xmm2
  18:Src/findwayBases.cpp ****             ret.y = (b2->k * b1->b - b1->k * b2->b) / (b2->k - b1->k);
 166              		.loc 1 18 46 view .LVU50
 167 00e5 0F28E8   		movaps	%xmm0, %xmm5
 168 00e8 F30F5CE9 		subss	%xmm1, %xmm5
GAS LISTING /tmp/ccDAqEnA.s 			page 16


  18:Src/findwayBases.cpp ****             ret.y = (b2->k * b1->b - b1->k * b2->b) / (b2->k - b1->k);
 169              		.loc 1 18 19 view .LVU51
 170 00ec F30F5ED5 		divss	%xmm5, %xmm2
  19:Src/findwayBases.cpp ****         }
 171              		.loc 1 19 13 is_stmt 1 view .LVU52
  19:Src/findwayBases.cpp ****         }
 172              		.loc 1 19 28 is_stmt 0 view .LVU53
 173 00f0 F30F59D9 		mulss	%xmm1, %xmm3
  19:Src/findwayBases.cpp ****         }
 174              		.loc 1 19 44 view .LVU54
 175 00f4 F30F59E0 		mulss	%xmm0, %xmm4
  19:Src/findwayBases.cpp ****         }
 176              		.loc 1 19 36 view .LVU55
 177 00f8 F30F5CDC 		subss	%xmm4, %xmm3
  19:Src/findwayBases.cpp ****         }
 178              		.loc 1 19 62 view .LVU56
 179 00fc F30F5CC8 		subss	%xmm0, %xmm1
  19:Src/findwayBases.cpp ****         }
 180              		.loc 1 19 19 view .LVU57
 181 0100 F30F5ED9 		divss	%xmm1, %xmm3
 182 0104 660F7ED8 		movd	%xmm3, %eax
 183 0108 4889C2   		movq	%rax, %rdx
 184 010b 48C1E220 		salq	$32, %rdx
 185 010f 660F7ED0 		movd	%xmm2, %eax
 186              	.LVL14:
  19:Src/findwayBases.cpp ****         }
 187              		.loc 1 19 19 view .LVU58
 188 0113 4809D0   		orq	%rdx, %rax
 189              	.LVL15:
  19:Src/findwayBases.cpp ****         }
 190              		.loc 1 19 19 view .LVU59
 191 0116 66480F6E 		movq	%rax, %xmm0
 191      C0
 192 011b C3       		ret
 193              	.LVL16:
 194              	.L16:
  28:Src/findwayBases.cpp ****             ret.y = b1->k * ret.x + b1->b;
 195              		.loc 1 28 13 is_stmt 1 view .LVU60
  28:Src/findwayBases.cpp ****             ret.y = b1->k * ret.x + b1->b;
 196              		.loc 1 28 25 is_stmt 0 view .LVU61
 197 011c F30F1056 		movss	4(%rsi), %xmm2
 197      04
  29:Src/findwayBases.cpp ****         }
 198              		.loc 1 29 13 is_stmt 1 view .LVU62
  29:Src/findwayBases.cpp ****         }
 199              		.loc 1 29 27 is_stmt 0 view .LVU63
 200 0121 F30F59C2 		mulss	%xmm2, %xmm0
  29:Src/findwayBases.cpp ****         }
 201              		.loc 1 29 19 view .LVU64
 202 0125 F30F5847 		addss	4(%rdi), %xmm0
 202      04
 203 012a 66480F7E 		movq	%xmm0, %rax
 203      C0
 204 012f 48C1E020 		salq	$32, %rax
 205 0133 660F7ED2 		movd	%xmm2, %edx
 206              	.LVL17:
  29:Src/findwayBases.cpp ****         }
GAS LISTING /tmp/ccDAqEnA.s 			page 17


 207              		.loc 1 29 19 view .LVU65
 208 0137 4809C2   		orq	%rax, %rdx
 209              	.LVL18:
  29:Src/findwayBases.cpp ****         }
 210              		.loc 1 29 19 view .LVU66
 211 013a 66480F6E 		movq	%rdx, %xmm0
 211      C2
  33:Src/findwayBases.cpp **** }
 212              		.loc 1 33 5 is_stmt 1 view .LVU67
  34:Src/findwayBases.cpp **** 
 213              		.loc 1 34 1 is_stmt 0 view .LVU68
 214 013f C3       		ret
 215              		.cfi_endproc
 216              	.LFE1725:
 218              		.globl	_Z15isCoDirectionalPK4vectPK6coords
 220              	_Z15isCoDirectionalPK4vectPK6coords:
 221              	.LVL19:
 222              	.LFB1726:
  37:Src/findwayBases.cpp ****     return (sgn(v->dx) == sgn(c->x - v->c->x) && sgn(v->dy) == sgn(c->y - v->c->y));
 223              		.loc 1 37 1 is_stmt 1 view -0
 224              		.cfi_startproc
  38:Src/findwayBases.cpp **** }
 225              		.loc 1 38 5 view .LVU70
  38:Src/findwayBases.cpp **** }
 226              		.loc 1 38 13 is_stmt 0 view .LVU71
 227 0140 660FEFC0 		pxor	%xmm0, %xmm0
 228 0144 0F2F4708 		comiss	8(%rdi), %xmm0
 229 0148 7728     		ja	.L46
 230 014a B9010000 		movl	$1, %ecx
 230      00
 231              	.L23:
  38:Src/findwayBases.cpp **** }
 232              		.loc 1 38 27 discriminator 4 view .LVU72
 233 014f F30F1006 		movss	(%rsi), %xmm0
 234 0153 488B07   		movq	(%rdi), %rax
 235 0156 F30F5C00 		subss	(%rax), %xmm0
 236 015a 660FEFC9 		pxor	%xmm1, %xmm1
 237 015e 0F2FC8   		comiss	%xmm0, %xmm1
 238 0161 7716     		ja	.L47
  38:Src/findwayBases.cpp **** }
 239              		.loc 1 38 27 view .LVU73
 240 0163 BA010000 		movl	$1, %edx
 240      00
 241              	.L25:
  38:Src/findwayBases.cpp **** }
 242              		.loc 1 38 47 discriminator 8 view .LVU74
 243 0168 39D1     		cmpl	%edx, %ecx
 244 016a 7414     		je	.L48
  38:Src/findwayBases.cpp **** }
 245              		.loc 1 38 47 view .LVU75
 246 016c B8000000 		movl	$0, %eax
 246      00
 247 0171 C3       		ret
 248              	.L46:
  38:Src/findwayBases.cpp **** }
 249              		.loc 1 38 13 view .LVU76
 250 0172 B9FFFFFF 		movl	$-1, %ecx
GAS LISTING /tmp/ccDAqEnA.s 			page 18


 250      FF
 251 0177 EBD6     		jmp	.L23
 252              	.L47:
  38:Src/findwayBases.cpp **** }
 253              		.loc 1 38 27 view .LVU77
 254 0179 BAFFFFFF 		movl	$-1, %edx
 254      FF
 255 017e EBE8     		jmp	.L25
 256              	.L48:
  38:Src/findwayBases.cpp **** }
 257              		.loc 1 38 50 discriminator 9 view .LVU78
 258 0180 660FEFC0 		pxor	%xmm0, %xmm0
 259 0184 0F2F470C 		comiss	12(%rdi), %xmm0
 260 0188 7727     		ja	.L49
  38:Src/findwayBases.cpp **** }
 261              		.loc 1 38 50 view .LVU79
 262 018a BA010000 		movl	$1, %edx
 262      00
 263              	.L28:
  38:Src/findwayBases.cpp **** }
 264              		.loc 1 38 64 discriminator 14 view .LVU80
 265 018f F30F1046 		movss	4(%rsi), %xmm0
 265      04
 266 0194 F30F5C40 		subss	4(%rax), %xmm0
 266      04
 267 0199 660FEFC9 		pxor	%xmm1, %xmm1
 268 019d 0F2FC8   		comiss	%xmm0, %xmm1
 269 01a0 7716     		ja	.L50
  38:Src/findwayBases.cpp **** }
 270              		.loc 1 38 64 view .LVU81
 271 01a2 B8010000 		movl	$1, %eax
 271      00
 272              	.L30:
  38:Src/findwayBases.cpp **** }
 273              		.loc 1 38 47 discriminator 18 view .LVU82
 274 01a7 39C2     		cmpl	%eax, %edx
 275 01a9 7414     		je	.L37
  38:Src/findwayBases.cpp **** }
 276              		.loc 1 38 47 view .LVU83
 277 01ab B8000000 		movl	$0, %eax
 277      00
 278 01b0 C3       		ret
 279              	.L49:
  38:Src/findwayBases.cpp **** }
 280              		.loc 1 38 50 view .LVU84
 281 01b1 BAFFFFFF 		movl	$-1, %edx
 281      FF
 282 01b6 EBD7     		jmp	.L28
 283              	.L50:
  38:Src/findwayBases.cpp **** }
 284              		.loc 1 38 64 view .LVU85
 285 01b8 B8FFFFFF 		movl	$-1, %eax
 285      FF
 286 01bd EBE8     		jmp	.L30
 287              	.L37:
  38:Src/findwayBases.cpp **** }
 288              		.loc 1 38 47 view .LVU86
GAS LISTING /tmp/ccDAqEnA.s 			page 19


 289 01bf B8010000 		movl	$1, %eax
 289      00
  39:Src/findwayBases.cpp **** 
 290              		.loc 1 39 1 view .LVU87
 291 01c4 C3       		ret
 292              		.cfi_endproc
 293              	.LFE1726:
 295              		.globl	_Z11isDotInsidePK6coordsPK8obstacle
 297              	_Z11isDotInsidePK6coordsPK8obstacle:
 298              	.LVL20:
 299              	.LFB1731:
 330:Src/findwayBases.cpp ****     return      (dot->x >= obstacle->c->x)
 300              		.loc 1 330 1 is_stmt 1 view -0
 301              		.cfi_startproc
 331:Src/findwayBases.cpp ****             &&  (dot->x <= obstacle->c->x + obstacle->a)
 302              		.loc 1 331 5 view .LVU89
 331:Src/findwayBases.cpp ****             &&  (dot->x <= obstacle->c->x + obstacle->a)
 303              		.loc 1 331 23 is_stmt 0 view .LVU90
 304 01c5 F30F100F 		movss	(%rdi), %xmm1
 331:Src/findwayBases.cpp ****             &&  (dot->x <= obstacle->c->x + obstacle->a)
 305              		.loc 1 331 38 view .LVU91
 306 01c9 488B06   		movq	(%rsi), %rax
 331:Src/findwayBases.cpp ****             &&  (dot->x <= obstacle->c->x + obstacle->a)
 307              		.loc 1 331 41 view .LVU92
 308 01cc F30F1000 		movss	(%rax), %xmm0
 334:Src/findwayBases.cpp **** }
 309              		.loc 1 334 13 view .LVU93
 310 01d0 0F2FC8   		comiss	%xmm0, %xmm1
 311 01d3 722C     		jb	.L63
 332:Src/findwayBases.cpp ****             &&  (dot->y >= obstacle->c->y)
 312              		.loc 1 332 55 view .LVU94
 313 01d5 F30F1056 		movss	40(%rsi), %xmm2
 313      28
 332:Src/findwayBases.cpp ****             &&  (dot->y >= obstacle->c->y)
 314              		.loc 1 332 43 view .LVU95
 315 01da F30F58C2 		addss	%xmm2, %xmm0
 332:Src/findwayBases.cpp ****             &&  (dot->y >= obstacle->c->y)
 316              		.loc 1 332 13 view .LVU96
 317 01de 0F2FC1   		comiss	%xmm1, %xmm0
 318 01e1 7224     		jb	.L64
 333:Src/findwayBases.cpp ****             &&  (dot->y <= obstacle->c->y + obstacle->a);
 319              		.loc 1 333 23 view .LVU97
 320 01e3 F30F1047 		movss	4(%rdi), %xmm0
 320      04
 333:Src/findwayBases.cpp ****             &&  (dot->y <= obstacle->c->y + obstacle->a);
 321              		.loc 1 333 41 view .LVU98
 322 01e8 F30F1048 		movss	4(%rax), %xmm1
 322      04
 333:Src/findwayBases.cpp ****             &&  (dot->y <= obstacle->c->y + obstacle->a);
 323              		.loc 1 333 13 view .LVU99
 324 01ed 0F2FC1   		comiss	%xmm1, %xmm0
 325 01f0 721B     		jb	.L65
 334:Src/findwayBases.cpp **** }
 326              		.loc 1 334 43 discriminator 3 view .LVU100
 327 01f2 F30F58D1 		addss	%xmm1, %xmm2
 334:Src/findwayBases.cpp **** }
 328              		.loc 1 334 13 discriminator 3 view .LVU101
GAS LISTING /tmp/ccDAqEnA.s 			page 20


 329 01f6 0F2FD0   		comiss	%xmm0, %xmm2
 330 01f9 7318     		jnb	.L59
 334:Src/findwayBases.cpp **** }
 331              		.loc 1 334 13 view .LVU102
 332 01fb B8000000 		movl	$0, %eax
 332      00
 333 0200 C3       		ret
 334              	.L63:
 335 0201 B8000000 		movl	$0, %eax
 335      00
 336 0206 C3       		ret
 337              	.L64:
 338 0207 B8000000 		movl	$0, %eax
 338      00
 339 020c C3       		ret
 340              	.L65:
 341 020d B8000000 		movl	$0, %eax
 341      00
 342 0212 C3       		ret
 343              	.L59:
 344 0213 B8010000 		movl	$1, %eax
 344      00
 335:Src/findwayBases.cpp **** 
 345              		.loc 1 335 1 view .LVU103
 346 0218 C3       		ret
 347              		.cfi_endproc
 348              	.LFE1731:
 350              		.globl	_Z14vectToBaselinePK4vect
 352              	_Z14vectToBaselinePK4vect:
 353              	.LVL21:
 354              	.LFB1732:
 338:Src/findwayBases.cpp ****     struct baseline ret;
 355              		.loc 1 338 1 is_stmt 1 view -0
 356              		.cfi_startproc
 339:Src/findwayBases.cpp **** 
 357              		.loc 1 339 5 view .LVU105
 341:Src/findwayBases.cpp **** 
 358              		.loc 1 341 5 view .LVU106
 341:Src/findwayBases.cpp **** 
 359              		.loc 1 341 24 is_stmt 0 view .LVU107
 360 0219 F30F104F 		movss	12(%rdi), %xmm1
 360      0C
 341:Src/findwayBases.cpp **** 
 361              		.loc 1 341 39 view .LVU108
 362 021e F30F1057 		movss	8(%rdi), %xmm2
 362      08
 341:Src/findwayBases.cpp **** 
 363              		.loc 1 341 27 view .LVU109
 364 0223 F30F5ECA 		divss	%xmm2, %xmm1
 341:Src/findwayBases.cpp **** 
 365              		.loc 1 341 11 view .LVU110
 366 0227 660F7EC8 		movd	%xmm1, %eax
 343:Src/findwayBases.cpp ****         ret.b = v->c->y - v->c->x * ret.k;
 367              		.loc 1 343 5 is_stmt 1 view .LVU111
 368 022b 0F2E1500 		ucomiss	.LC0(%rip), %xmm2
 368      000000
 369 0232 7A10     		jp	.L70
GAS LISTING /tmp/ccDAqEnA.s 			page 21


 370 0234 750E     		jne	.L70
 346:Src/findwayBases.cpp **** 
 371              		.loc 1 346 9 view .LVU112
 346:Src/findwayBases.cpp **** 
 372              		.loc 1 346 20 is_stmt 0 view .LVU113
 373 0236 488B17   		movq	(%rdi), %rdx
 346:Src/findwayBases.cpp **** 
 374              		.loc 1 346 15 view .LVU114
 375 0239 8B12     		movl	(%rdx), %edx
 376 023b 48C1E220 		salq	$32, %rdx
 377 023f 4809D0   		orq	%rdx, %rax
 378              	.LVL22:
 346:Src/findwayBases.cpp **** 
 379              		.loc 1 346 15 view .LVU115
 380 0242 EB1B     		jmp	.L69
 381              	.L70:
 344:Src/findwayBases.cpp ****     else
 382              		.loc 1 344 9 is_stmt 1 view .LVU116
 344:Src/findwayBases.cpp ****     else
 383              		.loc 1 344 20 is_stmt 0 view .LVU117
 384 0244 488B0F   		movq	(%rdi), %rcx
 344:Src/findwayBases.cpp ****     else
 385              		.loc 1 344 23 view .LVU118
 386 0247 F30F1041 		movss	4(%rcx), %xmm0
 386      04
 344:Src/findwayBases.cpp ****     else
 387              		.loc 1 344 35 view .LVU119
 388 024c F30F5909 		mulss	(%rcx), %xmm1
 344:Src/findwayBases.cpp ****     else
 389              		.loc 1 344 15 view .LVU120
 390 0250 F30F5CC1 		subss	%xmm1, %xmm0
 391 0254 660F7EC2 		movd	%xmm0, %edx
 392 0258 48C1E220 		salq	$32, %rdx
 393 025c 4809D0   		orq	%rdx, %rax
 394              	.L69:
 348:Src/findwayBases.cpp **** }
 395              		.loc 1 348 5 is_stmt 1 view .LVU121
 396              	.LVL23:
 349:Src/findwayBases.cpp **** 
 397              		.loc 1 349 1 is_stmt 0 view .LVU122
 398 025f 66480F6E 		movq	%rax, %xmm0
 398      C0
 399 0264 C3       		ret
 400              		.cfi_endproc
 401              	.LFE1732:
 403              		.globl	_Z6getLenPK6coordsS1_
 405              	_Z6getLenPK6coordsS1_:
 406              	.LVL24:
 407              	.LFB1733:
 352:Src/findwayBases.cpp ****     COORDS_DATATYPE lx = c1->x - c2->x,
 408              		.loc 1 352 1 is_stmt 1 view -0
 409              		.cfi_startproc
 352:Src/findwayBases.cpp ****     COORDS_DATATYPE lx = c1->x - c2->x,
 410              		.loc 1 352 1 is_stmt 0 view .LVU124
 411 0265 4883EC08 		subq	$8, %rsp
 412              		.cfi_def_cfa_offset 16
 353:Src/findwayBases.cpp ****                     ly = c1->y - c2->y,
GAS LISTING /tmp/ccDAqEnA.s 			page 22


 413              		.loc 1 353 5 is_stmt 1 view .LVU125
 353:Src/findwayBases.cpp ****                     ly = c1->y - c2->y,
 414              		.loc 1 353 30 is_stmt 0 view .LVU126
 415 0269 F30F1007 		movss	(%rdi), %xmm0
 353:Src/findwayBases.cpp ****                     ly = c1->y - c2->y,
 416              		.loc 1 353 21 view .LVU127
 417 026d F30F5C06 		subss	(%rsi), %xmm0
 418              	.LVL25:
 354:Src/findwayBases.cpp ****                     l  = sqrt(sqr(lx) + sqr(ly));
 419              		.loc 1 354 30 view .LVU128
 420 0271 F30F104F 		movss	4(%rdi), %xmm1
 420      04
 354:Src/findwayBases.cpp ****                     l  = sqrt(sqr(lx) + sqr(ly));
 421              		.loc 1 354 21 view .LVU129
 422 0276 F30F5C4E 		subss	4(%rsi), %xmm1
 422      04
 423              	.LVL26:
 355:Src/findwayBases.cpp **** 
 424              		.loc 1 355 31 view .LVU130
 425 027b F30F59C0 		mulss	%xmm0, %xmm0
 426              	.LVL27:
 355:Src/findwayBases.cpp **** 
 427              		.loc 1 355 41 view .LVU131
 428 027f F30F59C9 		mulss	%xmm1, %xmm1
 429              	.LVL28:
 355:Src/findwayBases.cpp **** 
 430              		.loc 1 355 30 view .LVU132
 431 0283 F30F58C1 		addss	%xmm1, %xmm0
 432              	.LVL29:
 433              	.LBB32:
 434              	.LBI32:
 435              		.file 4 "/usr/include/c++/9.2.0/cmath"
   1:/usr/include/c++/9.2.0/cmath **** // -*- C++ -*- C forwarding header.
   2:/usr/include/c++/9.2.0/cmath **** 
   3:/usr/include/c++/9.2.0/cmath **** // Copyright (C) 1997-2019 Free Software Foundation, Inc.
   4:/usr/include/c++/9.2.0/cmath **** //
   5:/usr/include/c++/9.2.0/cmath **** // This file is part of the GNU ISO C++ Library.  This library is free
   6:/usr/include/c++/9.2.0/cmath **** // software; you can redistribute it and/or modify it under the
   7:/usr/include/c++/9.2.0/cmath **** // terms of the GNU General Public License as published by the
   8:/usr/include/c++/9.2.0/cmath **** // Free Software Foundation; either version 3, or (at your option)
   9:/usr/include/c++/9.2.0/cmath **** // any later version.
  10:/usr/include/c++/9.2.0/cmath **** 
  11:/usr/include/c++/9.2.0/cmath **** // This library is distributed in the hope that it will be useful,
  12:/usr/include/c++/9.2.0/cmath **** // but WITHOUT ANY WARRANTY; without even the implied warranty of
  13:/usr/include/c++/9.2.0/cmath **** // MERCHANTABILITY or FITNESS FOR A PARTICULAR PURPOSE.  See the
  14:/usr/include/c++/9.2.0/cmath **** // GNU General Public License for more details.
  15:/usr/include/c++/9.2.0/cmath **** 
  16:/usr/include/c++/9.2.0/cmath **** // Under Section 7 of GPL version 3, you are granted additional
  17:/usr/include/c++/9.2.0/cmath **** // permissions described in the GCC Runtime Library Exception, version
  18:/usr/include/c++/9.2.0/cmath **** // 3.1, as published by the Free Software Foundation.
  19:/usr/include/c++/9.2.0/cmath **** 
  20:/usr/include/c++/9.2.0/cmath **** // You should have received a copy of the GNU General Public License and
  21:/usr/include/c++/9.2.0/cmath **** // a copy of the GCC Runtime Library Exception along with this program;
  22:/usr/include/c++/9.2.0/cmath **** // see the files COPYING3 and COPYING.RUNTIME respectively.  If not, see
  23:/usr/include/c++/9.2.0/cmath **** // <http://www.gnu.org/licenses/>.
  24:/usr/include/c++/9.2.0/cmath **** 
  25:/usr/include/c++/9.2.0/cmath **** /** @file include/cmath
GAS LISTING /tmp/ccDAqEnA.s 			page 23


  26:/usr/include/c++/9.2.0/cmath ****  *  This is a Standard C++ Library file.  You should @c \#include this file
  27:/usr/include/c++/9.2.0/cmath ****  *  in your programs, rather than any of the @a *.h implementation files.
  28:/usr/include/c++/9.2.0/cmath ****  *
  29:/usr/include/c++/9.2.0/cmath ****  *  This is the C++ version of the Standard C Library header @c math.h,
  30:/usr/include/c++/9.2.0/cmath ****  *  and its contents are (mostly) the same as that header, but are all
  31:/usr/include/c++/9.2.0/cmath ****  *  contained in the namespace @c std (except for names which are defined
  32:/usr/include/c++/9.2.0/cmath ****  *  as macros in C).
  33:/usr/include/c++/9.2.0/cmath ****  */
  34:/usr/include/c++/9.2.0/cmath **** 
  35:/usr/include/c++/9.2.0/cmath **** //
  36:/usr/include/c++/9.2.0/cmath **** // ISO C++ 14882: 26.5  C library
  37:/usr/include/c++/9.2.0/cmath **** //
  38:/usr/include/c++/9.2.0/cmath **** 
  39:/usr/include/c++/9.2.0/cmath **** #pragma GCC system_header
  40:/usr/include/c++/9.2.0/cmath **** 
  41:/usr/include/c++/9.2.0/cmath **** #include <bits/c++config.h>
  42:/usr/include/c++/9.2.0/cmath **** #include <bits/cpp_type_traits.h>
  43:/usr/include/c++/9.2.0/cmath **** #include <ext/type_traits.h>
  44:/usr/include/c++/9.2.0/cmath **** #define _GLIBCXX_INCLUDE_NEXT_C_HEADERS
  45:/usr/include/c++/9.2.0/cmath **** #include_next <math.h>
  46:/usr/include/c++/9.2.0/cmath **** #undef _GLIBCXX_INCLUDE_NEXT_C_HEADERS
  47:/usr/include/c++/9.2.0/cmath **** #include <bits/std_abs.h>
  48:/usr/include/c++/9.2.0/cmath **** 
  49:/usr/include/c++/9.2.0/cmath **** #ifndef _GLIBCXX_CMATH
  50:/usr/include/c++/9.2.0/cmath **** #define _GLIBCXX_CMATH 1
  51:/usr/include/c++/9.2.0/cmath **** 
  52:/usr/include/c++/9.2.0/cmath **** // Get rid of those macros defined in <math.h> in lieu of real functions.
  53:/usr/include/c++/9.2.0/cmath **** #undef div
  54:/usr/include/c++/9.2.0/cmath **** #undef acos
  55:/usr/include/c++/9.2.0/cmath **** #undef asin
  56:/usr/include/c++/9.2.0/cmath **** #undef atan
  57:/usr/include/c++/9.2.0/cmath **** #undef atan2
  58:/usr/include/c++/9.2.0/cmath **** #undef ceil
  59:/usr/include/c++/9.2.0/cmath **** #undef cos
  60:/usr/include/c++/9.2.0/cmath **** #undef cosh
  61:/usr/include/c++/9.2.0/cmath **** #undef exp
  62:/usr/include/c++/9.2.0/cmath **** #undef fabs
  63:/usr/include/c++/9.2.0/cmath **** #undef floor
  64:/usr/include/c++/9.2.0/cmath **** #undef fmod
  65:/usr/include/c++/9.2.0/cmath **** #undef frexp
  66:/usr/include/c++/9.2.0/cmath **** #undef ldexp
  67:/usr/include/c++/9.2.0/cmath **** #undef log
  68:/usr/include/c++/9.2.0/cmath **** #undef log10
  69:/usr/include/c++/9.2.0/cmath **** #undef modf
  70:/usr/include/c++/9.2.0/cmath **** #undef pow
  71:/usr/include/c++/9.2.0/cmath **** #undef sin
  72:/usr/include/c++/9.2.0/cmath **** #undef sinh
  73:/usr/include/c++/9.2.0/cmath **** #undef sqrt
  74:/usr/include/c++/9.2.0/cmath **** #undef tan
  75:/usr/include/c++/9.2.0/cmath **** #undef tanh
  76:/usr/include/c++/9.2.0/cmath **** 
  77:/usr/include/c++/9.2.0/cmath **** extern "C++"
  78:/usr/include/c++/9.2.0/cmath **** {
  79:/usr/include/c++/9.2.0/cmath **** namespace std _GLIBCXX_VISIBILITY(default)
  80:/usr/include/c++/9.2.0/cmath **** {
  81:/usr/include/c++/9.2.0/cmath **** _GLIBCXX_BEGIN_NAMESPACE_VERSION
  82:/usr/include/c++/9.2.0/cmath **** 
GAS LISTING /tmp/ccDAqEnA.s 			page 24


  83:/usr/include/c++/9.2.0/cmath ****   using ::acos;
  84:/usr/include/c++/9.2.0/cmath **** 
  85:/usr/include/c++/9.2.0/cmath **** #ifndef __CORRECT_ISO_CPP_MATH_H_PROTO
  86:/usr/include/c++/9.2.0/cmath ****   inline _GLIBCXX_CONSTEXPR float
  87:/usr/include/c++/9.2.0/cmath ****   acos(float __x)
  88:/usr/include/c++/9.2.0/cmath ****   { return __builtin_acosf(__x); }
  89:/usr/include/c++/9.2.0/cmath **** 
  90:/usr/include/c++/9.2.0/cmath ****   inline _GLIBCXX_CONSTEXPR long double
  91:/usr/include/c++/9.2.0/cmath ****   acos(long double __x)
  92:/usr/include/c++/9.2.0/cmath ****   { return __builtin_acosl(__x); }
  93:/usr/include/c++/9.2.0/cmath **** #endif
  94:/usr/include/c++/9.2.0/cmath **** 
  95:/usr/include/c++/9.2.0/cmath ****   template<typename _Tp>
  96:/usr/include/c++/9.2.0/cmath ****     inline _GLIBCXX_CONSTEXPR
  97:/usr/include/c++/9.2.0/cmath ****     typename __gnu_cxx::__enable_if<__is_integer<_Tp>::__value, 
  98:/usr/include/c++/9.2.0/cmath ****                                     double>::__type
  99:/usr/include/c++/9.2.0/cmath ****     acos(_Tp __x)
 100:/usr/include/c++/9.2.0/cmath ****     { return __builtin_acos(__x); }
 101:/usr/include/c++/9.2.0/cmath **** 
 102:/usr/include/c++/9.2.0/cmath ****   using ::asin;
 103:/usr/include/c++/9.2.0/cmath **** 
 104:/usr/include/c++/9.2.0/cmath **** #ifndef __CORRECT_ISO_CPP_MATH_H_PROTO
 105:/usr/include/c++/9.2.0/cmath ****   inline _GLIBCXX_CONSTEXPR float
 106:/usr/include/c++/9.2.0/cmath ****   asin(float __x)
 107:/usr/include/c++/9.2.0/cmath ****   { return __builtin_asinf(__x); }
 108:/usr/include/c++/9.2.0/cmath **** 
 109:/usr/include/c++/9.2.0/cmath ****   inline _GLIBCXX_CONSTEXPR long double
 110:/usr/include/c++/9.2.0/cmath ****   asin(long double __x)
 111:/usr/include/c++/9.2.0/cmath ****   { return __builtin_asinl(__x); }
 112:/usr/include/c++/9.2.0/cmath **** #endif
 113:/usr/include/c++/9.2.0/cmath **** 
 114:/usr/include/c++/9.2.0/cmath ****   template<typename _Tp>
 115:/usr/include/c++/9.2.0/cmath ****     inline _GLIBCXX_CONSTEXPR
 116:/usr/include/c++/9.2.0/cmath ****     typename __gnu_cxx::__enable_if<__is_integer<_Tp>::__value,
 117:/usr/include/c++/9.2.0/cmath ****                                     double>::__type
 118:/usr/include/c++/9.2.0/cmath ****     asin(_Tp __x)
 119:/usr/include/c++/9.2.0/cmath ****     { return __builtin_asin(__x); }
 120:/usr/include/c++/9.2.0/cmath **** 
 121:/usr/include/c++/9.2.0/cmath ****   using ::atan;
 122:/usr/include/c++/9.2.0/cmath **** 
 123:/usr/include/c++/9.2.0/cmath **** #ifndef __CORRECT_ISO_CPP_MATH_H_PROTO
 124:/usr/include/c++/9.2.0/cmath ****   inline _GLIBCXX_CONSTEXPR float
 125:/usr/include/c++/9.2.0/cmath ****   atan(float __x)
 126:/usr/include/c++/9.2.0/cmath ****   { return __builtin_atanf(__x); }
 127:/usr/include/c++/9.2.0/cmath **** 
 128:/usr/include/c++/9.2.0/cmath ****   inline _GLIBCXX_CONSTEXPR long double
 129:/usr/include/c++/9.2.0/cmath ****   atan(long double __x)
 130:/usr/include/c++/9.2.0/cmath ****   { return __builtin_atanl(__x); }
 131:/usr/include/c++/9.2.0/cmath **** #endif
 132:/usr/include/c++/9.2.0/cmath **** 
 133:/usr/include/c++/9.2.0/cmath ****   template<typename _Tp>
 134:/usr/include/c++/9.2.0/cmath ****     inline _GLIBCXX_CONSTEXPR
 135:/usr/include/c++/9.2.0/cmath ****     typename __gnu_cxx::__enable_if<__is_integer<_Tp>::__value,
 136:/usr/include/c++/9.2.0/cmath ****                                     double>::__type
 137:/usr/include/c++/9.2.0/cmath ****     atan(_Tp __x)
 138:/usr/include/c++/9.2.0/cmath ****     { return __builtin_atan(__x); }
 139:/usr/include/c++/9.2.0/cmath **** 
GAS LISTING /tmp/ccDAqEnA.s 			page 25


 140:/usr/include/c++/9.2.0/cmath ****   using ::atan2;
 141:/usr/include/c++/9.2.0/cmath **** 
 142:/usr/include/c++/9.2.0/cmath **** #ifndef __CORRECT_ISO_CPP_MATH_H_PROTO
 143:/usr/include/c++/9.2.0/cmath ****   inline _GLIBCXX_CONSTEXPR float
 144:/usr/include/c++/9.2.0/cmath ****   atan2(float __y, float __x)
 145:/usr/include/c++/9.2.0/cmath ****   { return __builtin_atan2f(__y, __x); }
 146:/usr/include/c++/9.2.0/cmath **** 
 147:/usr/include/c++/9.2.0/cmath ****   inline _GLIBCXX_CONSTEXPR long double
 148:/usr/include/c++/9.2.0/cmath ****   atan2(long double __y, long double __x)
 149:/usr/include/c++/9.2.0/cmath ****   { return __builtin_atan2l(__y, __x); }
 150:/usr/include/c++/9.2.0/cmath **** #endif
 151:/usr/include/c++/9.2.0/cmath **** 
 152:/usr/include/c++/9.2.0/cmath ****   template<typename _Tp, typename _Up>
 153:/usr/include/c++/9.2.0/cmath ****     inline _GLIBCXX_CONSTEXPR
 154:/usr/include/c++/9.2.0/cmath ****     typename __gnu_cxx::__promote_2<_Tp, _Up>::__type
 155:/usr/include/c++/9.2.0/cmath ****     atan2(_Tp __y, _Up __x)
 156:/usr/include/c++/9.2.0/cmath ****     {
 157:/usr/include/c++/9.2.0/cmath ****       typedef typename __gnu_cxx::__promote_2<_Tp, _Up>::__type __type;
 158:/usr/include/c++/9.2.0/cmath ****       return atan2(__type(__y), __type(__x));
 159:/usr/include/c++/9.2.0/cmath ****     }
 160:/usr/include/c++/9.2.0/cmath **** 
 161:/usr/include/c++/9.2.0/cmath ****   using ::ceil;
 162:/usr/include/c++/9.2.0/cmath **** 
 163:/usr/include/c++/9.2.0/cmath **** #ifndef __CORRECT_ISO_CPP_MATH_H_PROTO
 164:/usr/include/c++/9.2.0/cmath ****   inline _GLIBCXX_CONSTEXPR float
 165:/usr/include/c++/9.2.0/cmath ****   ceil(float __x)
 166:/usr/include/c++/9.2.0/cmath ****   { return __builtin_ceilf(__x); }
 167:/usr/include/c++/9.2.0/cmath **** 
 168:/usr/include/c++/9.2.0/cmath ****   inline _GLIBCXX_CONSTEXPR long double
 169:/usr/include/c++/9.2.0/cmath ****   ceil(long double __x)
 170:/usr/include/c++/9.2.0/cmath ****   { return __builtin_ceill(__x); }
 171:/usr/include/c++/9.2.0/cmath **** #endif
 172:/usr/include/c++/9.2.0/cmath **** 
 173:/usr/include/c++/9.2.0/cmath ****   template<typename _Tp>
 174:/usr/include/c++/9.2.0/cmath ****     inline _GLIBCXX_CONSTEXPR
 175:/usr/include/c++/9.2.0/cmath ****     typename __gnu_cxx::__enable_if<__is_integer<_Tp>::__value, 
 176:/usr/include/c++/9.2.0/cmath ****                                     double>::__type
 177:/usr/include/c++/9.2.0/cmath ****     ceil(_Tp __x)
 178:/usr/include/c++/9.2.0/cmath ****     { return __builtin_ceil(__x); }
 179:/usr/include/c++/9.2.0/cmath **** 
 180:/usr/include/c++/9.2.0/cmath ****   using ::cos;
 181:/usr/include/c++/9.2.0/cmath **** 
 182:/usr/include/c++/9.2.0/cmath **** #ifndef __CORRECT_ISO_CPP_MATH_H_PROTO
 183:/usr/include/c++/9.2.0/cmath ****   inline _GLIBCXX_CONSTEXPR float
 184:/usr/include/c++/9.2.0/cmath ****   cos(float __x)
 185:/usr/include/c++/9.2.0/cmath ****   { return __builtin_cosf(__x); }
 186:/usr/include/c++/9.2.0/cmath **** 
 187:/usr/include/c++/9.2.0/cmath ****   inline _GLIBCXX_CONSTEXPR long double
 188:/usr/include/c++/9.2.0/cmath ****   cos(long double __x)
 189:/usr/include/c++/9.2.0/cmath ****   { return __builtin_cosl(__x); }
 190:/usr/include/c++/9.2.0/cmath **** #endif
 191:/usr/include/c++/9.2.0/cmath **** 
 192:/usr/include/c++/9.2.0/cmath ****   template<typename _Tp>
 193:/usr/include/c++/9.2.0/cmath ****     inline _GLIBCXX_CONSTEXPR
 194:/usr/include/c++/9.2.0/cmath ****     typename __gnu_cxx::__enable_if<__is_integer<_Tp>::__value,
 195:/usr/include/c++/9.2.0/cmath ****                                     double>::__type
 196:/usr/include/c++/9.2.0/cmath ****     cos(_Tp __x)
GAS LISTING /tmp/ccDAqEnA.s 			page 26


 197:/usr/include/c++/9.2.0/cmath ****     { return __builtin_cos(__x); }
 198:/usr/include/c++/9.2.0/cmath **** 
 199:/usr/include/c++/9.2.0/cmath ****   using ::cosh;
 200:/usr/include/c++/9.2.0/cmath **** 
 201:/usr/include/c++/9.2.0/cmath **** #ifndef __CORRECT_ISO_CPP_MATH_H_PROTO
 202:/usr/include/c++/9.2.0/cmath ****   inline _GLIBCXX_CONSTEXPR float
 203:/usr/include/c++/9.2.0/cmath ****   cosh(float __x)
 204:/usr/include/c++/9.2.0/cmath ****   { return __builtin_coshf(__x); }
 205:/usr/include/c++/9.2.0/cmath **** 
 206:/usr/include/c++/9.2.0/cmath ****   inline _GLIBCXX_CONSTEXPR long double
 207:/usr/include/c++/9.2.0/cmath ****   cosh(long double __x)
 208:/usr/include/c++/9.2.0/cmath ****   { return __builtin_coshl(__x); }
 209:/usr/include/c++/9.2.0/cmath **** #endif
 210:/usr/include/c++/9.2.0/cmath **** 
 211:/usr/include/c++/9.2.0/cmath ****   template<typename _Tp>
 212:/usr/include/c++/9.2.0/cmath ****     inline _GLIBCXX_CONSTEXPR
 213:/usr/include/c++/9.2.0/cmath ****     typename __gnu_cxx::__enable_if<__is_integer<_Tp>::__value,
 214:/usr/include/c++/9.2.0/cmath ****                                     double>::__type
 215:/usr/include/c++/9.2.0/cmath ****     cosh(_Tp __x)
 216:/usr/include/c++/9.2.0/cmath ****     { return __builtin_cosh(__x); }
 217:/usr/include/c++/9.2.0/cmath **** 
 218:/usr/include/c++/9.2.0/cmath ****   using ::exp;
 219:/usr/include/c++/9.2.0/cmath **** 
 220:/usr/include/c++/9.2.0/cmath **** #ifndef __CORRECT_ISO_CPP_MATH_H_PROTO
 221:/usr/include/c++/9.2.0/cmath ****   inline _GLIBCXX_CONSTEXPR float
 222:/usr/include/c++/9.2.0/cmath ****   exp(float __x)
 223:/usr/include/c++/9.2.0/cmath ****   { return __builtin_expf(__x); }
 224:/usr/include/c++/9.2.0/cmath **** 
 225:/usr/include/c++/9.2.0/cmath ****   inline _GLIBCXX_CONSTEXPR long double
 226:/usr/include/c++/9.2.0/cmath ****   exp(long double __x)
 227:/usr/include/c++/9.2.0/cmath ****   { return __builtin_expl(__x); }
 228:/usr/include/c++/9.2.0/cmath **** #endif
 229:/usr/include/c++/9.2.0/cmath **** 
 230:/usr/include/c++/9.2.0/cmath ****   template<typename _Tp>
 231:/usr/include/c++/9.2.0/cmath ****     inline _GLIBCXX_CONSTEXPR
 232:/usr/include/c++/9.2.0/cmath ****     typename __gnu_cxx::__enable_if<__is_integer<_Tp>::__value,
 233:/usr/include/c++/9.2.0/cmath ****                                     double>::__type
 234:/usr/include/c++/9.2.0/cmath ****     exp(_Tp __x)
 235:/usr/include/c++/9.2.0/cmath ****     { return __builtin_exp(__x); }
 236:/usr/include/c++/9.2.0/cmath **** 
 237:/usr/include/c++/9.2.0/cmath ****   using ::fabs;
 238:/usr/include/c++/9.2.0/cmath **** 
 239:/usr/include/c++/9.2.0/cmath **** #ifndef __CORRECT_ISO_CPP_MATH_H_PROTO
 240:/usr/include/c++/9.2.0/cmath ****   inline _GLIBCXX_CONSTEXPR float
 241:/usr/include/c++/9.2.0/cmath ****   fabs(float __x)
 242:/usr/include/c++/9.2.0/cmath ****   { return __builtin_fabsf(__x); }
 243:/usr/include/c++/9.2.0/cmath **** 
 244:/usr/include/c++/9.2.0/cmath ****   inline _GLIBCXX_CONSTEXPR long double
 245:/usr/include/c++/9.2.0/cmath ****   fabs(long double __x)
 246:/usr/include/c++/9.2.0/cmath ****   { return __builtin_fabsl(__x); }
 247:/usr/include/c++/9.2.0/cmath **** #endif
 248:/usr/include/c++/9.2.0/cmath **** 
 249:/usr/include/c++/9.2.0/cmath ****   template<typename _Tp>
 250:/usr/include/c++/9.2.0/cmath ****     inline _GLIBCXX_CONSTEXPR
 251:/usr/include/c++/9.2.0/cmath ****     typename __gnu_cxx::__enable_if<__is_integer<_Tp>::__value,
 252:/usr/include/c++/9.2.0/cmath ****                                     double>::__type
 253:/usr/include/c++/9.2.0/cmath ****     fabs(_Tp __x)
GAS LISTING /tmp/ccDAqEnA.s 			page 27


 254:/usr/include/c++/9.2.0/cmath ****     { return __builtin_fabs(__x); }
 255:/usr/include/c++/9.2.0/cmath **** 
 256:/usr/include/c++/9.2.0/cmath ****   using ::floor;
 257:/usr/include/c++/9.2.0/cmath **** 
 258:/usr/include/c++/9.2.0/cmath **** #ifndef __CORRECT_ISO_CPP_MATH_H_PROTO
 259:/usr/include/c++/9.2.0/cmath ****   inline _GLIBCXX_CONSTEXPR float
 260:/usr/include/c++/9.2.0/cmath ****   floor(float __x)
 261:/usr/include/c++/9.2.0/cmath ****   { return __builtin_floorf(__x); }
 262:/usr/include/c++/9.2.0/cmath **** 
 263:/usr/include/c++/9.2.0/cmath ****   inline _GLIBCXX_CONSTEXPR long double
 264:/usr/include/c++/9.2.0/cmath ****   floor(long double __x)
 265:/usr/include/c++/9.2.0/cmath ****   { return __builtin_floorl(__x); }
 266:/usr/include/c++/9.2.0/cmath **** #endif
 267:/usr/include/c++/9.2.0/cmath **** 
 268:/usr/include/c++/9.2.0/cmath ****   template<typename _Tp>
 269:/usr/include/c++/9.2.0/cmath ****     inline _GLIBCXX_CONSTEXPR
 270:/usr/include/c++/9.2.0/cmath ****     typename __gnu_cxx::__enable_if<__is_integer<_Tp>::__value,
 271:/usr/include/c++/9.2.0/cmath ****                                     double>::__type
 272:/usr/include/c++/9.2.0/cmath ****     floor(_Tp __x)
 273:/usr/include/c++/9.2.0/cmath ****     { return __builtin_floor(__x); }
 274:/usr/include/c++/9.2.0/cmath **** 
 275:/usr/include/c++/9.2.0/cmath ****   using ::fmod;
 276:/usr/include/c++/9.2.0/cmath **** 
 277:/usr/include/c++/9.2.0/cmath **** #ifndef __CORRECT_ISO_CPP_MATH_H_PROTO
 278:/usr/include/c++/9.2.0/cmath ****   inline _GLIBCXX_CONSTEXPR float
 279:/usr/include/c++/9.2.0/cmath ****   fmod(float __x, float __y)
 280:/usr/include/c++/9.2.0/cmath ****   { return __builtin_fmodf(__x, __y); }
 281:/usr/include/c++/9.2.0/cmath **** 
 282:/usr/include/c++/9.2.0/cmath ****   inline _GLIBCXX_CONSTEXPR long double
 283:/usr/include/c++/9.2.0/cmath ****   fmod(long double __x, long double __y)
 284:/usr/include/c++/9.2.0/cmath ****   { return __builtin_fmodl(__x, __y); }
 285:/usr/include/c++/9.2.0/cmath **** #endif
 286:/usr/include/c++/9.2.0/cmath **** 
 287:/usr/include/c++/9.2.0/cmath ****   template<typename _Tp, typename _Up>
 288:/usr/include/c++/9.2.0/cmath ****     inline _GLIBCXX_CONSTEXPR
 289:/usr/include/c++/9.2.0/cmath ****     typename __gnu_cxx::__promote_2<_Tp, _Up>::__type
 290:/usr/include/c++/9.2.0/cmath ****     fmod(_Tp __x, _Up __y)
 291:/usr/include/c++/9.2.0/cmath ****     {
 292:/usr/include/c++/9.2.0/cmath ****       typedef typename __gnu_cxx::__promote_2<_Tp, _Up>::__type __type;
 293:/usr/include/c++/9.2.0/cmath ****       return fmod(__type(__x), __type(__y));
 294:/usr/include/c++/9.2.0/cmath ****     }
 295:/usr/include/c++/9.2.0/cmath **** 
 296:/usr/include/c++/9.2.0/cmath ****   using ::frexp;
 297:/usr/include/c++/9.2.0/cmath **** 
 298:/usr/include/c++/9.2.0/cmath **** #ifndef __CORRECT_ISO_CPP_MATH_H_PROTO
 299:/usr/include/c++/9.2.0/cmath ****   inline float
 300:/usr/include/c++/9.2.0/cmath ****   frexp(float __x, int* __exp)
 301:/usr/include/c++/9.2.0/cmath ****   { return __builtin_frexpf(__x, __exp); }
 302:/usr/include/c++/9.2.0/cmath **** 
 303:/usr/include/c++/9.2.0/cmath ****   inline long double
 304:/usr/include/c++/9.2.0/cmath ****   frexp(long double __x, int* __exp)
 305:/usr/include/c++/9.2.0/cmath ****   { return __builtin_frexpl(__x, __exp); }
 306:/usr/include/c++/9.2.0/cmath **** #endif
 307:/usr/include/c++/9.2.0/cmath **** 
 308:/usr/include/c++/9.2.0/cmath ****   template<typename _Tp>
 309:/usr/include/c++/9.2.0/cmath ****     inline _GLIBCXX_CONSTEXPR
 310:/usr/include/c++/9.2.0/cmath ****     typename __gnu_cxx::__enable_if<__is_integer<_Tp>::__value, 
GAS LISTING /tmp/ccDAqEnA.s 			page 28


 311:/usr/include/c++/9.2.0/cmath ****                                     double>::__type
 312:/usr/include/c++/9.2.0/cmath ****     frexp(_Tp __x, int* __exp)
 313:/usr/include/c++/9.2.0/cmath ****     { return __builtin_frexp(__x, __exp); }
 314:/usr/include/c++/9.2.0/cmath **** 
 315:/usr/include/c++/9.2.0/cmath ****   using ::ldexp;
 316:/usr/include/c++/9.2.0/cmath **** 
 317:/usr/include/c++/9.2.0/cmath **** #ifndef __CORRECT_ISO_CPP_MATH_H_PROTO
 318:/usr/include/c++/9.2.0/cmath ****   inline _GLIBCXX_CONSTEXPR float
 319:/usr/include/c++/9.2.0/cmath ****   ldexp(float __x, int __exp)
 320:/usr/include/c++/9.2.0/cmath ****   { return __builtin_ldexpf(__x, __exp); }
 321:/usr/include/c++/9.2.0/cmath **** 
 322:/usr/include/c++/9.2.0/cmath ****   inline _GLIBCXX_CONSTEXPR long double
 323:/usr/include/c++/9.2.0/cmath ****   ldexp(long double __x, int __exp)
 324:/usr/include/c++/9.2.0/cmath ****   { return __builtin_ldexpl(__x, __exp); }
 325:/usr/include/c++/9.2.0/cmath **** #endif
 326:/usr/include/c++/9.2.0/cmath **** 
 327:/usr/include/c++/9.2.0/cmath ****   template<typename _Tp>
 328:/usr/include/c++/9.2.0/cmath ****     inline _GLIBCXX_CONSTEXPR
 329:/usr/include/c++/9.2.0/cmath ****     typename __gnu_cxx::__enable_if<__is_integer<_Tp>::__value, 
 330:/usr/include/c++/9.2.0/cmath ****                                     double>::__type
 331:/usr/include/c++/9.2.0/cmath ****     ldexp(_Tp __x, int __exp)
 332:/usr/include/c++/9.2.0/cmath ****     { return __builtin_ldexp(__x, __exp); }
 333:/usr/include/c++/9.2.0/cmath **** 
 334:/usr/include/c++/9.2.0/cmath ****   using ::log;
 335:/usr/include/c++/9.2.0/cmath **** 
 336:/usr/include/c++/9.2.0/cmath **** #ifndef __CORRECT_ISO_CPP_MATH_H_PROTO
 337:/usr/include/c++/9.2.0/cmath ****   inline _GLIBCXX_CONSTEXPR float
 338:/usr/include/c++/9.2.0/cmath ****   log(float __x)
 339:/usr/include/c++/9.2.0/cmath ****   { return __builtin_logf(__x); }
 340:/usr/include/c++/9.2.0/cmath **** 
 341:/usr/include/c++/9.2.0/cmath ****   inline _GLIBCXX_CONSTEXPR long double
 342:/usr/include/c++/9.2.0/cmath ****   log(long double __x)
 343:/usr/include/c++/9.2.0/cmath ****   { return __builtin_logl(__x); }
 344:/usr/include/c++/9.2.0/cmath **** #endif
 345:/usr/include/c++/9.2.0/cmath **** 
 346:/usr/include/c++/9.2.0/cmath ****   template<typename _Tp>
 347:/usr/include/c++/9.2.0/cmath ****     inline _GLIBCXX_CONSTEXPR
 348:/usr/include/c++/9.2.0/cmath ****     typename __gnu_cxx::__enable_if<__is_integer<_Tp>::__value, 
 349:/usr/include/c++/9.2.0/cmath ****                                     double>::__type
 350:/usr/include/c++/9.2.0/cmath ****     log(_Tp __x)
 351:/usr/include/c++/9.2.0/cmath ****     { return __builtin_log(__x); }
 352:/usr/include/c++/9.2.0/cmath **** 
 353:/usr/include/c++/9.2.0/cmath ****   using ::log10;
 354:/usr/include/c++/9.2.0/cmath **** 
 355:/usr/include/c++/9.2.0/cmath **** #ifndef __CORRECT_ISO_CPP_MATH_H_PROTO
 356:/usr/include/c++/9.2.0/cmath ****   inline _GLIBCXX_CONSTEXPR float
 357:/usr/include/c++/9.2.0/cmath ****   log10(float __x)
 358:/usr/include/c++/9.2.0/cmath ****   { return __builtin_log10f(__x); }
 359:/usr/include/c++/9.2.0/cmath **** 
 360:/usr/include/c++/9.2.0/cmath ****   inline _GLIBCXX_CONSTEXPR long double
 361:/usr/include/c++/9.2.0/cmath ****   log10(long double __x)
 362:/usr/include/c++/9.2.0/cmath ****   { return __builtin_log10l(__x); }
 363:/usr/include/c++/9.2.0/cmath **** #endif
 364:/usr/include/c++/9.2.0/cmath **** 
 365:/usr/include/c++/9.2.0/cmath ****   template<typename _Tp>
 366:/usr/include/c++/9.2.0/cmath ****     inline _GLIBCXX_CONSTEXPR
 367:/usr/include/c++/9.2.0/cmath ****     typename __gnu_cxx::__enable_if<__is_integer<_Tp>::__value,
GAS LISTING /tmp/ccDAqEnA.s 			page 29


 368:/usr/include/c++/9.2.0/cmath ****                                     double>::__type
 369:/usr/include/c++/9.2.0/cmath ****     log10(_Tp __x)
 370:/usr/include/c++/9.2.0/cmath ****     { return __builtin_log10(__x); }
 371:/usr/include/c++/9.2.0/cmath **** 
 372:/usr/include/c++/9.2.0/cmath ****   using ::modf;
 373:/usr/include/c++/9.2.0/cmath **** 
 374:/usr/include/c++/9.2.0/cmath **** #ifndef __CORRECT_ISO_CPP_MATH_H_PROTO
 375:/usr/include/c++/9.2.0/cmath ****   inline float
 376:/usr/include/c++/9.2.0/cmath ****   modf(float __x, float* __iptr)
 377:/usr/include/c++/9.2.0/cmath ****   { return __builtin_modff(__x, __iptr); }
 378:/usr/include/c++/9.2.0/cmath **** 
 379:/usr/include/c++/9.2.0/cmath ****   inline long double
 380:/usr/include/c++/9.2.0/cmath ****   modf(long double __x, long double* __iptr)
 381:/usr/include/c++/9.2.0/cmath ****   { return __builtin_modfl(__x, __iptr); }
 382:/usr/include/c++/9.2.0/cmath **** #endif
 383:/usr/include/c++/9.2.0/cmath **** 
 384:/usr/include/c++/9.2.0/cmath ****   using ::pow;
 385:/usr/include/c++/9.2.0/cmath **** 
 386:/usr/include/c++/9.2.0/cmath **** #ifndef __CORRECT_ISO_CPP_MATH_H_PROTO
 387:/usr/include/c++/9.2.0/cmath ****   inline _GLIBCXX_CONSTEXPR float
 388:/usr/include/c++/9.2.0/cmath ****   pow(float __x, float __y)
 389:/usr/include/c++/9.2.0/cmath ****   { return __builtin_powf(__x, __y); }
 390:/usr/include/c++/9.2.0/cmath **** 
 391:/usr/include/c++/9.2.0/cmath ****   inline _GLIBCXX_CONSTEXPR long double
 392:/usr/include/c++/9.2.0/cmath ****   pow(long double __x, long double __y)
 393:/usr/include/c++/9.2.0/cmath ****   { return __builtin_powl(__x, __y); }
 394:/usr/include/c++/9.2.0/cmath **** 
 395:/usr/include/c++/9.2.0/cmath **** #if __cplusplus < 201103L
 396:/usr/include/c++/9.2.0/cmath ****   // _GLIBCXX_RESOLVE_LIB_DEFECTS
 397:/usr/include/c++/9.2.0/cmath ****   // DR 550. What should the return type of pow(float,int) be?
 398:/usr/include/c++/9.2.0/cmath ****   inline double
 399:/usr/include/c++/9.2.0/cmath ****   pow(double __x, int __i)
 400:/usr/include/c++/9.2.0/cmath ****   { return __builtin_powi(__x, __i); }
 401:/usr/include/c++/9.2.0/cmath **** 
 402:/usr/include/c++/9.2.0/cmath ****   inline float
 403:/usr/include/c++/9.2.0/cmath ****   pow(float __x, int __n)
 404:/usr/include/c++/9.2.0/cmath ****   { return __builtin_powif(__x, __n); }
 405:/usr/include/c++/9.2.0/cmath **** 
 406:/usr/include/c++/9.2.0/cmath ****   inline long double
 407:/usr/include/c++/9.2.0/cmath ****   pow(long double __x, int __n)
 408:/usr/include/c++/9.2.0/cmath ****   { return __builtin_powil(__x, __n); }
 409:/usr/include/c++/9.2.0/cmath **** #endif
 410:/usr/include/c++/9.2.0/cmath **** #endif
 411:/usr/include/c++/9.2.0/cmath **** 
 412:/usr/include/c++/9.2.0/cmath ****   template<typename _Tp, typename _Up>
 413:/usr/include/c++/9.2.0/cmath ****     inline _GLIBCXX_CONSTEXPR
 414:/usr/include/c++/9.2.0/cmath ****     typename __gnu_cxx::__promote_2<_Tp, _Up>::__type
 415:/usr/include/c++/9.2.0/cmath ****     pow(_Tp __x, _Up __y)
 416:/usr/include/c++/9.2.0/cmath ****     {
 417:/usr/include/c++/9.2.0/cmath ****       typedef typename __gnu_cxx::__promote_2<_Tp, _Up>::__type __type;
 418:/usr/include/c++/9.2.0/cmath ****       return pow(__type(__x), __type(__y));
 419:/usr/include/c++/9.2.0/cmath ****     }
 420:/usr/include/c++/9.2.0/cmath **** 
 421:/usr/include/c++/9.2.0/cmath ****   using ::sin;
 422:/usr/include/c++/9.2.0/cmath **** 
 423:/usr/include/c++/9.2.0/cmath **** #ifndef __CORRECT_ISO_CPP_MATH_H_PROTO
 424:/usr/include/c++/9.2.0/cmath ****   inline _GLIBCXX_CONSTEXPR float
GAS LISTING /tmp/ccDAqEnA.s 			page 30


 425:/usr/include/c++/9.2.0/cmath ****   sin(float __x)
 426:/usr/include/c++/9.2.0/cmath ****   { return __builtin_sinf(__x); }
 427:/usr/include/c++/9.2.0/cmath **** 
 428:/usr/include/c++/9.2.0/cmath ****   inline _GLIBCXX_CONSTEXPR long double
 429:/usr/include/c++/9.2.0/cmath ****   sin(long double __x)
 430:/usr/include/c++/9.2.0/cmath ****   { return __builtin_sinl(__x); }
 431:/usr/include/c++/9.2.0/cmath **** #endif
 432:/usr/include/c++/9.2.0/cmath **** 
 433:/usr/include/c++/9.2.0/cmath ****   template<typename _Tp>
 434:/usr/include/c++/9.2.0/cmath ****     inline _GLIBCXX_CONSTEXPR
 435:/usr/include/c++/9.2.0/cmath ****     typename __gnu_cxx::__enable_if<__is_integer<_Tp>::__value, 
 436:/usr/include/c++/9.2.0/cmath ****                                     double>::__type
 437:/usr/include/c++/9.2.0/cmath ****     sin(_Tp __x)
 438:/usr/include/c++/9.2.0/cmath ****     { return __builtin_sin(__x); }
 439:/usr/include/c++/9.2.0/cmath **** 
 440:/usr/include/c++/9.2.0/cmath ****   using ::sinh;
 441:/usr/include/c++/9.2.0/cmath **** 
 442:/usr/include/c++/9.2.0/cmath **** #ifndef __CORRECT_ISO_CPP_MATH_H_PROTO
 443:/usr/include/c++/9.2.0/cmath ****   inline _GLIBCXX_CONSTEXPR float
 444:/usr/include/c++/9.2.0/cmath ****   sinh(float __x)
 445:/usr/include/c++/9.2.0/cmath ****   { return __builtin_sinhf(__x); }
 446:/usr/include/c++/9.2.0/cmath **** 
 447:/usr/include/c++/9.2.0/cmath ****   inline _GLIBCXX_CONSTEXPR long double
 448:/usr/include/c++/9.2.0/cmath ****   sinh(long double __x)
 449:/usr/include/c++/9.2.0/cmath ****   { return __builtin_sinhl(__x); }
 450:/usr/include/c++/9.2.0/cmath **** #endif
 451:/usr/include/c++/9.2.0/cmath **** 
 452:/usr/include/c++/9.2.0/cmath ****   template<typename _Tp>
 453:/usr/include/c++/9.2.0/cmath ****     inline _GLIBCXX_CONSTEXPR
 454:/usr/include/c++/9.2.0/cmath ****     typename __gnu_cxx::__enable_if<__is_integer<_Tp>::__value, 
 455:/usr/include/c++/9.2.0/cmath ****                                     double>::__type
 456:/usr/include/c++/9.2.0/cmath ****     sinh(_Tp __x)
 457:/usr/include/c++/9.2.0/cmath ****     { return __builtin_sinh(__x); }
 458:/usr/include/c++/9.2.0/cmath **** 
 459:/usr/include/c++/9.2.0/cmath ****   using ::sqrt;
 460:/usr/include/c++/9.2.0/cmath **** 
 461:/usr/include/c++/9.2.0/cmath **** #ifndef __CORRECT_ISO_CPP_MATH_H_PROTO
 462:/usr/include/c++/9.2.0/cmath ****   inline _GLIBCXX_CONSTEXPR float
 463:/usr/include/c++/9.2.0/cmath ****   sqrt(float __x)
 436              		.loc 4 463 3 is_stmt 1 view .LVU133
 437              	.LBB33:
 464:/usr/include/c++/9.2.0/cmath ****   { return __builtin_sqrtf(__x); }
 438              		.loc 4 464 5 view .LVU134
 439              		.loc 4 464 27 is_stmt 0 view .LVU135
 440 0287 E8000000 		call	sqrtf@PLT
 440      00
 441              	.LVL30:
 442              		.loc 4 464 27 view .LVU136
 443              	.LBE33:
 444              	.LBE32:
 357:Src/findwayBases.cpp **** }
 445              		.loc 1 357 5 is_stmt 1 view .LVU137
 358:Src/findwayBases.cpp **** 
 446              		.loc 1 358 1 is_stmt 0 view .LVU138
 447 028c 4883C408 		addq	$8, %rsp
 448              		.cfi_def_cfa_offset 8
 449 0290 C3       		ret
GAS LISTING /tmp/ccDAqEnA.s 			page 31


 450              		.cfi_endproc
 451              	.LFE1733:
 453              		.globl	_Z6getLenPK4vect
 455              	_Z6getLenPK4vect:
 456              	.LVL31:
 457              	.LFB1734:
 361:Src/findwayBases.cpp ****     COORDS_DATATYPE l = sqrt(sqr(v->dx) + sqr(v->dy));
 458              		.loc 1 361 1 is_stmt 1 view -0
 459              		.cfi_startproc
 361:Src/findwayBases.cpp ****     COORDS_DATATYPE l = sqrt(sqr(v->dx) + sqr(v->dy));
 460              		.loc 1 361 1 is_stmt 0 view .LVU140
 461 0291 4883EC08 		subq	$8, %rsp
 462              		.cfi_def_cfa_offset 16
 362:Src/findwayBases.cpp ****     return l;
 463              		.loc 1 362 5 is_stmt 1 view .LVU141
 362:Src/findwayBases.cpp ****     return l;
 464              		.loc 1 362 30 is_stmt 0 view .LVU142
 465 0295 F30F1047 		movss	8(%rdi), %xmm0
 465      08
 466 029a F30F59C0 		mulss	%xmm0, %xmm0
 362:Src/findwayBases.cpp ****     return l;
 467              		.loc 1 362 43 view .LVU143
 468 029e F30F104F 		movss	12(%rdi), %xmm1
 468      0C
 469 02a3 F30F59C9 		mulss	%xmm1, %xmm1
 362:Src/findwayBases.cpp ****     return l;
 470              		.loc 1 362 29 view .LVU144
 471 02a7 F30F58C1 		addss	%xmm1, %xmm0
 472              	.LVL32:
 473              	.LBB34:
 474              	.LBI34:
 463:/usr/include/c++/9.2.0/cmath ****   { return __builtin_sqrtf(__x); }
 475              		.loc 4 463 3 is_stmt 1 view .LVU145
 476              	.LBB35:
 477              		.loc 4 464 5 view .LVU146
 478              		.loc 4 464 27 is_stmt 0 view .LVU147
 479 02ab E8000000 		call	sqrtf@PLT
 479      00
 480              	.LVL33:
 481              		.loc 4 464 27 view .LVU148
 482              	.LBE35:
 483              	.LBE34:
 363:Src/findwayBases.cpp **** }
 484              		.loc 1 363 5 is_stmt 1 view .LVU149
 364:Src/findwayBases.cpp **** 
 485              		.loc 1 364 1 is_stmt 0 view .LVU150
 486 02b0 4883C408 		addq	$8, %rsp
 487              		.cfi_def_cfa_offset 8
 488 02b4 C3       		ret
 489              		.cfi_endproc
 490              	.LFE1734:
 492              		.globl	_Z15getIntersectionPK8obstaclePK4vect
 494              	_Z15getIntersectionPK8obstaclePK4vect:
 495              	.LVL34:
 496              	.LFB1727:
  44:Src/findwayBases.cpp ****     struct coords inter1, inter2, tgt;
 497              		.loc 1 44 1 is_stmt 1 view -0
GAS LISTING /tmp/ccDAqEnA.s 			page 32


 498              		.cfi_startproc
  44:Src/findwayBases.cpp ****     struct coords inter1, inter2, tgt;
 499              		.loc 1 44 1 is_stmt 0 view .LVU152
 500 02b5 4155     		pushq	%r13
 501              		.cfi_def_cfa_offset 16
 502              		.cfi_offset 13, -16
 503 02b7 4154     		pushq	%r12
 504              		.cfi_def_cfa_offset 24
 505              		.cfi_offset 12, -24
 506 02b9 55       		pushq	%rbp
 507              		.cfi_def_cfa_offset 32
 508              		.cfi_offset 6, -32
 509 02ba 53       		pushq	%rbx
 510              		.cfi_def_cfa_offset 40
 511              		.cfi_offset 3, -40
 512 02bb 4883EC48 		subq	$72, %rsp
 513              		.cfi_def_cfa_offset 112
 514 02bf 4889FB   		movq	%rdi, %rbx
 515 02c2 4889F5   		movq	%rsi, %rbp
  44:Src/findwayBases.cpp ****     struct coords inter1, inter2, tgt;
 516              		.loc 1 44 1 view .LVU153
 517 02c5 64488B04 		movq	%fs:40, %rax
 517      25280000 
 517      00
 518 02ce 48894424 		movq	%rax, 56(%rsp)
 518      38
 519 02d3 31C0     		xorl	%eax, %eax
  45:Src/findwayBases.cpp ****     tgt = {(v->dx + v->c->x), (v->dy + v->c->y)};
 520              		.loc 1 45 5 is_stmt 1 view .LVU154
  46:Src/findwayBases.cpp ****     struct baseline b1,
 521              		.loc 1 46 5 view .LVU155
  47:Src/findwayBases.cpp ****                     b2;
 522              		.loc 1 47 5 view .LVU156
  47:Src/findwayBases.cpp ****                     b2;
 523              		.loc 1 47 21 is_stmt 0 view .LVU157
 524 02d5 C7442428 		movl	$0x00000000, 40(%rsp)
 524      00000000 
 525 02dd C744242C 		movl	$0x00000000, 44(%rsp)
 525      00000000 
  48:Src/findwayBases.cpp ****     COORDS_DATATYPE l1 = 0, l2 = 0, lv = 0;
 526              		.loc 1 48 21 view .LVU158
 527 02e5 C7442430 		movl	$0x00000000, 48(%rsp)
 527      00000000 
 528 02ed C7442434 		movl	$0x00000000, 52(%rsp)
 528      00000000 
  49:Src/findwayBases.cpp **** 
 529              		.loc 1 49 5 is_stmt 1 view .LVU159
 530              	.LVL35:
  51:Src/findwayBases.cpp **** 
 531              		.loc 1 51 5 view .LVU160
  51:Src/findwayBases.cpp **** 
 532              		.loc 1 51 16 is_stmt 0 view .LVU161
 533 02f5 4889F7   		movq	%rsi, %rdi
 534              	.LVL36:
  51:Src/findwayBases.cpp **** 
 535              		.loc 1 51 16 view .LVU162
 536 02f8 E8000000 		call	_Z6getLenPK4vect
GAS LISTING /tmp/ccDAqEnA.s 			page 33


 536      00
 537              	.LVL37:
  51:Src/findwayBases.cpp **** 
 538              		.loc 1 51 16 view .LVU163
 539 02fd F30F1144 		movss	%xmm0, 8(%rsp)
 539      2408
 540              	.LVL38:
  53:Src/findwayBases.cpp **** 
 541              		.loc 1 53 5 is_stmt 1 view .LVU164
  53:Src/findwayBases.cpp **** 
 542              		.loc 1 53 26 is_stmt 0 view .LVU165
 543 0303 4889EF   		movq	%rbp, %rdi
 544 0306 E8000000 		call	_Z14vectToBaselinePK4vect
 544      00
 545              	.LVL39:
  53:Src/findwayBases.cpp **** 
 546              		.loc 1 53 26 view .LVU166
 547 030b 660FD644 		movq	%xmm0, 40(%rsp)
 547      2428
  55:Src/findwayBases.cpp ****     b2.b = obst->c->x;
 548              		.loc 1 55 5 is_stmt 1 view .LVU167
  55:Src/findwayBases.cpp ****     b2.b = obst->c->x;
 549              		.loc 1 55 10 is_stmt 0 view .LVU168
 550 0311 F30F1005 		movss	.LC4(%rip), %xmm0
 550      00000000 
 551 0319 F30F5E05 		divss	.LC0(%rip), %xmm0
 551      00000000 
 552 0321 F30F1144 		movss	%xmm0, 48(%rsp)
 552      2430
  56:Src/findwayBases.cpp **** 
 553              		.loc 1 56 5 is_stmt 1 view .LVU169
  56:Src/findwayBases.cpp **** 
 554              		.loc 1 56 18 is_stmt 0 view .LVU170
 555 0327 488B03   		movq	(%rbx), %rax
  56:Src/findwayBases.cpp **** 
 556              		.loc 1 56 21 view .LVU171
 557 032a F30F1000 		movss	(%rax), %xmm0
  56:Src/findwayBases.cpp **** 
 558              		.loc 1 56 10 view .LVU172
 559 032e F30F1144 		movss	%xmm0, 52(%rsp)
 559      2434
  58:Src/findwayBases.cpp ****     if(isDotInside(&inter1, obst))
 560              		.loc 1 58 5 is_stmt 1 view .LVU173
  58:Src/findwayBases.cpp ****     if(isDotInside(&inter1, obst))
 561              		.loc 1 58 38 is_stmt 0 view .LVU174
 562 0334 488D7424 		leaq	48(%rsp), %rsi
 562      30
 563 0339 488D7C24 		leaq	40(%rsp), %rdi
 563      28
 564 033e E8000000 		call	_Z15getIntersectionPK8baselineS1_
 564      00
 565              	.LVL40:
 566 0343 660FD644 		movq	%xmm0, 24(%rsp)
 566      2418
  59:Src/findwayBases.cpp ****     {
 567              		.loc 1 59 5 is_stmt 1 view .LVU175
  59:Src/findwayBases.cpp ****     {
GAS LISTING /tmp/ccDAqEnA.s 			page 34


 568              		.loc 1 59 19 is_stmt 0 view .LVU176
 569 0349 488D7C24 		leaq	24(%rsp), %rdi
 569      18
 570 034e 4889DE   		movq	%rbx, %rsi
 571 0351 E8000000 		call	_Z11isDotInsidePK6coordsPK8obstacle
 571      00
 572              	.LVL41:
  59:Src/findwayBases.cpp ****     {
 573              		.loc 1 59 5 view .LVU177
 574 0356 84C0     		testb	%al, %al
 575 0358 0F851201 		jne	.L111
 575      0000
  70:Src/findwayBases.cpp ****         inter1 = {0, 0};
 576              		.loc 1 70 9 is_stmt 1 view .LVU178
  71:Src/findwayBases.cpp ****     }
 577              		.loc 1 71 9 view .LVU179
  71:Src/findwayBases.cpp ****     }
 578              		.loc 1 71 16 is_stmt 0 view .LVU180
 579 035e C7442418 		movl	$0x00000000, 24(%rsp)
 579      00000000 
 580 0366 C744241C 		movl	$0x00000000, 28(%rsp)
 580      00000000 
  70:Src/findwayBases.cpp ****         inter1 = {0, 0};
 581              		.loc 1 70 12 view .LVU181
 582 036e 448B2500 		movl	.LC0(%rip), %r12d
 582      000000
 583              	.LVL42:
 584              	.L79:
  74:Src/findwayBases.cpp **** 
 585              		.loc 1 74 5 is_stmt 1 view .LVU182
  74:Src/findwayBases.cpp **** 
 586              		.loc 1 74 10 is_stmt 0 view .LVU183
 587 0375 F30F1044 		movss	52(%rsp), %xmm0
 587      2434
 588 037b F30F5843 		addss	40(%rbx), %xmm0
 588      28
 589 0380 F30F1144 		movss	%xmm0, 52(%rsp)
 589      2434
  76:Src/findwayBases.cpp ****     if(isDotInside(&inter2, obst))
 590              		.loc 1 76 5 is_stmt 1 view .LVU184
  76:Src/findwayBases.cpp ****     if(isDotInside(&inter2, obst))
 591              		.loc 1 76 38 is_stmt 0 view .LVU185
 592 0386 488D7424 		leaq	48(%rsp), %rsi
 592      30
 593 038b 488D7C24 		leaq	40(%rsp), %rdi
 593      28
 594 0390 E8000000 		call	_Z15getIntersectionPK8baselineS1_
 594      00
 595              	.LVL43:
 596 0395 660FD644 		movq	%xmm0, 32(%rsp)
 596      2420
  77:Src/findwayBases.cpp ****     {
 597              		.loc 1 77 5 is_stmt 1 view .LVU186
  77:Src/findwayBases.cpp ****     {
 598              		.loc 1 77 19 is_stmt 0 view .LVU187
 599 039b 488D7C24 		leaq	32(%rsp), %rdi
 599      20
GAS LISTING /tmp/ccDAqEnA.s 			page 35


 600 03a0 4889DE   		movq	%rbx, %rsi
 601 03a3 E8000000 		call	_Z11isDotInsidePK6coordsPK8obstacle
 601      00
 602              	.LVL44:
  77:Src/findwayBases.cpp ****     {
 603              		.loc 1 77 5 view .LVU188
 604 03a8 84C0     		testb	%al, %al
 605 03aa 0F851501 		jne	.L112
 605      0000
 100:Src/findwayBases.cpp ****         inter2 = {0, 0};
 606              		.loc 1 100 9 is_stmt 1 view .LVU189
 101:Src/findwayBases.cpp ****     }
 607              		.loc 1 101 9 view .LVU190
 101:Src/findwayBases.cpp ****     }
 608              		.loc 1 101 16 is_stmt 0 view .LVU191
 609 03b0 C7442420 		movl	$0x00000000, 32(%rsp)
 609      00000000 
 610 03b8 C7442424 		movl	$0x00000000, 36(%rsp)
 610      00000000 
 611              	.L86:
 187:Src/findwayBases.cpp ****     b2.b = obst->c->y;
 612              		.loc 1 187 5 is_stmt 1 view .LVU192
 187:Src/findwayBases.cpp ****     b2.b = obst->c->y;
 613              		.loc 1 187 10 is_stmt 0 view .LVU193
 614 03c0 C7442430 		movl	$0x00000000, 48(%rsp)
 614      00000000 
 188:Src/findwayBases.cpp ****     inter2 = getIntersection(&b1, &b2);
 615              		.loc 1 188 5 is_stmt 1 view .LVU194
 188:Src/findwayBases.cpp ****     inter2 = getIntersection(&b1, &b2);
 616              		.loc 1 188 18 is_stmt 0 view .LVU195
 617 03c8 488B03   		movq	(%rbx), %rax
 188:Src/findwayBases.cpp ****     inter2 = getIntersection(&b1, &b2);
 618              		.loc 1 188 21 view .LVU196
 619 03cb F30F1040 		movss	4(%rax), %xmm0
 619      04
 188:Src/findwayBases.cpp ****     inter2 = getIntersection(&b1, &b2);
 620              		.loc 1 188 10 view .LVU197
 621 03d0 F30F1144 		movss	%xmm0, 52(%rsp)
 621      2434
 189:Src/findwayBases.cpp ****     if(isDotInside(&inter2, obst))
 622              		.loc 1 189 5 is_stmt 1 view .LVU198
 189:Src/findwayBases.cpp ****     if(isDotInside(&inter2, obst))
 623              		.loc 1 189 38 is_stmt 0 view .LVU199
 624 03d6 488D7424 		leaq	48(%rsp), %rsi
 624      30
 625 03db 488D7C24 		leaq	40(%rsp), %rdi
 625      28
 626 03e0 E8000000 		call	_Z15getIntersectionPK8baselineS1_
 626      00
 627              	.LVL45:
 628 03e5 660FD644 		movq	%xmm0, 32(%rsp)
 628      2420
 190:Src/findwayBases.cpp ****     {
 629              		.loc 1 190 5 is_stmt 1 view .LVU200
 190:Src/findwayBases.cpp ****     {
 630              		.loc 1 190 19 is_stmt 0 view .LVU201
 631 03eb 488D7C24 		leaq	32(%rsp), %rdi
GAS LISTING /tmp/ccDAqEnA.s 			page 36


 631      20
 632 03f0 4889DE   		movq	%rbx, %rsi
 633 03f3 E8000000 		call	_Z11isDotInsidePK6coordsPK8obstacle
 633      00
 634              	.LVL46:
 190:Src/findwayBases.cpp ****     {
 635              		.loc 1 190 5 view .LVU202
 636 03f8 84C0     		testb	%al, %al
 637 03fa 0F857401 		jne	.L113
 637      0000
 213:Src/findwayBases.cpp ****         inter2 = {0, 0};
 638              		.loc 1 213 9 is_stmt 1 view .LVU203
 214:Src/findwayBases.cpp ****     }
 639              		.loc 1 214 9 view .LVU204
 214:Src/findwayBases.cpp ****     }
 640              		.loc 1 214 16 is_stmt 0 view .LVU205
 641 0400 C7442420 		movl	$0x00000000, 32(%rsp)
 641      00000000 
 642 0408 C7442424 		movl	$0x00000000, 36(%rsp)
 642      00000000 
 643              	.L95:
 218:Src/findwayBases.cpp **** 
 644              		.loc 1 218 5 is_stmt 1 view .LVU206
 218:Src/findwayBases.cpp **** 
 645              		.loc 1 218 10 is_stmt 0 view .LVU207
 646 0410 F30F1044 		movss	52(%rsp), %xmm0
 646      2434
 647 0416 F30F5843 		addss	40(%rbx), %xmm0
 647      28
 648 041b F30F1144 		movss	%xmm0, 52(%rsp)
 648      2434
 220:Src/findwayBases.cpp ****     if(isDotInside(&inter2, obst))
 649              		.loc 1 220 5 is_stmt 1 view .LVU208
 220:Src/findwayBases.cpp ****     if(isDotInside(&inter2, obst))
 650              		.loc 1 220 38 is_stmt 0 view .LVU209
 651 0421 488D7424 		leaq	48(%rsp), %rsi
 651      30
 652 0426 488D7C24 		leaq	40(%rsp), %rdi
 652      28
 653 042b E8000000 		call	_Z15getIntersectionPK8baselineS1_
 653      00
 654              	.LVL47:
 655 0430 660FD644 		movq	%xmm0, 32(%rsp)
 655      2420
 221:Src/findwayBases.cpp ****     {
 656              		.loc 1 221 5 is_stmt 1 view .LVU210
 221:Src/findwayBases.cpp ****     {
 657              		.loc 1 221 19 is_stmt 0 view .LVU211
 658 0436 488D7C24 		leaq	32(%rsp), %rdi
 658      20
 659 043b 4889DE   		movq	%rbx, %rsi
 660 043e E8000000 		call	_Z11isDotInsidePK6coordsPK8obstacle
 660      00
 661              	.LVL48:
 221:Src/findwayBases.cpp ****     {
 662              		.loc 1 221 5 view .LVU212
 663 0443 84C0     		testb	%al, %al
GAS LISTING /tmp/ccDAqEnA.s 			page 37


 664 0445 0F85D801 		jne	.L114
 664      0000
 665              	.LVL49:
 666              	.L98:
 248:Src/findwayBases.cpp ****     
 667              		.loc 1 248 5 is_stmt 1 view .LVU213
 248:Src/findwayBases.cpp ****     
 668              		.loc 1 248 12 is_stmt 0 view .LVU214
 669 044b F30F7E44 		movq	24(%rsp), %xmm0
 669      2418
 324:Src/findwayBases.cpp **** 
 670              		.loc 1 324 1 view .LVU215
 671 0451 488B4424 		movq	56(%rsp), %rax
 671      38
 672 0456 64483304 		xorq	%fs:40, %rax
 672      25280000 
 672      00
 673 045f 0F853A02 		jne	.L115
 673      0000
 674 0465 4883C448 		addq	$72, %rsp
 675              		.cfi_remember_state
 676              		.cfi_def_cfa_offset 40
 677 0469 5B       		popq	%rbx
 678              		.cfi_def_cfa_offset 32
 679 046a 5D       		popq	%rbp
 680              		.cfi_def_cfa_offset 24
 681              	.LVL50:
 324:Src/findwayBases.cpp **** 
 682              		.loc 1 324 1 view .LVU216
 683 046b 415C     		popq	%r12
 684              		.cfi_def_cfa_offset 16
 685 046d 415D     		popq	%r13
 686              		.cfi_def_cfa_offset 8
 687 046f C3       		ret
 688              	.LVL51:
 689              	.L111:
 690              		.cfi_restore_state
  61:Src/findwayBases.cpp ****         if(!(isCoDirectional(v, &inter1) && l1 <= lv))
 691              		.loc 1 61 9 is_stmt 1 view .LVU217
  61:Src/findwayBases.cpp ****         if(!(isCoDirectional(v, &inter1) && l1 <= lv))
 692              		.loc 1 61 24 is_stmt 0 view .LVU218
 693 0470 488B7D00 		movq	0(%rbp), %rdi
  61:Src/findwayBases.cpp ****         if(!(isCoDirectional(v, &inter1) && l1 <= lv))
 694              		.loc 1 61 20 view .LVU219
 695 0474 4C8D6C24 		leaq	24(%rsp), %r13
 695      18
 696 0479 4C89EE   		movq	%r13, %rsi
 697 047c E8000000 		call	_Z6getLenPK6coordsS1_
 697      00
 698              	.LVL52:
 699 0481 66410F7E 		movd	%xmm0, %r12d
 699      C4
 700              	.LVL53:
  62:Src/findwayBases.cpp ****         {
 701              		.loc 1 62 9 is_stmt 1 view .LVU220
  62:Src/findwayBases.cpp ****         {
 702              		.loc 1 62 29 is_stmt 0 view .LVU221
GAS LISTING /tmp/ccDAqEnA.s 			page 38


 703 0486 4C89EE   		movq	%r13, %rsi
 704 0489 4889EF   		movq	%rbp, %rdi
 705 048c E8000000 		call	_Z15isCoDirectionalPK4vectPK6coords
 705      00
 706              	.LVL54:
  62:Src/findwayBases.cpp ****         {
 707              		.loc 1 62 12 view .LVU222
 708 0491 84C0     		testb	%al, %al
 709 0493 7414     		je	.L78
  62:Src/findwayBases.cpp ****         {
 710              		.loc 1 62 12 discriminator 2 view .LVU223
 711 0495 F30F1064 		movss	8(%rsp), %xmm4
 711      2408
 712 049b 66410F6E 		movd	%r12d, %xmm5
 712      EC
 713 04a0 0F2FE5   		comiss	%xmm5, %xmm4
 714 04a3 0F83CCFE 		jnb	.L79
 714      FFFF
 715              	.L78:
  64:Src/findwayBases.cpp ****             inter1 = {0, 0};
 716              		.loc 1 64 13 is_stmt 1 view .LVU224
 717              	.LVL55:
  65:Src/findwayBases.cpp ****         }
 718              		.loc 1 65 13 view .LVU225
  65:Src/findwayBases.cpp ****         }
 719              		.loc 1 65 20 is_stmt 0 view .LVU226
 720 04a9 C7442418 		movl	$0x00000000, 24(%rsp)
 720      00000000 
 721 04b1 C744241C 		movl	$0x00000000, 28(%rsp)
 721      00000000 
  64:Src/findwayBases.cpp ****             inter1 = {0, 0};
 722              		.loc 1 64 16 view .LVU227
 723 04b9 448B2500 		movl	.LC0(%rip), %r12d
 723      000000
 724 04c0 E9B0FEFF 		jmp	.L79
 724      FF
 725              	.LVL56:
 726              	.L112:
  79:Src/findwayBases.cpp ****         if(!(isCoDirectional(v, &inter2) && l2 <= lv))
 727              		.loc 1 79 9 is_stmt 1 view .LVU228
  79:Src/findwayBases.cpp ****         if(!(isCoDirectional(v, &inter2) && l2 <= lv))
 728              		.loc 1 79 24 is_stmt 0 view .LVU229
 729 04c5 488B7D00 		movq	0(%rbp), %rdi
  79:Src/findwayBases.cpp ****         if(!(isCoDirectional(v, &inter2) && l2 <= lv))
 730              		.loc 1 79 20 view .LVU230
 731 04c9 4C8D6C24 		leaq	32(%rsp), %r13
 731      20
 732 04ce 4C89EE   		movq	%r13, %rsi
 733 04d1 E8000000 		call	_Z6getLenPK6coordsS1_
 733      00
 734              	.LVL57:
 735 04d6 F30F1144 		movss	%xmm0, 12(%rsp)
 735      240C
 736              	.LVL58:
  80:Src/findwayBases.cpp ****         {
 737              		.loc 1 80 9 is_stmt 1 view .LVU231
  80:Src/findwayBases.cpp ****         {
GAS LISTING /tmp/ccDAqEnA.s 			page 39


 738              		.loc 1 80 29 is_stmt 0 view .LVU232
 739 04dc 4C89EE   		movq	%r13, %rsi
 740 04df 4889EF   		movq	%rbp, %rdi
 741 04e2 E8000000 		call	_Z15isCoDirectionalPK4vectPK6coords
 741      00
 742              	.LVL59:
  80:Src/findwayBases.cpp ****         {
 743              		.loc 1 80 12 view .LVU233
 744 04e7 84C0     		testb	%al, %al
 745 04e9 7453     		je	.L81
  80:Src/findwayBases.cpp ****         {
 746              		.loc 1 80 12 discriminator 2 view .LVU234
 747 04eb F30F1074 		movss	8(%rsp), %xmm6
 747      2408
 748 04f1 0F2F7424 		comiss	12(%rsp), %xmm6
 748      0C
 749 04f6 7246     		jb	.L81
  85:Src/findwayBases.cpp ****         {
 750              		.loc 1 85 14 is_stmt 1 view .LVU235
 751              	.LVL60:
 752              	.LBB36:
 753              	.LBI36:
 754              		.file 5 "Includes/findwayBases.hpp"
   1:Includes/findwayBases.hpp **** #include "math.hpp"
   2:Includes/findwayBases.hpp **** #include <string>
   3:Includes/findwayBases.hpp **** 
   4:Includes/findwayBases.hpp **** #define COORDS_DATATYPE float
   5:Includes/findwayBases.hpp **** 
   6:Includes/findwayBases.hpp **** #define CORNER_LEFT_BOT     0
   7:Includes/findwayBases.hpp **** #define CORNER_LEFT_TOP     1
   8:Includes/findwayBases.hpp **** #define CORNER_RIGHT_TOP    2
   9:Includes/findwayBases.hpp **** #define CORNER_RIGHT_BOT    3
  10:Includes/findwayBases.hpp **** 
  11:Includes/findwayBases.hpp **** 
  12:Includes/findwayBases.hpp **** struct coords
  13:Includes/findwayBases.hpp **** {
  14:Includes/findwayBases.hpp ****     COORDS_DATATYPE     x,
  15:Includes/findwayBases.hpp ****                         y;
  16:Includes/findwayBases.hpp ****     std::string toString()
  17:Includes/findwayBases.hpp ****     {
  18:Includes/findwayBases.hpp ****         std::string str = "";
  19:Includes/findwayBases.hpp ****         str += "{";
  20:Includes/findwayBases.hpp ****         str += std::to_string(x);
  21:Includes/findwayBases.hpp ****         str += ":";
  22:Includes/findwayBases.hpp ****         str += std::to_string(y);
  23:Includes/findwayBases.hpp ****         str += "}";
  24:Includes/findwayBases.hpp ****         return str;
  25:Includes/findwayBases.hpp ****     }
  26:Includes/findwayBases.hpp **** 
  27:Includes/findwayBases.hpp ****     bool eq(struct coords *c)
  28:Includes/findwayBases.hpp ****     {
  29:Includes/findwayBases.hpp ****         return (x == c->x && y == c->y);
  30:Includes/findwayBases.hpp ****     }
  31:Includes/findwayBases.hpp **** 
  32:Includes/findwayBases.hpp ****     bool eq(COORDS_DATATYPE _x, COORDS_DATATYPE _y)
 755              		.loc 5 32 10 view .LVU236
 756              	.LBB37:
GAS LISTING /tmp/ccDAqEnA.s 			page 40


  33:Includes/findwayBases.hpp ****     {
  34:Includes/findwayBases.hpp ****         return (x == _x && y == _y);
 757              		.loc 5 34 9 view .LVU237
 758              		.loc 5 34 17 is_stmt 0 view .LVU238
 759 04f8 F30F1044 		movss	24(%rsp), %xmm0
 759      2418
 760              		.loc 5 34 25 view .LVU239
 761 04fe 0F2E0500 		ucomiss	.LC0(%rip), %xmm0
 761      000000
 762 0505 7A4C     		jp	.L85
 763 0507 754A     		jne	.L85
 764              		.loc 5 34 28 view .LVU240
 765 0509 F30F1044 		movss	28(%rsp), %xmm0
 765      241C
 766              		.loc 5 34 25 view .LVU241
 767 050f 0F2E0500 		ucomiss	.LC0(%rip), %xmm0
 767      000000
 768 0516 7A3B     		jp	.L85
 769 0518 7539     		jne	.L85
 770              	.LVL61:
 771              	.L87:
 772              		.loc 5 34 25 view .LVU242
 773              	.LBE37:
 774              	.LBE36:
  87:Src/findwayBases.cpp ****             l1 = l2;
 775              		.loc 1 87 13 is_stmt 1 view .LVU243
  87:Src/findwayBases.cpp ****             l1 = l2;
 776              		.loc 1 87 20 is_stmt 0 view .LVU244
 777 051a 488B4424 		movq	32(%rsp), %rax
 777      20
 778 051f 48894424 		movq	%rax, 24(%rsp)
 778      18
  88:Src/findwayBases.cpp ****             l2 = 0;
 779              		.loc 1 88 13 is_stmt 1 view .LVU245
 780              	.LVL62:
  89:Src/findwayBases.cpp ****             inter2 = {0, 0};
 781              		.loc 1 89 13 view .LVU246
  90:Src/findwayBases.cpp ****         }
 782              		.loc 1 90 13 view .LVU247
  90:Src/findwayBases.cpp ****         }
 783              		.loc 1 90 20 is_stmt 0 view .LVU248
 784 0524 C7442420 		movl	$0x00000000, 32(%rsp)
 784      00000000 
 785 052c C7442424 		movl	$0x00000000, 36(%rsp)
 785      00000000 
  88:Src/findwayBases.cpp ****             l2 = 0;
 786              		.loc 1 88 16 view .LVU249
 787 0534 448B6424 		movl	12(%rsp), %r12d
 787      0C
 788 0539 E982FEFF 		jmp	.L86
 788      FF
 789              	.LVL63:
 790              	.L81:
  82:Src/findwayBases.cpp ****             l2 = 0;
 791              		.loc 1 82 13 is_stmt 1 view .LVU250
  82:Src/findwayBases.cpp ****             l2 = 0;
 792              		.loc 1 82 20 is_stmt 0 view .LVU251
GAS LISTING /tmp/ccDAqEnA.s 			page 41


 793 053e C7442420 		movl	$0x00000000, 32(%rsp)
 793      00000000 
 794 0546 C7442424 		movl	$0x00000000, 36(%rsp)
 794      00000000 
  83:Src/findwayBases.cpp ****         }
 795              		.loc 1 83 13 is_stmt 1 view .LVU252
 796              	.LVL64:
  83:Src/findwayBases.cpp ****         }
 797              		.loc 1 83 13 is_stmt 0 view .LVU253
 798 054e E96DFEFF 		jmp	.L86
 798      FF
 799              	.LVL65:
 800              	.L85:
  85:Src/findwayBases.cpp ****         {
 801              		.loc 1 85 33 view .LVU254
 802 0553 66410F6E 		movd	%r12d, %xmm2
 802      D4
 803 0558 0F2F5424 		comiss	12(%rsp), %xmm2
 803      0C
 804 055d 77BB     		ja	.L87
 805              	.LVL66:
  94:Src/findwayBases.cpp ****             inter2 = {0, 0};
 806              		.loc 1 94 13 is_stmt 1 view .LVU255
  95:Src/findwayBases.cpp ****         }
 807              		.loc 1 95 13 view .LVU256
  95:Src/findwayBases.cpp ****         }
 808              		.loc 1 95 20 is_stmt 0 view .LVU257
 809 055f C7442420 		movl	$0x00000000, 32(%rsp)
 809      00000000 
 810 0567 C7442424 		movl	$0x00000000, 36(%rsp)
 810      00000000 
 811 056f E94CFEFF 		jmp	.L86
 811      FF
 812              	.LVL67:
 813              	.L113:
 192:Src/findwayBases.cpp ****         if(!(isCoDirectional(v, &inter2) && l2 <= lv))
 814              		.loc 1 192 9 is_stmt 1 view .LVU258
 192:Src/findwayBases.cpp ****         if(!(isCoDirectional(v, &inter2) && l2 <= lv))
 815              		.loc 1 192 24 is_stmt 0 view .LVU259
 816 0574 488B7D00 		movq	0(%rbp), %rdi
 192:Src/findwayBases.cpp ****         if(!(isCoDirectional(v, &inter2) && l2 <= lv))
 817              		.loc 1 192 20 view .LVU260
 818 0578 4C8D6C24 		leaq	32(%rsp), %r13
 818      20
 819 057d 4C89EE   		movq	%r13, %rsi
 820 0580 E8000000 		call	_Z6getLenPK6coordsS1_
 820      00
 821              	.LVL68:
 822 0585 F30F1144 		movss	%xmm0, 12(%rsp)
 822      240C
 823              	.LVL69:
 193:Src/findwayBases.cpp ****         {
 824              		.loc 1 193 9 is_stmt 1 view .LVU261
 193:Src/findwayBases.cpp ****         {
 825              		.loc 1 193 29 is_stmt 0 view .LVU262
 826 058b 4C89EE   		movq	%r13, %rsi
 827 058e 4889EF   		movq	%rbp, %rdi
GAS LISTING /tmp/ccDAqEnA.s 			page 42


 828 0591 E8000000 		call	_Z15isCoDirectionalPK4vectPK6coords
 828      00
 829              	.LVL70:
 193:Src/findwayBases.cpp ****         {
 830              		.loc 1 193 12 view .LVU263
 831 0596 84C0     		testb	%al, %al
 832 0598 7453     		je	.L90
 193:Src/findwayBases.cpp ****         {
 833              		.loc 1 193 12 discriminator 2 view .LVU264
 834 059a F30F107C 		movss	8(%rsp), %xmm7
 834      2408
 835 05a0 0F2F7C24 		comiss	12(%rsp), %xmm7
 835      0C
 836 05a5 7246     		jb	.L90
 198:Src/findwayBases.cpp ****         {
 837              		.loc 1 198 14 is_stmt 1 view .LVU265
 838              	.LVL71:
 839              	.LBB38:
 840              	.LBI38:
  32:Includes/findwayBases.hpp ****     {
 841              		.loc 5 32 10 view .LVU266
 842              	.LBB39:
 843              		.loc 5 34 9 view .LVU267
 844              		.loc 5 34 17 is_stmt 0 view .LVU268
 845 05a7 F30F1044 		movss	24(%rsp), %xmm0
 845      2418
 846              		.loc 5 34 25 view .LVU269
 847 05ad 0F2E0500 		ucomiss	.LC0(%rip), %xmm0
 847      000000
 848 05b4 7A4C     		jp	.L94
 849 05b6 754A     		jne	.L94
 850              		.loc 5 34 28 view .LVU270
 851 05b8 F30F1044 		movss	28(%rsp), %xmm0
 851      241C
 852              		.loc 5 34 25 view .LVU271
 853 05be 0F2E0500 		ucomiss	.LC0(%rip), %xmm0
 853      000000
 854 05c5 7A3B     		jp	.L94
 855 05c7 7539     		jne	.L94
 856              	.LVL72:
 857              	.L96:
 858              		.loc 5 34 25 view .LVU272
 859              	.LBE39:
 860              	.LBE38:
 200:Src/findwayBases.cpp ****             l1 = l2;
 861              		.loc 1 200 13 is_stmt 1 view .LVU273
 200:Src/findwayBases.cpp ****             l1 = l2;
 862              		.loc 1 200 20 is_stmt 0 view .LVU274
 863 05c9 488B4424 		movq	32(%rsp), %rax
 863      20
 864 05ce 48894424 		movq	%rax, 24(%rsp)
 864      18
 201:Src/findwayBases.cpp ****             l2 = 0;
 865              		.loc 1 201 13 is_stmt 1 view .LVU275
 866              	.LVL73:
 202:Src/findwayBases.cpp ****             inter2 = {0, 0};
 867              		.loc 1 202 13 view .LVU276
GAS LISTING /tmp/ccDAqEnA.s 			page 43


 203:Src/findwayBases.cpp ****         }
 868              		.loc 1 203 13 view .LVU277
 203:Src/findwayBases.cpp ****         }
 869              		.loc 1 203 20 is_stmt 0 view .LVU278
 870 05d3 C7442420 		movl	$0x00000000, 32(%rsp)
 870      00000000 
 871 05db C7442424 		movl	$0x00000000, 36(%rsp)
 871      00000000 
 201:Src/findwayBases.cpp ****             l2 = 0;
 872              		.loc 1 201 16 view .LVU279
 873 05e3 448B6424 		movl	12(%rsp), %r12d
 873      0C
 874 05e8 E923FEFF 		jmp	.L95
 874      FF
 875              	.LVL74:
 876              	.L90:
 195:Src/findwayBases.cpp ****             l2 = 0;
 877              		.loc 1 195 13 is_stmt 1 view .LVU280
 195:Src/findwayBases.cpp ****             l2 = 0;
 878              		.loc 1 195 20 is_stmt 0 view .LVU281
 879 05ed C7442420 		movl	$0x00000000, 32(%rsp)
 879      00000000 
 880 05f5 C7442424 		movl	$0x00000000, 36(%rsp)
 880      00000000 
 196:Src/findwayBases.cpp ****         }
 881              		.loc 1 196 13 is_stmt 1 view .LVU282
 882              	.LVL75:
 196:Src/findwayBases.cpp ****         }
 883              		.loc 1 196 13 is_stmt 0 view .LVU283
 884 05fd E90EFEFF 		jmp	.L95
 884      FF
 885              	.LVL76:
 886              	.L94:
 198:Src/findwayBases.cpp ****         {
 887              		.loc 1 198 33 view .LVU284
 888 0602 66410F6E 		movd	%r12d, %xmm4
 888      E4
 889 0607 0F2F6424 		comiss	12(%rsp), %xmm4
 889      0C
 890 060c 77BB     		ja	.L96
 891              	.LVL77:
 207:Src/findwayBases.cpp ****             inter2 = {0, 0};
 892              		.loc 1 207 13 is_stmt 1 view .LVU285
 208:Src/findwayBases.cpp ****         }
 893              		.loc 1 208 13 view .LVU286
 208:Src/findwayBases.cpp ****         }
 894              		.loc 1 208 20 is_stmt 0 view .LVU287
 895 060e C7442420 		movl	$0x00000000, 32(%rsp)
 895      00000000 
 896 0616 C7442424 		movl	$0x00000000, 36(%rsp)
 896      00000000 
 897 061e E9EDFDFF 		jmp	.L95
 897      FF
 898              	.LVL78:
 899              	.L114:
 223:Src/findwayBases.cpp ****         if(!(isCoDirectional(v, &inter2) && l2 <= lv))
 900              		.loc 1 223 9 is_stmt 1 view .LVU288
GAS LISTING /tmp/ccDAqEnA.s 			page 44


 223:Src/findwayBases.cpp ****         if(!(isCoDirectional(v, &inter2) && l2 <= lv))
 901              		.loc 1 223 24 is_stmt 0 view .LVU289
 902 0623 488B7D00 		movq	0(%rbp), %rdi
 223:Src/findwayBases.cpp ****         if(!(isCoDirectional(v, &inter2) && l2 <= lv))
 903              		.loc 1 223 20 view .LVU290
 904 0627 488D5C24 		leaq	32(%rsp), %rbx
 904      20
 905              	.LVL79:
 223:Src/findwayBases.cpp ****         if(!(isCoDirectional(v, &inter2) && l2 <= lv))
 906              		.loc 1 223 20 view .LVU291
 907 062c 4889DE   		movq	%rbx, %rsi
 908 062f E8000000 		call	_Z6getLenPK6coordsS1_
 908      00
 909              	.LVL80:
 910 0634 F30F1144 		movss	%xmm0, 12(%rsp)
 910      240C
 911              	.LVL81:
 224:Src/findwayBases.cpp ****         {
 912              		.loc 1 224 9 is_stmt 1 view .LVU292
 224:Src/findwayBases.cpp ****         {
 913              		.loc 1 224 29 is_stmt 0 view .LVU293
 914 063a 4889DE   		movq	%rbx, %rsi
 915 063d 4889EF   		movq	%rbp, %rdi
 916 0640 E8000000 		call	_Z15isCoDirectionalPK4vectPK6coords
 916      00
 917              	.LVL82:
 224:Src/findwayBases.cpp ****         {
 918              		.loc 1 224 12 view .LVU294
 919 0645 84C0     		testb	%al, %al
 920 0647 0F84FEFD 		je	.L98
 920      FFFF
 224:Src/findwayBases.cpp ****         {
 921              		.loc 1 224 12 discriminator 2 view .LVU295
 922 064d F30F104C 		movss	8(%rsp), %xmm1
 922      2408
 923 0653 0F2F4C24 		comiss	12(%rsp), %xmm1
 923      0C
 924 0658 0F82EDFD 		jb	.L98
 924      FFFF
 229:Src/findwayBases.cpp ****         {
 925              		.loc 1 229 14 is_stmt 1 view .LVU296
 926              	.LVL83:
 927              	.LBB40:
 928              	.LBI40:
  32:Includes/findwayBases.hpp ****     {
 929              		.loc 5 32 10 view .LVU297
 930              	.LBB41:
 931              		.loc 5 34 9 view .LVU298
 932              		.loc 5 34 17 is_stmt 0 view .LVU299
 933 065e F30F1044 		movss	24(%rsp), %xmm0
 933      2418
 934              		.loc 5 34 25 view .LVU300
 935 0664 0F2E0500 		ucomiss	.LC0(%rip), %xmm0
 935      000000
 936 066b 7A13     		jp	.L100
 937 066d 7511     		jne	.L100
 938              		.loc 5 34 28 view .LVU301
GAS LISTING /tmp/ccDAqEnA.s 			page 45


 939 066f F30F1044 		movss	28(%rsp), %xmm0
 939      241C
 940              		.loc 5 34 25 view .LVU302
 941 0675 0F2E0500 		ucomiss	.LC0(%rip), %xmm0
 941      000000
 942 067c 7A02     		jp	.L100
 943 067e 7410     		je	.L102
 944              	.L100:
 945              	.LVL84:
 946              		.loc 5 34 25 view .LVU303
 947              	.LBE41:
 948              	.LBE40:
 229:Src/findwayBases.cpp ****         {
 949              		.loc 1 229 33 view .LVU304
 950 0680 66410F6E 		movd	%r12d, %xmm6
 950      F4
 951 0685 0F2F7424 		comiss	12(%rsp), %xmm6
 951      0C
 952 068a 0F86BBFD 		jbe	.L98
 952      FFFF
 953              	.L102:
 231:Src/findwayBases.cpp ****             l1 = l2;
 954              		.loc 1 231 13 is_stmt 1 view .LVU305
 231:Src/findwayBases.cpp ****             l1 = l2;
 955              		.loc 1 231 20 is_stmt 0 view .LVU306
 956 0690 488B4424 		movq	32(%rsp), %rax
 956      20
 957 0695 48894424 		movq	%rax, 24(%rsp)
 957      18
 232:Src/findwayBases.cpp ****             l2 = 0;
 958              		.loc 1 232 13 is_stmt 1 view .LVU307
 959              	.LVL85:
 233:Src/findwayBases.cpp ****             inter2 = {0, 0};
 960              		.loc 1 233 13 view .LVU308
 234:Src/findwayBases.cpp ****         }
 961              		.loc 1 234 13 view .LVU309
 962 069a E9ACFDFF 		jmp	.L98
 962      FF
 963              	.LVL86:
 964              	.L115:
 324:Src/findwayBases.cpp **** 
 965              		.loc 1 324 1 is_stmt 0 view .LVU310
 966 069f E8000000 		call	__stack_chk_fail@PLT
 966      00
 967              	.LVL87:
 968              		.cfi_endproc
 969              	.LFE1727:
 971              		.globl	_Z12createCoordsff
 973              	_Z12createCoordsff:
 974              	.LVL88:
 975              	.LFB1735:
 367:Src/findwayBases.cpp ****     struct coords ret;
 976              		.loc 1 367 1 is_stmt 1 view -0
 977              		.cfi_startproc
 368:Src/findwayBases.cpp ****     ret.x = x;
 978              		.loc 1 368 5 view .LVU312
 369:Src/findwayBases.cpp ****     ret.y = y;
GAS LISTING /tmp/ccDAqEnA.s 			page 46


 979              		.loc 1 369 5 view .LVU313
 370:Src/findwayBases.cpp ****     return ret;
 980              		.loc 1 370 5 view .LVU314
 370:Src/findwayBases.cpp ****     return ret;
 981              		.loc 1 370 11 is_stmt 0 view .LVU315
 982 06a4 660F7EC8 		movd	%xmm1, %eax
 983 06a8 4889C2   		movq	%rax, %rdx
 984 06ab 48C1E220 		salq	$32, %rdx
 985 06af 660F7EC0 		movd	%xmm0, %eax
 986              	.LVL89:
 370:Src/findwayBases.cpp ****     return ret;
 987              		.loc 1 370 11 view .LVU316
 988 06b3 4809D0   		orq	%rdx, %rax
 989              	.LVL90:
 371:Src/findwayBases.cpp **** }
 990              		.loc 1 371 5 is_stmt 1 view .LVU317
 372:Src/findwayBases.cpp **** 
 991              		.loc 1 372 1 is_stmt 0 view .LVU318
 992 06b6 66480F6E 		movq	%rax, %xmm0
 992      C0
 993              	.LVL91:
 372:Src/findwayBases.cpp **** 
 994              		.loc 1 372 1 view .LVU319
 995 06bb C3       		ret
 996              		.cfi_endproc
 997              	.LFE1735:
 999              		.globl	_Z17getCoordsOfCornerPK8obstacleh
 1001              	_Z17getCoordsOfCornerPK8obstacleh:
 1002              	.LVL92:
 1003              	.LFB1740:
 394:Src/findwayBases.cpp ****     struct coords *ret = (struct coords*)malloc(sizeof(struct coords));
 1004              		.loc 1 394 1 is_stmt 1 view -0
 1005              		.cfi_startproc
 394:Src/findwayBases.cpp ****     struct coords *ret = (struct coords*)malloc(sizeof(struct coords));
 1006              		.loc 1 394 1 is_stmt 0 view .LVU321
 1007 06bc 55       		pushq	%rbp
 1008              		.cfi_def_cfa_offset 16
 1009              		.cfi_offset 6, -16
 1010 06bd 53       		pushq	%rbx
 1011              		.cfi_def_cfa_offset 24
 1012              		.cfi_offset 3, -24
 1013 06be 4883EC08 		subq	$8, %rsp
 1014              		.cfi_def_cfa_offset 32
 1015 06c2 4889FD   		movq	%rdi, %rbp
 1016 06c5 89F3     		movl	%esi, %ebx
 395:Src/findwayBases.cpp ****     switch (corner) {
 1017              		.loc 1 395 5 is_stmt 1 view .LVU322
 395:Src/findwayBases.cpp ****     switch (corner) {
 1018              		.loc 1 395 48 is_stmt 0 view .LVU323
 1019 06c7 BF080000 		movl	$8, %edi
 1019      00
 1020              	.LVL93:
 395:Src/findwayBases.cpp ****     switch (corner) {
 1021              		.loc 1 395 48 view .LVU324
 1022 06cc E8000000 		call	malloc@PLT
 1022      00
 1023              	.LVL94:
GAS LISTING /tmp/ccDAqEnA.s 			page 47


 396:Src/findwayBases.cpp ****         case CORNER_LEFT_BOT:
 1024              		.loc 1 396 5 is_stmt 1 view .LVU325
 1025 06d1 80FB02   		cmpb	$2, %bl
 1026 06d4 0F84CF00 		je	.L118
 1026      0000
 1027 06da 774E     		ja	.L119
 1028 06dc 84DB     		testb	%bl, %bl
 1029 06de 0F848800 		je	.L120
 1029      0000
 1030 06e4 80FB01   		cmpb	$1, %bl
 1031 06e7 0F85B500 		jne	.L117
 1031      0000
 403:Src/findwayBases.cpp ****         {
 1032              		.loc 1 403 9 view .LVU326
 404:Src/findwayBases.cpp ****             ret->x = obst->c->x - CONST;
 1033              		.loc 1 404 9 view .LVU327
 405:Src/findwayBases.cpp ****             ret->y = obst->c->y + obst->a + CONST;
 1034              		.loc 1 405 13 view .LVU328
 405:Src/findwayBases.cpp ****             ret->y = obst->c->y + obst->a + CONST;
 1035              		.loc 1 405 28 is_stmt 0 view .LVU329
 1036 06ed 488B5500 		movq	0(%rbp), %rdx
 405:Src/findwayBases.cpp ****             ret->y = obst->c->y + obst->a + CONST;
 1037              		.loc 1 405 31 view .LVU330
 1038 06f1 660FEFC9 		pxor	%xmm1, %xmm1
 1039 06f5 F30F5A0A 		cvtss2sd	(%rdx), %xmm1
 405:Src/findwayBases.cpp ****             ret->y = obst->c->y + obst->a + CONST;
 1040              		.loc 1 405 33 view .LVU331
 1041 06f9 F20F1015 		movsd	.LC5(%rip), %xmm2
 1041      00000000 
 1042 0701 F20F5CCA 		subsd	%xmm2, %xmm1
 1043 0705 F20F5AC9 		cvtsd2ss	%xmm1, %xmm1
 405:Src/findwayBases.cpp ****             ret->y = obst->c->y + obst->a + CONST;
 1044              		.loc 1 405 20 view .LVU332
 1045 0709 F30F1108 		movss	%xmm1, (%rax)
 406:Src/findwayBases.cpp ****             break;
 1046              		.loc 1 406 13 is_stmt 1 view .LVU333
 406:Src/findwayBases.cpp ****             break;
 1047              		.loc 1 406 41 is_stmt 0 view .LVU334
 1048 070d F30F1045 		movss	40(%rbp), %xmm0
 1048      28
 406:Src/findwayBases.cpp ****             break;
 1049              		.loc 1 406 33 view .LVU335
 1050 0712 F30F5842 		addss	4(%rdx), %xmm0
 1050      04
 1051 0717 F30F5AC0 		cvtss2sd	%xmm0, %xmm0
 406:Src/findwayBases.cpp ****             break;
 1052              		.loc 1 406 43 view .LVU336
 1053 071b F20F58C2 		addsd	%xmm2, %xmm0
 1054 071f F20F5AC0 		cvtsd2ss	%xmm0, %xmm0
 406:Src/findwayBases.cpp ****             break;
 1055              		.loc 1 406 20 view .LVU337
 1056 0723 F30F1140 		movss	%xmm0, 4(%rax)
 1056      04
 407:Src/findwayBases.cpp ****         }
 1057              		.loc 1 407 13 is_stmt 1 view .LVU338
 1058 0728 EB78     		jmp	.L117
 1059              	.L119:
GAS LISTING /tmp/ccDAqEnA.s 			page 48


 396:Src/findwayBases.cpp ****         case CORNER_LEFT_BOT:
 1060              		.loc 1 396 5 is_stmt 0 view .LVU339
 1061 072a 80FB03   		cmpb	$3, %bl
 1062 072d 7573     		jne	.L117
 409:Src/findwayBases.cpp ****         {
 1063              		.loc 1 409 9 is_stmt 1 view .LVU340
 410:Src/findwayBases.cpp ****             ret->x = obst->c->x + obst->a + CONST;
 1064              		.loc 1 410 9 view .LVU341
 411:Src/findwayBases.cpp ****             ret->y = obst->c->y - CONST;
 1065              		.loc 1 411 13 view .LVU342
 411:Src/findwayBases.cpp ****             ret->y = obst->c->y - CONST;
 1066              		.loc 1 411 28 is_stmt 0 view .LVU343
 1067 072f 488B5500 		movq	0(%rbp), %rdx
 411:Src/findwayBases.cpp ****             ret->y = obst->c->y - CONST;
 1068              		.loc 1 411 41 view .LVU344
 1069 0733 F30F1045 		movss	40(%rbp), %xmm0
 1069      28
 411:Src/findwayBases.cpp ****             ret->y = obst->c->y - CONST;
 1070              		.loc 1 411 33 view .LVU345
 1071 0738 F30F5802 		addss	(%rdx), %xmm0
 1072 073c F30F5AC0 		cvtss2sd	%xmm0, %xmm0
 411:Src/findwayBases.cpp ****             ret->y = obst->c->y - CONST;
 1073              		.loc 1 411 43 view .LVU346
 1074 0740 F20F100D 		movsd	.LC5(%rip), %xmm1
 1074      00000000 
 1075 0748 F20F58C1 		addsd	%xmm1, %xmm0
 1076 074c F20F5AC0 		cvtsd2ss	%xmm0, %xmm0
 411:Src/findwayBases.cpp ****             ret->y = obst->c->y - CONST;
 1077              		.loc 1 411 20 view .LVU347
 1078 0750 F30F1100 		movss	%xmm0, (%rax)
 412:Src/findwayBases.cpp ****             break;
 1079              		.loc 1 412 13 is_stmt 1 view .LVU348
 412:Src/findwayBases.cpp ****             break;
 1080              		.loc 1 412 31 is_stmt 0 view .LVU349
 1081 0754 660FEFC0 		pxor	%xmm0, %xmm0
 1082 0758 F30F5A42 		cvtss2sd	4(%rdx), %xmm0
 1082      04
 412:Src/findwayBases.cpp ****             break;
 1083              		.loc 1 412 33 view .LVU350
 1084 075d F20F5CC1 		subsd	%xmm1, %xmm0
 1085 0761 F20F5AC0 		cvtsd2ss	%xmm0, %xmm0
 412:Src/findwayBases.cpp ****             break;
 1086              		.loc 1 412 20 view .LVU351
 1087 0765 F30F1140 		movss	%xmm0, 4(%rax)
 1087      04
 413:Src/findwayBases.cpp ****         }
 1088              		.loc 1 413 13 is_stmt 1 view .LVU352
 1089 076a EB36     		jmp	.L117
 1090              	.L120:
 397:Src/findwayBases.cpp ****         {
 1091              		.loc 1 397 9 view .LVU353
 398:Src/findwayBases.cpp ****             ret->x = obst->c->x - CONST;
 1092              		.loc 1 398 9 view .LVU354
 399:Src/findwayBases.cpp ****             ret->y = obst->c->y - CONST;
 1093              		.loc 1 399 13 view .LVU355
 399:Src/findwayBases.cpp ****             ret->y = obst->c->y - CONST;
 1094              		.loc 1 399 28 is_stmt 0 view .LVU356
GAS LISTING /tmp/ccDAqEnA.s 			page 49


 1095 076c 488B5500 		movq	0(%rbp), %rdx
 399:Src/findwayBases.cpp ****             ret->y = obst->c->y - CONST;
 1096              		.loc 1 399 31 view .LVU357
 1097 0770 660FEFC0 		pxor	%xmm0, %xmm0
 1098 0774 F30F5A02 		cvtss2sd	(%rdx), %xmm0
 399:Src/findwayBases.cpp ****             ret->y = obst->c->y - CONST;
 1099              		.loc 1 399 33 view .LVU358
 1100 0778 F20F100D 		movsd	.LC5(%rip), %xmm1
 1100      00000000 
 1101 0780 F20F5CC1 		subsd	%xmm1, %xmm0
 1102 0784 F20F5AC0 		cvtsd2ss	%xmm0, %xmm0
 399:Src/findwayBases.cpp ****             ret->y = obst->c->y - CONST;
 1103              		.loc 1 399 20 view .LVU359
 1104 0788 F30F1100 		movss	%xmm0, (%rax)
 400:Src/findwayBases.cpp ****             break;
 1105              		.loc 1 400 13 is_stmt 1 view .LVU360
 400:Src/findwayBases.cpp ****             break;
 1106              		.loc 1 400 31 is_stmt 0 view .LVU361
 1107 078c 660FEFC0 		pxor	%xmm0, %xmm0
 1108 0790 F30F5A42 		cvtss2sd	4(%rdx), %xmm0
 1108      04
 400:Src/findwayBases.cpp ****             break;
 1109              		.loc 1 400 33 view .LVU362
 1110 0795 F20F5CC1 		subsd	%xmm1, %xmm0
 1111 0799 F20F5AC0 		cvtsd2ss	%xmm0, %xmm0
 400:Src/findwayBases.cpp ****             break;
 1112              		.loc 1 400 20 view .LVU363
 1113 079d F30F1140 		movss	%xmm0, 4(%rax)
 1113      04
 401:Src/findwayBases.cpp ****         }
 1114              		.loc 1 401 13 is_stmt 1 view .LVU364
 1115              	.L117:
 423:Src/findwayBases.cpp **** 
 1116              		.loc 1 423 1 is_stmt 0 view .LVU365
 1117 07a2 4883C408 		addq	$8, %rsp
 1118              		.cfi_remember_state
 1119              		.cfi_def_cfa_offset 24
 1120 07a6 5B       		popq	%rbx
 1121              		.cfi_def_cfa_offset 16
 1122 07a7 5D       		popq	%rbp
 1123              		.cfi_def_cfa_offset 8
 1124              	.LVL95:
 423:Src/findwayBases.cpp **** 
 1125              		.loc 1 423 1 view .LVU366
 1126 07a8 C3       		ret
 1127              	.LVL96:
 1128              	.L118:
 1129              		.cfi_restore_state
 415:Src/findwayBases.cpp ****         {
 1130              		.loc 1 415 9 is_stmt 1 view .LVU367
 416:Src/findwayBases.cpp ****             ret->x = obst->c->x + obst->a + CONST;
 1131              		.loc 1 416 9 view .LVU368
 417:Src/findwayBases.cpp ****             ret->y = obst->c->y + obst->a + CONST;
 1132              		.loc 1 417 13 view .LVU369
 417:Src/findwayBases.cpp ****             ret->y = obst->c->y + obst->a + CONST;
 1133              		.loc 1 417 28 is_stmt 0 view .LVU370
 1134 07a9 488B5500 		movq	0(%rbp), %rdx
GAS LISTING /tmp/ccDAqEnA.s 			page 50


 417:Src/findwayBases.cpp ****             ret->y = obst->c->y + obst->a + CONST;
 1135              		.loc 1 417 41 view .LVU371
 1136 07ad F30F1045 		movss	40(%rbp), %xmm0
 1136      28
 417:Src/findwayBases.cpp ****             ret->y = obst->c->y + obst->a + CONST;
 1137              		.loc 1 417 33 view .LVU372
 1138 07b2 0F28C8   		movaps	%xmm0, %xmm1
 1139 07b5 F30F580A 		addss	(%rdx), %xmm1
 1140 07b9 F30F5AC9 		cvtss2sd	%xmm1, %xmm1
 417:Src/findwayBases.cpp ****             ret->y = obst->c->y + obst->a + CONST;
 1141              		.loc 1 417 43 view .LVU373
 1142 07bd F20F1015 		movsd	.LC5(%rip), %xmm2
 1142      00000000 
 1143 07c5 F20F58CA 		addsd	%xmm2, %xmm1
 1144 07c9 F20F5AC9 		cvtsd2ss	%xmm1, %xmm1
 417:Src/findwayBases.cpp ****             ret->y = obst->c->y + obst->a + CONST;
 1145              		.loc 1 417 20 view .LVU374
 1146 07cd F30F1108 		movss	%xmm1, (%rax)
 418:Src/findwayBases.cpp ****             break;
 1147              		.loc 1 418 13 is_stmt 1 view .LVU375
 418:Src/findwayBases.cpp ****             break;
 1148              		.loc 1 418 33 is_stmt 0 view .LVU376
 1149 07d1 F30F5842 		addss	4(%rdx), %xmm0
 1149      04
 1150 07d6 F30F5AC0 		cvtss2sd	%xmm0, %xmm0
 418:Src/findwayBases.cpp ****             break;
 1151              		.loc 1 418 43 view .LVU377
 1152 07da F20F58C2 		addsd	%xmm2, %xmm0
 1153 07de F20F5AC0 		cvtsd2ss	%xmm0, %xmm0
 418:Src/findwayBases.cpp ****             break;
 1154              		.loc 1 418 20 view .LVU378
 1155 07e2 F30F1140 		movss	%xmm0, 4(%rax)
 1155      04
 419:Src/findwayBases.cpp ****         }
 1156              		.loc 1 419 13 is_stmt 1 view .LVU379
 422:Src/findwayBases.cpp **** }
 1157              		.loc 1 422 5 view .LVU380
 422:Src/findwayBases.cpp **** }
 1158              		.loc 1 422 12 is_stmt 0 view .LVU381
 1159 07e7 EBB9     		jmp	.L117
 1160              		.cfi_endproc
 1161              	.LFE1740:
 1163              		.globl	_Z14createObstaclefff
 1165              	_Z14createObstaclefff:
 1166              	.LVL97:
 1167              	.LFB1736:
 375:Src/findwayBases.cpp ****     struct obstacle ret;
 1168              		.loc 1 375 1 is_stmt 1 view -0
 1169              		.cfi_startproc
 375:Src/findwayBases.cpp ****     struct obstacle ret;
 1170              		.loc 1 375 1 is_stmt 0 view .LVU383
 1171 07e9 4155     		pushq	%r13
 1172              		.cfi_def_cfa_offset 16
 1173              		.cfi_offset 13, -16
 1174 07eb 4154     		pushq	%r12
 1175              		.cfi_def_cfa_offset 24
 1176              		.cfi_offset 12, -24
GAS LISTING /tmp/ccDAqEnA.s 			page 51


 1177 07ed 55       		pushq	%rbp
 1178              		.cfi_def_cfa_offset 32
 1179              		.cfi_offset 6, -32
 1180 07ee 53       		pushq	%rbx
 1181              		.cfi_def_cfa_offset 40
 1182              		.cfi_offset 3, -40
 1183 07ef 4883EC08 		subq	$8, %rsp
 1184              		.cfi_def_cfa_offset 48
 1185 07f3 4889FB   		movq	%rdi, %rbx
 1186 07f6 66410F7E 		movd	%xmm0, %r13d
 1186      C5
 1187 07fb 66410F7E 		movd	%xmm1, %r12d
 1187      CC
 1188 0800 660F7ED5 		movd	%xmm2, %ebp
 376:Src/findwayBases.cpp ****     ret.c = (struct coords*)malloc(sizeof(struct coords));
 1189              		.loc 1 376 5 is_stmt 1 view .LVU384
 376:Src/findwayBases.cpp ****     ret.c = (struct coords*)malloc(sizeof(struct coords));
 1190              		.loc 1 376 21 is_stmt 0 view .LVU385
 1191 0804 48C74708 		movq	$0, 8(%rdi)
 1191      00000000 
 1192 080c 48C74710 		movq	$0, 16(%rdi)
 1192      00000000 
 1193 0814 48C74718 		movq	$0, 24(%rdi)
 1193      00000000 
 1194 081c 48C74720 		movq	$0, 32(%rdi)
 1194      00000000 
 377:Src/findwayBases.cpp ****     ret.c->x = x;
 1195              		.loc 1 377 5 is_stmt 1 view .LVU386
 377:Src/findwayBases.cpp ****     ret.c->x = x;
 1196              		.loc 1 377 35 is_stmt 0 view .LVU387
 1197 0824 BF080000 		movl	$8, %edi
 1197      00
 1198              	.LVL98:
 377:Src/findwayBases.cpp ****     ret.c->x = x;
 1199              		.loc 1 377 35 view .LVU388
 1200 0829 E8000000 		call	malloc@PLT
 1200      00
 1201              	.LVL99:
 377:Src/findwayBases.cpp ****     ret.c->x = x;
 1202              		.loc 1 377 11 view .LVU389
 1203 082e 488903   		movq	%rax, (%rbx)
 378:Src/findwayBases.cpp ****     ret.c->y = y;
 1204              		.loc 1 378 5 is_stmt 1 view .LVU390
 378:Src/findwayBases.cpp ****     ret.c->y = y;
 1205              		.loc 1 378 14 is_stmt 0 view .LVU391
 1206 0831 448928   		movl	%r13d, (%rax)
 379:Src/findwayBases.cpp ****     ret.a    = a;
 1207              		.loc 1 379 5 is_stmt 1 view .LVU392
 379:Src/findwayBases.cpp ****     ret.a    = a;
 1208              		.loc 1 379 14 is_stmt 0 view .LVU393
 1209 0834 44896004 		movl	%r12d, 4(%rax)
 380:Src/findwayBases.cpp ****     for(uint8_t i = 0; i < 4; i++)
 1210              		.loc 1 380 5 is_stmt 1 view .LVU394
 380:Src/findwayBases.cpp ****     for(uint8_t i = 0; i < 4; i++)
 1211              		.loc 1 380 14 is_stmt 0 view .LVU395
 1212 0838 896B28   		movl	%ebp, 40(%rbx)
 381:Src/findwayBases.cpp ****     {
GAS LISTING /tmp/ccDAqEnA.s 			page 52


 1213              		.loc 1 381 5 is_stmt 1 view .LVU396
 1214              	.LVL100:
 1215              	.LBB42:
 381:Src/findwayBases.cpp ****     {
 1216              		.loc 1 381 17 is_stmt 0 view .LVU397
 1217 083b BD000000 		movl	$0, %ebp
 1217      00
 1218              	.LVL101:
 381:Src/findwayBases.cpp ****     {
 1219              		.loc 1 381 17 view .LVU398
 1220 0840 EB33     		jmp	.L127
 1221              	.LVL102:
 1222              	.L129:
 383:Src/findwayBases.cpp ****         ret.corners[i]->c = *getCoordsOfCorner(&ret, i);
 1223              		.loc 1 383 9 is_stmt 1 discriminator 2 view .LVU399
 383:Src/findwayBases.cpp ****         ret.corners[i]->c = *getCoordsOfCorner(&ret, i);
 1224              		.loc 1 383 21 is_stmt 0 discriminator 2 view .LVU400
 1225 0842 440FB6ED 		movzbl	%bpl, %r13d
 383:Src/findwayBases.cpp ****         ret.corners[i]->c = *getCoordsOfCorner(&ret, i);
 1226              		.loc 1 383 52 discriminator 2 view .LVU401
 1227 0846 BF280000 		movl	$40, %edi
 1227      00
 1228 084b E8000000 		call	malloc@PLT
 1228      00
 1229              	.LVL103:
 383:Src/findwayBases.cpp ****         ret.corners[i]->c = *getCoordsOfCorner(&ret, i);
 1230              		.loc 1 383 24 discriminator 2 view .LVU402
 1231 0850 4D63E5   		movslq	%r13d, %r12
 1232 0853 4A8944E3 		movq	%rax, 8(%rbx,%r12,8)
 1232      08
 384:Src/findwayBases.cpp ****     }
 1233              		.loc 1 384 9 is_stmt 1 discriminator 2 view .LVU403
 384:Src/findwayBases.cpp ****     }
 1234              		.loc 1 384 47 is_stmt 0 discriminator 2 view .LVU404
 1235 0858 4489EE   		movl	%r13d, %esi
 1236 085b 4889DF   		movq	%rbx, %rdi
 1237 085e E8000000 		call	_Z17getCoordsOfCornerPK8obstacleh
 1237      00
 1238              	.LVL104:
 1239 0863 4889C2   		movq	%rax, %rdx
 384:Src/findwayBases.cpp ****     }
 1240              		.loc 1 384 22 discriminator 2 view .LVU405
 1241 0866 4A8B44E3 		movq	8(%rbx,%r12,8), %rax
 1241      08
 384:Src/findwayBases.cpp ****     }
 1242              		.loc 1 384 27 discriminator 2 view .LVU406
 1243 086b 488B12   		movq	(%rdx), %rdx
 1244 086e 48895010 		movq	%rdx, 16(%rax)
 381:Src/findwayBases.cpp ****     {
 1245              		.loc 1 381 5 is_stmt 1 discriminator 2 view .LVU407
 1246 0872 83C501   		addl	$1, %ebp
 1247              	.LVL105:
 1248              	.L127:
 381:Src/findwayBases.cpp ****     {
 1249              		.loc 1 381 26 discriminator 3 view .LVU408
 1250 0875 4080FD03 		cmpb	$3, %bpl
 1251 0879 76C7     		jbe	.L129
GAS LISTING /tmp/ccDAqEnA.s 			page 53


 1252              	.LBE42:
 388:Src/findwayBases.cpp **** 
 1253              		.loc 1 388 1 is_stmt 0 view .LVU409
 1254 087b 4889D8   		movq	%rbx, %rax
 1255 087e 4883C408 		addq	$8, %rsp
 1256              		.cfi_def_cfa_offset 40
 1257 0882 5B       		popq	%rbx
 1258              		.cfi_def_cfa_offset 32
 1259              	.LVL106:
 388:Src/findwayBases.cpp **** 
 1260              		.loc 1 388 1 view .LVU410
 1261 0883 5D       		popq	%rbp
 1262              		.cfi_def_cfa_offset 24
 1263              	.LVL107:
 388:Src/findwayBases.cpp **** 
 1264              		.loc 1 388 1 view .LVU411
 1265 0884 415C     		popq	%r12
 1266              		.cfi_def_cfa_offset 16
 1267 0886 415D     		popq	%r13
 1268              		.cfi_def_cfa_offset 8
 1269 0888 C3       		ret
 1270              		.cfi_endproc
 1271              	.LFE1736:
 1273              		.globl	_Z8getPointPK8obstacleh
 1275              	_Z8getPointPK8obstacleh:
 1276              	.LVL108:
 1277              	.LFB1741:
 427:Src/findwayBases.cpp ****     return obst->corners[corner];
 1278              		.loc 1 427 1 is_stmt 1 view -0
 1279              		.cfi_startproc
 428:Src/findwayBases.cpp **** }
 1280              		.loc 1 428 5 view .LVU413
 428:Src/findwayBases.cpp **** }
 1281              		.loc 1 428 32 is_stmt 0 view .LVU414
 1282 0889 400FB6F6 		movzbl	%sil, %esi
 428:Src/findwayBases.cpp **** }
 1283              		.loc 1 428 32 view .LVU415
 1284 088d 488B44F7 		movq	8(%rdi,%rsi,8), %rax
 1284      08
 429:Src/findwayBases.cpp **** 
 1285              		.loc 1 429 1 view .LVU416
 1286 0892 C3       		ret
 1287              		.cfi_endproc
 1288              	.LFE1741:
 1290              		.globl	_Z15hasIntersectionPK8obstaclePK4vect
 1292              	_Z15hasIntersectionPK8obstaclePK4vect:
 1293              	.LVL109:
 1294              	.LFB1742:
 434:Src/findwayBases.cpp ****     struct coords c = getIntersection(obst, v);
 1295              		.loc 1 434 1 is_stmt 1 view -0
 1296              		.cfi_startproc
 434:Src/findwayBases.cpp ****     struct coords c = getIntersection(obst, v);
 1297              		.loc 1 434 1 is_stmt 0 view .LVU418
 1298 0893 53       		pushq	%rbx
 1299              		.cfi_def_cfa_offset 16
 1300              		.cfi_offset 3, -16
 1301 0894 4889F3   		movq	%rsi, %rbx
GAS LISTING /tmp/ccDAqEnA.s 			page 54


 435:Src/findwayBases.cpp ****     // std::cout << "obst: " << obst->c->x << ":" << obst->c->y << "; vect: " << v->c->x << ":" << 
 1302              		.loc 1 435 5 is_stmt 1 view .LVU419
 435:Src/findwayBases.cpp ****     // std::cout << "obst: " << obst->c->x << ":" << obst->c->y << "; vect: " << v->c->x << ":" << 
 1303              		.loc 1 435 46 is_stmt 0 view .LVU420
 1304 0897 E8000000 		call	_Z15getIntersectionPK8obstaclePK4vect
 1304      00
 1305              	.LVL110:
 435:Src/findwayBases.cpp ****     // std::cout << "obst: " << obst->c->x << ":" << obst->c->y << "; vect: " << v->c->x << ":" << 
 1306              		.loc 1 435 46 view .LVU421
 1307 089c 66480F7E 		movq	%xmm0, %rax
 1307      C0
 1308              	.LVL111:
 437:Src/findwayBases.cpp ****     {
 1309              		.loc 1 437 5 is_stmt 1 view .LVU422
 437:Src/findwayBases.cpp ****     {
 1310              		.loc 1 437 45 is_stmt 0 view .LVU423
 1311 08a1 0F2E0500 		ucomiss	.LC0(%rip), %xmm0
 1311      000000
 1312 08a8 7A18     		jp	.L132
 1313 08aa 7516     		jne	.L132
 1314              	.LVL112:
 437:Src/findwayBases.cpp ****     {
 1315              		.loc 1 437 23 discriminator 1 view .LVU424
 1316 08ac 66480F7E 		movq	%xmm0, %rcx
 1316      C1
 1317 08b1 48C1E920 		shrq	$32, %rcx
 1318 08b5 660F6EC9 		movd	%ecx, %xmm1
 437:Src/findwayBases.cpp ****     {
 1319              		.loc 1 437 18 discriminator 1 view .LVU425
 1320 08b9 0F2E0D00 		ucomiss	.LC0(%rip), %xmm1
 1320      000000
 1321 08c0 7B2C     		jnp	.L150
 1322              	.L132:
 437:Src/findwayBases.cpp ****     {
 1323              		.loc 1 437 42 discriminator 4 view .LVU426
 1324 08c2 488B13   		movq	(%rbx), %rdx
 1325              	.LVL113:
 1326              	.LBB43:
 1327              	.LBI43:
  27:Includes/findwayBases.hpp ****     {
 1328              		.loc 5 27 10 is_stmt 1 discriminator 4 view .LVU427
 1329              	.LBB44:
  29:Includes/findwayBases.hpp ****     }
 1330              		.loc 5 29 9 discriminator 4 view .LVU428
  29:Includes/findwayBases.hpp ****     }
 1331              		.loc 5 29 25 is_stmt 0 discriminator 4 view .LVU429
 1332 08c5 F30F100A 		movss	(%rdx), %xmm1
  29:Includes/findwayBases.hpp ****     }
 1333              		.loc 5 29 27 discriminator 4 view .LVU430
 1334 08c9 0F2EC1   		ucomiss	%xmm1, %xmm0
 1335 08cc 7A29     		jp	.L136
 1336 08ce 7527     		jne	.L136
 1337              	.LVL114:
  29:Includes/findwayBases.hpp ****     }
 1338              		.loc 5 29 30 view .LVU431
 1339 08d0 4889C1   		movq	%rax, %rcx
 1340 08d3 48C1E920 		shrq	$32, %rcx
GAS LISTING /tmp/ccDAqEnA.s 			page 55


 1341 08d7 660F6ED1 		movd	%ecx, %xmm2
  29:Includes/findwayBases.hpp ****     }
 1342              		.loc 5 29 38 view .LVU432
 1343 08db F30F105A 		movss	4(%rdx), %xmm3
 1343      04
  29:Includes/findwayBases.hpp ****     }
 1344              		.loc 5 29 27 view .LVU433
 1345 08e0 0F2ED3   		ucomiss	%xmm3, %xmm2
 1346 08e3 7A12     		jp	.L136
 1347 08e5 7510     		jne	.L136
 1348              	.LBE44:
 1349              	.LBE43:
 440:Src/findwayBases.cpp ****     }
 1350              		.loc 1 440 16 view .LVU434
 1351 08e7 B8000000 		movl	$0, %eax
 1351      00
 1352 08ec EB41     		jmp	.L131
 1353              	.LVL115:
 1354              	.L150:
 437:Src/findwayBases.cpp ****     {
 1355              		.loc 1 437 18 discriminator 1 view .LVU435
 1356 08ee 75D2     		jne	.L132
 440:Src/findwayBases.cpp ****     }
 1357              		.loc 1 440 16 view .LVU436
 1358 08f0 B8000000 		movl	$0, %eax
 1358      00
 1359 08f5 EB38     		jmp	.L131
 1360              	.LVL116:
 1361              	.L136:
 437:Src/findwayBases.cpp ****     {
 1362              		.loc 1 437 57 view .LVU437
 1363 08f7 F30F584B 		addss	8(%rbx), %xmm1
 1363      08
 437:Src/findwayBases.cpp ****     {
 1364              		.loc 1 437 45 view .LVU438
 1365 08fc 0F2EC1   		ucomiss	%xmm1, %xmm0
 1366 08ff 7A29     		jp	.L143
 1367 0901 7527     		jne	.L143
 437:Src/findwayBases.cpp ****     {
 1368              		.loc 1 437 95 discriminator 7 view .LVU439
 1369 0903 F30F104A 		movss	4(%rdx), %xmm1
 1369      04
 437:Src/findwayBases.cpp ****     {
 1370              		.loc 1 437 87 discriminator 7 view .LVU440
 1371 0908 F30F584B 		addss	12(%rbx), %xmm1
 1371      0C
 437:Src/findwayBases.cpp ****     {
 1372              		.loc 1 437 103 discriminator 7 view .LVU441
 1373 090d 48C1E820 		shrq	$32, %rax
 1374              	.LVL117:
 437:Src/findwayBases.cpp ****     {
 1375              		.loc 1 437 103 discriminator 7 view .LVU442
 1376 0911 660F6EC0 		movd	%eax, %xmm0
 1377              	.LVL118:
 437:Src/findwayBases.cpp ****     {
 1378              		.loc 1 437 76 discriminator 7 view .LVU443
 1379 0915 0F2EC8   		ucomiss	%xmm0, %xmm1
GAS LISTING /tmp/ccDAqEnA.s 			page 56


 1380 0918 7A09     		jp	.L148
 1381 091a 7507     		jne	.L148
 440:Src/findwayBases.cpp ****     }
 1382              		.loc 1 440 16 view .LVU444
 1383 091c B8000000 		movl	$0, %eax
 1383      00
 1384 0921 EB0C     		jmp	.L131
 1385              	.L148:
 445:Src/findwayBases.cpp ****     }
 1386              		.loc 1 445 16 view .LVU445
 1387 0923 B8010000 		movl	$1, %eax
 1387      00
 1388 0928 EB05     		jmp	.L131
 1389              	.LVL119:
 1390              	.L143:
 445:Src/findwayBases.cpp ****     }
 1391              		.loc 1 445 16 view .LVU446
 1392 092a B8010000 		movl	$1, %eax
 1392      00
 1393              	.LVL120:
 1394              	.L131:
 447:Src/findwayBases.cpp **** 
 1395              		.loc 1 447 1 view .LVU447
 1396 092f 5B       		popq	%rbx
 1397              		.cfi_def_cfa_offset 8
 1398              	.LVL121:
 447:Src/findwayBases.cpp **** 
 1399              		.loc 1 447 1 view .LVU448
 1400 0930 C3       		ret
 1401              		.cfi_endproc
 1402              	.LFE1742:
 1404              		.globl	_Z9addTargetP10graphPointS0_
 1406              	_Z9addTargetP10graphPointS0_:
 1407              	.LVL122:
 1408              	.LFB1743:
 451:Src/findwayBases.cpp ****     // std::cout << "ADD TARGET ";
 1409              		.loc 1 451 1 is_stmt 1 view -0
 1410              		.cfi_startproc
 453:Src/findwayBases.cpp ****     {
 1411              		.loc 1 453 5 view .LVU450
 1412 0931 4839F7   		cmpq	%rsi, %rdi
 1413 0934 0F849500 		je	.L158
 1413      0000
 451:Src/findwayBases.cpp ****     // std::cout << "ADD TARGET ";
 1414              		.loc 1 451 1 is_stmt 0 view .LVU451
 1415 093a 55       		pushq	%rbp
 1416              		.cfi_def_cfa_offset 16
 1417              		.cfi_offset 6, -16
 1418 093b 53       		pushq	%rbx
 1419              		.cfi_def_cfa_offset 24
 1420              		.cfi_offset 3, -24
 1421 093c 4883EC08 		subq	$8, %rsp
 1422              		.cfi_def_cfa_offset 32
 1423 0940 4889FB   		movq	%rdi, %rbx
 1424 0943 4889F5   		movq	%rsi, %rbp
 1425              	.LBB45:
 458:Src/findwayBases.cpp ****         if(start->targets[i] == end)
GAS LISTING /tmp/ccDAqEnA.s 			page 57


 1426              		.loc 1 458 16 view .LVU452
 1427 0946 B8000000 		movl	$0, %eax
 1427      00
 1428              	.L154:
 1429              	.LVL123:
 458:Src/findwayBases.cpp ****         if(start->targets[i] == end)
 1430              		.loc 1 458 25 is_stmt 1 discriminator 1 view .LVU453
 458:Src/findwayBases.cpp ****         if(start->targets[i] == end)
 1431              		.loc 1 458 34 is_stmt 0 discriminator 1 view .LVU454
 1432 094b 488B5308 		movq	8(%rbx), %rdx
 458:Src/findwayBases.cpp ****         if(start->targets[i] == end)
 1433              		.loc 1 458 25 discriminator 1 view .LVU455
 1434 094f 4839C2   		cmpq	%rax, %rdx
 1435 0952 760F     		jbe	.L156
 459:Src/findwayBases.cpp ****         {
 1436              		.loc 1 459 9 is_stmt 1 view .LVU456
 459:Src/findwayBases.cpp ****         {
 1437              		.loc 1 459 19 is_stmt 0 view .LVU457
 1438 0954 488B13   		movq	(%rbx), %rdx
 459:Src/findwayBases.cpp ****         {
 1439              		.loc 1 459 9 view .LVU458
 1440 0957 48392CC2 		cmpq	%rbp, (%rdx,%rax,8)
 1441 095b 746B     		je	.L151
 458:Src/findwayBases.cpp ****         if(start->targets[i] == end)
 1442              		.loc 1 458 5 is_stmt 1 discriminator 2 view .LVU459
 1443 095d 4883C001 		addq	$1, %rax
 1444              	.LVL124:
 458:Src/findwayBases.cpp ****         if(start->targets[i] == end)
 1445              		.loc 1 458 5 is_stmt 0 discriminator 2 view .LVU460
 1446 0961 EBE8     		jmp	.L154
 1447              	.L156:
 458:Src/findwayBases.cpp ****         if(start->targets[i] == end)
 1448              		.loc 1 458 5 discriminator 2 view .LVU461
 1449              	.LBE45:
 1450              	.LBB46:
 464:Src/findwayBases.cpp ****         if(end->targets[i] == start)
 1451              		.loc 1 464 16 view .LVU462
 1452 0963 B8000000 		movl	$0, %eax
 1452      00
 1453              	.LVL125:
 1454              	.L153:
 464:Src/findwayBases.cpp ****         if(end->targets[i] == start)
 1455              		.loc 1 464 25 is_stmt 1 discriminator 1 view .LVU463
 1456 0968 48394508 		cmpq	%rax, 8(%rbp)
 1457 096c 7610     		jbe	.L155
 465:Src/findwayBases.cpp ****         {
 1458              		.loc 1 465 9 view .LVU464
 465:Src/findwayBases.cpp ****         {
 1459              		.loc 1 465 17 is_stmt 0 view .LVU465
 1460 096e 488B4D00 		movq	0(%rbp), %rcx
 465:Src/findwayBases.cpp ****         {
 1461              		.loc 1 465 9 view .LVU466
 1462 0972 48391CC1 		cmpq	%rbx, (%rcx,%rax,8)
 1463 0976 7450     		je	.L151
 464:Src/findwayBases.cpp ****         if(end->targets[i] == start)
 1464              		.loc 1 464 5 is_stmt 1 discriminator 2 view .LVU467
 1465 0978 4883C001 		addq	$1, %rax
GAS LISTING /tmp/ccDAqEnA.s 			page 58


 1466              	.LVL126:
 464:Src/findwayBases.cpp ****         if(end->targets[i] == start)
 1467              		.loc 1 464 5 is_stmt 0 discriminator 2 view .LVU468
 1468 097c EBEA     		jmp	.L153
 1469              	.LVL127:
 1470              	.L155:
 464:Src/findwayBases.cpp ****         if(end->targets[i] == start)
 1471              		.loc 1 464 5 discriminator 2 view .LVU469
 1472              	.LBE46:
 471:Src/findwayBases.cpp ****     start->targets[start->numOfTargets - 1] = end;
 1473              		.loc 1 471 5 is_stmt 1 view .LVU470
 471:Src/findwayBases.cpp ****     start->targets[start->numOfTargets - 1] = end;
 1474              		.loc 1 471 68 is_stmt 0 view .LVU471
 1475 097e 4883C201 		addq	$1, %rdx
 471:Src/findwayBases.cpp ****     start->targets[start->numOfTargets - 1] = end;
 1476              		.loc 1 471 20 view .LVU472
 1477 0982 48895308 		movq	%rdx, 8(%rbx)
 471:Src/findwayBases.cpp ****     start->targets[start->numOfTargets - 1] = end;
 1478              		.loc 1 471 58 view .LVU473
 1479 0986 488B3B   		movq	(%rbx), %rdi
 471:Src/findwayBases.cpp ****     start->targets[start->numOfTargets - 1] = end;
 1480              		.loc 1 471 50 view .LVU474
 1481 0989 488D34D5 		leaq	0(,%rdx,8), %rsi
 1481      00000000 
 1482              	.LVL128:
 471:Src/findwayBases.cpp ****     start->targets[start->numOfTargets - 1] = end;
 1483              		.loc 1 471 50 view .LVU475
 1484 0991 E8000000 		call	realloc@PLT
 1484      00
 1485              	.LVL129:
 471:Src/findwayBases.cpp ****     start->targets[start->numOfTargets - 1] = end;
 1486              		.loc 1 471 20 view .LVU476
 1487 0996 488903   		movq	%rax, (%rbx)
 472:Src/findwayBases.cpp **** 
 1488              		.loc 1 472 5 is_stmt 1 view .LVU477
 472:Src/findwayBases.cpp **** 
 1489              		.loc 1 472 27 is_stmt 0 view .LVU478
 1490 0999 488B5308 		movq	8(%rbx), %rdx
 472:Src/findwayBases.cpp **** 
 1491              		.loc 1 472 45 view .LVU479
 1492 099d 48896CD0 		movq	%rbp, -8(%rax,%rdx,8)
 1492      F8
 474:Src/findwayBases.cpp ****     end->targets[end->numOfTargets - 1] = start;
 1493              		.loc 1 474 5 is_stmt 1 view .LVU480
 474:Src/findwayBases.cpp ****     end->targets[end->numOfTargets - 1] = start;
 1494              		.loc 1 474 64 is_stmt 0 view .LVU481
 1495 09a2 488B4508 		movq	8(%rbp), %rax
 1496 09a6 488D7001 		leaq	1(%rax), %rsi
 474:Src/findwayBases.cpp ****     end->targets[end->numOfTargets - 1] = start;
 1497              		.loc 1 474 18 view .LVU482
 1498 09aa 48897508 		movq	%rsi, 8(%rbp)
 474:Src/findwayBases.cpp ****     end->targets[end->numOfTargets - 1] = start;
 1499              		.loc 1 474 54 view .LVU483
 1500 09ae 488B7D00 		movq	0(%rbp), %rdi
 474:Src/findwayBases.cpp ****     end->targets[end->numOfTargets - 1] = start;
 1501              		.loc 1 474 48 view .LVU484
 1502 09b2 48C1E603 		salq	$3, %rsi
GAS LISTING /tmp/ccDAqEnA.s 			page 59


 1503 09b6 E8000000 		call	realloc@PLT
 1503      00
 1504              	.LVL130:
 474:Src/findwayBases.cpp ****     end->targets[end->numOfTargets - 1] = start;
 1505              		.loc 1 474 18 view .LVU485
 1506 09bb 48894500 		movq	%rax, 0(%rbp)
 475:Src/findwayBases.cpp **** }
 1507              		.loc 1 475 5 is_stmt 1 view .LVU486
 475:Src/findwayBases.cpp **** }
 1508              		.loc 1 475 23 is_stmt 0 view .LVU487
 1509 09bf 488B5508 		movq	8(%rbp), %rdx
 475:Src/findwayBases.cpp **** }
 1510              		.loc 1 475 41 view .LVU488
 1511 09c3 48895CD0 		movq	%rbx, -8(%rax,%rdx,8)
 1511      F8
 1512              	.L151:
 476:Src/findwayBases.cpp **** 
 1513              		.loc 1 476 1 view .LVU489
 1514 09c8 4883C408 		addq	$8, %rsp
 1515              		.cfi_def_cfa_offset 24
 1516 09cc 5B       		popq	%rbx
 1517              		.cfi_def_cfa_offset 16
 1518              	.LVL131:
 476:Src/findwayBases.cpp **** 
 1519              		.loc 1 476 1 view .LVU490
 1520 09cd 5D       		popq	%rbp
 1521              		.cfi_def_cfa_offset 8
 1522              	.LVL132:
 476:Src/findwayBases.cpp **** 
 1523              		.loc 1 476 1 view .LVU491
 1524 09ce C3       		ret
 1525              	.LVL133:
 1526              	.L158:
 1527              		.cfi_restore 3
 1528              		.cfi_restore 6
 476:Src/findwayBases.cpp **** 
 1529              		.loc 1 476 1 view .LVU492
 1530 09cf C3       		ret
 1531              		.cfi_endproc
 1532              	.LFE1743:
 1534              		.globl	_Z11getWayPriceP10graphPointS0_
 1536              	_Z11getWayPriceP10graphPointS0_:
 1537              	.LVL134:
 1538              	.LFB1744:
 480:Src/findwayBases.cpp ****     return sqrt(pow(start->c.x - end->c.x, 2) + pow(start->c.y - end->c.y, 2));
 1539              		.loc 1 480 1 is_stmt 1 view -0
 1540              		.cfi_startproc
 480:Src/findwayBases.cpp ****     return sqrt(pow(start->c.x - end->c.x, 2) + pow(start->c.y - end->c.y, 2));
 1541              		.loc 1 480 1 is_stmt 0 view .LVU494
 1542 09d0 55       		pushq	%rbp
 1543              		.cfi_def_cfa_offset 16
 1544              		.cfi_offset 6, -16
 1545 09d1 53       		pushq	%rbx
 1546              		.cfi_def_cfa_offset 24
 1547              		.cfi_offset 3, -24
 1548 09d2 4883EC18 		subq	$24, %rsp
 1549              		.cfi_def_cfa_offset 48
GAS LISTING /tmp/ccDAqEnA.s 			page 60


 1550 09d6 4889FD   		movq	%rdi, %rbp
 1551 09d9 4889F3   		movq	%rsi, %rbx
 481:Src/findwayBases.cpp **** }
 1552              		.loc 1 481 5 is_stmt 1 view .LVU495
 481:Src/findwayBases.cpp **** }
 1553              		.loc 1 481 30 is_stmt 0 view .LVU496
 1554 09dc F30F1047 		movss	16(%rdi), %xmm0
 1554      10
 481:Src/findwayBases.cpp **** }
 1555              		.loc 1 481 20 view .LVU497
 1556 09e1 F30F5C46 		subss	16(%rsi), %xmm0
 1556      10
 1557              	.LVL135:
 1558              	.LBB47:
 1559              	.LBI47:
 415:/usr/include/c++/9.2.0/cmath ****     {
 1560              		.loc 4 415 5 is_stmt 1 view .LVU498
 1561              	.LBB48:
 418:/usr/include/c++/9.2.0/cmath ****     }
 1562              		.loc 4 418 17 is_stmt 0 view .LVU499
 1563 09e6 F30F5AC0 		cvtss2sd	%xmm0, %xmm0
 1564              	.LVL136:
 418:/usr/include/c++/9.2.0/cmath ****     }
 1565              		.loc 4 418 17 view .LVU500
 1566 09ea 488B0500 		movq	.LC6(%rip), %rax
 1566      000000
 1567 09f1 66480F6E 		movq	%rax, %xmm1
 1567      C8
 1568 09f6 E8000000 		call	pow@PLT
 1568      00
 1569              	.LVL137:
 418:/usr/include/c++/9.2.0/cmath ****     }
 1570              		.loc 4 418 17 view .LVU501
 1571 09fb F20F1144 		movsd	%xmm0, 8(%rsp)
 1571      2408
 1572              	.LVL138:
 418:/usr/include/c++/9.2.0/cmath ****     }
 1573              		.loc 4 418 17 view .LVU502
 1574              	.LBE48:
 1575              	.LBE47:
 481:Src/findwayBases.cpp **** }
 1576              		.loc 1 481 62 view .LVU503
 1577 0a01 F30F1045 		movss	20(%rbp), %xmm0
 1577      14
 481:Src/findwayBases.cpp **** }
 1578              		.loc 1 481 52 view .LVU504
 1579 0a06 F30F5C43 		subss	20(%rbx), %xmm0
 1579      14
 1580              	.LVL139:
 1581              	.LBB49:
 1582              	.LBI49:
 415:/usr/include/c++/9.2.0/cmath ****     {
 1583              		.loc 4 415 5 is_stmt 1 view .LVU505
 1584              	.LBB50:
 418:/usr/include/c++/9.2.0/cmath ****     }
 1585              		.loc 4 418 17 is_stmt 0 view .LVU506
 1586 0a0b F30F5AC0 		cvtss2sd	%xmm0, %xmm0
GAS LISTING /tmp/ccDAqEnA.s 			page 61


 1587              	.LVL140:
 418:/usr/include/c++/9.2.0/cmath ****     }
 1588              		.loc 4 418 17 view .LVU507
 1589 0a0f 488B0500 		movq	.LC6(%rip), %rax
 1589      000000
 1590 0a16 66480F6E 		movq	%rax, %xmm1
 1590      C8
 1591 0a1b E8000000 		call	pow@PLT
 1591      00
 1592              	.LVL141:
 418:/usr/include/c++/9.2.0/cmath ****     }
 1593              		.loc 4 418 17 view .LVU508
 1594              	.LBE50:
 1595              	.LBE49:
 481:Src/findwayBases.cpp **** }
 1596              		.loc 1 481 16 view .LVU509
 1597 0a20 F20F5844 		addsd	8(%rsp), %xmm0
 1597      2408
 1598 0a26 E8000000 		call	sqrt@PLT
 1598      00
 1599              	.LVL142:
 481:Src/findwayBases.cpp **** }
 1600              		.loc 1 481 78 view .LVU510
 1601 0a2b F20F5AC0 		cvtsd2ss	%xmm0, %xmm0
 482:Src/findwayBases.cpp **** 
 1602              		.loc 1 482 1 view .LVU511
 1603 0a2f 4883C418 		addq	$24, %rsp
 1604              		.cfi_def_cfa_offset 24
 1605 0a33 5B       		popq	%rbx
 1606              		.cfi_def_cfa_offset 16
 1607              	.LVL143:
 482:Src/findwayBases.cpp **** 
 1608              		.loc 1 482 1 view .LVU512
 1609 0a34 5D       		popq	%rbp
 1610              		.cfi_def_cfa_offset 8
 1611              	.LVL144:
 482:Src/findwayBases.cpp **** 
 1612              		.loc 1 482 1 view .LVU513
 1613 0a35 C3       		ret
 1614              		.cfi_endproc
 1615              	.LFE1744:
 1617              		.globl	_Z11getWayPriceP6coordsS0_
 1619              	_Z11getWayPriceP6coordsS0_:
 1620              	.LVL145:
 1621              	.LFB1746:
 485:Src/findwayBases.cpp ****     return sqrt(pow(start->x - end->x, 2) + pow(start->y - end->y, 2));
 1622              		.loc 1 485 1 is_stmt 1 view -0
 1623              		.cfi_startproc
 485:Src/findwayBases.cpp ****     return sqrt(pow(start->x - end->x, 2) + pow(start->y - end->y, 2));
 1624              		.loc 1 485 1 is_stmt 0 view .LVU515
 1625 0a36 55       		pushq	%rbp
 1626              		.cfi_def_cfa_offset 16
 1627              		.cfi_offset 6, -16
 1628 0a37 53       		pushq	%rbx
 1629              		.cfi_def_cfa_offset 24
 1630              		.cfi_offset 3, -24
 1631 0a38 4883EC18 		subq	$24, %rsp
GAS LISTING /tmp/ccDAqEnA.s 			page 62


 1632              		.cfi_def_cfa_offset 48
 1633 0a3c 4889FD   		movq	%rdi, %rbp
 1634 0a3f 4889F3   		movq	%rsi, %rbx
 486:Src/findwayBases.cpp **** }
 1635              		.loc 1 486 5 is_stmt 1 view .LVU516
 486:Src/findwayBases.cpp **** }
 1636              		.loc 1 486 28 is_stmt 0 view .LVU517
 1637 0a42 F30F1007 		movss	(%rdi), %xmm0
 486:Src/findwayBases.cpp **** }
 1638              		.loc 1 486 20 view .LVU518
 1639 0a46 F30F5C06 		subss	(%rsi), %xmm0
 1640              	.LVL146:
 1641              	.LBB51:
 1642              	.LBI51:
 415:/usr/include/c++/9.2.0/cmath ****     {
 1643              		.loc 4 415 5 is_stmt 1 view .LVU519
 1644              	.LBB52:
 418:/usr/include/c++/9.2.0/cmath ****     }
 1645              		.loc 4 418 17 is_stmt 0 view .LVU520
 1646 0a4a F30F5AC0 		cvtss2sd	%xmm0, %xmm0
 1647              	.LVL147:
 418:/usr/include/c++/9.2.0/cmath ****     }
 1648              		.loc 4 418 17 view .LVU521
 1649 0a4e 488B0500 		movq	.LC6(%rip), %rax
 1649      000000
 1650 0a55 66480F6E 		movq	%rax, %xmm1
 1650      C8
 1651 0a5a E8000000 		call	pow@PLT
 1651      00
 1652              	.LVL148:
 418:/usr/include/c++/9.2.0/cmath ****     }
 1653              		.loc 4 418 17 view .LVU522
 1654 0a5f F20F1144 		movsd	%xmm0, 8(%rsp)
 1654      2408
 1655              	.LVL149:
 418:/usr/include/c++/9.2.0/cmath ****     }
 1656              		.loc 4 418 17 view .LVU523
 1657              	.LBE52:
 1658              	.LBE51:
 486:Src/findwayBases.cpp **** }
 1659              		.loc 1 486 56 view .LVU524
 1660 0a65 F30F1045 		movss	4(%rbp), %xmm0
 1660      04
 486:Src/findwayBases.cpp **** }
 1661              		.loc 1 486 48 view .LVU525
 1662 0a6a F30F5C43 		subss	4(%rbx), %xmm0
 1662      04
 1663              	.LVL150:
 1664              	.LBB53:
 1665              	.LBI53:
 415:/usr/include/c++/9.2.0/cmath ****     {
 1666              		.loc 4 415 5 is_stmt 1 view .LVU526
 1667              	.LBB54:
 418:/usr/include/c++/9.2.0/cmath ****     }
 1668              		.loc 4 418 17 is_stmt 0 view .LVU527
 1669 0a6f F30F5AC0 		cvtss2sd	%xmm0, %xmm0
 1670              	.LVL151:
GAS LISTING /tmp/ccDAqEnA.s 			page 63


 418:/usr/include/c++/9.2.0/cmath ****     }
 1671              		.loc 4 418 17 view .LVU528
 1672 0a73 488B0500 		movq	.LC6(%rip), %rax
 1672      000000
 1673 0a7a 66480F6E 		movq	%rax, %xmm1
 1673      C8
 1674 0a7f E8000000 		call	pow@PLT
 1674      00
 1675              	.LVL152:
 418:/usr/include/c++/9.2.0/cmath ****     }
 1676              		.loc 4 418 17 view .LVU529
 1677              	.LBE54:
 1678              	.LBE53:
 486:Src/findwayBases.cpp **** }
 1679              		.loc 1 486 16 view .LVU530
 1680 0a84 F20F5844 		addsd	8(%rsp), %xmm0
 1680      2408
 1681 0a8a E8000000 		call	sqrt@PLT
 1681      00
 1682              	.LVL153:
 486:Src/findwayBases.cpp **** }
 1683              		.loc 1 486 70 view .LVU531
 1684 0a8f F20F5AC0 		cvtsd2ss	%xmm0, %xmm0
 1685              		.loc 1 487 1 view .LVU532
 1686 0a93 4883C418 		addq	$24, %rsp
 1687              		.cfi_def_cfa_offset 24
 1688 0a97 5B       		popq	%rbx
 1689              		.cfi_def_cfa_offset 16
 1690              	.LVL154:
 1691              		.loc 1 487 1 view .LVU533
 1692 0a98 5D       		popq	%rbp
 1693              		.cfi_def_cfa_offset 8
 1694              	.LVL155:
 1695              		.loc 1 487 1 view .LVU534
 1696 0a99 C3       		ret
 1697              		.cfi_endproc
 1698              	.LFE1746:
 1701              	_GLOBAL__sub_I__Z15hasIntersectionPK8baselineS1_:
 1702              	.LFB2077:
 1703              		.loc 1 487 1 is_stmt 1 view -0
 1704              		.cfi_startproc
 1705 0a9a 4883EC08 		subq	$8, %rsp
 1706              		.cfi_def_cfa_offset 16
 1707              		.loc 1 487 1 is_stmt 0 view .LVU536
 1708 0a9e BEFFFF00 		movl	$65535, %esi
 1708      00
 1709 0aa3 BF010000 		movl	$1, %edi
 1709      00
 1710 0aa8 E853F5FF 		call	_Z41__static_initialization_and_destruction_0ii
 1710      FF
 1711              	.LVL156:
 1712 0aad 4883C408 		addq	$8, %rsp
 1713              		.cfi_def_cfa_offset 8
 1714 0ab1 C3       		ret
 1715              		.cfi_endproc
 1716              	.LFE2077:
 1718              		.section	.init_array,"aw"
GAS LISTING /tmp/ccDAqEnA.s 			page 64


 1719              		.align 8
 1720 0000 00000000 		.quad	_GLOBAL__sub_I__Z15hasIntersectionPK8baselineS1_
 1720      00000000 
 1721              		.local	_ZStL8__ioinit
 1722              		.comm	_ZStL8__ioinit,1,1
 1723              		.section	.rodata.cst4,"aM",@progbits,4
 1724              		.align 4
 1725              	.LC0:
 1726 0000 00000000 		.long	0
 1727              		.section	.rodata.cst16,"aM",@progbits,16
 1728              		.align 16
 1729              	.LC1:
 1730 0000 FFFFFF7F 		.long	2147483647
 1731 0004 00000000 		.long	0
 1732 0008 00000000 		.long	0
 1733 000c 00000000 		.long	0
 1734              		.section	.rodata.cst8,"aM",@progbits,8
 1735              		.align 8
 1736              	.LC2:
 1737 0000 00000000 		.long	0
 1738 0004 0000F03F 		.long	1072693248
 1739              		.align 8
 1740              	.LC3:
 1741 0008 00000000 		.long	0
 1742 000c 00000000 		.long	0
 1743              		.section	.rodata.cst4
 1744              		.align 4
 1745              	.LC4:
 1746 0004 0000803F 		.long	1065353216
 1747              		.section	.rodata.cst8
 1748              		.align 8
 1749              	.LC5:
 1750 0010 9A999999 		.long	2576980378
 1751 0014 9999D93F 		.long	1071225241
 1752              		.align 8
 1753              	.LC6:
 1754 0018 00000000 		.long	0
 1755 001c 00000040 		.long	1073741824
 1756              		.text
 1757              	.Letext0:
 1758              		.file 6 "/usr/include/c++/9.2.0/bits/basic_string.h"
 1759              		.file 7 "/usr/include/c++/9.2.0/cwchar"
 1760              		.file 8 "/usr/include/c++/9.2.0/new"
 1761              		.file 9 "/usr/include/c++/9.2.0/bits/exception_ptr.h"
 1762              		.file 10 "/usr/include/c++/9.2.0/x86_64-pc-linux-gnu/bits/c++config.h"
 1763              		.file 11 "/usr/include/c++/9.2.0/type_traits"
 1764              		.file 12 "/usr/include/c++/9.2.0/bits/stl_pair.h"
 1765              		.file 13 "/usr/include/c++/9.2.0/debug/debug.h"
 1766              		.file 14 "/usr/include/c++/9.2.0/bits/char_traits.h"
 1767              		.file 15 "/usr/include/c++/9.2.0/cstdint"
 1768              		.file 16 "/usr/include/c++/9.2.0/clocale"
 1769              		.file 17 "/usr/include/c++/9.2.0/bits/allocator.h"
 1770              		.file 18 "/usr/include/c++/9.2.0/cstdlib"
 1771              		.file 19 "/usr/include/c++/9.2.0/cstdio"
 1772              		.file 20 "/usr/include/c++/9.2.0/bits/alloc_traits.h"
 1773              		.file 21 "/usr/include/c++/9.2.0/initializer_list"
 1774              		.file 22 "/usr/include/c++/9.2.0/bits/stringfwd.h"
GAS LISTING /tmp/ccDAqEnA.s 			page 65


 1775              		.file 23 "/usr/include/c++/9.2.0/system_error"
 1776              		.file 24 "/usr/include/c++/9.2.0/bits/ios_base.h"
 1777              		.file 25 "/usr/include/c++/9.2.0/cwctype"
 1778              		.file 26 "/usr/include/c++/9.2.0/iosfwd"
 1779              		.file 27 "/usr/include/c++/9.2.0/bits/stl_iterator_base_types.h"
 1780              		.file 28 "/usr/include/c++/9.2.0/bits/predefined_ops.h"
 1781              		.file 29 "/usr/include/c++/9.2.0/ext/new_allocator.h"
 1782              		.file 30 "/usr/include/c++/9.2.0/ext/numeric_traits.h"
 1783              		.file 31 "/usr/include/c++/9.2.0/ext/alloc_traits.h"
 1784              		.file 32 "/usr/include/c++/9.2.0/bits/stl_iterator.h"
 1785              		.file 33 "/usr/include/c++/9.2.0/ext/type_traits.h"
 1786              		.file 34 "/usr/lib/gcc/x86_64-pc-linux-gnu/9.2.0/include/stddef.h"
 1787              		.file 35 "<built-in>"
 1788              		.file 36 "/usr/include/bits/types/wint_t.h"
 1789              		.file 37 "/usr/include/bits/types/__mbstate_t.h"
 1790              		.file 38 "/usr/include/bits/types/mbstate_t.h"
 1791              		.file 39 "/usr/include/bits/types/__FILE.h"
 1792              		.file 40 "/usr/include/bits/types/struct_FILE.h"
 1793              		.file 41 "/usr/include/bits/types/FILE.h"
 1794              		.file 42 "/usr/include/wchar.h"
 1795              		.file 43 "/usr/include/bits/types/struct_tm.h"
 1796              		.file 44 "/usr/include/bits/types.h"
 1797              		.file 45 "/usr/include/bits/stdint-intn.h"
 1798              		.file 46 "/usr/include/bits/stdint-uintn.h"
 1799              		.file 47 "/usr/include/stdint.h"
 1800              		.file 48 "/usr/include/locale.h"
 1801              		.file 49 "/usr/include/time.h"
 1802              		.file 50 "/usr/include/c++/9.2.0/x86_64-pc-linux-gnu/bits/atomic_word.h"
 1803              		.file 51 "/usr/include/stdlib.h"
 1804              		.file 52 "/usr/include/bits/stdlib-float.h"
 1805              		.file 53 "/usr/include/bits/stdlib-bsearch.h"
 1806              		.file 54 "/usr/include/bits/types/__fpos_t.h"
 1807              		.file 55 "/usr/include/stdio.h"
 1808              		.file 56 "/usr/include/bits/sys_errlist.h"
 1809              		.file 57 "/usr/include/bits/stdio.h"
 1810              		.file 58 "/usr/include/errno.h"
 1811              		.file 59 "/usr/include/bits/wctype-wchar.h"
 1812              		.file 60 "/usr/include/wctype.h"
 1813              		.file 61 "/usr/include/math.h"
 1814              		.file 62 "/usr/include/c++/9.2.0/math.h"
 1815              		.file 63 "/usr/include/bits/mathcalls.h"
GAS LISTING /tmp/ccDAqEnA.s 			page 66


DEFINED SYMBOLS
                            *ABS*:0000000000000000 findwayBases.cpp
     /tmp/ccDAqEnA.s:5      .text:0000000000000000 _Z41__static_initialization_and_destruction_0ii
                             .bss:0000000000000000 _ZStL8__ioinit
     /tmp/ccDAqEnA.s:45     .text:000000000000003d _Z15hasIntersectionPK8baselineS1_
     /tmp/ccDAqEnA.s:65     .text:0000000000000050 _Z15getIntersectionPK8baselineS1_
     /tmp/ccDAqEnA.s:220    .text:0000000000000140 _Z15isCoDirectionalPK4vectPK6coords
     /tmp/ccDAqEnA.s:297    .text:00000000000001c5 _Z11isDotInsidePK6coordsPK8obstacle
     /tmp/ccDAqEnA.s:352    .text:0000000000000219 _Z14vectToBaselinePK4vect
     /tmp/ccDAqEnA.s:405    .text:0000000000000265 _Z6getLenPK6coordsS1_
     /tmp/ccDAqEnA.s:455    .text:0000000000000291 _Z6getLenPK4vect
     /tmp/ccDAqEnA.s:494    .text:00000000000002b5 _Z15getIntersectionPK8obstaclePK4vect
     /tmp/ccDAqEnA.s:973    .text:00000000000006a4 _Z12createCoordsff
     /tmp/ccDAqEnA.s:1001   .text:00000000000006bc _Z17getCoordsOfCornerPK8obstacleh
     /tmp/ccDAqEnA.s:1165   .text:00000000000007e9 _Z14createObstaclefff
     /tmp/ccDAqEnA.s:1275   .text:0000000000000889 _Z8getPointPK8obstacleh
     /tmp/ccDAqEnA.s:1292   .text:0000000000000893 _Z15hasIntersectionPK8obstaclePK4vect
     /tmp/ccDAqEnA.s:1406   .text:0000000000000931 _Z9addTargetP10graphPointS0_
     /tmp/ccDAqEnA.s:1536   .text:00000000000009d0 _Z11getWayPriceP10graphPointS0_
     /tmp/ccDAqEnA.s:1619   .text:0000000000000a36 _Z11getWayPriceP6coordsS0_
     /tmp/ccDAqEnA.s:1701   .text:0000000000000a9a _GLOBAL__sub_I__Z15hasIntersectionPK8baselineS1_
     /tmp/ccDAqEnA.s:1729   .rodata.cst16:0000000000000000 .LC1
     /tmp/ccDAqEnA.s:1736   .rodata.cst8:0000000000000000 .LC2
     /tmp/ccDAqEnA.s:1740   .rodata.cst8:0000000000000008 .LC3
     /tmp/ccDAqEnA.s:1725   .rodata.cst4:0000000000000000 .LC0
     /tmp/ccDAqEnA.s:1745   .rodata.cst4:0000000000000004 .LC4
     /tmp/ccDAqEnA.s:1749   .rodata.cst8:0000000000000010 .LC5
     /tmp/ccDAqEnA.s:1753   .rodata.cst8:0000000000000018 .LC6

UNDEFINED SYMBOLS
_GLOBAL_OFFSET_TABLE_
_ZNSt8ios_base4InitC1Ev
__dso_handle
_ZNSt8ios_base4InitD1Ev
__cxa_atexit
sqrtf
__stack_chk_fail
malloc
realloc
pow
sqrt
