GAS LISTING /tmp/ccC5Gb9O.s 			page 1


   1              		.file	"findwayBases.cpp"
   2              		.text
   3              	.Ltext0:
   5              	_Z41__static_initialization_and_destruction_0ii:
   6              	.LVL0:
   7              	.LFB2077:
   8              		.file 1 "Src/findwayBases.cpp"
   1:Src/findwayBases.cpp **** #include <iostream>
   2:Src/findwayBases.cpp **** #include "findwayBases.hpp"
   3:Src/findwayBases.cpp **** 
   4:Src/findwayBases.cpp **** bool            hasIntersection( const struct baseline *b1,  const struct baseline *b2)
   5:Src/findwayBases.cpp **** {
   6:Src/findwayBases.cpp ****     return b1->k != b2->k;
   7:Src/findwayBases.cpp **** }
   8:Src/findwayBases.cpp **** 
   9:Src/findwayBases.cpp **** struct coords   getIntersection(const struct baseline *b1, const struct baseline *b2)
  10:Src/findwayBases.cpp **** {
  11:Src/findwayBases.cpp ****     struct coords ret;
  12:Src/findwayBases.cpp ****     if(b1->k == b2->k)
  13:Src/findwayBases.cpp ****         ret = {0, 0};
  14:Src/findwayBases.cpp ****     else 
  15:Src/findwayBases.cpp ****     {
  16:Src/findwayBases.cpp ****         if(abs(b1->k) != INF && abs(b2->k) != INF)
  17:Src/findwayBases.cpp ****         {
  18:Src/findwayBases.cpp ****             ret.x = (b2->b - b1->b) / (b1->k - b2->k);
  19:Src/findwayBases.cpp ****             ret.y = (b2->k * b1->b - b1->k * b2->b) / (b2->k - b1->k);
  20:Src/findwayBases.cpp ****         }
  21:Src/findwayBases.cpp ****         else if(abs(b1->k) == INF)
  22:Src/findwayBases.cpp ****         {
  23:Src/findwayBases.cpp ****             ret.x = b1->b;
  24:Src/findwayBases.cpp ****             ret.y = b2->k * ret.x + b2->b;
  25:Src/findwayBases.cpp ****         }
  26:Src/findwayBases.cpp ****         else
  27:Src/findwayBases.cpp ****         {
  28:Src/findwayBases.cpp ****             ret.x = b2->b;
  29:Src/findwayBases.cpp ****             ret.y = b1->k * ret.x + b1->b;
  30:Src/findwayBases.cpp ****         }
  31:Src/findwayBases.cpp ****     }
  32:Src/findwayBases.cpp **** 
  33:Src/findwayBases.cpp ****     return ret;
  34:Src/findwayBases.cpp **** }
  35:Src/findwayBases.cpp **** 
  36:Src/findwayBases.cpp **** bool isCoDirectional(const struct vect *v, const struct coords *c)
  37:Src/findwayBases.cpp **** {
  38:Src/findwayBases.cpp ****     return (sgn(v->dx) == sgn(c->x - v->c->x) && sgn(v->dy) == sgn(c->y - v->c->y));
  39:Src/findwayBases.cpp **** }
  40:Src/findwayBases.cpp **** 
  41:Src/findwayBases.cpp **** 
  42:Src/findwayBases.cpp **** //will return NULL if there is no intersections
  43:Src/findwayBases.cpp **** struct coords   getIntersection(const struct obstacle *obst, const struct vect *v)
  44:Src/findwayBases.cpp **** {
  45:Src/findwayBases.cpp ****     struct coords inter1, inter2, tgt;
  46:Src/findwayBases.cpp ****     tgt = {(v->dx + v->c->x), (v->dy + v->c->y)};
  47:Src/findwayBases.cpp ****     struct baseline b1,
  48:Src/findwayBases.cpp ****                     b2;
  49:Src/findwayBases.cpp ****     COORDS_DATATYPE l1 = 0, l2 = 0, lv = 0;
  50:Src/findwayBases.cpp **** 
GAS LISTING /tmp/ccC5Gb9O.s 			page 2


  51:Src/findwayBases.cpp ****     lv = getLen(v);
  52:Src/findwayBases.cpp **** 
  53:Src/findwayBases.cpp ****     b1 = vectToBaseline(v);
  54:Src/findwayBases.cpp **** 
  55:Src/findwayBases.cpp ****     b2.k = INF;
  56:Src/findwayBases.cpp ****     b2.b = obst->c->x;
  57:Src/findwayBases.cpp **** 
  58:Src/findwayBases.cpp ****     inter1 = getIntersection(&b1, &b2);
  59:Src/findwayBases.cpp ****     if(isDotInside(&inter1, obst))
  60:Src/findwayBases.cpp ****     {
  61:Src/findwayBases.cpp ****         l1 = getLen(v->c, &inter1);
  62:Src/findwayBases.cpp ****         if(!(isCoDirectional(v, &inter1) && l1 <= lv))
  63:Src/findwayBases.cpp ****         {
  64:Src/findwayBases.cpp ****             l1 = 0;
  65:Src/findwayBases.cpp ****             inter1 = {0, 0};
  66:Src/findwayBases.cpp ****         }
  67:Src/findwayBases.cpp ****     }
  68:Src/findwayBases.cpp ****     else
  69:Src/findwayBases.cpp ****     {
  70:Src/findwayBases.cpp ****         l1 = 0;
  71:Src/findwayBases.cpp ****         inter1 = {0, 0};
  72:Src/findwayBases.cpp ****     }
  73:Src/findwayBases.cpp **** 
  74:Src/findwayBases.cpp ****     b2.b += obst->a;
  75:Src/findwayBases.cpp **** 
  76:Src/findwayBases.cpp ****     inter2 = getIntersection(&b1, &b2);
  77:Src/findwayBases.cpp ****     if(isDotInside(&inter2, obst))
  78:Src/findwayBases.cpp ****     {
  79:Src/findwayBases.cpp ****         l2 = getLen(v->c, &inter2);
  80:Src/findwayBases.cpp ****         if(!(isCoDirectional(v, &inter2) && l2 <= lv))
  81:Src/findwayBases.cpp ****         {
  82:Src/findwayBases.cpp ****             inter2 = {0, 0};
  83:Src/findwayBases.cpp ****             l2 = 0;
  84:Src/findwayBases.cpp ****         }
  85:Src/findwayBases.cpp ****         else if(inter1.eq(0, 0) || l2 < l1)
  86:Src/findwayBases.cpp ****         {
  87:Src/findwayBases.cpp ****             inter1 = inter2;
  88:Src/findwayBases.cpp ****             l1 = l2;
  89:Src/findwayBases.cpp ****             l2 = 0;
  90:Src/findwayBases.cpp ****             inter2 = {0, 0};
  91:Src/findwayBases.cpp ****         }
  92:Src/findwayBases.cpp ****         else
  93:Src/findwayBases.cpp ****         {
  94:Src/findwayBases.cpp ****             l2 = 0;
  95:Src/findwayBases.cpp ****             inter2 = {0, 0};
  96:Src/findwayBases.cpp ****         }
  97:Src/findwayBases.cpp ****     }
  98:Src/findwayBases.cpp ****     else
  99:Src/findwayBases.cpp ****     {
 100:Src/findwayBases.cpp ****         l2 = 0;
 101:Src/findwayBases.cpp ****         inter2 = {0, 0};
 102:Src/findwayBases.cpp ****     }
 103:Src/findwayBases.cpp **** 
 104:Src/findwayBases.cpp ****     // if(!inter2.eq(0, 0))
 105:Src/findwayBases.cpp ****     // {
 106:Src/findwayBases.cpp ****     //     if(!inter1.eq(0, 0))
 107:Src/findwayBases.cpp ****     //     {
GAS LISTING /tmp/ccC5Gb9O.s 			page 3


 108:Src/findwayBases.cpp ****     //         if(l1 <= lv)
 109:Src/findwayBases.cpp ****     //         {
 110:Src/findwayBases.cpp ****     //             if(l2 <= lv)
 111:Src/findwayBases.cpp ****     //             {
 112:Src/findwayBases.cpp ****     //                 if(l2 < l1)
 113:Src/findwayBases.cpp ****     //                 {
 114:Src/findwayBases.cpp ****     //                     inter1 = inter2;
 115:Src/findwayBases.cpp ****     //                     l1 = l2;
 116:Src/findwayBases.cpp **** 
 117:Src/findwayBases.cpp ****     //                     l2 = 0;
 118:Src/findwayBases.cpp ****     //                     inter2 = {0, 0};
 119:Src/findwayBases.cpp ****     //                 }
 120:Src/findwayBases.cpp ****     //             }
 121:Src/findwayBases.cpp ****     //             else 
 122:Src/findwayBases.cpp ****     //             {
 123:Src/findwayBases.cpp ****     //                 l2 = 0;
 124:Src/findwayBases.cpp ****     //                 inter2 = {0, 0};
 125:Src/findwayBases.cpp ****     //             }
 126:Src/findwayBases.cpp ****     //         }
 127:Src/findwayBases.cpp ****     //         else
 128:Src/findwayBases.cpp ****     //         {
 129:Src/findwayBases.cpp ****     //             if(l2 <= lv)
 130:Src/findwayBases.cpp ****     //             {
 131:Src/findwayBases.cpp ****     //                 inter1 = inter2;
 132:Src/findwayBases.cpp ****     //                 l1 = l2;
 133:Src/findwayBases.cpp **** 
 134:Src/findwayBases.cpp ****     //                 l2 = 0;
 135:Src/findwayBases.cpp ****     //                 inter2 = {0, 0};
 136:Src/findwayBases.cpp ****     //             }
 137:Src/findwayBases.cpp ****     //             else
 138:Src/findwayBases.cpp ****     //             {
 139:Src/findwayBases.cpp ****     //                 l1 = 0;
 140:Src/findwayBases.cpp ****     //                 inter1 = {0, 0};
 141:Src/findwayBases.cpp **** 
 142:Src/findwayBases.cpp ****     //                 l2 = 0;
 143:Src/findwayBases.cpp ****     //                 inter2 = {0, 0};
 144:Src/findwayBases.cpp ****     //             }
 145:Src/findwayBases.cpp ****                 
 146:Src/findwayBases.cpp ****     //         }
 147:Src/findwayBases.cpp ****     //     }
 148:Src/findwayBases.cpp ****     //     else
 149:Src/findwayBases.cpp ****     //     {
 150:Src/findwayBases.cpp ****     //         if(l2 <= lv)
 151:Src/findwayBases.cpp ****     //         {
 152:Src/findwayBases.cpp ****     //             inter1 = inter2;
 153:Src/findwayBases.cpp ****     //             l1 = l2;
 154:Src/findwayBases.cpp **** 
 155:Src/findwayBases.cpp ****     //             l2 = 0;
 156:Src/findwayBases.cpp ****     //             inter2 = {0, 0};
 157:Src/findwayBases.cpp ****     //         }
 158:Src/findwayBases.cpp ****     //         else
 159:Src/findwayBases.cpp ****     //         {
 160:Src/findwayBases.cpp ****     //             inter1 = {0, 0};
 161:Src/findwayBases.cpp ****     //             l1 = 0;
 162:Src/findwayBases.cpp **** 
 163:Src/findwayBases.cpp ****     //             l2 = 0;
 164:Src/findwayBases.cpp ****     //             inter2 = {0, 0};
GAS LISTING /tmp/ccC5Gb9O.s 			page 4


 165:Src/findwayBases.cpp ****     //         }
 166:Src/findwayBases.cpp ****     //     }   
 167:Src/findwayBases.cpp ****     // }
 168:Src/findwayBases.cpp ****     // else if(!inter1.eq(0, 0))
 169:Src/findwayBases.cpp ****     // {
 170:Src/findwayBases.cpp ****     //     if(l1 > lv)
 171:Src/findwayBases.cpp ****     //     {
 172:Src/findwayBases.cpp ****     //         inter1 = {0, 0};
 173:Src/findwayBases.cpp ****     //         l1 = 0;
 174:Src/findwayBases.cpp ****     //     }
 175:Src/findwayBases.cpp ****     //     l2 = 0;
 176:Src/findwayBases.cpp ****     //     inter2 = {0, 0};
 177:Src/findwayBases.cpp ****     // }
 178:Src/findwayBases.cpp ****     // else 
 179:Src/findwayBases.cpp ****     // {
 180:Src/findwayBases.cpp ****     //     l1 = 0;
 181:Src/findwayBases.cpp ****     //     inter1 = {0, 0};
 182:Src/findwayBases.cpp **** 
 183:Src/findwayBases.cpp ****     //     l2 = 0;
 184:Src/findwayBases.cpp ****     //     inter2 = {0, 0};
 185:Src/findwayBases.cpp ****     // }
 186:Src/findwayBases.cpp **** 
 187:Src/findwayBases.cpp ****     b2.k = 0;
 188:Src/findwayBases.cpp ****     b2.b = obst->c->y;
 189:Src/findwayBases.cpp ****     inter2 = getIntersection(&b1, &b2);
 190:Src/findwayBases.cpp ****     if(isDotInside(&inter2, obst))
 191:Src/findwayBases.cpp ****     {
 192:Src/findwayBases.cpp ****         l2 = getLen(v->c, &inter2);
 193:Src/findwayBases.cpp ****         if(!(isCoDirectional(v, &inter2) && l2 <= lv))
 194:Src/findwayBases.cpp ****         {
 195:Src/findwayBases.cpp ****             inter2 = {0, 0};
 196:Src/findwayBases.cpp ****             l2 = 0;
 197:Src/findwayBases.cpp ****         }
 198:Src/findwayBases.cpp ****         else if(inter1.eq(0, 0) || l2 < l1)
 199:Src/findwayBases.cpp ****         {
 200:Src/findwayBases.cpp ****             inter1 = inter2;
 201:Src/findwayBases.cpp ****             l1 = l2;
 202:Src/findwayBases.cpp ****             l2 = 0;
 203:Src/findwayBases.cpp ****             inter2 = {0, 0};
 204:Src/findwayBases.cpp ****         }
 205:Src/findwayBases.cpp ****         else
 206:Src/findwayBases.cpp ****         {
 207:Src/findwayBases.cpp ****             l2 = 0;
 208:Src/findwayBases.cpp ****             inter2 = {0, 0};
 209:Src/findwayBases.cpp ****         }
 210:Src/findwayBases.cpp ****     }
 211:Src/findwayBases.cpp ****     else
 212:Src/findwayBases.cpp ****     {
 213:Src/findwayBases.cpp ****         l2 = 0;
 214:Src/findwayBases.cpp ****         inter2 = {0, 0};
 215:Src/findwayBases.cpp ****     }
 216:Src/findwayBases.cpp **** 
 217:Src/findwayBases.cpp ****     
 218:Src/findwayBases.cpp ****     b2.b += obst->a;
 219:Src/findwayBases.cpp **** 
 220:Src/findwayBases.cpp ****     inter2 = getIntersection(&b1, &b2);
 221:Src/findwayBases.cpp ****     if(isDotInside(&inter2, obst))
GAS LISTING /tmp/ccC5Gb9O.s 			page 5


 222:Src/findwayBases.cpp ****     {
 223:Src/findwayBases.cpp ****         l2 = getLen(v->c, &inter2);
 224:Src/findwayBases.cpp ****         if(!(isCoDirectional(v, &inter2) && l2 <= lv))
 225:Src/findwayBases.cpp ****         {
 226:Src/findwayBases.cpp ****             inter2 = {0, 0};
 227:Src/findwayBases.cpp ****             l2 = 0;
 228:Src/findwayBases.cpp ****         }
 229:Src/findwayBases.cpp ****         else if(inter1.eq(0, 0) || l2 < l1)
 230:Src/findwayBases.cpp ****         {
 231:Src/findwayBases.cpp ****             inter1 = inter2;
 232:Src/findwayBases.cpp ****             l1 = l2;
 233:Src/findwayBases.cpp ****             l2 = 0;
 234:Src/findwayBases.cpp ****             inter2 = {0, 0};
 235:Src/findwayBases.cpp ****         }
 236:Src/findwayBases.cpp ****         else
 237:Src/findwayBases.cpp ****         {
 238:Src/findwayBases.cpp ****             l2 = 0;
 239:Src/findwayBases.cpp ****             inter2 = {0, 0};
 240:Src/findwayBases.cpp ****         }
 241:Src/findwayBases.cpp ****     }
 242:Src/findwayBases.cpp ****     else
 243:Src/findwayBases.cpp ****     {
 244:Src/findwayBases.cpp ****         l2 = 0;
 245:Src/findwayBases.cpp ****         inter2 = {0, 0};
 246:Src/findwayBases.cpp ****     }
 247:Src/findwayBases.cpp **** 
 248:Src/findwayBases.cpp ****     return inter1;
 249:Src/findwayBases.cpp ****     
 250:Src/findwayBases.cpp ****     // struct coords   c,
 251:Src/findwayBases.cpp ****     //                 c2,
 252:Src/findwayBases.cpp ****     //                 c3;
 253:Src/findwayBases.cpp **** 
 254:Src/findwayBases.cpp ****     // struct baseline b,
 255:Src/findwayBases.cpp ****     //                 b2;
 256:Src/findwayBases.cpp **** 
 257:Src/findwayBases.cpp ****     // COORDS_DATATYPE l1,
 258:Src/findwayBases.cpp ****     //                 l2,
 259:Src/findwayBases.cpp ****     //                 l3;
 260:Src/findwayBases.cpp ****     // c3 = {(v->dx + v->c->x), (v->dy + v->c->y)};
 261:Src/findwayBases.cpp ****     // l3 = getLen(v->c, &c3);
 262:Src/findwayBases.cpp **** 
 263:Src/findwayBases.cpp ****     // b.k = INF;
 264:Src/findwayBases.cpp ****     // b.b = obst->c->x;
 265:Src/findwayBases.cpp ****     // b2 = vectToBaseline(v);
 266:Src/findwayBases.cpp ****     // c = getIntersection(&b, &b2);
 267:Src/findwayBases.cpp **** 
 268:Src/findwayBases.cpp ****     // b.k = INF;
 269:Src/findwayBases.cpp ****     // b.b = obst->c->x + obst->a;
 270:Src/findwayBases.cpp ****     // c2 = getIntersection(&b, &b2);
 271:Src/findwayBases.cpp ****     // l1 = getLen(v->c, &c);
 272:Src/findwayBases.cpp ****     // if(!isDotInside(&c, obst) && isDotInside(&c2, obst))
 273:Src/findwayBases.cpp ****     // {
 274:Src/findwayBases.cpp ****     //     c = c2;
 275:Src/findwayBases.cpp ****     // }
 276:Src/findwayBases.cpp ****     // else if(isDotInside(&c, obst) && isDotInside(&c2, obst))
 277:Src/findwayBases.cpp ****     // {
 278:Src/findwayBases.cpp ****     //     l2 = getLen(v->c, &c2);
GAS LISTING /tmp/ccC5Gb9O.s 			page 6


 279:Src/findwayBases.cpp ****     //     if(l1 < l2 && l1 <= l3)
 280:Src/findwayBases.cpp ****     //         c = c2;
 281:Src/findwayBases.cpp ****     // }
 282:Src/findwayBases.cpp **** 
 283:Src/findwayBases.cpp ****     // b.k = 0;
 284:Src/findwayBases.cpp ****     // b.b = obst->c->y;
 285:Src/findwayBases.cpp ****     // c2 = getIntersection(&b, &b2);
 286:Src/findwayBases.cpp ****     // if(isDotInside(&c2, obst))
 287:Src/findwayBases.cpp ****     // {
 288:Src/findwayBases.cpp ****     //     l2 = getLen(v->c, &c2);
 289:Src/findwayBases.cpp ****     //     if(l1 < l2 && l1 <= l3)
 290:Src/findwayBases.cpp ****     //         c = c2;
 291:Src/findwayBases.cpp ****     // }
 292:Src/findwayBases.cpp **** 
 293:Src/findwayBases.cpp **** 
 294:Src/findwayBases.cpp ****     // b.k = 0;
 295:Src/findwayBases.cpp ****     // b.b = obst->c->y + obst->a;
 296:Src/findwayBases.cpp ****     // c2 = getIntersection(&b, &b2);
 297:Src/findwayBases.cpp ****     // if(isDotInside(&c2, obst))
 298:Src/findwayBases.cpp ****     // {
 299:Src/findwayBases.cpp ****     //     l2 = getLen(v->c, &c2);
 300:Src/findwayBases.cpp ****     //     if(l2 < l1 && l2 <= l3)
 301:Src/findwayBases.cpp ****     //         c = c2;
 302:Src/findwayBases.cpp ****     // }
 303:Src/findwayBases.cpp **** 
 304:Src/findwayBases.cpp ****     // if(isDotInside(&c, obst))
 305:Src/findwayBases.cpp ****     // {
 306:Src/findwayBases.cpp ****     //     if(isDotInside(&c2, obst))
 307:Src/findwayBases.cpp ****     //     {
 308:Src/findwayBases.cpp ****     //         l1 = getLen(v->c, &c);
 309:Src/findwayBases.cpp ****     //         l2 = getLen(v->c, &c2);
 310:Src/findwayBases.cpp ****     //         if(l1 < l2 && l1 <= l3)
 311:Src/findwayBases.cpp ****     //             return c;
 312:Src/findwayBases.cpp ****     //         else if(l2 <= l3)
 313:Src/findwayBases.cpp ****     //             return c2;
 314:Src/findwayBases.cpp ****     //         else
 315:Src/findwayBases.cpp ****     //             return {0, 0};
 316:Src/findwayBases.cpp ****     //     }
 317:Src/findwayBases.cpp ****     //     else
 318:Src/findwayBases.cpp ****     //         return c;
 319:Src/findwayBases.cpp ****     // }
 320:Src/findwayBases.cpp ****     // else if(isDotInside(&c2, obst) &&  getLen(v->c, &c2) <= l3)
 321:Src/findwayBases.cpp ****     //     return c2;
 322:Src/findwayBases.cpp ****     // else
 323:Src/findwayBases.cpp ****     //     return {0, 0};
 324:Src/findwayBases.cpp **** }
 325:Src/findwayBases.cpp **** 
 326:Src/findwayBases.cpp **** 
 327:Src/findwayBases.cpp **** 
 328:Src/findwayBases.cpp **** 
 329:Src/findwayBases.cpp **** bool            isDotInside(const struct coords *dot, const struct obstacle *obstacle)
 330:Src/findwayBases.cpp **** {
 331:Src/findwayBases.cpp ****     return      (dot->x >= obstacle->c->x)
 332:Src/findwayBases.cpp ****             &&  (dot->x <= obstacle->c->x + obstacle->a)
 333:Src/findwayBases.cpp ****             &&  (dot->y >= obstacle->c->y)
 334:Src/findwayBases.cpp ****             &&  (dot->y <= obstacle->c->y + obstacle->a);
 335:Src/findwayBases.cpp **** }
GAS LISTING /tmp/ccC5Gb9O.s 			page 7


 336:Src/findwayBases.cpp **** 
 337:Src/findwayBases.cpp **** struct baseline vectToBaseline(const struct vect *v)
 338:Src/findwayBases.cpp **** {
 339:Src/findwayBases.cpp ****     struct baseline ret;
 340:Src/findwayBases.cpp **** 
 341:Src/findwayBases.cpp ****     ret.k = ((float)v->dy / (float)v->dx);
 342:Src/findwayBases.cpp **** 
 343:Src/findwayBases.cpp ****     if(v->dx != 0)
 344:Src/findwayBases.cpp ****         ret.b = v->c->y - v->c->x * ret.k;
 345:Src/findwayBases.cpp ****     else
 346:Src/findwayBases.cpp ****         ret.b = v->c->x;
 347:Src/findwayBases.cpp **** 
 348:Src/findwayBases.cpp ****     return ret;
 349:Src/findwayBases.cpp **** }
 350:Src/findwayBases.cpp **** 
 351:Src/findwayBases.cpp **** COORDS_DATATYPE getLen(const struct coords *c1, const struct coords *c2)
 352:Src/findwayBases.cpp **** {
 353:Src/findwayBases.cpp ****     COORDS_DATATYPE lx = c1->x - c2->x,
 354:Src/findwayBases.cpp ****                     ly = c1->y - c2->y,
 355:Src/findwayBases.cpp ****                     l  = sqrt(sqr(lx) + sqr(ly));
 356:Src/findwayBases.cpp **** 
 357:Src/findwayBases.cpp ****     return l;
 358:Src/findwayBases.cpp **** }
 359:Src/findwayBases.cpp **** 
 360:Src/findwayBases.cpp **** COORDS_DATATYPE getLen(const struct vect *v)
 361:Src/findwayBases.cpp **** {
 362:Src/findwayBases.cpp ****     COORDS_DATATYPE l = sqrt(sqr(v->dx) + sqr(v->dy));
 363:Src/findwayBases.cpp ****     return l;
 364:Src/findwayBases.cpp **** }
 365:Src/findwayBases.cpp **** 
 366:Src/findwayBases.cpp **** struct coords   createCoords(const COORDS_DATATYPE x, const COORDS_DATATYPE y)
 367:Src/findwayBases.cpp **** {
 368:Src/findwayBases.cpp ****     struct coords ret;
 369:Src/findwayBases.cpp ****     ret.x = x;
 370:Src/findwayBases.cpp ****     ret.y = y;
 371:Src/findwayBases.cpp ****     return ret;
 372:Src/findwayBases.cpp **** }
 373:Src/findwayBases.cpp **** 
 374:Src/findwayBases.cpp **** struct obstacle createObstacle(const COORDS_DATATYPE x, const COORDS_DATATYPE y, const COORDS_DATAT
 375:Src/findwayBases.cpp **** {
 376:Src/findwayBases.cpp ****     struct obstacle ret;
 377:Src/findwayBases.cpp ****     ret.c = (struct coords*)malloc(sizeof(struct coords));
 378:Src/findwayBases.cpp ****     ret.c->x = x;
 379:Src/findwayBases.cpp ****     ret.c->y = y;
 380:Src/findwayBases.cpp ****     ret.a    = a;
 381:Src/findwayBases.cpp ****     for(uint8_t i = 0; i < 4; i++)
 382:Src/findwayBases.cpp ****     {
 383:Src/findwayBases.cpp ****         ret.corners[i] = (struct graphPoint*)malloc(sizeof(struct graphPoint));
 384:Src/findwayBases.cpp ****         ret.corners[i]->c = *getCoordsOfCorner(&ret, i);
 385:Src/findwayBases.cpp ****     }
 386:Src/findwayBases.cpp **** 
 387:Src/findwayBases.cpp ****     return ret;
 388:Src/findwayBases.cpp **** }
 389:Src/findwayBases.cpp **** 
 390:Src/findwayBases.cpp **** 
 391:Src/findwayBases.cpp **** #define CONST 0.4
 392:Src/findwayBases.cpp **** 
GAS LISTING /tmp/ccC5Gb9O.s 			page 8


 393:Src/findwayBases.cpp **** struct coords*  getCoordsOfCorner(const struct obstacle *obst, const uint8_t corner)
 394:Src/findwayBases.cpp **** {
 395:Src/findwayBases.cpp ****     struct coords *ret = (struct coords*)malloc(sizeof(struct coords));
 396:Src/findwayBases.cpp ****     switch (corner) {
 397:Src/findwayBases.cpp ****         case CORNER_LEFT_BOT:
 398:Src/findwayBases.cpp ****         {
 399:Src/findwayBases.cpp ****             ret->x = obst->c->x - CONST;
 400:Src/findwayBases.cpp ****             ret->y = obst->c->y - CONST;
 401:Src/findwayBases.cpp ****             break;
 402:Src/findwayBases.cpp ****         }
 403:Src/findwayBases.cpp ****         case CORNER_LEFT_TOP:
 404:Src/findwayBases.cpp ****         {
 405:Src/findwayBases.cpp ****             ret->x = obst->c->x - CONST;
 406:Src/findwayBases.cpp ****             ret->y = obst->c->y + obst->a + CONST;
 407:Src/findwayBases.cpp ****             break;
 408:Src/findwayBases.cpp ****         }
 409:Src/findwayBases.cpp ****         case CORNER_RIGHT_BOT:
 410:Src/findwayBases.cpp ****         {
 411:Src/findwayBases.cpp ****             ret->x = obst->c->x + obst->a + CONST;
 412:Src/findwayBases.cpp ****             ret->y = obst->c->y - CONST;
 413:Src/findwayBases.cpp ****             break;
 414:Src/findwayBases.cpp ****         }
 415:Src/findwayBases.cpp ****         case CORNER_RIGHT_TOP:
 416:Src/findwayBases.cpp ****         {
 417:Src/findwayBases.cpp ****             ret->x = obst->c->x + obst->a + CONST;
 418:Src/findwayBases.cpp ****             ret->y = obst->c->y + obst->a + CONST;
 419:Src/findwayBases.cpp ****             break;
 420:Src/findwayBases.cpp ****         }
 421:Src/findwayBases.cpp ****     }
 422:Src/findwayBases.cpp ****     return ret;
 423:Src/findwayBases.cpp **** }
 424:Src/findwayBases.cpp **** 
 425:Src/findwayBases.cpp **** 
 426:Src/findwayBases.cpp **** struct graphPoint* getPoint(const struct obstacle *obst, const uint8_t corner)
 427:Src/findwayBases.cpp **** {
 428:Src/findwayBases.cpp ****     return obst->corners[corner];
 429:Src/findwayBases.cpp **** }
 430:Src/findwayBases.cpp **** 
 431:Src/findwayBases.cpp **** 
 432:Src/findwayBases.cpp **** 
 433:Src/findwayBases.cpp **** bool            hasIntersection(const struct obstacle *obst, const struct vect *v)
 434:Src/findwayBases.cpp **** {
 435:Src/findwayBases.cpp ****     struct coords c = getIntersection(obst, v);
 436:Src/findwayBases.cpp ****     // std::cout << "obst: " << obst->c->x << ":" << obst->c->y << "; vect: " << v->c->x << ":" << 
 437:Src/findwayBases.cpp ****     if((c.x == 0 && c.y == 0) || c.eq(v->c) || (((v->dx + v->c->x) == c.x) && ((v->dy + v->c->y) ==
 438:Src/findwayBases.cpp ****     {
 439:Src/findwayBases.cpp ****         // std::cout << "have no intersection" << std::endl;
 440:Src/findwayBases.cpp ****         return false;
 441:Src/findwayBases.cpp ****     }
 442:Src/findwayBases.cpp ****     else
 443:Src/findwayBases.cpp ****     {
 444:Src/findwayBases.cpp ****         // std::cout << "have intersection" << std::endl;
 445:Src/findwayBases.cpp ****         return true;
 446:Src/findwayBases.cpp ****     }
 447:Src/findwayBases.cpp **** }
 448:Src/findwayBases.cpp **** 
 449:Src/findwayBases.cpp **** 
GAS LISTING /tmp/ccC5Gb9O.s 			page 9


 450:Src/findwayBases.cpp **** void            addTarget(struct graphPoint *start, struct graphPoint *end)
 451:Src/findwayBases.cpp **** {
 452:Src/findwayBases.cpp ****     std::cout << "ADD TARGET ";
 453:Src/findwayBases.cpp ****     if(start == end) 
 454:Src/findwayBases.cpp ****     {
 455:Src/findwayBases.cpp ****         std::cout << "ST=EN ";
 456:Src/findwayBases.cpp ****         return;
 457:Src/findwayBases.cpp ****     }
 458:Src/findwayBases.cpp ****     for(size_t i = 0; i < start->numOfTargets; i++)
 459:Src/findwayBases.cpp ****         if(start->targets[i] == end)
 460:Src/findwayBases.cpp ****         {
 461:Src/findwayBases.cpp ****             std::cout << "ALREADY EXISTS ";
 462:Src/findwayBases.cpp ****             return;
 463:Src/findwayBases.cpp ****         }
 464:Src/findwayBases.cpp ****     for(size_t i = 0; i < end->numOfTargets; i++)
 465:Src/findwayBases.cpp ****         if(end->targets[i] == start)
 466:Src/findwayBases.cpp ****         {
 467:Src/findwayBases.cpp ****             std::cout << "ALREADY EXISTS ";
 468:Src/findwayBases.cpp ****             return;
 469:Src/findwayBases.cpp ****         }
 470:Src/findwayBases.cpp **** 
 471:Src/findwayBases.cpp ****     start->targets = (struct graphPoint**)realloc(start->targets, (++(start->numOfTargets)) * sizeo
 472:Src/findwayBases.cpp ****     start->targets[start->numOfTargets - 1] = end;
 473:Src/findwayBases.cpp **** 
 474:Src/findwayBases.cpp ****     end->targets = (struct graphPoint**)realloc(end->targets, (++(end->numOfTargets)) * sizeof(stru
 475:Src/findwayBases.cpp ****     end->targets[end->numOfTargets - 1] = start;
 476:Src/findwayBases.cpp **** }
 477:Src/findwayBases.cpp **** 
 478:Src/findwayBases.cpp **** 
 479:Src/findwayBases.cpp **** COORDS_DATATYPE getWayPrice(struct graphPoint *start, struct graphPoint *end)
 480:Src/findwayBases.cpp **** {
 481:Src/findwayBases.cpp ****     return sqrt(pow(start->c.x - end->c.x, 2) + pow(start->c.y - end->c.y, 2));
 482:Src/findwayBases.cpp **** }
 483:Src/findwayBases.cpp **** 
 484:Src/findwayBases.cpp **** COORDS_DATATYPE getWayPrice(struct coords *start, struct coords *end)
 485:Src/findwayBases.cpp **** {
 486:Src/findwayBases.cpp ****     return sqrt(pow(start->x - end->x, 2) + pow(start->y - end->y, 2));
 487:Src/findwayBases.cpp **** }...
   9              		.loc 1 487 1 view -0
  10              		.cfi_startproc
  11              		.loc 1 487 1 is_stmt 0 view .LVU1
  12 0000 83FF01   		cmpl	$1, %edi
  13 0003 7401     		je	.L7
  14              	.L4:
  15 0005 C3       		ret
  16              	.L7:
  17              		.loc 1 487 1 discriminator 1 view .LVU2
  18 0006 81FEFFFF 		cmpl	$65535, %esi
  18      0000
  19 000c 75F7     		jne	.L4
  20              		.loc 1 487 1 view .LVU3
  21 000e 4883EC08 		subq	$8, %rsp
  22              		.cfi_def_cfa_offset 16
  23              		.file 2 "/usr/include/c++/9.2.0/iostream"
   1:/usr/include/c++/9.2.0/iostream **** // Standard iostream objects -*- C++ -*-
   2:/usr/include/c++/9.2.0/iostream **** 
   3:/usr/include/c++/9.2.0/iostream **** // Copyright (C) 1997-2019 Free Software Foundation, Inc.
GAS LISTING /tmp/ccC5Gb9O.s 			page 10


   4:/usr/include/c++/9.2.0/iostream **** //
   5:/usr/include/c++/9.2.0/iostream **** // This file is part of the GNU ISO C++ Library.  This library is free
   6:/usr/include/c++/9.2.0/iostream **** // software; you can redistribute it and/or modify it under the
   7:/usr/include/c++/9.2.0/iostream **** // terms of the GNU General Public License as published by the
   8:/usr/include/c++/9.2.0/iostream **** // Free Software Foundation; either version 3, or (at your option)
   9:/usr/include/c++/9.2.0/iostream **** // any later version.
  10:/usr/include/c++/9.2.0/iostream **** 
  11:/usr/include/c++/9.2.0/iostream **** // This library is distributed in the hope that it will be useful,
  12:/usr/include/c++/9.2.0/iostream **** // but WITHOUT ANY WARRANTY; without even the implied warranty of
  13:/usr/include/c++/9.2.0/iostream **** // MERCHANTABILITY or FITNESS FOR A PARTICULAR PURPOSE.  See the
  14:/usr/include/c++/9.2.0/iostream **** // GNU General Public License for more details.
  15:/usr/include/c++/9.2.0/iostream **** 
  16:/usr/include/c++/9.2.0/iostream **** // Under Section 7 of GPL version 3, you are granted additional
  17:/usr/include/c++/9.2.0/iostream **** // permissions described in the GCC Runtime Library Exception, version
  18:/usr/include/c++/9.2.0/iostream **** // 3.1, as published by the Free Software Foundation.
  19:/usr/include/c++/9.2.0/iostream **** 
  20:/usr/include/c++/9.2.0/iostream **** // You should have received a copy of the GNU General Public License and
  21:/usr/include/c++/9.2.0/iostream **** // a copy of the GCC Runtime Library Exception along with this program;
  22:/usr/include/c++/9.2.0/iostream **** // see the files COPYING3 and COPYING.RUNTIME respectively.  If not, see
  23:/usr/include/c++/9.2.0/iostream **** // <http://www.gnu.org/licenses/>.
  24:/usr/include/c++/9.2.0/iostream **** 
  25:/usr/include/c++/9.2.0/iostream **** /** @file include/iostream
  26:/usr/include/c++/9.2.0/iostream ****  *  This is a Standard C++ Library header.
  27:/usr/include/c++/9.2.0/iostream ****  */
  28:/usr/include/c++/9.2.0/iostream **** 
  29:/usr/include/c++/9.2.0/iostream **** //
  30:/usr/include/c++/9.2.0/iostream **** // ISO C++ 14882: 27.3  Standard iostream objects
  31:/usr/include/c++/9.2.0/iostream **** //
  32:/usr/include/c++/9.2.0/iostream **** 
  33:/usr/include/c++/9.2.0/iostream **** #ifndef _GLIBCXX_IOSTREAM
  34:/usr/include/c++/9.2.0/iostream **** #define _GLIBCXX_IOSTREAM 1
  35:/usr/include/c++/9.2.0/iostream **** 
  36:/usr/include/c++/9.2.0/iostream **** #pragma GCC system_header
  37:/usr/include/c++/9.2.0/iostream **** 
  38:/usr/include/c++/9.2.0/iostream **** #include <bits/c++config.h>
  39:/usr/include/c++/9.2.0/iostream **** #include <ostream>
  40:/usr/include/c++/9.2.0/iostream **** #include <istream>
  41:/usr/include/c++/9.2.0/iostream **** 
  42:/usr/include/c++/9.2.0/iostream **** namespace std _GLIBCXX_VISIBILITY(default)
  43:/usr/include/c++/9.2.0/iostream **** {
  44:/usr/include/c++/9.2.0/iostream **** _GLIBCXX_BEGIN_NAMESPACE_VERSION
  45:/usr/include/c++/9.2.0/iostream **** 
  46:/usr/include/c++/9.2.0/iostream ****   /**
  47:/usr/include/c++/9.2.0/iostream ****    *  @name Standard Stream Objects
  48:/usr/include/c++/9.2.0/iostream ****    *
  49:/usr/include/c++/9.2.0/iostream ****    *  The &lt;iostream&gt; header declares the eight <em>standard stream
  50:/usr/include/c++/9.2.0/iostream ****    *  objects</em>.  For other declarations, see
  51:/usr/include/c++/9.2.0/iostream ****    *  http://gcc.gnu.org/onlinedocs/libstdc++/manual/io.html
  52:/usr/include/c++/9.2.0/iostream ****    *  and the @link iosfwd I/O forward declarations @endlink
  53:/usr/include/c++/9.2.0/iostream ****    *
  54:/usr/include/c++/9.2.0/iostream ****    *  They are required by default to cooperate with the global C
  55:/usr/include/c++/9.2.0/iostream ****    *  library's @c FILE streams, and to be available during program
  56:/usr/include/c++/9.2.0/iostream ****    *  startup and termination. For more information, see the section of the
  57:/usr/include/c++/9.2.0/iostream ****    *  manual linked to above.
  58:/usr/include/c++/9.2.0/iostream ****   */
  59:/usr/include/c++/9.2.0/iostream ****   //@{
  60:/usr/include/c++/9.2.0/iostream ****   extern istream cin;		/// Linked to standard input
GAS LISTING /tmp/ccC5Gb9O.s 			page 11


  61:/usr/include/c++/9.2.0/iostream ****   extern ostream cout;		/// Linked to standard output
  62:/usr/include/c++/9.2.0/iostream ****   extern ostream cerr;		/// Linked to standard error (unbuffered)
  63:/usr/include/c++/9.2.0/iostream ****   extern ostream clog;		/// Linked to standard error (buffered)
  64:/usr/include/c++/9.2.0/iostream **** 
  65:/usr/include/c++/9.2.0/iostream **** #ifdef _GLIBCXX_USE_WCHAR_T
  66:/usr/include/c++/9.2.0/iostream ****   extern wistream wcin;		/// Linked to standard input
  67:/usr/include/c++/9.2.0/iostream ****   extern wostream wcout;	/// Linked to standard output
  68:/usr/include/c++/9.2.0/iostream ****   extern wostream wcerr;	/// Linked to standard error (unbuffered)
  69:/usr/include/c++/9.2.0/iostream ****   extern wostream wclog;	/// Linked to standard error (buffered)
  70:/usr/include/c++/9.2.0/iostream **** #endif
  71:/usr/include/c++/9.2.0/iostream ****   //@}
  72:/usr/include/c++/9.2.0/iostream **** 
  73:/usr/include/c++/9.2.0/iostream ****   // For construction of filebuffers for cout, cin, cerr, clog et. al.
  74:/usr/include/c++/9.2.0/iostream ****   static ios_base::Init __ioinit;
  24              		.loc 2 74 25 view .LVU4
  25 0012 488D3D00 		leaq	_ZStL8__ioinit(%rip), %rdi
  25      000000
  26              	.LVL1:
  27              		.loc 2 74 25 view .LVU5
  28 0019 E8000000 		call	_ZNSt8ios_base4InitC1Ev@PLT
  28      00
  29              	.LVL2:
  30              		.loc 2 74 25 view .LVU6
  31 001e 488D1500 		leaq	__dso_handle(%rip), %rdx
  31      000000
  32 0025 488D3500 		leaq	_ZStL8__ioinit(%rip), %rsi
  32      000000
  33 002c 488B3D00 		movq	_ZNSt8ios_base4InitD1Ev@GOTPCREL(%rip), %rdi
  33      000000
  34 0033 E8000000 		call	__cxa_atexit@PLT
  34      00
  35              	.LVL3:
  36              		.loc 1 487 1 view .LVU7
  37 0038 4883C408 		addq	$8, %rsp
  38              		.cfi_def_cfa_offset 8
  39 003c C3       		ret
  40              		.cfi_endproc
  41              	.LFE2077:
  43              		.globl	_Z15hasIntersectionPK8baselineS1_
  45              	_Z15hasIntersectionPK8baselineS1_:
  46              	.LVL4:
  47              	.LFB1722:
   5:Src/findwayBases.cpp **** {
  48              		.loc 1 5 1 is_stmt 1 view -0
  49              		.cfi_startproc
   6:Src/findwayBases.cpp ****     return b1->k != b2->k;
  50              		.loc 1 6 5 view .LVU9
   6:Src/findwayBases.cpp ****     return b1->k != b2->k;
  51              		.loc 1 6 16 is_stmt 0 view .LVU10
  52 003d F30F1007 		movss	(%rdi), %xmm0
   6:Src/findwayBases.cpp ****     return b1->k != b2->k;
  53              		.loc 1 6 25 view .LVU11
  54 0041 0F2E06   		ucomiss	(%rsi), %xmm0
  55 0044 0F9AC0   		setp	%al
  56 0047 BA010000 		movl	$1, %edx
  56      00
  57 004c 0F45C2   		cmovne	%edx, %eax
GAS LISTING /tmp/ccC5Gb9O.s 			page 12


   7:Src/findwayBases.cpp **** }
  58              		.loc 1 7 1 view .LVU12
  59 004f C3       		ret
  60              		.cfi_endproc
  61              	.LFE1722:
  63              		.globl	_Z15getIntersectionPK8baselineS1_
  65              	_Z15getIntersectionPK8baselineS1_:
  66              	.LVL5:
  67              	.LFB1723:
  10:Src/findwayBases.cpp **** {
  68              		.loc 1 10 1 is_stmt 1 view -0
  69              		.cfi_startproc
  11:Src/findwayBases.cpp ****     struct coords ret;
  70              		.loc 1 11 5 view .LVU14
  12:Src/findwayBases.cpp ****     if(b1->k == b2->k)
  71              		.loc 1 12 5 view .LVU15
  12:Src/findwayBases.cpp ****     if(b1->k == b2->k)
  72              		.loc 1 12 12 is_stmt 0 view .LVU16
  73 0050 F30F1007 		movss	(%rdi), %xmm0
  12:Src/findwayBases.cpp ****     if(b1->k == b2->k)
  74              		.loc 1 12 21 view .LVU17
  75 0054 F30F100E 		movss	(%rsi), %xmm1
  12:Src/findwayBases.cpp ****     if(b1->k == b2->k)
  76              		.loc 1 12 5 view .LVU18
  77 0058 0F2EC1   		ucomiss	%xmm1, %xmm0
  78 005b 7A07     		jp	.L10
  79 005d 7505     		jne	.L10
  13:Src/findwayBases.cpp ****         ret = {0, 0};
  80              		.loc 1 13 9 is_stmt 1 view .LVU19
  13:Src/findwayBases.cpp ****         ret = {0, 0};
  81              		.loc 1 13 13 is_stmt 0 view .LVU20
  82 005f 660FEFC0 		pxor	%xmm0, %xmm0
  83              	.LVL6:
  13:Src/findwayBases.cpp ****         ret = {0, 0};
  84              		.loc 1 13 13 view .LVU21
  85 0063 C3       		ret
  86              	.L10:
  16:Src/findwayBases.cpp ****         if(abs(b1->k) != INF && abs(b2->k) != INF)
  87              		.loc 1 16 9 is_stmt 1 view .LVU22
  88              	.LVL7:
  89              	.LBB40:
  90              	.LBI40:
  91              		.file 3 "/usr/include/c++/9.2.0/bits/std_abs.h"
   1:/usr/include/c++/9.2.0/bits/std_abs.h **** // -*- C++ -*- C library enhancements header.
   2:/usr/include/c++/9.2.0/bits/std_abs.h **** 
   3:/usr/include/c++/9.2.0/bits/std_abs.h **** // Copyright (C) 2016-2019 Free Software Foundation, Inc.
   4:/usr/include/c++/9.2.0/bits/std_abs.h **** //
   5:/usr/include/c++/9.2.0/bits/std_abs.h **** // This file is part of the GNU ISO C++ Library.  This library is free
   6:/usr/include/c++/9.2.0/bits/std_abs.h **** // software; you can redistribute it and/or modify it under the
   7:/usr/include/c++/9.2.0/bits/std_abs.h **** // terms of the GNU General Public License as published by the
   8:/usr/include/c++/9.2.0/bits/std_abs.h **** // Free Software Foundation; either version 3, or (at your option)
   9:/usr/include/c++/9.2.0/bits/std_abs.h **** // any later version.
  10:/usr/include/c++/9.2.0/bits/std_abs.h **** 
  11:/usr/include/c++/9.2.0/bits/std_abs.h **** // This library is distributed in the hope that it will be useful,
  12:/usr/include/c++/9.2.0/bits/std_abs.h **** // but WITHOUT ANY WARRANTY; without even the implied warranty of
  13:/usr/include/c++/9.2.0/bits/std_abs.h **** // MERCHANTABILITY or FITNESS FOR A PARTICULAR PURPOSE.  See the
  14:/usr/include/c++/9.2.0/bits/std_abs.h **** // GNU General Public License for more details.
GAS LISTING /tmp/ccC5Gb9O.s 			page 13


  15:/usr/include/c++/9.2.0/bits/std_abs.h **** 
  16:/usr/include/c++/9.2.0/bits/std_abs.h **** // Under Section 7 of GPL version 3, you are granted additional
  17:/usr/include/c++/9.2.0/bits/std_abs.h **** // permissions described in the GCC Runtime Library Exception, version
  18:/usr/include/c++/9.2.0/bits/std_abs.h **** // 3.1, as published by the Free Software Foundation.
  19:/usr/include/c++/9.2.0/bits/std_abs.h **** 
  20:/usr/include/c++/9.2.0/bits/std_abs.h **** // You should have received a copy of the GNU General Public License and
  21:/usr/include/c++/9.2.0/bits/std_abs.h **** // a copy of the GCC Runtime Library Exception along with this program;
  22:/usr/include/c++/9.2.0/bits/std_abs.h **** // see the files COPYING3 and COPYING.RUNTIME respectively.  If not, see
  23:/usr/include/c++/9.2.0/bits/std_abs.h **** // <http://www.gnu.org/licenses/>.
  24:/usr/include/c++/9.2.0/bits/std_abs.h **** 
  25:/usr/include/c++/9.2.0/bits/std_abs.h **** /** @file include/bits/std_abs.h
  26:/usr/include/c++/9.2.0/bits/std_abs.h ****  *  This is an internal header file, included by other library headers.
  27:/usr/include/c++/9.2.0/bits/std_abs.h ****  *  Do not attempt to use it directly. @headername{cmath, cstdlib}
  28:/usr/include/c++/9.2.0/bits/std_abs.h ****  */
  29:/usr/include/c++/9.2.0/bits/std_abs.h **** 
  30:/usr/include/c++/9.2.0/bits/std_abs.h **** #ifndef _GLIBCXX_BITS_STD_ABS_H
  31:/usr/include/c++/9.2.0/bits/std_abs.h **** #define _GLIBCXX_BITS_STD_ABS_H
  32:/usr/include/c++/9.2.0/bits/std_abs.h **** 
  33:/usr/include/c++/9.2.0/bits/std_abs.h **** #pragma GCC system_header
  34:/usr/include/c++/9.2.0/bits/std_abs.h **** 
  35:/usr/include/c++/9.2.0/bits/std_abs.h **** #include <bits/c++config.h>
  36:/usr/include/c++/9.2.0/bits/std_abs.h **** 
  37:/usr/include/c++/9.2.0/bits/std_abs.h **** #define _GLIBCXX_INCLUDE_NEXT_C_HEADERS
  38:/usr/include/c++/9.2.0/bits/std_abs.h **** #include_next <stdlib.h>
  39:/usr/include/c++/9.2.0/bits/std_abs.h **** #ifdef __CORRECT_ISO_CPP_MATH_H_PROTO
  40:/usr/include/c++/9.2.0/bits/std_abs.h **** # include_next <math.h>
  41:/usr/include/c++/9.2.0/bits/std_abs.h **** #endif
  42:/usr/include/c++/9.2.0/bits/std_abs.h **** #undef _GLIBCXX_INCLUDE_NEXT_C_HEADERS
  43:/usr/include/c++/9.2.0/bits/std_abs.h **** 
  44:/usr/include/c++/9.2.0/bits/std_abs.h **** #undef abs
  45:/usr/include/c++/9.2.0/bits/std_abs.h **** 
  46:/usr/include/c++/9.2.0/bits/std_abs.h **** extern "C++"
  47:/usr/include/c++/9.2.0/bits/std_abs.h **** {
  48:/usr/include/c++/9.2.0/bits/std_abs.h **** namespace std _GLIBCXX_VISIBILITY(default)
  49:/usr/include/c++/9.2.0/bits/std_abs.h **** {
  50:/usr/include/c++/9.2.0/bits/std_abs.h **** _GLIBCXX_BEGIN_NAMESPACE_VERSION
  51:/usr/include/c++/9.2.0/bits/std_abs.h **** 
  52:/usr/include/c++/9.2.0/bits/std_abs.h ****   using ::abs;
  53:/usr/include/c++/9.2.0/bits/std_abs.h **** 
  54:/usr/include/c++/9.2.0/bits/std_abs.h **** #ifndef __CORRECT_ISO_CPP_STDLIB_H_PROTO
  55:/usr/include/c++/9.2.0/bits/std_abs.h ****   inline long
  56:/usr/include/c++/9.2.0/bits/std_abs.h ****   abs(long __i) { return __builtin_labs(__i); }
  57:/usr/include/c++/9.2.0/bits/std_abs.h **** #endif
  58:/usr/include/c++/9.2.0/bits/std_abs.h **** 
  59:/usr/include/c++/9.2.0/bits/std_abs.h **** #ifdef _GLIBCXX_USE_LONG_LONG
  60:/usr/include/c++/9.2.0/bits/std_abs.h ****   inline long long
  61:/usr/include/c++/9.2.0/bits/std_abs.h ****   abs(long long __x) { return __builtin_llabs (__x); }
  62:/usr/include/c++/9.2.0/bits/std_abs.h **** #endif
  63:/usr/include/c++/9.2.0/bits/std_abs.h **** 
  64:/usr/include/c++/9.2.0/bits/std_abs.h **** // _GLIBCXX_RESOLVE_LIB_DEFECTS
  65:/usr/include/c++/9.2.0/bits/std_abs.h **** // 2192. Validity and return type of std::abs(0u) is unclear
  66:/usr/include/c++/9.2.0/bits/std_abs.h **** // 2294. <cstdlib> should declare abs(double)
  67:/usr/include/c++/9.2.0/bits/std_abs.h **** // 2735. std::abs(short), std::abs(signed char) and others should return int
  68:/usr/include/c++/9.2.0/bits/std_abs.h **** 
  69:/usr/include/c++/9.2.0/bits/std_abs.h **** #ifndef __CORRECT_ISO_CPP_MATH_H_PROTO
  70:/usr/include/c++/9.2.0/bits/std_abs.h ****   inline _GLIBCXX_CONSTEXPR double
  71:/usr/include/c++/9.2.0/bits/std_abs.h ****   abs(double __x)
GAS LISTING /tmp/ccC5Gb9O.s 			page 14


  72:/usr/include/c++/9.2.0/bits/std_abs.h ****   { return __builtin_fabs(__x); }
  73:/usr/include/c++/9.2.0/bits/std_abs.h **** 
  74:/usr/include/c++/9.2.0/bits/std_abs.h ****   inline _GLIBCXX_CONSTEXPR float
  75:/usr/include/c++/9.2.0/bits/std_abs.h ****   abs(float __x)
  92              		.loc 3 75 3 view .LVU23
  93              	.LBB41:
  76:/usr/include/c++/9.2.0/bits/std_abs.h ****   { return __builtin_fabsf(__x); }
  94              		.loc 3 76 5 view .LVU24
  95              		.loc 3 76 31 is_stmt 0 view .LVU25
  96 0064 0F28D8   		movaps	%xmm0, %xmm3
  97 0067 0F541D00 		andps	.LC1(%rip), %xmm3
  97      000000
  98              	.LVL8:
  99              		.loc 3 76 31 view .LVU26
 100              	.LBE41:
 101              	.LBE40:
  16:Src/findwayBases.cpp ****         if(abs(b1->k) != INF && abs(b2->k) != INF)
 102              		.loc 1 16 15 view .LVU27
 103 006e F30F5ADB 		cvtss2sd	%xmm3, %xmm3
  16:Src/findwayBases.cpp ****         if(abs(b1->k) != INF && abs(b2->k) != INF)
 104              		.loc 1 16 26 view .LVU28
 105 0072 F20F1015 		movsd	.LC2(%rip), %xmm2
 105      00000000 
 106 007a F20F5E15 		divsd	.LC3(%rip), %xmm2
 106      00000000 
  16:Src/findwayBases.cpp ****         if(abs(b1->k) != INF && abs(b2->k) != INF)
 107              		.loc 1 16 30 view .LVU29
 108 0082 660F2EDA 		ucomisd	%xmm2, %xmm3
 109 0086 7A36     		jp	.L19
 110 0088 7534     		jne	.L19
 111              	.L13:
  21:Src/findwayBases.cpp ****         else if(abs(b1->k) == INF)
 112              		.loc 1 21 14 is_stmt 1 discriminator 4 view .LVU30
 113              	.LVL9:
 114              		.loc 3 76 5 discriminator 4 view .LVU31
  21:Src/findwayBases.cpp ****         else if(abs(b1->k) == INF)
 115              		.loc 1 21 14 is_stmt 0 discriminator 4 view .LVU32
 116 008a 660F2EDA 		ucomisd	%xmm2, %xmm3
 117 008e 0F8A8800 		jp	.L16
 117      0000
 118 0094 0F858200 		jne	.L16
 118      0000
  23:Src/findwayBases.cpp ****             ret.x = b1->b;
 119              		.loc 1 23 13 is_stmt 1 view .LVU33
  23:Src/findwayBases.cpp ****             ret.x = b1->b;
 120              		.loc 1 23 25 is_stmt 0 view .LVU34
 121 009a F30F1057 		movss	4(%rdi), %xmm2
 121      04
  24:Src/findwayBases.cpp ****             ret.y = b2->k * ret.x + b2->b;
 122              		.loc 1 24 13 is_stmt 1 view .LVU35
  24:Src/findwayBases.cpp ****             ret.y = b2->k * ret.x + b2->b;
 123              		.loc 1 24 27 is_stmt 0 view .LVU36
 124 009f F30F59CA 		mulss	%xmm2, %xmm1
  24:Src/findwayBases.cpp ****             ret.y = b2->k * ret.x + b2->b;
 125              		.loc 1 24 19 view .LVU37
 126 00a3 F30F584E 		addss	4(%rsi), %xmm1
 126      04
GAS LISTING /tmp/ccC5Gb9O.s 			page 15


 127 00a8 66480F7E 		movq	%xmm1, %rax
 127      C8
 128 00ad 48C1E020 		salq	$32, %rax
 129 00b1 660F7ED2 		movd	%xmm2, %edx
 130              	.LVL10:
  24:Src/findwayBases.cpp ****             ret.y = b2->k * ret.x + b2->b;
 131              		.loc 1 24 19 view .LVU38
 132 00b5 4809C2   		orq	%rax, %rdx
 133              	.LVL11:
  24:Src/findwayBases.cpp ****             ret.y = b2->k * ret.x + b2->b;
 134              		.loc 1 24 19 view .LVU39
 135 00b8 66480F6E 		movq	%rdx, %xmm0
 135      C2
 136 00bd C3       		ret
 137              	.LVL12:
 138              	.L19:
 139              	.LBB42:
 140              	.LBI42:
  75:/usr/include/c++/9.2.0/bits/std_abs.h ****   { return __builtin_fabsf(__x); }
 141              		.loc 3 75 3 is_stmt 1 discriminator 1 view .LVU40
 142              	.LBB43:
 143              		.loc 3 76 5 discriminator 1 view .LVU41
 144              		.loc 3 76 31 is_stmt 0 discriminator 1 view .LVU42
 145 00be 0F28E1   		movaps	%xmm1, %xmm4
 146 00c1 0F542500 		andps	.LC1(%rip), %xmm4
 146      000000
 147              	.LVL13:
 148              		.loc 3 76 31 discriminator 1 view .LVU43
 149              	.LBE43:
 150              	.LBE42:
  16:Src/findwayBases.cpp ****         if(abs(b1->k) != INF && abs(b2->k) != INF)
 151              		.loc 1 16 36 discriminator 1 view .LVU44
 152 00c8 F30F5AE4 		cvtss2sd	%xmm4, %xmm4
  16:Src/findwayBases.cpp ****         if(abs(b1->k) != INF && abs(b2->k) != INF)
 153              		.loc 1 16 30 discriminator 1 view .LVU45
 154 00cc 660F2ED4 		ucomisd	%xmm4, %xmm2
 155 00d0 7A02     		jp	.L20
 156 00d2 74B6     		je	.L13
 157              	.L20:
  18:Src/findwayBases.cpp ****             ret.x = (b2->b - b1->b) / (b1->k - b2->k);
 158              		.loc 1 18 13 is_stmt 1 view .LVU46
  18:Src/findwayBases.cpp ****             ret.x = (b2->b - b1->b) / (b1->k - b2->k);
 159              		.loc 1 18 26 is_stmt 0 view .LVU47
 160 00d4 F30F1066 		movss	4(%rsi), %xmm4
 160      04
  18:Src/findwayBases.cpp ****             ret.x = (b2->b - b1->b) / (b1->k - b2->k);
 161              		.loc 1 18 34 view .LVU48
 162 00d9 F30F105F 		movss	4(%rdi), %xmm3
 162      04
  18:Src/findwayBases.cpp ****             ret.x = (b2->b - b1->b) / (b1->k - b2->k);
 163              		.loc 1 18 28 view .LVU49
 164 00de 0F28D4   		movaps	%xmm4, %xmm2
 165 00e1 F30F5CD3 		subss	%xmm3, %xmm2
  18:Src/findwayBases.cpp ****             ret.x = (b2->b - b1->b) / (b1->k - b2->k);
 166              		.loc 1 18 46 view .LVU50
 167 00e5 0F28E8   		movaps	%xmm0, %xmm5
 168 00e8 F30F5CE9 		subss	%xmm1, %xmm5
GAS LISTING /tmp/ccC5Gb9O.s 			page 16


  18:Src/findwayBases.cpp ****             ret.x = (b2->b - b1->b) / (b1->k - b2->k);
 169              		.loc 1 18 19 view .LVU51
 170 00ec F30F5ED5 		divss	%xmm5, %xmm2
  19:Src/findwayBases.cpp ****             ret.y = (b2->k * b1->b - b1->k * b2->b) / (b2->k - b1->k);
 171              		.loc 1 19 13 is_stmt 1 view .LVU52
  19:Src/findwayBases.cpp ****             ret.y = (b2->k * b1->b - b1->k * b2->b) / (b2->k - b1->k);
 172              		.loc 1 19 28 is_stmt 0 view .LVU53
 173 00f0 F30F59D9 		mulss	%xmm1, %xmm3
  19:Src/findwayBases.cpp ****             ret.y = (b2->k * b1->b - b1->k * b2->b) / (b2->k - b1->k);
 174              		.loc 1 19 44 view .LVU54
 175 00f4 F30F59E0 		mulss	%xmm0, %xmm4
  19:Src/findwayBases.cpp ****             ret.y = (b2->k * b1->b - b1->k * b2->b) / (b2->k - b1->k);
 176              		.loc 1 19 36 view .LVU55
 177 00f8 F30F5CDC 		subss	%xmm4, %xmm3
  19:Src/findwayBases.cpp ****             ret.y = (b2->k * b1->b - b1->k * b2->b) / (b2->k - b1->k);
 178              		.loc 1 19 62 view .LVU56
 179 00fc F30F5CC8 		subss	%xmm0, %xmm1
  19:Src/findwayBases.cpp ****             ret.y = (b2->k * b1->b - b1->k * b2->b) / (b2->k - b1->k);
 180              		.loc 1 19 19 view .LVU57
 181 0100 F30F5ED9 		divss	%xmm1, %xmm3
 182 0104 660F7ED8 		movd	%xmm3, %eax
 183 0108 4889C2   		movq	%rax, %rdx
 184 010b 48C1E220 		salq	$32, %rdx
 185 010f 660F7ED0 		movd	%xmm2, %eax
 186              	.LVL14:
  19:Src/findwayBases.cpp ****             ret.y = (b2->k * b1->b - b1->k * b2->b) / (b2->k - b1->k);
 187              		.loc 1 19 19 view .LVU58
 188 0113 4809D0   		orq	%rdx, %rax
 189              	.LVL15:
  19:Src/findwayBases.cpp ****             ret.y = (b2->k * b1->b - b1->k * b2->b) / (b2->k - b1->k);
 190              		.loc 1 19 19 view .LVU59
 191 0116 66480F6E 		movq	%rax, %xmm0
 191      C0
 192 011b C3       		ret
 193              	.LVL16:
 194              	.L16:
  28:Src/findwayBases.cpp ****             ret.x = b2->b;
 195              		.loc 1 28 13 is_stmt 1 view .LVU60
  28:Src/findwayBases.cpp ****             ret.x = b2->b;
 196              		.loc 1 28 25 is_stmt 0 view .LVU61
 197 011c F30F1056 		movss	4(%rsi), %xmm2
 197      04
  29:Src/findwayBases.cpp ****             ret.y = b1->k * ret.x + b1->b;
 198              		.loc 1 29 13 is_stmt 1 view .LVU62
  29:Src/findwayBases.cpp ****             ret.y = b1->k * ret.x + b1->b;
 199              		.loc 1 29 27 is_stmt 0 view .LVU63
 200 0121 F30F59C2 		mulss	%xmm2, %xmm0
  29:Src/findwayBases.cpp ****             ret.y = b1->k * ret.x + b1->b;
 201              		.loc 1 29 19 view .LVU64
 202 0125 F30F5847 		addss	4(%rdi), %xmm0
 202      04
 203 012a 66480F7E 		movq	%xmm0, %rax
 203      C0
 204 012f 48C1E020 		salq	$32, %rax
 205 0133 660F7ED2 		movd	%xmm2, %edx
 206              	.LVL17:
  29:Src/findwayBases.cpp ****             ret.y = b1->k * ret.x + b1->b;
GAS LISTING /tmp/ccC5Gb9O.s 			page 17


 207              		.loc 1 29 19 view .LVU65
 208 0137 4809C2   		orq	%rax, %rdx
 209              	.LVL18:
  29:Src/findwayBases.cpp ****             ret.y = b1->k * ret.x + b1->b;
 210              		.loc 1 29 19 view .LVU66
 211 013a 66480F6E 		movq	%rdx, %xmm0
 211      C2
  33:Src/findwayBases.cpp ****     return ret;
 212              		.loc 1 33 5 is_stmt 1 view .LVU67
  34:Src/findwayBases.cpp **** }
 213              		.loc 1 34 1 is_stmt 0 view .LVU68
 214 013f C3       		ret
 215              		.cfi_endproc
 216              	.LFE1723:
 218              		.globl	_Z15isCoDirectionalPK4vectPK6coords
 220              	_Z15isCoDirectionalPK4vectPK6coords:
 221              	.LVL19:
 222              	.LFB1724:
  37:Src/findwayBases.cpp **** {
 223              		.loc 1 37 1 is_stmt 1 view -0
 224              		.cfi_startproc
  38:Src/findwayBases.cpp ****     return (sgn(v->dx) == sgn(c->x - v->c->x) && sgn(v->dy) == sgn(c->y - v->c->y));
 225              		.loc 1 38 5 view .LVU70
  38:Src/findwayBases.cpp ****     return (sgn(v->dx) == sgn(c->x - v->c->x) && sgn(v->dy) == sgn(c->y - v->c->y));
 226              		.loc 1 38 13 is_stmt 0 view .LVU71
 227 0140 660FEFC0 		pxor	%xmm0, %xmm0
 228 0144 0F2F4708 		comiss	8(%rdi), %xmm0
 229 0148 7728     		ja	.L46
 230 014a B9010000 		movl	$1, %ecx
 230      00
 231              	.L23:
  38:Src/findwayBases.cpp ****     return (sgn(v->dx) == sgn(c->x - v->c->x) && sgn(v->dy) == sgn(c->y - v->c->y));
 232              		.loc 1 38 27 discriminator 4 view .LVU72
 233 014f F30F1006 		movss	(%rsi), %xmm0
 234 0153 488B07   		movq	(%rdi), %rax
 235 0156 F30F5C00 		subss	(%rax), %xmm0
 236 015a 660FEFC9 		pxor	%xmm1, %xmm1
 237 015e 0F2FC8   		comiss	%xmm0, %xmm1
 238 0161 7716     		ja	.L47
  38:Src/findwayBases.cpp ****     return (sgn(v->dx) == sgn(c->x - v->c->x) && sgn(v->dy) == sgn(c->y - v->c->y));
 239              		.loc 1 38 27 view .LVU73
 240 0163 BA010000 		movl	$1, %edx
 240      00
 241              	.L25:
  38:Src/findwayBases.cpp ****     return (sgn(v->dx) == sgn(c->x - v->c->x) && sgn(v->dy) == sgn(c->y - v->c->y));
 242              		.loc 1 38 47 discriminator 8 view .LVU74
 243 0168 39D1     		cmpl	%edx, %ecx
 244 016a 7414     		je	.L48
  38:Src/findwayBases.cpp ****     return (sgn(v->dx) == sgn(c->x - v->c->x) && sgn(v->dy) == sgn(c->y - v->c->y));
 245              		.loc 1 38 47 view .LVU75
 246 016c B8000000 		movl	$0, %eax
 246      00
 247 0171 C3       		ret
 248              	.L46:
  38:Src/findwayBases.cpp ****     return (sgn(v->dx) == sgn(c->x - v->c->x) && sgn(v->dy) == sgn(c->y - v->c->y));
 249              		.loc 1 38 13 view .LVU76
 250 0172 B9FFFFFF 		movl	$-1, %ecx
GAS LISTING /tmp/ccC5Gb9O.s 			page 18


 250      FF
 251 0177 EBD6     		jmp	.L23
 252              	.L47:
  38:Src/findwayBases.cpp ****     return (sgn(v->dx) == sgn(c->x - v->c->x) && sgn(v->dy) == sgn(c->y - v->c->y));
 253              		.loc 1 38 27 view .LVU77
 254 0179 BAFFFFFF 		movl	$-1, %edx
 254      FF
 255 017e EBE8     		jmp	.L25
 256              	.L48:
  38:Src/findwayBases.cpp ****     return (sgn(v->dx) == sgn(c->x - v->c->x) && sgn(v->dy) == sgn(c->y - v->c->y));
 257              		.loc 1 38 50 discriminator 9 view .LVU78
 258 0180 660FEFC0 		pxor	%xmm0, %xmm0
 259 0184 0F2F470C 		comiss	12(%rdi), %xmm0
 260 0188 7727     		ja	.L49
  38:Src/findwayBases.cpp ****     return (sgn(v->dx) == sgn(c->x - v->c->x) && sgn(v->dy) == sgn(c->y - v->c->y));
 261              		.loc 1 38 50 view .LVU79
 262 018a BA010000 		movl	$1, %edx
 262      00
 263              	.L28:
  38:Src/findwayBases.cpp ****     return (sgn(v->dx) == sgn(c->x - v->c->x) && sgn(v->dy) == sgn(c->y - v->c->y));
 264              		.loc 1 38 64 discriminator 14 view .LVU80
 265 018f F30F1046 		movss	4(%rsi), %xmm0
 265      04
 266 0194 F30F5C40 		subss	4(%rax), %xmm0
 266      04
 267 0199 660FEFC9 		pxor	%xmm1, %xmm1
 268 019d 0F2FC8   		comiss	%xmm0, %xmm1
 269 01a0 7716     		ja	.L50
  38:Src/findwayBases.cpp ****     return (sgn(v->dx) == sgn(c->x - v->c->x) && sgn(v->dy) == sgn(c->y - v->c->y));
 270              		.loc 1 38 64 view .LVU81
 271 01a2 B8010000 		movl	$1, %eax
 271      00
 272              	.L30:
  38:Src/findwayBases.cpp ****     return (sgn(v->dx) == sgn(c->x - v->c->x) && sgn(v->dy) == sgn(c->y - v->c->y));
 273              		.loc 1 38 47 discriminator 18 view .LVU82
 274 01a7 39C2     		cmpl	%eax, %edx
 275 01a9 7414     		je	.L37
  38:Src/findwayBases.cpp ****     return (sgn(v->dx) == sgn(c->x - v->c->x) && sgn(v->dy) == sgn(c->y - v->c->y));
 276              		.loc 1 38 47 view .LVU83
 277 01ab B8000000 		movl	$0, %eax
 277      00
 278 01b0 C3       		ret
 279              	.L49:
  38:Src/findwayBases.cpp ****     return (sgn(v->dx) == sgn(c->x - v->c->x) && sgn(v->dy) == sgn(c->y - v->c->y));
 280              		.loc 1 38 50 view .LVU84
 281 01b1 BAFFFFFF 		movl	$-1, %edx
 281      FF
 282 01b6 EBD7     		jmp	.L28
 283              	.L50:
  38:Src/findwayBases.cpp ****     return (sgn(v->dx) == sgn(c->x - v->c->x) && sgn(v->dy) == sgn(c->y - v->c->y));
 284              		.loc 1 38 64 view .LVU85
 285 01b8 B8FFFFFF 		movl	$-1, %eax
 285      FF
 286 01bd EBE8     		jmp	.L30
 287              	.L37:
  38:Src/findwayBases.cpp ****     return (sgn(v->dx) == sgn(c->x - v->c->x) && sgn(v->dy) == sgn(c->y - v->c->y));
 288              		.loc 1 38 47 view .LVU86
GAS LISTING /tmp/ccC5Gb9O.s 			page 19


 289 01bf B8010000 		movl	$1, %eax
 289      00
  39:Src/findwayBases.cpp **** }
 290              		.loc 1 39 1 view .LVU87
 291 01c4 C3       		ret
 292              		.cfi_endproc
 293              	.LFE1724:
 295              		.globl	_Z11isDotInsidePK6coordsPK8obstacle
 297              	_Z11isDotInsidePK6coordsPK8obstacle:
 298              	.LVL20:
 299              	.LFB1729:
 330:Src/findwayBases.cpp **** {
 300              		.loc 1 330 1 is_stmt 1 view -0
 301              		.cfi_startproc
 331:Src/findwayBases.cpp ****     return      (dot->x >= obstacle->c->x)
 302              		.loc 1 331 5 view .LVU89
 331:Src/findwayBases.cpp ****     return      (dot->x >= obstacle->c->x)
 303              		.loc 1 331 23 is_stmt 0 view .LVU90
 304 01c5 F30F100F 		movss	(%rdi), %xmm1
 331:Src/findwayBases.cpp ****     return      (dot->x >= obstacle->c->x)
 305              		.loc 1 331 38 view .LVU91
 306 01c9 488B06   		movq	(%rsi), %rax
 331:Src/findwayBases.cpp ****     return      (dot->x >= obstacle->c->x)
 307              		.loc 1 331 41 view .LVU92
 308 01cc F30F1000 		movss	(%rax), %xmm0
 334:Src/findwayBases.cpp ****             &&  (dot->y <= obstacle->c->y + obstacle->a);
 309              		.loc 1 334 13 view .LVU93
 310 01d0 0F2FC8   		comiss	%xmm0, %xmm1
 311 01d3 722C     		jb	.L63
 332:Src/findwayBases.cpp ****             &&  (dot->x <= obstacle->c->x + obstacle->a)
 312              		.loc 1 332 55 view .LVU94
 313 01d5 F30F1056 		movss	40(%rsi), %xmm2
 313      28
 332:Src/findwayBases.cpp ****             &&  (dot->x <= obstacle->c->x + obstacle->a)
 314              		.loc 1 332 43 view .LVU95
 315 01da F30F58C2 		addss	%xmm2, %xmm0
 332:Src/findwayBases.cpp ****             &&  (dot->x <= obstacle->c->x + obstacle->a)
 316              		.loc 1 332 13 view .LVU96
 317 01de 0F2FC1   		comiss	%xmm1, %xmm0
 318 01e1 7224     		jb	.L64
 333:Src/findwayBases.cpp ****             &&  (dot->y >= obstacle->c->y)
 319              		.loc 1 333 23 view .LVU97
 320 01e3 F30F1047 		movss	4(%rdi), %xmm0
 320      04
 333:Src/findwayBases.cpp ****             &&  (dot->y >= obstacle->c->y)
 321              		.loc 1 333 41 view .LVU98
 322 01e8 F30F1048 		movss	4(%rax), %xmm1
 322      04
 333:Src/findwayBases.cpp ****             &&  (dot->y >= obstacle->c->y)
 323              		.loc 1 333 13 view .LVU99
 324 01ed 0F2FC1   		comiss	%xmm1, %xmm0
 325 01f0 721B     		jb	.L65
 334:Src/findwayBases.cpp ****             &&  (dot->y <= obstacle->c->y + obstacle->a);
 326              		.loc 1 334 43 discriminator 3 view .LVU100
 327 01f2 F30F58D1 		addss	%xmm1, %xmm2
 334:Src/findwayBases.cpp ****             &&  (dot->y <= obstacle->c->y + obstacle->a);
 328              		.loc 1 334 13 discriminator 3 view .LVU101
GAS LISTING /tmp/ccC5Gb9O.s 			page 20


 329 01f6 0F2FD0   		comiss	%xmm0, %xmm2
 330 01f9 7318     		jnb	.L59
 334:Src/findwayBases.cpp ****             &&  (dot->y <= obstacle->c->y + obstacle->a);
 331              		.loc 1 334 13 view .LVU102
 332 01fb B8000000 		movl	$0, %eax
 332      00
 333 0200 C3       		ret
 334              	.L63:
 335 0201 B8000000 		movl	$0, %eax
 335      00
 336 0206 C3       		ret
 337              	.L64:
 338 0207 B8000000 		movl	$0, %eax
 338      00
 339 020c C3       		ret
 340              	.L65:
 341 020d B8000000 		movl	$0, %eax
 341      00
 342 0212 C3       		ret
 343              	.L59:
 344 0213 B8010000 		movl	$1, %eax
 344      00
 335:Src/findwayBases.cpp **** }
 345              		.loc 1 335 1 view .LVU103
 346 0218 C3       		ret
 347              		.cfi_endproc
 348              	.LFE1729:
 350              		.globl	_Z14vectToBaselinePK4vect
 352              	_Z14vectToBaselinePK4vect:
 353              	.LVL21:
 354              	.LFB1730:
 338:Src/findwayBases.cpp **** {
 355              		.loc 1 338 1 is_stmt 1 view -0
 356              		.cfi_startproc
 339:Src/findwayBases.cpp ****     struct baseline ret;
 357              		.loc 1 339 5 view .LVU105
 341:Src/findwayBases.cpp ****     ret.k = ((float)v->dy / (float)v->dx);
 358              		.loc 1 341 5 view .LVU106
 341:Src/findwayBases.cpp ****     ret.k = ((float)v->dy / (float)v->dx);
 359              		.loc 1 341 24 is_stmt 0 view .LVU107
 360 0219 F30F104F 		movss	12(%rdi), %xmm1
 360      0C
 341:Src/findwayBases.cpp ****     ret.k = ((float)v->dy / (float)v->dx);
 361              		.loc 1 341 39 view .LVU108
 362 021e F30F1057 		movss	8(%rdi), %xmm2
 362      08
 341:Src/findwayBases.cpp ****     ret.k = ((float)v->dy / (float)v->dx);
 363              		.loc 1 341 27 view .LVU109
 364 0223 F30F5ECA 		divss	%xmm2, %xmm1
 341:Src/findwayBases.cpp ****     ret.k = ((float)v->dy / (float)v->dx);
 365              		.loc 1 341 11 view .LVU110
 366 0227 660F7EC8 		movd	%xmm1, %eax
 343:Src/findwayBases.cpp ****     if(v->dx != 0)
 367              		.loc 1 343 5 is_stmt 1 view .LVU111
 368 022b 0F2E1500 		ucomiss	.LC0(%rip), %xmm2
 368      000000
 369 0232 7A10     		jp	.L70
GAS LISTING /tmp/ccC5Gb9O.s 			page 21


 370 0234 750E     		jne	.L70
 346:Src/findwayBases.cpp ****         ret.b = v->c->x;
 371              		.loc 1 346 9 view .LVU112
 346:Src/findwayBases.cpp ****         ret.b = v->c->x;
 372              		.loc 1 346 20 is_stmt 0 view .LVU113
 373 0236 488B17   		movq	(%rdi), %rdx
 346:Src/findwayBases.cpp ****         ret.b = v->c->x;
 374              		.loc 1 346 15 view .LVU114
 375 0239 8B12     		movl	(%rdx), %edx
 376 023b 48C1E220 		salq	$32, %rdx
 377 023f 4809D0   		orq	%rdx, %rax
 378              	.LVL22:
 346:Src/findwayBases.cpp ****         ret.b = v->c->x;
 379              		.loc 1 346 15 view .LVU115
 380 0242 EB1B     		jmp	.L69
 381              	.L70:
 344:Src/findwayBases.cpp ****         ret.b = v->c->y - v->c->x * ret.k;
 382              		.loc 1 344 9 is_stmt 1 view .LVU116
 344:Src/findwayBases.cpp ****         ret.b = v->c->y - v->c->x * ret.k;
 383              		.loc 1 344 20 is_stmt 0 view .LVU117
 384 0244 488B0F   		movq	(%rdi), %rcx
 344:Src/findwayBases.cpp ****         ret.b = v->c->y - v->c->x * ret.k;
 385              		.loc 1 344 23 view .LVU118
 386 0247 F30F1041 		movss	4(%rcx), %xmm0
 386      04
 344:Src/findwayBases.cpp ****         ret.b = v->c->y - v->c->x * ret.k;
 387              		.loc 1 344 35 view .LVU119
 388 024c F30F5909 		mulss	(%rcx), %xmm1
 344:Src/findwayBases.cpp ****         ret.b = v->c->y - v->c->x * ret.k;
 389              		.loc 1 344 15 view .LVU120
 390 0250 F30F5CC1 		subss	%xmm1, %xmm0
 391 0254 660F7EC2 		movd	%xmm0, %edx
 392 0258 48C1E220 		salq	$32, %rdx
 393 025c 4809D0   		orq	%rdx, %rax
 394              	.L69:
 348:Src/findwayBases.cpp ****     return ret;
 395              		.loc 1 348 5 is_stmt 1 view .LVU121
 396              	.LVL23:
 349:Src/findwayBases.cpp **** }
 397              		.loc 1 349 1 is_stmt 0 view .LVU122
 398 025f 66480F6E 		movq	%rax, %xmm0
 398      C0
 399 0264 C3       		ret
 400              		.cfi_endproc
 401              	.LFE1730:
 403              		.globl	_Z6getLenPK6coordsS1_
 405              	_Z6getLenPK6coordsS1_:
 406              	.LVL24:
 407              	.LFB1731:
 352:Src/findwayBases.cpp **** {
 408              		.loc 1 352 1 is_stmt 1 view -0
 409              		.cfi_startproc
 352:Src/findwayBases.cpp **** {
 410              		.loc 1 352 1 is_stmt 0 view .LVU124
 411 0265 4883EC08 		subq	$8, %rsp
 412              		.cfi_def_cfa_offset 16
 353:Src/findwayBases.cpp ****     COORDS_DATATYPE lx = c1->x - c2->x,
GAS LISTING /tmp/ccC5Gb9O.s 			page 22


 413              		.loc 1 353 5 is_stmt 1 view .LVU125
 353:Src/findwayBases.cpp ****     COORDS_DATATYPE lx = c1->x - c2->x,
 414              		.loc 1 353 30 is_stmt 0 view .LVU126
 415 0269 F30F1007 		movss	(%rdi), %xmm0
 353:Src/findwayBases.cpp ****     COORDS_DATATYPE lx = c1->x - c2->x,
 416              		.loc 1 353 21 view .LVU127
 417 026d F30F5C06 		subss	(%rsi), %xmm0
 418              	.LVL25:
 354:Src/findwayBases.cpp ****                     ly = c1->y - c2->y,
 419              		.loc 1 354 30 view .LVU128
 420 0271 F30F104F 		movss	4(%rdi), %xmm1
 420      04
 354:Src/findwayBases.cpp ****                     ly = c1->y - c2->y,
 421              		.loc 1 354 21 view .LVU129
 422 0276 F30F5C4E 		subss	4(%rsi), %xmm1
 422      04
 423              	.LVL26:
 355:Src/findwayBases.cpp ****                     l  = sqrt(sqr(lx) + sqr(ly));
 424              		.loc 1 355 31 view .LVU130
 425 027b F30F59C0 		mulss	%xmm0, %xmm0
 426              	.LVL27:
 355:Src/findwayBases.cpp ****                     l  = sqrt(sqr(lx) + sqr(ly));
 427              		.loc 1 355 41 view .LVU131
 428 027f F30F59C9 		mulss	%xmm1, %xmm1
 429              	.LVL28:
 355:Src/findwayBases.cpp ****                     l  = sqrt(sqr(lx) + sqr(ly));
 430              		.loc 1 355 30 view .LVU132
 431 0283 F30F58C1 		addss	%xmm1, %xmm0
 432              	.LVL29:
 433              	.LBB44:
 434              	.LBI44:
 435              		.file 4 "/usr/include/c++/9.2.0/cmath"
   1:/usr/include/c++/9.2.0/cmath **** // -*- C++ -*- C forwarding header.
   2:/usr/include/c++/9.2.0/cmath **** 
   3:/usr/include/c++/9.2.0/cmath **** // Copyright (C) 1997-2019 Free Software Foundation, Inc.
   4:/usr/include/c++/9.2.0/cmath **** //
   5:/usr/include/c++/9.2.0/cmath **** // This file is part of the GNU ISO C++ Library.  This library is free
   6:/usr/include/c++/9.2.0/cmath **** // software; you can redistribute it and/or modify it under the
   7:/usr/include/c++/9.2.0/cmath **** // terms of the GNU General Public License as published by the
   8:/usr/include/c++/9.2.0/cmath **** // Free Software Foundation; either version 3, or (at your option)
   9:/usr/include/c++/9.2.0/cmath **** // any later version.
  10:/usr/include/c++/9.2.0/cmath **** 
  11:/usr/include/c++/9.2.0/cmath **** // This library is distributed in the hope that it will be useful,
  12:/usr/include/c++/9.2.0/cmath **** // but WITHOUT ANY WARRANTY; without even the implied warranty of
  13:/usr/include/c++/9.2.0/cmath **** // MERCHANTABILITY or FITNESS FOR A PARTICULAR PURPOSE.  See the
  14:/usr/include/c++/9.2.0/cmath **** // GNU General Public License for more details.
  15:/usr/include/c++/9.2.0/cmath **** 
  16:/usr/include/c++/9.2.0/cmath **** // Under Section 7 of GPL version 3, you are granted additional
  17:/usr/include/c++/9.2.0/cmath **** // permissions described in the GCC Runtime Library Exception, version
  18:/usr/include/c++/9.2.0/cmath **** // 3.1, as published by the Free Software Foundation.
  19:/usr/include/c++/9.2.0/cmath **** 
  20:/usr/include/c++/9.2.0/cmath **** // You should have received a copy of the GNU General Public License and
  21:/usr/include/c++/9.2.0/cmath **** // a copy of the GCC Runtime Library Exception along with this program;
  22:/usr/include/c++/9.2.0/cmath **** // see the files COPYING3 and COPYING.RUNTIME respectively.  If not, see
  23:/usr/include/c++/9.2.0/cmath **** // <http://www.gnu.org/licenses/>.
  24:/usr/include/c++/9.2.0/cmath **** 
  25:/usr/include/c++/9.2.0/cmath **** /** @file include/cmath
GAS LISTING /tmp/ccC5Gb9O.s 			page 23


  26:/usr/include/c++/9.2.0/cmath ****  *  This is a Standard C++ Library file.  You should @c \#include this file
  27:/usr/include/c++/9.2.0/cmath ****  *  in your programs, rather than any of the @a *.h implementation files.
  28:/usr/include/c++/9.2.0/cmath ****  *
  29:/usr/include/c++/9.2.0/cmath ****  *  This is the C++ version of the Standard C Library header @c math.h,
  30:/usr/include/c++/9.2.0/cmath ****  *  and its contents are (mostly) the same as that header, but are all
  31:/usr/include/c++/9.2.0/cmath ****  *  contained in the namespace @c std (except for names which are defined
  32:/usr/include/c++/9.2.0/cmath ****  *  as macros in C).
  33:/usr/include/c++/9.2.0/cmath ****  */
  34:/usr/include/c++/9.2.0/cmath **** 
  35:/usr/include/c++/9.2.0/cmath **** //
  36:/usr/include/c++/9.2.0/cmath **** // ISO C++ 14882: 26.5  C library
  37:/usr/include/c++/9.2.0/cmath **** //
  38:/usr/include/c++/9.2.0/cmath **** 
  39:/usr/include/c++/9.2.0/cmath **** #pragma GCC system_header
  40:/usr/include/c++/9.2.0/cmath **** 
  41:/usr/include/c++/9.2.0/cmath **** #include <bits/c++config.h>
  42:/usr/include/c++/9.2.0/cmath **** #include <bits/cpp_type_traits.h>
  43:/usr/include/c++/9.2.0/cmath **** #include <ext/type_traits.h>
  44:/usr/include/c++/9.2.0/cmath **** #define _GLIBCXX_INCLUDE_NEXT_C_HEADERS
  45:/usr/include/c++/9.2.0/cmath **** #include_next <math.h>
  46:/usr/include/c++/9.2.0/cmath **** #undef _GLIBCXX_INCLUDE_NEXT_C_HEADERS
  47:/usr/include/c++/9.2.0/cmath **** #include <bits/std_abs.h>
  48:/usr/include/c++/9.2.0/cmath **** 
  49:/usr/include/c++/9.2.0/cmath **** #ifndef _GLIBCXX_CMATH
  50:/usr/include/c++/9.2.0/cmath **** #define _GLIBCXX_CMATH 1
  51:/usr/include/c++/9.2.0/cmath **** 
  52:/usr/include/c++/9.2.0/cmath **** // Get rid of those macros defined in <math.h> in lieu of real functions.
  53:/usr/include/c++/9.2.0/cmath **** #undef div
  54:/usr/include/c++/9.2.0/cmath **** #undef acos
  55:/usr/include/c++/9.2.0/cmath **** #undef asin
  56:/usr/include/c++/9.2.0/cmath **** #undef atan
  57:/usr/include/c++/9.2.0/cmath **** #undef atan2
  58:/usr/include/c++/9.2.0/cmath **** #undef ceil
  59:/usr/include/c++/9.2.0/cmath **** #undef cos
  60:/usr/include/c++/9.2.0/cmath **** #undef cosh
  61:/usr/include/c++/9.2.0/cmath **** #undef exp
  62:/usr/include/c++/9.2.0/cmath **** #undef fabs
  63:/usr/include/c++/9.2.0/cmath **** #undef floor
  64:/usr/include/c++/9.2.0/cmath **** #undef fmod
  65:/usr/include/c++/9.2.0/cmath **** #undef frexp
  66:/usr/include/c++/9.2.0/cmath **** #undef ldexp
  67:/usr/include/c++/9.2.0/cmath **** #undef log
  68:/usr/include/c++/9.2.0/cmath **** #undef log10
  69:/usr/include/c++/9.2.0/cmath **** #undef modf
  70:/usr/include/c++/9.2.0/cmath **** #undef pow
  71:/usr/include/c++/9.2.0/cmath **** #undef sin
  72:/usr/include/c++/9.2.0/cmath **** #undef sinh
  73:/usr/include/c++/9.2.0/cmath **** #undef sqrt
  74:/usr/include/c++/9.2.0/cmath **** #undef tan
  75:/usr/include/c++/9.2.0/cmath **** #undef tanh
  76:/usr/include/c++/9.2.0/cmath **** 
  77:/usr/include/c++/9.2.0/cmath **** extern "C++"
  78:/usr/include/c++/9.2.0/cmath **** {
  79:/usr/include/c++/9.2.0/cmath **** namespace std _GLIBCXX_VISIBILITY(default)
  80:/usr/include/c++/9.2.0/cmath **** {
  81:/usr/include/c++/9.2.0/cmath **** _GLIBCXX_BEGIN_NAMESPACE_VERSION
  82:/usr/include/c++/9.2.0/cmath **** 
GAS LISTING /tmp/ccC5Gb9O.s 			page 24


  83:/usr/include/c++/9.2.0/cmath ****   using ::acos;
  84:/usr/include/c++/9.2.0/cmath **** 
  85:/usr/include/c++/9.2.0/cmath **** #ifndef __CORRECT_ISO_CPP_MATH_H_PROTO
  86:/usr/include/c++/9.2.0/cmath ****   inline _GLIBCXX_CONSTEXPR float
  87:/usr/include/c++/9.2.0/cmath ****   acos(float __x)
  88:/usr/include/c++/9.2.0/cmath ****   { return __builtin_acosf(__x); }
  89:/usr/include/c++/9.2.0/cmath **** 
  90:/usr/include/c++/9.2.0/cmath ****   inline _GLIBCXX_CONSTEXPR long double
  91:/usr/include/c++/9.2.0/cmath ****   acos(long double __x)
  92:/usr/include/c++/9.2.0/cmath ****   { return __builtin_acosl(__x); }
  93:/usr/include/c++/9.2.0/cmath **** #endif
  94:/usr/include/c++/9.2.0/cmath **** 
  95:/usr/include/c++/9.2.0/cmath ****   template<typename _Tp>
  96:/usr/include/c++/9.2.0/cmath ****     inline _GLIBCXX_CONSTEXPR
  97:/usr/include/c++/9.2.0/cmath ****     typename __gnu_cxx::__enable_if<__is_integer<_Tp>::__value, 
  98:/usr/include/c++/9.2.0/cmath ****                                     double>::__type
  99:/usr/include/c++/9.2.0/cmath ****     acos(_Tp __x)
 100:/usr/include/c++/9.2.0/cmath ****     { return __builtin_acos(__x); }
 101:/usr/include/c++/9.2.0/cmath **** 
 102:/usr/include/c++/9.2.0/cmath ****   using ::asin;
 103:/usr/include/c++/9.2.0/cmath **** 
 104:/usr/include/c++/9.2.0/cmath **** #ifndef __CORRECT_ISO_CPP_MATH_H_PROTO
 105:/usr/include/c++/9.2.0/cmath ****   inline _GLIBCXX_CONSTEXPR float
 106:/usr/include/c++/9.2.0/cmath ****   asin(float __x)
 107:/usr/include/c++/9.2.0/cmath ****   { return __builtin_asinf(__x); }
 108:/usr/include/c++/9.2.0/cmath **** 
 109:/usr/include/c++/9.2.0/cmath ****   inline _GLIBCXX_CONSTEXPR long double
 110:/usr/include/c++/9.2.0/cmath ****   asin(long double __x)
 111:/usr/include/c++/9.2.0/cmath ****   { return __builtin_asinl(__x); }
 112:/usr/include/c++/9.2.0/cmath **** #endif
 113:/usr/include/c++/9.2.0/cmath **** 
 114:/usr/include/c++/9.2.0/cmath ****   template<typename _Tp>
 115:/usr/include/c++/9.2.0/cmath ****     inline _GLIBCXX_CONSTEXPR
 116:/usr/include/c++/9.2.0/cmath ****     typename __gnu_cxx::__enable_if<__is_integer<_Tp>::__value,
 117:/usr/include/c++/9.2.0/cmath ****                                     double>::__type
 118:/usr/include/c++/9.2.0/cmath ****     asin(_Tp __x)
 119:/usr/include/c++/9.2.0/cmath ****     { return __builtin_asin(__x); }
 120:/usr/include/c++/9.2.0/cmath **** 
 121:/usr/include/c++/9.2.0/cmath ****   using ::atan;
 122:/usr/include/c++/9.2.0/cmath **** 
 123:/usr/include/c++/9.2.0/cmath **** #ifndef __CORRECT_ISO_CPP_MATH_H_PROTO
 124:/usr/include/c++/9.2.0/cmath ****   inline _GLIBCXX_CONSTEXPR float
 125:/usr/include/c++/9.2.0/cmath ****   atan(float __x)
 126:/usr/include/c++/9.2.0/cmath ****   { return __builtin_atanf(__x); }
 127:/usr/include/c++/9.2.0/cmath **** 
 128:/usr/include/c++/9.2.0/cmath ****   inline _GLIBCXX_CONSTEXPR long double
 129:/usr/include/c++/9.2.0/cmath ****   atan(long double __x)
 130:/usr/include/c++/9.2.0/cmath ****   { return __builtin_atanl(__x); }
 131:/usr/include/c++/9.2.0/cmath **** #endif
 132:/usr/include/c++/9.2.0/cmath **** 
 133:/usr/include/c++/9.2.0/cmath ****   template<typename _Tp>
 134:/usr/include/c++/9.2.0/cmath ****     inline _GLIBCXX_CONSTEXPR
 135:/usr/include/c++/9.2.0/cmath ****     typename __gnu_cxx::__enable_if<__is_integer<_Tp>::__value,
 136:/usr/include/c++/9.2.0/cmath ****                                     double>::__type
 137:/usr/include/c++/9.2.0/cmath ****     atan(_Tp __x)
 138:/usr/include/c++/9.2.0/cmath ****     { return __builtin_atan(__x); }
 139:/usr/include/c++/9.2.0/cmath **** 
GAS LISTING /tmp/ccC5Gb9O.s 			page 25


 140:/usr/include/c++/9.2.0/cmath ****   using ::atan2;
 141:/usr/include/c++/9.2.0/cmath **** 
 142:/usr/include/c++/9.2.0/cmath **** #ifndef __CORRECT_ISO_CPP_MATH_H_PROTO
 143:/usr/include/c++/9.2.0/cmath ****   inline _GLIBCXX_CONSTEXPR float
 144:/usr/include/c++/9.2.0/cmath ****   atan2(float __y, float __x)
 145:/usr/include/c++/9.2.0/cmath ****   { return __builtin_atan2f(__y, __x); }
 146:/usr/include/c++/9.2.0/cmath **** 
 147:/usr/include/c++/9.2.0/cmath ****   inline _GLIBCXX_CONSTEXPR long double
 148:/usr/include/c++/9.2.0/cmath ****   atan2(long double __y, long double __x)
 149:/usr/include/c++/9.2.0/cmath ****   { return __builtin_atan2l(__y, __x); }
 150:/usr/include/c++/9.2.0/cmath **** #endif
 151:/usr/include/c++/9.2.0/cmath **** 
 152:/usr/include/c++/9.2.0/cmath ****   template<typename _Tp, typename _Up>
 153:/usr/include/c++/9.2.0/cmath ****     inline _GLIBCXX_CONSTEXPR
 154:/usr/include/c++/9.2.0/cmath ****     typename __gnu_cxx::__promote_2<_Tp, _Up>::__type
 155:/usr/include/c++/9.2.0/cmath ****     atan2(_Tp __y, _Up __x)
 156:/usr/include/c++/9.2.0/cmath ****     {
 157:/usr/include/c++/9.2.0/cmath ****       typedef typename __gnu_cxx::__promote_2<_Tp, _Up>::__type __type;
 158:/usr/include/c++/9.2.0/cmath ****       return atan2(__type(__y), __type(__x));
 159:/usr/include/c++/9.2.0/cmath ****     }
 160:/usr/include/c++/9.2.0/cmath **** 
 161:/usr/include/c++/9.2.0/cmath ****   using ::ceil;
 162:/usr/include/c++/9.2.0/cmath **** 
 163:/usr/include/c++/9.2.0/cmath **** #ifndef __CORRECT_ISO_CPP_MATH_H_PROTO
 164:/usr/include/c++/9.2.0/cmath ****   inline _GLIBCXX_CONSTEXPR float
 165:/usr/include/c++/9.2.0/cmath ****   ceil(float __x)
 166:/usr/include/c++/9.2.0/cmath ****   { return __builtin_ceilf(__x); }
 167:/usr/include/c++/9.2.0/cmath **** 
 168:/usr/include/c++/9.2.0/cmath ****   inline _GLIBCXX_CONSTEXPR long double
 169:/usr/include/c++/9.2.0/cmath ****   ceil(long double __x)
 170:/usr/include/c++/9.2.0/cmath ****   { return __builtin_ceill(__x); }
 171:/usr/include/c++/9.2.0/cmath **** #endif
 172:/usr/include/c++/9.2.0/cmath **** 
 173:/usr/include/c++/9.2.0/cmath ****   template<typename _Tp>
 174:/usr/include/c++/9.2.0/cmath ****     inline _GLIBCXX_CONSTEXPR
 175:/usr/include/c++/9.2.0/cmath ****     typename __gnu_cxx::__enable_if<__is_integer<_Tp>::__value, 
 176:/usr/include/c++/9.2.0/cmath ****                                     double>::__type
 177:/usr/include/c++/9.2.0/cmath ****     ceil(_Tp __x)
 178:/usr/include/c++/9.2.0/cmath ****     { return __builtin_ceil(__x); }
 179:/usr/include/c++/9.2.0/cmath **** 
 180:/usr/include/c++/9.2.0/cmath ****   using ::cos;
 181:/usr/include/c++/9.2.0/cmath **** 
 182:/usr/include/c++/9.2.0/cmath **** #ifndef __CORRECT_ISO_CPP_MATH_H_PROTO
 183:/usr/include/c++/9.2.0/cmath ****   inline _GLIBCXX_CONSTEXPR float
 184:/usr/include/c++/9.2.0/cmath ****   cos(float __x)
 185:/usr/include/c++/9.2.0/cmath ****   { return __builtin_cosf(__x); }
 186:/usr/include/c++/9.2.0/cmath **** 
 187:/usr/include/c++/9.2.0/cmath ****   inline _GLIBCXX_CONSTEXPR long double
 188:/usr/include/c++/9.2.0/cmath ****   cos(long double __x)
 189:/usr/include/c++/9.2.0/cmath ****   { return __builtin_cosl(__x); }
 190:/usr/include/c++/9.2.0/cmath **** #endif
 191:/usr/include/c++/9.2.0/cmath **** 
 192:/usr/include/c++/9.2.0/cmath ****   template<typename _Tp>
 193:/usr/include/c++/9.2.0/cmath ****     inline _GLIBCXX_CONSTEXPR
 194:/usr/include/c++/9.2.0/cmath ****     typename __gnu_cxx::__enable_if<__is_integer<_Tp>::__value,
 195:/usr/include/c++/9.2.0/cmath ****                                     double>::__type
 196:/usr/include/c++/9.2.0/cmath ****     cos(_Tp __x)
GAS LISTING /tmp/ccC5Gb9O.s 			page 26


 197:/usr/include/c++/9.2.0/cmath ****     { return __builtin_cos(__x); }
 198:/usr/include/c++/9.2.0/cmath **** 
 199:/usr/include/c++/9.2.0/cmath ****   using ::cosh;
 200:/usr/include/c++/9.2.0/cmath **** 
 201:/usr/include/c++/9.2.0/cmath **** #ifndef __CORRECT_ISO_CPP_MATH_H_PROTO
 202:/usr/include/c++/9.2.0/cmath ****   inline _GLIBCXX_CONSTEXPR float
 203:/usr/include/c++/9.2.0/cmath ****   cosh(float __x)
 204:/usr/include/c++/9.2.0/cmath ****   { return __builtin_coshf(__x); }
 205:/usr/include/c++/9.2.0/cmath **** 
 206:/usr/include/c++/9.2.0/cmath ****   inline _GLIBCXX_CONSTEXPR long double
 207:/usr/include/c++/9.2.0/cmath ****   cosh(long double __x)
 208:/usr/include/c++/9.2.0/cmath ****   { return __builtin_coshl(__x); }
 209:/usr/include/c++/9.2.0/cmath **** #endif
 210:/usr/include/c++/9.2.0/cmath **** 
 211:/usr/include/c++/9.2.0/cmath ****   template<typename _Tp>
 212:/usr/include/c++/9.2.0/cmath ****     inline _GLIBCXX_CONSTEXPR
 213:/usr/include/c++/9.2.0/cmath ****     typename __gnu_cxx::__enable_if<__is_integer<_Tp>::__value,
 214:/usr/include/c++/9.2.0/cmath ****                                     double>::__type
 215:/usr/include/c++/9.2.0/cmath ****     cosh(_Tp __x)
 216:/usr/include/c++/9.2.0/cmath ****     { return __builtin_cosh(__x); }
 217:/usr/include/c++/9.2.0/cmath **** 
 218:/usr/include/c++/9.2.0/cmath ****   using ::exp;
 219:/usr/include/c++/9.2.0/cmath **** 
 220:/usr/include/c++/9.2.0/cmath **** #ifndef __CORRECT_ISO_CPP_MATH_H_PROTO
 221:/usr/include/c++/9.2.0/cmath ****   inline _GLIBCXX_CONSTEXPR float
 222:/usr/include/c++/9.2.0/cmath ****   exp(float __x)
 223:/usr/include/c++/9.2.0/cmath ****   { return __builtin_expf(__x); }
 224:/usr/include/c++/9.2.0/cmath **** 
 225:/usr/include/c++/9.2.0/cmath ****   inline _GLIBCXX_CONSTEXPR long double
 226:/usr/include/c++/9.2.0/cmath ****   exp(long double __x)
 227:/usr/include/c++/9.2.0/cmath ****   { return __builtin_expl(__x); }
 228:/usr/include/c++/9.2.0/cmath **** #endif
 229:/usr/include/c++/9.2.0/cmath **** 
 230:/usr/include/c++/9.2.0/cmath ****   template<typename _Tp>
 231:/usr/include/c++/9.2.0/cmath ****     inline _GLIBCXX_CONSTEXPR
 232:/usr/include/c++/9.2.0/cmath ****     typename __gnu_cxx::__enable_if<__is_integer<_Tp>::__value,
 233:/usr/include/c++/9.2.0/cmath ****                                     double>::__type
 234:/usr/include/c++/9.2.0/cmath ****     exp(_Tp __x)
 235:/usr/include/c++/9.2.0/cmath ****     { return __builtin_exp(__x); }
 236:/usr/include/c++/9.2.0/cmath **** 
 237:/usr/include/c++/9.2.0/cmath ****   using ::fabs;
 238:/usr/include/c++/9.2.0/cmath **** 
 239:/usr/include/c++/9.2.0/cmath **** #ifndef __CORRECT_ISO_CPP_MATH_H_PROTO
 240:/usr/include/c++/9.2.0/cmath ****   inline _GLIBCXX_CONSTEXPR float
 241:/usr/include/c++/9.2.0/cmath ****   fabs(float __x)
 242:/usr/include/c++/9.2.0/cmath ****   { return __builtin_fabsf(__x); }
 243:/usr/include/c++/9.2.0/cmath **** 
 244:/usr/include/c++/9.2.0/cmath ****   inline _GLIBCXX_CONSTEXPR long double
 245:/usr/include/c++/9.2.0/cmath ****   fabs(long double __x)
 246:/usr/include/c++/9.2.0/cmath ****   { return __builtin_fabsl(__x); }
 247:/usr/include/c++/9.2.0/cmath **** #endif
 248:/usr/include/c++/9.2.0/cmath **** 
 249:/usr/include/c++/9.2.0/cmath ****   template<typename _Tp>
 250:/usr/include/c++/9.2.0/cmath ****     inline _GLIBCXX_CONSTEXPR
 251:/usr/include/c++/9.2.0/cmath ****     typename __gnu_cxx::__enable_if<__is_integer<_Tp>::__value,
 252:/usr/include/c++/9.2.0/cmath ****                                     double>::__type
 253:/usr/include/c++/9.2.0/cmath ****     fabs(_Tp __x)
GAS LISTING /tmp/ccC5Gb9O.s 			page 27


 254:/usr/include/c++/9.2.0/cmath ****     { return __builtin_fabs(__x); }
 255:/usr/include/c++/9.2.0/cmath **** 
 256:/usr/include/c++/9.2.0/cmath ****   using ::floor;
 257:/usr/include/c++/9.2.0/cmath **** 
 258:/usr/include/c++/9.2.0/cmath **** #ifndef __CORRECT_ISO_CPP_MATH_H_PROTO
 259:/usr/include/c++/9.2.0/cmath ****   inline _GLIBCXX_CONSTEXPR float
 260:/usr/include/c++/9.2.0/cmath ****   floor(float __x)
 261:/usr/include/c++/9.2.0/cmath ****   { return __builtin_floorf(__x); }
 262:/usr/include/c++/9.2.0/cmath **** 
 263:/usr/include/c++/9.2.0/cmath ****   inline _GLIBCXX_CONSTEXPR long double
 264:/usr/include/c++/9.2.0/cmath ****   floor(long double __x)
 265:/usr/include/c++/9.2.0/cmath ****   { return __builtin_floorl(__x); }
 266:/usr/include/c++/9.2.0/cmath **** #endif
 267:/usr/include/c++/9.2.0/cmath **** 
 268:/usr/include/c++/9.2.0/cmath ****   template<typename _Tp>
 269:/usr/include/c++/9.2.0/cmath ****     inline _GLIBCXX_CONSTEXPR
 270:/usr/include/c++/9.2.0/cmath ****     typename __gnu_cxx::__enable_if<__is_integer<_Tp>::__value,
 271:/usr/include/c++/9.2.0/cmath ****                                     double>::__type
 272:/usr/include/c++/9.2.0/cmath ****     floor(_Tp __x)
 273:/usr/include/c++/9.2.0/cmath ****     { return __builtin_floor(__x); }
 274:/usr/include/c++/9.2.0/cmath **** 
 275:/usr/include/c++/9.2.0/cmath ****   using ::fmod;
 276:/usr/include/c++/9.2.0/cmath **** 
 277:/usr/include/c++/9.2.0/cmath **** #ifndef __CORRECT_ISO_CPP_MATH_H_PROTO
 278:/usr/include/c++/9.2.0/cmath ****   inline _GLIBCXX_CONSTEXPR float
 279:/usr/include/c++/9.2.0/cmath ****   fmod(float __x, float __y)
 280:/usr/include/c++/9.2.0/cmath ****   { return __builtin_fmodf(__x, __y); }
 281:/usr/include/c++/9.2.0/cmath **** 
 282:/usr/include/c++/9.2.0/cmath ****   inline _GLIBCXX_CONSTEXPR long double
 283:/usr/include/c++/9.2.0/cmath ****   fmod(long double __x, long double __y)
 284:/usr/include/c++/9.2.0/cmath ****   { return __builtin_fmodl(__x, __y); }
 285:/usr/include/c++/9.2.0/cmath **** #endif
 286:/usr/include/c++/9.2.0/cmath **** 
 287:/usr/include/c++/9.2.0/cmath ****   template<typename _Tp, typename _Up>
 288:/usr/include/c++/9.2.0/cmath ****     inline _GLIBCXX_CONSTEXPR
 289:/usr/include/c++/9.2.0/cmath ****     typename __gnu_cxx::__promote_2<_Tp, _Up>::__type
 290:/usr/include/c++/9.2.0/cmath ****     fmod(_Tp __x, _Up __y)
 291:/usr/include/c++/9.2.0/cmath ****     {
 292:/usr/include/c++/9.2.0/cmath ****       typedef typename __gnu_cxx::__promote_2<_Tp, _Up>::__type __type;
 293:/usr/include/c++/9.2.0/cmath ****       return fmod(__type(__x), __type(__y));
 294:/usr/include/c++/9.2.0/cmath ****     }
 295:/usr/include/c++/9.2.0/cmath **** 
 296:/usr/include/c++/9.2.0/cmath ****   using ::frexp;
 297:/usr/include/c++/9.2.0/cmath **** 
 298:/usr/include/c++/9.2.0/cmath **** #ifndef __CORRECT_ISO_CPP_MATH_H_PROTO
 299:/usr/include/c++/9.2.0/cmath ****   inline float
 300:/usr/include/c++/9.2.0/cmath ****   frexp(float __x, int* __exp)
 301:/usr/include/c++/9.2.0/cmath ****   { return __builtin_frexpf(__x, __exp); }
 302:/usr/include/c++/9.2.0/cmath **** 
 303:/usr/include/c++/9.2.0/cmath ****   inline long double
 304:/usr/include/c++/9.2.0/cmath ****   frexp(long double __x, int* __exp)
 305:/usr/include/c++/9.2.0/cmath ****   { return __builtin_frexpl(__x, __exp); }
 306:/usr/include/c++/9.2.0/cmath **** #endif
 307:/usr/include/c++/9.2.0/cmath **** 
 308:/usr/include/c++/9.2.0/cmath ****   template<typename _Tp>
 309:/usr/include/c++/9.2.0/cmath ****     inline _GLIBCXX_CONSTEXPR
 310:/usr/include/c++/9.2.0/cmath ****     typename __gnu_cxx::__enable_if<__is_integer<_Tp>::__value, 
GAS LISTING /tmp/ccC5Gb9O.s 			page 28


 311:/usr/include/c++/9.2.0/cmath ****                                     double>::__type
 312:/usr/include/c++/9.2.0/cmath ****     frexp(_Tp __x, int* __exp)
 313:/usr/include/c++/9.2.0/cmath ****     { return __builtin_frexp(__x, __exp); }
 314:/usr/include/c++/9.2.0/cmath **** 
 315:/usr/include/c++/9.2.0/cmath ****   using ::ldexp;
 316:/usr/include/c++/9.2.0/cmath **** 
 317:/usr/include/c++/9.2.0/cmath **** #ifndef __CORRECT_ISO_CPP_MATH_H_PROTO
 318:/usr/include/c++/9.2.0/cmath ****   inline _GLIBCXX_CONSTEXPR float
 319:/usr/include/c++/9.2.0/cmath ****   ldexp(float __x, int __exp)
 320:/usr/include/c++/9.2.0/cmath ****   { return __builtin_ldexpf(__x, __exp); }
 321:/usr/include/c++/9.2.0/cmath **** 
 322:/usr/include/c++/9.2.0/cmath ****   inline _GLIBCXX_CONSTEXPR long double
 323:/usr/include/c++/9.2.0/cmath ****   ldexp(long double __x, int __exp)
 324:/usr/include/c++/9.2.0/cmath ****   { return __builtin_ldexpl(__x, __exp); }
 325:/usr/include/c++/9.2.0/cmath **** #endif
 326:/usr/include/c++/9.2.0/cmath **** 
 327:/usr/include/c++/9.2.0/cmath ****   template<typename _Tp>
 328:/usr/include/c++/9.2.0/cmath ****     inline _GLIBCXX_CONSTEXPR
 329:/usr/include/c++/9.2.0/cmath ****     typename __gnu_cxx::__enable_if<__is_integer<_Tp>::__value, 
 330:/usr/include/c++/9.2.0/cmath ****                                     double>::__type
 331:/usr/include/c++/9.2.0/cmath ****     ldexp(_Tp __x, int __exp)
 332:/usr/include/c++/9.2.0/cmath ****     { return __builtin_ldexp(__x, __exp); }
 333:/usr/include/c++/9.2.0/cmath **** 
 334:/usr/include/c++/9.2.0/cmath ****   using ::log;
 335:/usr/include/c++/9.2.0/cmath **** 
 336:/usr/include/c++/9.2.0/cmath **** #ifndef __CORRECT_ISO_CPP_MATH_H_PROTO
 337:/usr/include/c++/9.2.0/cmath ****   inline _GLIBCXX_CONSTEXPR float
 338:/usr/include/c++/9.2.0/cmath ****   log(float __x)
 339:/usr/include/c++/9.2.0/cmath ****   { return __builtin_logf(__x); }
 340:/usr/include/c++/9.2.0/cmath **** 
 341:/usr/include/c++/9.2.0/cmath ****   inline _GLIBCXX_CONSTEXPR long double
 342:/usr/include/c++/9.2.0/cmath ****   log(long double __x)
 343:/usr/include/c++/9.2.0/cmath ****   { return __builtin_logl(__x); }
 344:/usr/include/c++/9.2.0/cmath **** #endif
 345:/usr/include/c++/9.2.0/cmath **** 
 346:/usr/include/c++/9.2.0/cmath ****   template<typename _Tp>
 347:/usr/include/c++/9.2.0/cmath ****     inline _GLIBCXX_CONSTEXPR
 348:/usr/include/c++/9.2.0/cmath ****     typename __gnu_cxx::__enable_if<__is_integer<_Tp>::__value, 
 349:/usr/include/c++/9.2.0/cmath ****                                     double>::__type
 350:/usr/include/c++/9.2.0/cmath ****     log(_Tp __x)
 351:/usr/include/c++/9.2.0/cmath ****     { return __builtin_log(__x); }
 352:/usr/include/c++/9.2.0/cmath **** 
 353:/usr/include/c++/9.2.0/cmath ****   using ::log10;
 354:/usr/include/c++/9.2.0/cmath **** 
 355:/usr/include/c++/9.2.0/cmath **** #ifndef __CORRECT_ISO_CPP_MATH_H_PROTO
 356:/usr/include/c++/9.2.0/cmath ****   inline _GLIBCXX_CONSTEXPR float
 357:/usr/include/c++/9.2.0/cmath ****   log10(float __x)
 358:/usr/include/c++/9.2.0/cmath ****   { return __builtin_log10f(__x); }
 359:/usr/include/c++/9.2.0/cmath **** 
 360:/usr/include/c++/9.2.0/cmath ****   inline _GLIBCXX_CONSTEXPR long double
 361:/usr/include/c++/9.2.0/cmath ****   log10(long double __x)
 362:/usr/include/c++/9.2.0/cmath ****   { return __builtin_log10l(__x); }
 363:/usr/include/c++/9.2.0/cmath **** #endif
 364:/usr/include/c++/9.2.0/cmath **** 
 365:/usr/include/c++/9.2.0/cmath ****   template<typename _Tp>
 366:/usr/include/c++/9.2.0/cmath ****     inline _GLIBCXX_CONSTEXPR
 367:/usr/include/c++/9.2.0/cmath ****     typename __gnu_cxx::__enable_if<__is_integer<_Tp>::__value,
GAS LISTING /tmp/ccC5Gb9O.s 			page 29


 368:/usr/include/c++/9.2.0/cmath ****                                     double>::__type
 369:/usr/include/c++/9.2.0/cmath ****     log10(_Tp __x)
 370:/usr/include/c++/9.2.0/cmath ****     { return __builtin_log10(__x); }
 371:/usr/include/c++/9.2.0/cmath **** 
 372:/usr/include/c++/9.2.0/cmath ****   using ::modf;
 373:/usr/include/c++/9.2.0/cmath **** 
 374:/usr/include/c++/9.2.0/cmath **** #ifndef __CORRECT_ISO_CPP_MATH_H_PROTO
 375:/usr/include/c++/9.2.0/cmath ****   inline float
 376:/usr/include/c++/9.2.0/cmath ****   modf(float __x, float* __iptr)
 377:/usr/include/c++/9.2.0/cmath ****   { return __builtin_modff(__x, __iptr); }
 378:/usr/include/c++/9.2.0/cmath **** 
 379:/usr/include/c++/9.2.0/cmath ****   inline long double
 380:/usr/include/c++/9.2.0/cmath ****   modf(long double __x, long double* __iptr)
 381:/usr/include/c++/9.2.0/cmath ****   { return __builtin_modfl(__x, __iptr); }
 382:/usr/include/c++/9.2.0/cmath **** #endif
 383:/usr/include/c++/9.2.0/cmath **** 
 384:/usr/include/c++/9.2.0/cmath ****   using ::pow;
 385:/usr/include/c++/9.2.0/cmath **** 
 386:/usr/include/c++/9.2.0/cmath **** #ifndef __CORRECT_ISO_CPP_MATH_H_PROTO
 387:/usr/include/c++/9.2.0/cmath ****   inline _GLIBCXX_CONSTEXPR float
 388:/usr/include/c++/9.2.0/cmath ****   pow(float __x, float __y)
 389:/usr/include/c++/9.2.0/cmath ****   { return __builtin_powf(__x, __y); }
 390:/usr/include/c++/9.2.0/cmath **** 
 391:/usr/include/c++/9.2.0/cmath ****   inline _GLIBCXX_CONSTEXPR long double
 392:/usr/include/c++/9.2.0/cmath ****   pow(long double __x, long double __y)
 393:/usr/include/c++/9.2.0/cmath ****   { return __builtin_powl(__x, __y); }
 394:/usr/include/c++/9.2.0/cmath **** 
 395:/usr/include/c++/9.2.0/cmath **** #if __cplusplus < 201103L
 396:/usr/include/c++/9.2.0/cmath ****   // _GLIBCXX_RESOLVE_LIB_DEFECTS
 397:/usr/include/c++/9.2.0/cmath ****   // DR 550. What should the return type of pow(float,int) be?
 398:/usr/include/c++/9.2.0/cmath ****   inline double
 399:/usr/include/c++/9.2.0/cmath ****   pow(double __x, int __i)
 400:/usr/include/c++/9.2.0/cmath ****   { return __builtin_powi(__x, __i); }
 401:/usr/include/c++/9.2.0/cmath **** 
 402:/usr/include/c++/9.2.0/cmath ****   inline float
 403:/usr/include/c++/9.2.0/cmath ****   pow(float __x, int __n)
 404:/usr/include/c++/9.2.0/cmath ****   { return __builtin_powif(__x, __n); }
 405:/usr/include/c++/9.2.0/cmath **** 
 406:/usr/include/c++/9.2.0/cmath ****   inline long double
 407:/usr/include/c++/9.2.0/cmath ****   pow(long double __x, int __n)
 408:/usr/include/c++/9.2.0/cmath ****   { return __builtin_powil(__x, __n); }
 409:/usr/include/c++/9.2.0/cmath **** #endif
 410:/usr/include/c++/9.2.0/cmath **** #endif
 411:/usr/include/c++/9.2.0/cmath **** 
 412:/usr/include/c++/9.2.0/cmath ****   template<typename _Tp, typename _Up>
 413:/usr/include/c++/9.2.0/cmath ****     inline _GLIBCXX_CONSTEXPR
 414:/usr/include/c++/9.2.0/cmath ****     typename __gnu_cxx::__promote_2<_Tp, _Up>::__type
 415:/usr/include/c++/9.2.0/cmath ****     pow(_Tp __x, _Up __y)
 416:/usr/include/c++/9.2.0/cmath ****     {
 417:/usr/include/c++/9.2.0/cmath ****       typedef typename __gnu_cxx::__promote_2<_Tp, _Up>::__type __type;
 418:/usr/include/c++/9.2.0/cmath ****       return pow(__type(__x), __type(__y));
 419:/usr/include/c++/9.2.0/cmath ****     }
 420:/usr/include/c++/9.2.0/cmath **** 
 421:/usr/include/c++/9.2.0/cmath ****   using ::sin;
 422:/usr/include/c++/9.2.0/cmath **** 
 423:/usr/include/c++/9.2.0/cmath **** #ifndef __CORRECT_ISO_CPP_MATH_H_PROTO
 424:/usr/include/c++/9.2.0/cmath ****   inline _GLIBCXX_CONSTEXPR float
GAS LISTING /tmp/ccC5Gb9O.s 			page 30


 425:/usr/include/c++/9.2.0/cmath ****   sin(float __x)
 426:/usr/include/c++/9.2.0/cmath ****   { return __builtin_sinf(__x); }
 427:/usr/include/c++/9.2.0/cmath **** 
 428:/usr/include/c++/9.2.0/cmath ****   inline _GLIBCXX_CONSTEXPR long double
 429:/usr/include/c++/9.2.0/cmath ****   sin(long double __x)
 430:/usr/include/c++/9.2.0/cmath ****   { return __builtin_sinl(__x); }
 431:/usr/include/c++/9.2.0/cmath **** #endif
 432:/usr/include/c++/9.2.0/cmath **** 
 433:/usr/include/c++/9.2.0/cmath ****   template<typename _Tp>
 434:/usr/include/c++/9.2.0/cmath ****     inline _GLIBCXX_CONSTEXPR
 435:/usr/include/c++/9.2.0/cmath ****     typename __gnu_cxx::__enable_if<__is_integer<_Tp>::__value, 
 436:/usr/include/c++/9.2.0/cmath ****                                     double>::__type
 437:/usr/include/c++/9.2.0/cmath ****     sin(_Tp __x)
 438:/usr/include/c++/9.2.0/cmath ****     { return __builtin_sin(__x); }
 439:/usr/include/c++/9.2.0/cmath **** 
 440:/usr/include/c++/9.2.0/cmath ****   using ::sinh;
 441:/usr/include/c++/9.2.0/cmath **** 
 442:/usr/include/c++/9.2.0/cmath **** #ifndef __CORRECT_ISO_CPP_MATH_H_PROTO
 443:/usr/include/c++/9.2.0/cmath ****   inline _GLIBCXX_CONSTEXPR float
 444:/usr/include/c++/9.2.0/cmath ****   sinh(float __x)
 445:/usr/include/c++/9.2.0/cmath ****   { return __builtin_sinhf(__x); }
 446:/usr/include/c++/9.2.0/cmath **** 
 447:/usr/include/c++/9.2.0/cmath ****   inline _GLIBCXX_CONSTEXPR long double
 448:/usr/include/c++/9.2.0/cmath ****   sinh(long double __x)
 449:/usr/include/c++/9.2.0/cmath ****   { return __builtin_sinhl(__x); }
 450:/usr/include/c++/9.2.0/cmath **** #endif
 451:/usr/include/c++/9.2.0/cmath **** 
 452:/usr/include/c++/9.2.0/cmath ****   template<typename _Tp>
 453:/usr/include/c++/9.2.0/cmath ****     inline _GLIBCXX_CONSTEXPR
 454:/usr/include/c++/9.2.0/cmath ****     typename __gnu_cxx::__enable_if<__is_integer<_Tp>::__value, 
 455:/usr/include/c++/9.2.0/cmath ****                                     double>::__type
 456:/usr/include/c++/9.2.0/cmath ****     sinh(_Tp __x)
 457:/usr/include/c++/9.2.0/cmath ****     { return __builtin_sinh(__x); }
 458:/usr/include/c++/9.2.0/cmath **** 
 459:/usr/include/c++/9.2.0/cmath ****   using ::sqrt;
 460:/usr/include/c++/9.2.0/cmath **** 
 461:/usr/include/c++/9.2.0/cmath **** #ifndef __CORRECT_ISO_CPP_MATH_H_PROTO
 462:/usr/include/c++/9.2.0/cmath ****   inline _GLIBCXX_CONSTEXPR float
 463:/usr/include/c++/9.2.0/cmath ****   sqrt(float __x)
 436              		.loc 4 463 3 is_stmt 1 view .LVU133
 437              	.LBB45:
 464:/usr/include/c++/9.2.0/cmath ****   { return __builtin_sqrtf(__x); }
 438              		.loc 4 464 5 view .LVU134
 439              		.loc 4 464 27 is_stmt 0 view .LVU135
 440 0287 E8000000 		call	sqrtf@PLT
 440      00
 441              	.LVL30:
 442              		.loc 4 464 27 view .LVU136
 443              	.LBE45:
 444              	.LBE44:
 357:Src/findwayBases.cpp ****     return l;
 445              		.loc 1 357 5 is_stmt 1 view .LVU137
 358:Src/findwayBases.cpp **** }
 446              		.loc 1 358 1 is_stmt 0 view .LVU138
 447 028c 4883C408 		addq	$8, %rsp
 448              		.cfi_def_cfa_offset 8
 449 0290 C3       		ret
GAS LISTING /tmp/ccC5Gb9O.s 			page 31


 450              		.cfi_endproc
 451              	.LFE1731:
 453              		.globl	_Z6getLenPK4vect
 455              	_Z6getLenPK4vect:
 456              	.LVL31:
 457              	.LFB1732:
 361:Src/findwayBases.cpp **** {
 458              		.loc 1 361 1 is_stmt 1 view -0
 459              		.cfi_startproc
 361:Src/findwayBases.cpp **** {
 460              		.loc 1 361 1 is_stmt 0 view .LVU140
 461 0291 4883EC08 		subq	$8, %rsp
 462              		.cfi_def_cfa_offset 16
 362:Src/findwayBases.cpp ****     COORDS_DATATYPE l = sqrt(sqr(v->dx) + sqr(v->dy));
 463              		.loc 1 362 5 is_stmt 1 view .LVU141
 362:Src/findwayBases.cpp ****     COORDS_DATATYPE l = sqrt(sqr(v->dx) + sqr(v->dy));
 464              		.loc 1 362 30 is_stmt 0 view .LVU142
 465 0295 F30F1047 		movss	8(%rdi), %xmm0
 465      08
 466 029a F30F59C0 		mulss	%xmm0, %xmm0
 362:Src/findwayBases.cpp ****     COORDS_DATATYPE l = sqrt(sqr(v->dx) + sqr(v->dy));
 467              		.loc 1 362 43 view .LVU143
 468 029e F30F104F 		movss	12(%rdi), %xmm1
 468      0C
 469 02a3 F30F59C9 		mulss	%xmm1, %xmm1
 362:Src/findwayBases.cpp ****     COORDS_DATATYPE l = sqrt(sqr(v->dx) + sqr(v->dy));
 470              		.loc 1 362 29 view .LVU144
 471 02a7 F30F58C1 		addss	%xmm1, %xmm0
 472              	.LVL32:
 473              	.LBB46:
 474              	.LBI46:
 463:/usr/include/c++/9.2.0/cmath ****   { return __builtin_sqrtf(__x); }
 475              		.loc 4 463 3 is_stmt 1 view .LVU145
 476              	.LBB47:
 477              		.loc 4 464 5 view .LVU146
 478              		.loc 4 464 27 is_stmt 0 view .LVU147
 479 02ab E8000000 		call	sqrtf@PLT
 479      00
 480              	.LVL33:
 481              		.loc 4 464 27 view .LVU148
 482              	.LBE47:
 483              	.LBE46:
 363:Src/findwayBases.cpp ****     return l;
 484              		.loc 1 363 5 is_stmt 1 view .LVU149
 364:Src/findwayBases.cpp **** }
 485              		.loc 1 364 1 is_stmt 0 view .LVU150
 486 02b0 4883C408 		addq	$8, %rsp
 487              		.cfi_def_cfa_offset 8
 488 02b4 C3       		ret
 489              		.cfi_endproc
 490              	.LFE1732:
 492              		.globl	_Z15getIntersectionPK8obstaclePK4vect
 494              	_Z15getIntersectionPK8obstaclePK4vect:
 495              	.LVL34:
 496              	.LFB1725:
  44:Src/findwayBases.cpp **** {
 497              		.loc 1 44 1 is_stmt 1 view -0
GAS LISTING /tmp/ccC5Gb9O.s 			page 32


 498              		.cfi_startproc
  44:Src/findwayBases.cpp **** {
 499              		.loc 1 44 1 is_stmt 0 view .LVU152
 500 02b5 4155     		pushq	%r13
 501              		.cfi_def_cfa_offset 16
 502              		.cfi_offset 13, -16
 503 02b7 4154     		pushq	%r12
 504              		.cfi_def_cfa_offset 24
 505              		.cfi_offset 12, -24
 506 02b9 55       		pushq	%rbp
 507              		.cfi_def_cfa_offset 32
 508              		.cfi_offset 6, -32
 509 02ba 53       		pushq	%rbx
 510              		.cfi_def_cfa_offset 40
 511              		.cfi_offset 3, -40
 512 02bb 4883EC48 		subq	$72, %rsp
 513              		.cfi_def_cfa_offset 112
 514 02bf 4889FB   		movq	%rdi, %rbx
 515 02c2 4889F5   		movq	%rsi, %rbp
  44:Src/findwayBases.cpp **** {
 516              		.loc 1 44 1 view .LVU153
 517 02c5 64488B04 		movq	%fs:40, %rax
 517      25280000 
 517      00
 518 02ce 48894424 		movq	%rax, 56(%rsp)
 518      38
 519 02d3 31C0     		xorl	%eax, %eax
  45:Src/findwayBases.cpp ****     struct coords inter1, inter2, tgt;
 520              		.loc 1 45 5 is_stmt 1 view .LVU154
  46:Src/findwayBases.cpp ****     tgt = {(v->dx + v->c->x), (v->dy + v->c->y)};
 521              		.loc 1 46 5 view .LVU155
  47:Src/findwayBases.cpp ****     struct baseline b1,
 522              		.loc 1 47 5 view .LVU156
  47:Src/findwayBases.cpp ****     struct baseline b1,
 523              		.loc 1 47 21 is_stmt 0 view .LVU157
 524 02d5 C7442428 		movl	$0x00000000, 40(%rsp)
 524      00000000 
 525 02dd C744242C 		movl	$0x00000000, 44(%rsp)
 525      00000000 
  48:Src/findwayBases.cpp ****                     b2;
 526              		.loc 1 48 21 view .LVU158
 527 02e5 C7442430 		movl	$0x00000000, 48(%rsp)
 527      00000000 
 528 02ed C7442434 		movl	$0x00000000, 52(%rsp)
 528      00000000 
  49:Src/findwayBases.cpp ****     COORDS_DATATYPE l1 = 0, l2 = 0, lv = 0;
 529              		.loc 1 49 5 is_stmt 1 view .LVU159
 530              	.LVL35:
  51:Src/findwayBases.cpp ****     lv = getLen(v);
 531              		.loc 1 51 5 view .LVU160
  51:Src/findwayBases.cpp ****     lv = getLen(v);
 532              		.loc 1 51 16 is_stmt 0 view .LVU161
 533 02f5 4889F7   		movq	%rsi, %rdi
 534              	.LVL36:
  51:Src/findwayBases.cpp ****     lv = getLen(v);
 535              		.loc 1 51 16 view .LVU162
 536 02f8 E8000000 		call	_Z6getLenPK4vect
GAS LISTING /tmp/ccC5Gb9O.s 			page 33


 536      00
 537              	.LVL37:
  51:Src/findwayBases.cpp ****     lv = getLen(v);
 538              		.loc 1 51 16 view .LVU163
 539 02fd F30F1144 		movss	%xmm0, 8(%rsp)
 539      2408
 540              	.LVL38:
  53:Src/findwayBases.cpp ****     b1 = vectToBaseline(v);
 541              		.loc 1 53 5 is_stmt 1 view .LVU164
  53:Src/findwayBases.cpp ****     b1 = vectToBaseline(v);
 542              		.loc 1 53 26 is_stmt 0 view .LVU165
 543 0303 4889EF   		movq	%rbp, %rdi
 544 0306 E8000000 		call	_Z14vectToBaselinePK4vect
 544      00
 545              	.LVL39:
  53:Src/findwayBases.cpp ****     b1 = vectToBaseline(v);
 546              		.loc 1 53 26 view .LVU166
 547 030b 660FD644 		movq	%xmm0, 40(%rsp)
 547      2428
  55:Src/findwayBases.cpp ****     b2.k = INF;
 548              		.loc 1 55 5 is_stmt 1 view .LVU167
  55:Src/findwayBases.cpp ****     b2.k = INF;
 549              		.loc 1 55 10 is_stmt 0 view .LVU168
 550 0311 F30F1005 		movss	.LC4(%rip), %xmm0
 550      00000000 
 551 0319 F30F5E05 		divss	.LC0(%rip), %xmm0
 551      00000000 
 552 0321 F30F1144 		movss	%xmm0, 48(%rsp)
 552      2430
  56:Src/findwayBases.cpp ****     b2.b = obst->c->x;
 553              		.loc 1 56 5 is_stmt 1 view .LVU169
  56:Src/findwayBases.cpp ****     b2.b = obst->c->x;
 554              		.loc 1 56 18 is_stmt 0 view .LVU170
 555 0327 488B03   		movq	(%rbx), %rax
  56:Src/findwayBases.cpp ****     b2.b = obst->c->x;
 556              		.loc 1 56 21 view .LVU171
 557 032a F30F1000 		movss	(%rax), %xmm0
  56:Src/findwayBases.cpp ****     b2.b = obst->c->x;
 558              		.loc 1 56 10 view .LVU172
 559 032e F30F1144 		movss	%xmm0, 52(%rsp)
 559      2434
  58:Src/findwayBases.cpp ****     inter1 = getIntersection(&b1, &b2);
 560              		.loc 1 58 5 is_stmt 1 view .LVU173
  58:Src/findwayBases.cpp ****     inter1 = getIntersection(&b1, &b2);
 561              		.loc 1 58 38 is_stmt 0 view .LVU174
 562 0334 488D7424 		leaq	48(%rsp), %rsi
 562      30
 563 0339 488D7C24 		leaq	40(%rsp), %rdi
 563      28
 564 033e E8000000 		call	_Z15getIntersectionPK8baselineS1_
 564      00
 565              	.LVL40:
 566 0343 660FD644 		movq	%xmm0, 24(%rsp)
 566      2418
  59:Src/findwayBases.cpp ****     if(isDotInside(&inter1, obst))
 567              		.loc 1 59 5 is_stmt 1 view .LVU175
  59:Src/findwayBases.cpp ****     if(isDotInside(&inter1, obst))
GAS LISTING /tmp/ccC5Gb9O.s 			page 34


 568              		.loc 1 59 19 is_stmt 0 view .LVU176
 569 0349 488D7C24 		leaq	24(%rsp), %rdi
 569      18
 570 034e 4889DE   		movq	%rbx, %rsi
 571 0351 E8000000 		call	_Z11isDotInsidePK6coordsPK8obstacle
 571      00
 572              	.LVL41:
  59:Src/findwayBases.cpp ****     if(isDotInside(&inter1, obst))
 573              		.loc 1 59 5 view .LVU177
 574 0356 84C0     		testb	%al, %al
 575 0358 0F851201 		jne	.L111
 575      0000
  70:Src/findwayBases.cpp ****         l1 = 0;
 576              		.loc 1 70 9 is_stmt 1 view .LVU178
  71:Src/findwayBases.cpp ****         inter1 = {0, 0};
 577              		.loc 1 71 9 view .LVU179
  71:Src/findwayBases.cpp ****         inter1 = {0, 0};
 578              		.loc 1 71 16 is_stmt 0 view .LVU180
 579 035e C7442418 		movl	$0x00000000, 24(%rsp)
 579      00000000 
 580 0366 C744241C 		movl	$0x00000000, 28(%rsp)
 580      00000000 
  70:Src/findwayBases.cpp ****         l1 = 0;
 581              		.loc 1 70 12 view .LVU181
 582 036e 448B2500 		movl	.LC0(%rip), %r12d
 582      000000
 583              	.LVL42:
 584              	.L79:
  74:Src/findwayBases.cpp ****     b2.b += obst->a;
 585              		.loc 1 74 5 is_stmt 1 view .LVU182
  74:Src/findwayBases.cpp ****     b2.b += obst->a;
 586              		.loc 1 74 10 is_stmt 0 view .LVU183
 587 0375 F30F1044 		movss	52(%rsp), %xmm0
 587      2434
 588 037b F30F5843 		addss	40(%rbx), %xmm0
 588      28
 589 0380 F30F1144 		movss	%xmm0, 52(%rsp)
 589      2434
  76:Src/findwayBases.cpp ****     inter2 = getIntersection(&b1, &b2);
 590              		.loc 1 76 5 is_stmt 1 view .LVU184
  76:Src/findwayBases.cpp ****     inter2 = getIntersection(&b1, &b2);
 591              		.loc 1 76 38 is_stmt 0 view .LVU185
 592 0386 488D7424 		leaq	48(%rsp), %rsi
 592      30
 593 038b 488D7C24 		leaq	40(%rsp), %rdi
 593      28
 594 0390 E8000000 		call	_Z15getIntersectionPK8baselineS1_
 594      00
 595              	.LVL43:
 596 0395 660FD644 		movq	%xmm0, 32(%rsp)
 596      2420
  77:Src/findwayBases.cpp ****     if(isDotInside(&inter2, obst))
 597              		.loc 1 77 5 is_stmt 1 view .LVU186
  77:Src/findwayBases.cpp ****     if(isDotInside(&inter2, obst))
 598              		.loc 1 77 19 is_stmt 0 view .LVU187
 599 039b 488D7C24 		leaq	32(%rsp), %rdi
 599      20
GAS LISTING /tmp/ccC5Gb9O.s 			page 35


 600 03a0 4889DE   		movq	%rbx, %rsi
 601 03a3 E8000000 		call	_Z11isDotInsidePK6coordsPK8obstacle
 601      00
 602              	.LVL44:
  77:Src/findwayBases.cpp ****     if(isDotInside(&inter2, obst))
 603              		.loc 1 77 5 view .LVU188
 604 03a8 84C0     		testb	%al, %al
 605 03aa 0F851501 		jne	.L112
 605      0000
 100:Src/findwayBases.cpp ****         l2 = 0;
 606              		.loc 1 100 9 is_stmt 1 view .LVU189
 101:Src/findwayBases.cpp ****         inter2 = {0, 0};
 607              		.loc 1 101 9 view .LVU190
 101:Src/findwayBases.cpp ****         inter2 = {0, 0};
 608              		.loc 1 101 16 is_stmt 0 view .LVU191
 609 03b0 C7442420 		movl	$0x00000000, 32(%rsp)
 609      00000000 
 610 03b8 C7442424 		movl	$0x00000000, 36(%rsp)
 610      00000000 
 611              	.L86:
 187:Src/findwayBases.cpp ****     b2.k = 0;
 612              		.loc 1 187 5 is_stmt 1 view .LVU192
 187:Src/findwayBases.cpp ****     b2.k = 0;
 613              		.loc 1 187 10 is_stmt 0 view .LVU193
 614 03c0 C7442430 		movl	$0x00000000, 48(%rsp)
 614      00000000 
 188:Src/findwayBases.cpp ****     b2.b = obst->c->y;
 615              		.loc 1 188 5 is_stmt 1 view .LVU194
 188:Src/findwayBases.cpp ****     b2.b = obst->c->y;
 616              		.loc 1 188 18 is_stmt 0 view .LVU195
 617 03c8 488B03   		movq	(%rbx), %rax
 188:Src/findwayBases.cpp ****     b2.b = obst->c->y;
 618              		.loc 1 188 21 view .LVU196
 619 03cb F30F1040 		movss	4(%rax), %xmm0
 619      04
 188:Src/findwayBases.cpp ****     b2.b = obst->c->y;
 620              		.loc 1 188 10 view .LVU197
 621 03d0 F30F1144 		movss	%xmm0, 52(%rsp)
 621      2434
 189:Src/findwayBases.cpp ****     inter2 = getIntersection(&b1, &b2);
 622              		.loc 1 189 5 is_stmt 1 view .LVU198
 189:Src/findwayBases.cpp ****     inter2 = getIntersection(&b1, &b2);
 623              		.loc 1 189 38 is_stmt 0 view .LVU199
 624 03d6 488D7424 		leaq	48(%rsp), %rsi
 624      30
 625 03db 488D7C24 		leaq	40(%rsp), %rdi
 625      28
 626 03e0 E8000000 		call	_Z15getIntersectionPK8baselineS1_
 626      00
 627              	.LVL45:
 628 03e5 660FD644 		movq	%xmm0, 32(%rsp)
 628      2420
 190:Src/findwayBases.cpp ****     if(isDotInside(&inter2, obst))
 629              		.loc 1 190 5 is_stmt 1 view .LVU200
 190:Src/findwayBases.cpp ****     if(isDotInside(&inter2, obst))
 630              		.loc 1 190 19 is_stmt 0 view .LVU201
 631 03eb 488D7C24 		leaq	32(%rsp), %rdi
GAS LISTING /tmp/ccC5Gb9O.s 			page 36


 631      20
 632 03f0 4889DE   		movq	%rbx, %rsi
 633 03f3 E8000000 		call	_Z11isDotInsidePK6coordsPK8obstacle
 633      00
 634              	.LVL46:
 190:Src/findwayBases.cpp ****     if(isDotInside(&inter2, obst))
 635              		.loc 1 190 5 view .LVU202
 636 03f8 84C0     		testb	%al, %al
 637 03fa 0F857401 		jne	.L113
 637      0000
 213:Src/findwayBases.cpp ****         l2 = 0;
 638              		.loc 1 213 9 is_stmt 1 view .LVU203
 214:Src/findwayBases.cpp ****         inter2 = {0, 0};
 639              		.loc 1 214 9 view .LVU204
 214:Src/findwayBases.cpp ****         inter2 = {0, 0};
 640              		.loc 1 214 16 is_stmt 0 view .LVU205
 641 0400 C7442420 		movl	$0x00000000, 32(%rsp)
 641      00000000 
 642 0408 C7442424 		movl	$0x00000000, 36(%rsp)
 642      00000000 
 643              	.L95:
 218:Src/findwayBases.cpp ****     b2.b += obst->a;
 644              		.loc 1 218 5 is_stmt 1 view .LVU206
 218:Src/findwayBases.cpp ****     b2.b += obst->a;
 645              		.loc 1 218 10 is_stmt 0 view .LVU207
 646 0410 F30F1044 		movss	52(%rsp), %xmm0
 646      2434
 647 0416 F30F5843 		addss	40(%rbx), %xmm0
 647      28
 648 041b F30F1144 		movss	%xmm0, 52(%rsp)
 648      2434
 220:Src/findwayBases.cpp ****     inter2 = getIntersection(&b1, &b2);
 649              		.loc 1 220 5 is_stmt 1 view .LVU208
 220:Src/findwayBases.cpp ****     inter2 = getIntersection(&b1, &b2);
 650              		.loc 1 220 38 is_stmt 0 view .LVU209
 651 0421 488D7424 		leaq	48(%rsp), %rsi
 651      30
 652 0426 488D7C24 		leaq	40(%rsp), %rdi
 652      28
 653 042b E8000000 		call	_Z15getIntersectionPK8baselineS1_
 653      00
 654              	.LVL47:
 655 0430 660FD644 		movq	%xmm0, 32(%rsp)
 655      2420
 221:Src/findwayBases.cpp ****     if(isDotInside(&inter2, obst))
 656              		.loc 1 221 5 is_stmt 1 view .LVU210
 221:Src/findwayBases.cpp ****     if(isDotInside(&inter2, obst))
 657              		.loc 1 221 19 is_stmt 0 view .LVU211
 658 0436 488D7C24 		leaq	32(%rsp), %rdi
 658      20
 659 043b 4889DE   		movq	%rbx, %rsi
 660 043e E8000000 		call	_Z11isDotInsidePK6coordsPK8obstacle
 660      00
 661              	.LVL48:
 221:Src/findwayBases.cpp ****     if(isDotInside(&inter2, obst))
 662              		.loc 1 221 5 view .LVU212
 663 0443 84C0     		testb	%al, %al
GAS LISTING /tmp/ccC5Gb9O.s 			page 37


 664 0445 0F85D801 		jne	.L114
 664      0000
 665              	.LVL49:
 666              	.L98:
 248:Src/findwayBases.cpp ****     return inter1;
 667              		.loc 1 248 5 is_stmt 1 view .LVU213
 248:Src/findwayBases.cpp ****     return inter1;
 668              		.loc 1 248 12 is_stmt 0 view .LVU214
 669 044b F30F7E44 		movq	24(%rsp), %xmm0
 669      2418
 324:Src/findwayBases.cpp **** }
 670              		.loc 1 324 1 view .LVU215
 671 0451 488B4424 		movq	56(%rsp), %rax
 671      38
 672 0456 64483304 		xorq	%fs:40, %rax
 672      25280000 
 672      00
 673 045f 0F853A02 		jne	.L115
 673      0000
 674 0465 4883C448 		addq	$72, %rsp
 675              		.cfi_remember_state
 676              		.cfi_def_cfa_offset 40
 677 0469 5B       		popq	%rbx
 678              		.cfi_def_cfa_offset 32
 679 046a 5D       		popq	%rbp
 680              		.cfi_def_cfa_offset 24
 681              	.LVL50:
 324:Src/findwayBases.cpp **** }
 682              		.loc 1 324 1 view .LVU216
 683 046b 415C     		popq	%r12
 684              		.cfi_def_cfa_offset 16
 685 046d 415D     		popq	%r13
 686              		.cfi_def_cfa_offset 8
 687 046f C3       		ret
 688              	.LVL51:
 689              	.L111:
 690              		.cfi_restore_state
  61:Src/findwayBases.cpp ****         l1 = getLen(v->c, &inter1);
 691              		.loc 1 61 9 is_stmt 1 view .LVU217
  61:Src/findwayBases.cpp ****         l1 = getLen(v->c, &inter1);
 692              		.loc 1 61 24 is_stmt 0 view .LVU218
 693 0470 488B7D00 		movq	0(%rbp), %rdi
  61:Src/findwayBases.cpp ****         l1 = getLen(v->c, &inter1);
 694              		.loc 1 61 20 view .LVU219
 695 0474 4C8D6C24 		leaq	24(%rsp), %r13
 695      18
 696 0479 4C89EE   		movq	%r13, %rsi
 697 047c E8000000 		call	_Z6getLenPK6coordsS1_
 697      00
 698              	.LVL52:
 699 0481 66410F7E 		movd	%xmm0, %r12d
 699      C4
 700              	.LVL53:
  62:Src/findwayBases.cpp ****         if(!(isCoDirectional(v, &inter1) && l1 <= lv))
 701              		.loc 1 62 9 is_stmt 1 view .LVU220
  62:Src/findwayBases.cpp ****         if(!(isCoDirectional(v, &inter1) && l1 <= lv))
 702              		.loc 1 62 29 is_stmt 0 view .LVU221
GAS LISTING /tmp/ccC5Gb9O.s 			page 38


 703 0486 4C89EE   		movq	%r13, %rsi
 704 0489 4889EF   		movq	%rbp, %rdi
 705 048c E8000000 		call	_Z15isCoDirectionalPK4vectPK6coords
 705      00
 706              	.LVL54:
  62:Src/findwayBases.cpp ****         if(!(isCoDirectional(v, &inter1) && l1 <= lv))
 707              		.loc 1 62 12 view .LVU222
 708 0491 84C0     		testb	%al, %al
 709 0493 7414     		je	.L78
  62:Src/findwayBases.cpp ****         if(!(isCoDirectional(v, &inter1) && l1 <= lv))
 710              		.loc 1 62 12 discriminator 2 view .LVU223
 711 0495 F30F1064 		movss	8(%rsp), %xmm4
 711      2408
 712 049b 66410F6E 		movd	%r12d, %xmm5
 712      EC
 713 04a0 0F2FE5   		comiss	%xmm5, %xmm4
 714 04a3 0F83CCFE 		jnb	.L79
 714      FFFF
 715              	.L78:
  64:Src/findwayBases.cpp ****             l1 = 0;
 716              		.loc 1 64 13 is_stmt 1 view .LVU224
 717              	.LVL55:
  65:Src/findwayBases.cpp ****             inter1 = {0, 0};
 718              		.loc 1 65 13 view .LVU225
  65:Src/findwayBases.cpp ****             inter1 = {0, 0};
 719              		.loc 1 65 20 is_stmt 0 view .LVU226
 720 04a9 C7442418 		movl	$0x00000000, 24(%rsp)
 720      00000000 
 721 04b1 C744241C 		movl	$0x00000000, 28(%rsp)
 721      00000000 
  64:Src/findwayBases.cpp ****             l1 = 0;
 722              		.loc 1 64 16 view .LVU227
 723 04b9 448B2500 		movl	.LC0(%rip), %r12d
 723      000000
 724 04c0 E9B0FEFF 		jmp	.L79
 724      FF
 725              	.LVL56:
 726              	.L112:
  79:Src/findwayBases.cpp ****         l2 = getLen(v->c, &inter2);
 727              		.loc 1 79 9 is_stmt 1 view .LVU228
  79:Src/findwayBases.cpp ****         l2 = getLen(v->c, &inter2);
 728              		.loc 1 79 24 is_stmt 0 view .LVU229
 729 04c5 488B7D00 		movq	0(%rbp), %rdi
  79:Src/findwayBases.cpp ****         l2 = getLen(v->c, &inter2);
 730              		.loc 1 79 20 view .LVU230
 731 04c9 4C8D6C24 		leaq	32(%rsp), %r13
 731      20
 732 04ce 4C89EE   		movq	%r13, %rsi
 733 04d1 E8000000 		call	_Z6getLenPK6coordsS1_
 733      00
 734              	.LVL57:
 735 04d6 F30F1144 		movss	%xmm0, 12(%rsp)
 735      240C
 736              	.LVL58:
  80:Src/findwayBases.cpp ****         if(!(isCoDirectional(v, &inter2) && l2 <= lv))
 737              		.loc 1 80 9 is_stmt 1 view .LVU231
  80:Src/findwayBases.cpp ****         if(!(isCoDirectional(v, &inter2) && l2 <= lv))
GAS LISTING /tmp/ccC5Gb9O.s 			page 39


 738              		.loc 1 80 29 is_stmt 0 view .LVU232
 739 04dc 4C89EE   		movq	%r13, %rsi
 740 04df 4889EF   		movq	%rbp, %rdi
 741 04e2 E8000000 		call	_Z15isCoDirectionalPK4vectPK6coords
 741      00
 742              	.LVL59:
  80:Src/findwayBases.cpp ****         if(!(isCoDirectional(v, &inter2) && l2 <= lv))
 743              		.loc 1 80 12 view .LVU233
 744 04e7 84C0     		testb	%al, %al
 745 04e9 7453     		je	.L81
  80:Src/findwayBases.cpp ****         if(!(isCoDirectional(v, &inter2) && l2 <= lv))
 746              		.loc 1 80 12 discriminator 2 view .LVU234
 747 04eb F30F1074 		movss	8(%rsp), %xmm6
 747      2408
 748 04f1 0F2F7424 		comiss	12(%rsp), %xmm6
 748      0C
 749 04f6 7246     		jb	.L81
  85:Src/findwayBases.cpp ****         else if(inter1.eq(0, 0) || l2 < l1)
 750              		.loc 1 85 14 is_stmt 1 view .LVU235
 751              	.LVL60:
 752              	.LBB48:
 753              	.LBI48:
 754              		.file 5 "Includes/findwayBases.hpp"
   1:Includes/findwayBases.hpp **** #include "math.hpp"
   2:Includes/findwayBases.hpp **** #include <string>
   3:Includes/findwayBases.hpp **** 
   4:Includes/findwayBases.hpp **** #define COORDS_DATATYPE float
   5:Includes/findwayBases.hpp **** 
   6:Includes/findwayBases.hpp **** #define CORNER_LEFT_BOT     0
   7:Includes/findwayBases.hpp **** #define CORNER_LEFT_TOP     1
   8:Includes/findwayBases.hpp **** #define CORNER_RIGHT_TOP    2
   9:Includes/findwayBases.hpp **** #define CORNER_RIGHT_BOT    3
  10:Includes/findwayBases.hpp **** 
  11:Includes/findwayBases.hpp **** 
  12:Includes/findwayBases.hpp **** struct coords
  13:Includes/findwayBases.hpp **** {
  14:Includes/findwayBases.hpp ****     COORDS_DATATYPE     x,
  15:Includes/findwayBases.hpp ****                         y;
  16:Includes/findwayBases.hpp ****     std::string toString()
  17:Includes/findwayBases.hpp ****     {
  18:Includes/findwayBases.hpp ****         std::string str = "";
  19:Includes/findwayBases.hpp ****         str += "{";
  20:Includes/findwayBases.hpp ****         str += std::to_string(x);
  21:Includes/findwayBases.hpp ****         str += ":";
  22:Includes/findwayBases.hpp ****         str += std::to_string(y);
  23:Includes/findwayBases.hpp ****         str += "}";
  24:Includes/findwayBases.hpp ****         return str;
  25:Includes/findwayBases.hpp ****     }
  26:Includes/findwayBases.hpp **** 
  27:Includes/findwayBases.hpp ****     bool eq(struct coords *c)
  28:Includes/findwayBases.hpp ****     {
  29:Includes/findwayBases.hpp ****         return (x == c->x && y == c->y);
  30:Includes/findwayBases.hpp ****     }
  31:Includes/findwayBases.hpp **** 
  32:Includes/findwayBases.hpp ****     bool eq(COORDS_DATATYPE _x, COORDS_DATATYPE _y)
 755              		.loc 5 32 10 view .LVU236
 756              	.LBB49:
GAS LISTING /tmp/ccC5Gb9O.s 			page 40


  33:Includes/findwayBases.hpp ****     {
  34:Includes/findwayBases.hpp ****         return (x == _x && y == _y);
 757              		.loc 5 34 9 view .LVU237
 758              		.loc 5 34 17 is_stmt 0 view .LVU238
 759 04f8 F30F1044 		movss	24(%rsp), %xmm0
 759      2418
 760              		.loc 5 34 25 view .LVU239
 761 04fe 0F2E0500 		ucomiss	.LC0(%rip), %xmm0
 761      000000
 762 0505 7A4C     		jp	.L85
 763 0507 754A     		jne	.L85
 764              		.loc 5 34 28 view .LVU240
 765 0509 F30F1044 		movss	28(%rsp), %xmm0
 765      241C
 766              		.loc 5 34 25 view .LVU241
 767 050f 0F2E0500 		ucomiss	.LC0(%rip), %xmm0
 767      000000
 768 0516 7A3B     		jp	.L85
 769 0518 7539     		jne	.L85
 770              	.LVL61:
 771              	.L87:
 772              		.loc 5 34 25 view .LVU242
 773              	.LBE49:
 774              	.LBE48:
  87:Src/findwayBases.cpp ****             inter1 = inter2;
 775              		.loc 1 87 13 is_stmt 1 view .LVU243
  87:Src/findwayBases.cpp ****             inter1 = inter2;
 776              		.loc 1 87 20 is_stmt 0 view .LVU244
 777 051a 488B4424 		movq	32(%rsp), %rax
 777      20
 778 051f 48894424 		movq	%rax, 24(%rsp)
 778      18
  88:Src/findwayBases.cpp ****             l1 = l2;
 779              		.loc 1 88 13 is_stmt 1 view .LVU245
 780              	.LVL62:
  89:Src/findwayBases.cpp ****             l2 = 0;
 781              		.loc 1 89 13 view .LVU246
  90:Src/findwayBases.cpp ****             inter2 = {0, 0};
 782              		.loc 1 90 13 view .LVU247
  90:Src/findwayBases.cpp ****             inter2 = {0, 0};
 783              		.loc 1 90 20 is_stmt 0 view .LVU248
 784 0524 C7442420 		movl	$0x00000000, 32(%rsp)
 784      00000000 
 785 052c C7442424 		movl	$0x00000000, 36(%rsp)
 785      00000000 
  88:Src/findwayBases.cpp ****             l1 = l2;
 786              		.loc 1 88 16 view .LVU249
 787 0534 448B6424 		movl	12(%rsp), %r12d
 787      0C
 788 0539 E982FEFF 		jmp	.L86
 788      FF
 789              	.LVL63:
 790              	.L81:
  82:Src/findwayBases.cpp ****             inter2 = {0, 0};
 791              		.loc 1 82 13 is_stmt 1 view .LVU250
  82:Src/findwayBases.cpp ****             inter2 = {0, 0};
 792              		.loc 1 82 20 is_stmt 0 view .LVU251
GAS LISTING /tmp/ccC5Gb9O.s 			page 41


 793 053e C7442420 		movl	$0x00000000, 32(%rsp)
 793      00000000 
 794 0546 C7442424 		movl	$0x00000000, 36(%rsp)
 794      00000000 
  83:Src/findwayBases.cpp ****             l2 = 0;
 795              		.loc 1 83 13 is_stmt 1 view .LVU252
 796              	.LVL64:
  83:Src/findwayBases.cpp ****             l2 = 0;
 797              		.loc 1 83 13 is_stmt 0 view .LVU253
 798 054e E96DFEFF 		jmp	.L86
 798      FF
 799              	.LVL65:
 800              	.L85:
  85:Src/findwayBases.cpp ****         else if(inter1.eq(0, 0) || l2 < l1)
 801              		.loc 1 85 33 view .LVU254
 802 0553 66410F6E 		movd	%r12d, %xmm2
 802      D4
 803 0558 0F2F5424 		comiss	12(%rsp), %xmm2
 803      0C
 804 055d 77BB     		ja	.L87
 805              	.LVL66:
  94:Src/findwayBases.cpp ****             l2 = 0;
 806              		.loc 1 94 13 is_stmt 1 view .LVU255
  95:Src/findwayBases.cpp ****             inter2 = {0, 0};
 807              		.loc 1 95 13 view .LVU256
  95:Src/findwayBases.cpp ****             inter2 = {0, 0};
 808              		.loc 1 95 20 is_stmt 0 view .LVU257
 809 055f C7442420 		movl	$0x00000000, 32(%rsp)
 809      00000000 
 810 0567 C7442424 		movl	$0x00000000, 36(%rsp)
 810      00000000 
 811 056f E94CFEFF 		jmp	.L86
 811      FF
 812              	.LVL67:
 813              	.L113:
 192:Src/findwayBases.cpp ****         l2 = getLen(v->c, &inter2);
 814              		.loc 1 192 9 is_stmt 1 view .LVU258
 192:Src/findwayBases.cpp ****         l2 = getLen(v->c, &inter2);
 815              		.loc 1 192 24 is_stmt 0 view .LVU259
 816 0574 488B7D00 		movq	0(%rbp), %rdi
 192:Src/findwayBases.cpp ****         l2 = getLen(v->c, &inter2);
 817              		.loc 1 192 20 view .LVU260
 818 0578 4C8D6C24 		leaq	32(%rsp), %r13
 818      20
 819 057d 4C89EE   		movq	%r13, %rsi
 820 0580 E8000000 		call	_Z6getLenPK6coordsS1_
 820      00
 821              	.LVL68:
 822 0585 F30F1144 		movss	%xmm0, 12(%rsp)
 822      240C
 823              	.LVL69:
 193:Src/findwayBases.cpp ****         if(!(isCoDirectional(v, &inter2) && l2 <= lv))
 824              		.loc 1 193 9 is_stmt 1 view .LVU261
 193:Src/findwayBases.cpp ****         if(!(isCoDirectional(v, &inter2) && l2 <= lv))
 825              		.loc 1 193 29 is_stmt 0 view .LVU262
 826 058b 4C89EE   		movq	%r13, %rsi
 827 058e 4889EF   		movq	%rbp, %rdi
GAS LISTING /tmp/ccC5Gb9O.s 			page 42


 828 0591 E8000000 		call	_Z15isCoDirectionalPK4vectPK6coords
 828      00
 829              	.LVL70:
 193:Src/findwayBases.cpp ****         if(!(isCoDirectional(v, &inter2) && l2 <= lv))
 830              		.loc 1 193 12 view .LVU263
 831 0596 84C0     		testb	%al, %al
 832 0598 7453     		je	.L90
 193:Src/findwayBases.cpp ****         if(!(isCoDirectional(v, &inter2) && l2 <= lv))
 833              		.loc 1 193 12 discriminator 2 view .LVU264
 834 059a F30F107C 		movss	8(%rsp), %xmm7
 834      2408
 835 05a0 0F2F7C24 		comiss	12(%rsp), %xmm7
 835      0C
 836 05a5 7246     		jb	.L90
 198:Src/findwayBases.cpp ****         else if(inter1.eq(0, 0) || l2 < l1)
 837              		.loc 1 198 14 is_stmt 1 view .LVU265
 838              	.LVL71:
 839              	.LBB50:
 840              	.LBI50:
  32:Includes/findwayBases.hpp ****     {
 841              		.loc 5 32 10 view .LVU266
 842              	.LBB51:
 843              		.loc 5 34 9 view .LVU267
 844              		.loc 5 34 17 is_stmt 0 view .LVU268
 845 05a7 F30F1044 		movss	24(%rsp), %xmm0
 845      2418
 846              		.loc 5 34 25 view .LVU269
 847 05ad 0F2E0500 		ucomiss	.LC0(%rip), %xmm0
 847      000000
 848 05b4 7A4C     		jp	.L94
 849 05b6 754A     		jne	.L94
 850              		.loc 5 34 28 view .LVU270
 851 05b8 F30F1044 		movss	28(%rsp), %xmm0
 851      241C
 852              		.loc 5 34 25 view .LVU271
 853 05be 0F2E0500 		ucomiss	.LC0(%rip), %xmm0
 853      000000
 854 05c5 7A3B     		jp	.L94
 855 05c7 7539     		jne	.L94
 856              	.LVL72:
 857              	.L96:
 858              		.loc 5 34 25 view .LVU272
 859              	.LBE51:
 860              	.LBE50:
 200:Src/findwayBases.cpp ****             inter1 = inter2;
 861              		.loc 1 200 13 is_stmt 1 view .LVU273
 200:Src/findwayBases.cpp ****             inter1 = inter2;
 862              		.loc 1 200 20 is_stmt 0 view .LVU274
 863 05c9 488B4424 		movq	32(%rsp), %rax
 863      20
 864 05ce 48894424 		movq	%rax, 24(%rsp)
 864      18
 201:Src/findwayBases.cpp ****             l1 = l2;
 865              		.loc 1 201 13 is_stmt 1 view .LVU275
 866              	.LVL73:
 202:Src/findwayBases.cpp ****             l2 = 0;
 867              		.loc 1 202 13 view .LVU276
GAS LISTING /tmp/ccC5Gb9O.s 			page 43


 203:Src/findwayBases.cpp ****             inter2 = {0, 0};
 868              		.loc 1 203 13 view .LVU277
 203:Src/findwayBases.cpp ****             inter2 = {0, 0};
 869              		.loc 1 203 20 is_stmt 0 view .LVU278
 870 05d3 C7442420 		movl	$0x00000000, 32(%rsp)
 870      00000000 
 871 05db C7442424 		movl	$0x00000000, 36(%rsp)
 871      00000000 
 201:Src/findwayBases.cpp ****             l1 = l2;
 872              		.loc 1 201 16 view .LVU279
 873 05e3 448B6424 		movl	12(%rsp), %r12d
 873      0C
 874 05e8 E923FEFF 		jmp	.L95
 874      FF
 875              	.LVL74:
 876              	.L90:
 195:Src/findwayBases.cpp ****             inter2 = {0, 0};
 877              		.loc 1 195 13 is_stmt 1 view .LVU280
 195:Src/findwayBases.cpp ****             inter2 = {0, 0};
 878              		.loc 1 195 20 is_stmt 0 view .LVU281
 879 05ed C7442420 		movl	$0x00000000, 32(%rsp)
 879      00000000 
 880 05f5 C7442424 		movl	$0x00000000, 36(%rsp)
 880      00000000 
 196:Src/findwayBases.cpp ****             l2 = 0;
 881              		.loc 1 196 13 is_stmt 1 view .LVU282
 882              	.LVL75:
 196:Src/findwayBases.cpp ****             l2 = 0;
 883              		.loc 1 196 13 is_stmt 0 view .LVU283
 884 05fd E90EFEFF 		jmp	.L95
 884      FF
 885              	.LVL76:
 886              	.L94:
 198:Src/findwayBases.cpp ****         else if(inter1.eq(0, 0) || l2 < l1)
 887              		.loc 1 198 33 view .LVU284
 888 0602 66410F6E 		movd	%r12d, %xmm4
 888      E4
 889 0607 0F2F6424 		comiss	12(%rsp), %xmm4
 889      0C
 890 060c 77BB     		ja	.L96
 891              	.LVL77:
 207:Src/findwayBases.cpp ****             l2 = 0;
 892              		.loc 1 207 13 is_stmt 1 view .LVU285
 208:Src/findwayBases.cpp ****             inter2 = {0, 0};
 893              		.loc 1 208 13 view .LVU286
 208:Src/findwayBases.cpp ****             inter2 = {0, 0};
 894              		.loc 1 208 20 is_stmt 0 view .LVU287
 895 060e C7442420 		movl	$0x00000000, 32(%rsp)
 895      00000000 
 896 0616 C7442424 		movl	$0x00000000, 36(%rsp)
 896      00000000 
 897 061e E9EDFDFF 		jmp	.L95
 897      FF
 898              	.LVL78:
 899              	.L114:
 223:Src/findwayBases.cpp ****         l2 = getLen(v->c, &inter2);
 900              		.loc 1 223 9 is_stmt 1 view .LVU288
GAS LISTING /tmp/ccC5Gb9O.s 			page 44


 223:Src/findwayBases.cpp ****         l2 = getLen(v->c, &inter2);
 901              		.loc 1 223 24 is_stmt 0 view .LVU289
 902 0623 488B7D00 		movq	0(%rbp), %rdi
 223:Src/findwayBases.cpp ****         l2 = getLen(v->c, &inter2);
 903              		.loc 1 223 20 view .LVU290
 904 0627 488D5C24 		leaq	32(%rsp), %rbx
 904      20
 905              	.LVL79:
 223:Src/findwayBases.cpp ****         l2 = getLen(v->c, &inter2);
 906              		.loc 1 223 20 view .LVU291
 907 062c 4889DE   		movq	%rbx, %rsi
 908 062f E8000000 		call	_Z6getLenPK6coordsS1_
 908      00
 909              	.LVL80:
 910 0634 F30F1144 		movss	%xmm0, 12(%rsp)
 910      240C
 911              	.LVL81:
 224:Src/findwayBases.cpp ****         if(!(isCoDirectional(v, &inter2) && l2 <= lv))
 912              		.loc 1 224 9 is_stmt 1 view .LVU292
 224:Src/findwayBases.cpp ****         if(!(isCoDirectional(v, &inter2) && l2 <= lv))
 913              		.loc 1 224 29 is_stmt 0 view .LVU293
 914 063a 4889DE   		movq	%rbx, %rsi
 915 063d 4889EF   		movq	%rbp, %rdi
 916 0640 E8000000 		call	_Z15isCoDirectionalPK4vectPK6coords
 916      00
 917              	.LVL82:
 224:Src/findwayBases.cpp ****         if(!(isCoDirectional(v, &inter2) && l2 <= lv))
 918              		.loc 1 224 12 view .LVU294
 919 0645 84C0     		testb	%al, %al
 920 0647 0F84FEFD 		je	.L98
 920      FFFF
 224:Src/findwayBases.cpp ****         if(!(isCoDirectional(v, &inter2) && l2 <= lv))
 921              		.loc 1 224 12 discriminator 2 view .LVU295
 922 064d F30F104C 		movss	8(%rsp), %xmm1
 922      2408
 923 0653 0F2F4C24 		comiss	12(%rsp), %xmm1
 923      0C
 924 0658 0F82EDFD 		jb	.L98
 924      FFFF
 229:Src/findwayBases.cpp ****         else if(inter1.eq(0, 0) || l2 < l1)
 925              		.loc 1 229 14 is_stmt 1 view .LVU296
 926              	.LVL83:
 927              	.LBB52:
 928              	.LBI52:
  32:Includes/findwayBases.hpp ****     {
 929              		.loc 5 32 10 view .LVU297
 930              	.LBB53:
 931              		.loc 5 34 9 view .LVU298
 932              		.loc 5 34 17 is_stmt 0 view .LVU299
 933 065e F30F1044 		movss	24(%rsp), %xmm0
 933      2418
 934              		.loc 5 34 25 view .LVU300
 935 0664 0F2E0500 		ucomiss	.LC0(%rip), %xmm0
 935      000000
 936 066b 7A13     		jp	.L100
 937 066d 7511     		jne	.L100
 938              		.loc 5 34 28 view .LVU301
GAS LISTING /tmp/ccC5Gb9O.s 			page 45


 939 066f F30F1044 		movss	28(%rsp), %xmm0
 939      241C
 940              		.loc 5 34 25 view .LVU302
 941 0675 0F2E0500 		ucomiss	.LC0(%rip), %xmm0
 941      000000
 942 067c 7A02     		jp	.L100
 943 067e 7410     		je	.L102
 944              	.L100:
 945              	.LVL84:
 946              		.loc 5 34 25 view .LVU303
 947              	.LBE53:
 948              	.LBE52:
 229:Src/findwayBases.cpp ****         else if(inter1.eq(0, 0) || l2 < l1)
 949              		.loc 1 229 33 view .LVU304
 950 0680 66410F6E 		movd	%r12d, %xmm6
 950      F4
 951 0685 0F2F7424 		comiss	12(%rsp), %xmm6
 951      0C
 952 068a 0F86BBFD 		jbe	.L98
 952      FFFF
 953              	.L102:
 231:Src/findwayBases.cpp ****             inter1 = inter2;
 954              		.loc 1 231 13 is_stmt 1 view .LVU305
 231:Src/findwayBases.cpp ****             inter1 = inter2;
 955              		.loc 1 231 20 is_stmt 0 view .LVU306
 956 0690 488B4424 		movq	32(%rsp), %rax
 956      20
 957 0695 48894424 		movq	%rax, 24(%rsp)
 957      18
 232:Src/findwayBases.cpp ****             l1 = l2;
 958              		.loc 1 232 13 is_stmt 1 view .LVU307
 959              	.LVL85:
 233:Src/findwayBases.cpp ****             l2 = 0;
 960              		.loc 1 233 13 view .LVU308
 234:Src/findwayBases.cpp ****             inter2 = {0, 0};
 961              		.loc 1 234 13 view .LVU309
 962 069a E9ACFDFF 		jmp	.L98
 962      FF
 963              	.LVL86:
 964              	.L115:
 324:Src/findwayBases.cpp **** }
 965              		.loc 1 324 1 is_stmt 0 view .LVU310
 966 069f E8000000 		call	__stack_chk_fail@PLT
 966      00
 967              	.LVL87:
 968              		.cfi_endproc
 969              	.LFE1725:
 971              		.globl	_Z12createCoordsff
 973              	_Z12createCoordsff:
 974              	.LVL88:
 975              	.LFB1733:
 367:Src/findwayBases.cpp **** {
 976              		.loc 1 367 1 is_stmt 1 view -0
 977              		.cfi_startproc
 368:Src/findwayBases.cpp ****     struct coords ret;
 978              		.loc 1 368 5 view .LVU312
 369:Src/findwayBases.cpp ****     ret.x = x;
GAS LISTING /tmp/ccC5Gb9O.s 			page 46


 979              		.loc 1 369 5 view .LVU313
 370:Src/findwayBases.cpp ****     ret.y = y;
 980              		.loc 1 370 5 view .LVU314
 370:Src/findwayBases.cpp ****     ret.y = y;
 981              		.loc 1 370 11 is_stmt 0 view .LVU315
 982 06a4 660F7EC8 		movd	%xmm1, %eax
 983 06a8 4889C2   		movq	%rax, %rdx
 984 06ab 48C1E220 		salq	$32, %rdx
 985 06af 660F7EC0 		movd	%xmm0, %eax
 986              	.LVL89:
 370:Src/findwayBases.cpp ****     ret.y = y;
 987              		.loc 1 370 11 view .LVU316
 988 06b3 4809D0   		orq	%rdx, %rax
 989              	.LVL90:
 371:Src/findwayBases.cpp ****     return ret;
 990              		.loc 1 371 5 is_stmt 1 view .LVU317
 372:Src/findwayBases.cpp **** }
 991              		.loc 1 372 1 is_stmt 0 view .LVU318
 992 06b6 66480F6E 		movq	%rax, %xmm0
 992      C0
 993              	.LVL91:
 372:Src/findwayBases.cpp **** }
 994              		.loc 1 372 1 view .LVU319
 995 06bb C3       		ret
 996              		.cfi_endproc
 997              	.LFE1733:
 999              		.globl	_Z17getCoordsOfCornerPK8obstacleh
 1001              	_Z17getCoordsOfCornerPK8obstacleh:
 1002              	.LVL92:
 1003              	.LFB1738:
 394:Src/findwayBases.cpp **** {
 1004              		.loc 1 394 1 is_stmt 1 view -0
 1005              		.cfi_startproc
 394:Src/findwayBases.cpp **** {
 1006              		.loc 1 394 1 is_stmt 0 view .LVU321
 1007 06bc 55       		pushq	%rbp
 1008              		.cfi_def_cfa_offset 16
 1009              		.cfi_offset 6, -16
 1010 06bd 53       		pushq	%rbx
 1011              		.cfi_def_cfa_offset 24
 1012              		.cfi_offset 3, -24
 1013 06be 4883EC08 		subq	$8, %rsp
 1014              		.cfi_def_cfa_offset 32
 1015 06c2 4889FD   		movq	%rdi, %rbp
 1016 06c5 89F3     		movl	%esi, %ebx
 395:Src/findwayBases.cpp ****     struct coords *ret = (struct coords*)malloc(sizeof(struct coords));
 1017              		.loc 1 395 5 is_stmt 1 view .LVU322
 395:Src/findwayBases.cpp ****     struct coords *ret = (struct coords*)malloc(sizeof(struct coords));
 1018              		.loc 1 395 48 is_stmt 0 view .LVU323
 1019 06c7 BF080000 		movl	$8, %edi
 1019      00
 1020              	.LVL93:
 395:Src/findwayBases.cpp ****     struct coords *ret = (struct coords*)malloc(sizeof(struct coords));
 1021              		.loc 1 395 48 view .LVU324
 1022 06cc E8000000 		call	malloc@PLT
 1022      00
 1023              	.LVL94:
GAS LISTING /tmp/ccC5Gb9O.s 			page 47


 396:Src/findwayBases.cpp ****     switch (corner) {
 1024              		.loc 1 396 5 is_stmt 1 view .LVU325
 1025 06d1 80FB02   		cmpb	$2, %bl
 1026 06d4 0F84CF00 		je	.L118
 1026      0000
 1027 06da 774E     		ja	.L119
 1028 06dc 84DB     		testb	%bl, %bl
 1029 06de 0F848800 		je	.L120
 1029      0000
 1030 06e4 80FB01   		cmpb	$1, %bl
 1031 06e7 0F85B500 		jne	.L117
 1031      0000
 403:Src/findwayBases.cpp ****         case CORNER_LEFT_TOP:
 1032              		.loc 1 403 9 view .LVU326
 404:Src/findwayBases.cpp ****         {
 1033              		.loc 1 404 9 view .LVU327
 405:Src/findwayBases.cpp ****             ret->x = obst->c->x - CONST;
 1034              		.loc 1 405 13 view .LVU328
 405:Src/findwayBases.cpp ****             ret->x = obst->c->x - CONST;
 1035              		.loc 1 405 28 is_stmt 0 view .LVU329
 1036 06ed 488B5500 		movq	0(%rbp), %rdx
 405:Src/findwayBases.cpp ****             ret->x = obst->c->x - CONST;
 1037              		.loc 1 405 31 view .LVU330
 1038 06f1 660FEFC9 		pxor	%xmm1, %xmm1
 1039 06f5 F30F5A0A 		cvtss2sd	(%rdx), %xmm1
 405:Src/findwayBases.cpp ****             ret->x = obst->c->x - CONST;
 1040              		.loc 1 405 33 view .LVU331
 1041 06f9 F20F1015 		movsd	.LC5(%rip), %xmm2
 1041      00000000 
 1042 0701 F20F5CCA 		subsd	%xmm2, %xmm1
 1043 0705 F20F5AC9 		cvtsd2ss	%xmm1, %xmm1
 405:Src/findwayBases.cpp ****             ret->x = obst->c->x - CONST;
 1044              		.loc 1 405 20 view .LVU332
 1045 0709 F30F1108 		movss	%xmm1, (%rax)
 406:Src/findwayBases.cpp ****             ret->y = obst->c->y + obst->a + CONST;
 1046              		.loc 1 406 13 is_stmt 1 view .LVU333
 406:Src/findwayBases.cpp ****             ret->y = obst->c->y + obst->a + CONST;
 1047              		.loc 1 406 41 is_stmt 0 view .LVU334
 1048 070d F30F1045 		movss	40(%rbp), %xmm0
 1048      28
 406:Src/findwayBases.cpp ****             ret->y = obst->c->y + obst->a + CONST;
 1049              		.loc 1 406 33 view .LVU335
 1050 0712 F30F5842 		addss	4(%rdx), %xmm0
 1050      04
 1051 0717 F30F5AC0 		cvtss2sd	%xmm0, %xmm0
 406:Src/findwayBases.cpp ****             ret->y = obst->c->y + obst->a + CONST;
 1052              		.loc 1 406 43 view .LVU336
 1053 071b F20F58C2 		addsd	%xmm2, %xmm0
 1054 071f F20F5AC0 		cvtsd2ss	%xmm0, %xmm0
 406:Src/findwayBases.cpp ****             ret->y = obst->c->y + obst->a + CONST;
 1055              		.loc 1 406 20 view .LVU337
 1056 0723 F30F1140 		movss	%xmm0, 4(%rax)
 1056      04
 407:Src/findwayBases.cpp ****             break;
 1057              		.loc 1 407 13 is_stmt 1 view .LVU338
 1058 0728 EB78     		jmp	.L117
 1059              	.L119:
GAS LISTING /tmp/ccC5Gb9O.s 			page 48


 396:Src/findwayBases.cpp ****     switch (corner) {
 1060              		.loc 1 396 5 is_stmt 0 view .LVU339
 1061 072a 80FB03   		cmpb	$3, %bl
 1062 072d 7573     		jne	.L117
 409:Src/findwayBases.cpp ****         case CORNER_RIGHT_BOT:
 1063              		.loc 1 409 9 is_stmt 1 view .LVU340
 410:Src/findwayBases.cpp ****         {
 1064              		.loc 1 410 9 view .LVU341
 411:Src/findwayBases.cpp ****             ret->x = obst->c->x + obst->a + CONST;
 1065              		.loc 1 411 13 view .LVU342
 411:Src/findwayBases.cpp ****             ret->x = obst->c->x + obst->a + CONST;
 1066              		.loc 1 411 28 is_stmt 0 view .LVU343
 1067 072f 488B5500 		movq	0(%rbp), %rdx
 411:Src/findwayBases.cpp ****             ret->x = obst->c->x + obst->a + CONST;
 1068              		.loc 1 411 41 view .LVU344
 1069 0733 F30F1045 		movss	40(%rbp), %xmm0
 1069      28
 411:Src/findwayBases.cpp ****             ret->x = obst->c->x + obst->a + CONST;
 1070              		.loc 1 411 33 view .LVU345
 1071 0738 F30F5802 		addss	(%rdx), %xmm0
 1072 073c F30F5AC0 		cvtss2sd	%xmm0, %xmm0
 411:Src/findwayBases.cpp ****             ret->x = obst->c->x + obst->a + CONST;
 1073              		.loc 1 411 43 view .LVU346
 1074 0740 F20F100D 		movsd	.LC5(%rip), %xmm1
 1074      00000000 
 1075 0748 F20F58C1 		addsd	%xmm1, %xmm0
 1076 074c F20F5AC0 		cvtsd2ss	%xmm0, %xmm0
 411:Src/findwayBases.cpp ****             ret->x = obst->c->x + obst->a + CONST;
 1077              		.loc 1 411 20 view .LVU347
 1078 0750 F30F1100 		movss	%xmm0, (%rax)
 412:Src/findwayBases.cpp ****             ret->y = obst->c->y - CONST;
 1079              		.loc 1 412 13 is_stmt 1 view .LVU348
 412:Src/findwayBases.cpp ****             ret->y = obst->c->y - CONST;
 1080              		.loc 1 412 31 is_stmt 0 view .LVU349
 1081 0754 660FEFC0 		pxor	%xmm0, %xmm0
 1082 0758 F30F5A42 		cvtss2sd	4(%rdx), %xmm0
 1082      04
 412:Src/findwayBases.cpp ****             ret->y = obst->c->y - CONST;
 1083              		.loc 1 412 33 view .LVU350
 1084 075d F20F5CC1 		subsd	%xmm1, %xmm0
 1085 0761 F20F5AC0 		cvtsd2ss	%xmm0, %xmm0
 412:Src/findwayBases.cpp ****             ret->y = obst->c->y - CONST;
 1086              		.loc 1 412 20 view .LVU351
 1087 0765 F30F1140 		movss	%xmm0, 4(%rax)
 1087      04
 413:Src/findwayBases.cpp ****             break;
 1088              		.loc 1 413 13 is_stmt 1 view .LVU352
 1089 076a EB36     		jmp	.L117
 1090              	.L120:
 397:Src/findwayBases.cpp ****         case CORNER_LEFT_BOT:
 1091              		.loc 1 397 9 view .LVU353
 398:Src/findwayBases.cpp ****         {
 1092              		.loc 1 398 9 view .LVU354
 399:Src/findwayBases.cpp ****             ret->x = obst->c->x - CONST;
 1093              		.loc 1 399 13 view .LVU355
 399:Src/findwayBases.cpp ****             ret->x = obst->c->x - CONST;
 1094              		.loc 1 399 28 is_stmt 0 view .LVU356
GAS LISTING /tmp/ccC5Gb9O.s 			page 49


 1095 076c 488B5500 		movq	0(%rbp), %rdx
 399:Src/findwayBases.cpp ****             ret->x = obst->c->x - CONST;
 1096              		.loc 1 399 31 view .LVU357
 1097 0770 660FEFC0 		pxor	%xmm0, %xmm0
 1098 0774 F30F5A02 		cvtss2sd	(%rdx), %xmm0
 399:Src/findwayBases.cpp ****             ret->x = obst->c->x - CONST;
 1099              		.loc 1 399 33 view .LVU358
 1100 0778 F20F100D 		movsd	.LC5(%rip), %xmm1
 1100      00000000 
 1101 0780 F20F5CC1 		subsd	%xmm1, %xmm0
 1102 0784 F20F5AC0 		cvtsd2ss	%xmm0, %xmm0
 399:Src/findwayBases.cpp ****             ret->x = obst->c->x - CONST;
 1103              		.loc 1 399 20 view .LVU359
 1104 0788 F30F1100 		movss	%xmm0, (%rax)
 400:Src/findwayBases.cpp ****             ret->y = obst->c->y - CONST;
 1105              		.loc 1 400 13 is_stmt 1 view .LVU360
 400:Src/findwayBases.cpp ****             ret->y = obst->c->y - CONST;
 1106              		.loc 1 400 31 is_stmt 0 view .LVU361
 1107 078c 660FEFC0 		pxor	%xmm0, %xmm0
 1108 0790 F30F5A42 		cvtss2sd	4(%rdx), %xmm0
 1108      04
 400:Src/findwayBases.cpp ****             ret->y = obst->c->y - CONST;
 1109              		.loc 1 400 33 view .LVU362
 1110 0795 F20F5CC1 		subsd	%xmm1, %xmm0
 1111 0799 F20F5AC0 		cvtsd2ss	%xmm0, %xmm0
 400:Src/findwayBases.cpp ****             ret->y = obst->c->y - CONST;
 1112              		.loc 1 400 20 view .LVU363
 1113 079d F30F1140 		movss	%xmm0, 4(%rax)
 1113      04
 401:Src/findwayBases.cpp ****             break;
 1114              		.loc 1 401 13 is_stmt 1 view .LVU364
 1115              	.L117:
 423:Src/findwayBases.cpp **** }
 1116              		.loc 1 423 1 is_stmt 0 view .LVU365
 1117 07a2 4883C408 		addq	$8, %rsp
 1118              		.cfi_remember_state
 1119              		.cfi_def_cfa_offset 24
 1120 07a6 5B       		popq	%rbx
 1121              		.cfi_def_cfa_offset 16
 1122 07a7 5D       		popq	%rbp
 1123              		.cfi_def_cfa_offset 8
 1124              	.LVL95:
 423:Src/findwayBases.cpp **** }
 1125              		.loc 1 423 1 view .LVU366
 1126 07a8 C3       		ret
 1127              	.LVL96:
 1128              	.L118:
 1129              		.cfi_restore_state
 415:Src/findwayBases.cpp ****         case CORNER_RIGHT_TOP:
 1130              		.loc 1 415 9 is_stmt 1 view .LVU367
 416:Src/findwayBases.cpp ****         {
 1131              		.loc 1 416 9 view .LVU368
 417:Src/findwayBases.cpp ****             ret->x = obst->c->x + obst->a + CONST;
 1132              		.loc 1 417 13 view .LVU369
 417:Src/findwayBases.cpp ****             ret->x = obst->c->x + obst->a + CONST;
 1133              		.loc 1 417 28 is_stmt 0 view .LVU370
 1134 07a9 488B5500 		movq	0(%rbp), %rdx
GAS LISTING /tmp/ccC5Gb9O.s 			page 50


 417:Src/findwayBases.cpp ****             ret->x = obst->c->x + obst->a + CONST;
 1135              		.loc 1 417 41 view .LVU371
 1136 07ad F30F1045 		movss	40(%rbp), %xmm0
 1136      28
 417:Src/findwayBases.cpp ****             ret->x = obst->c->x + obst->a + CONST;
 1137              		.loc 1 417 33 view .LVU372
 1138 07b2 0F28C8   		movaps	%xmm0, %xmm1
 1139 07b5 F30F580A 		addss	(%rdx), %xmm1
 1140 07b9 F30F5AC9 		cvtss2sd	%xmm1, %xmm1
 417:Src/findwayBases.cpp ****             ret->x = obst->c->x + obst->a + CONST;
 1141              		.loc 1 417 43 view .LVU373
 1142 07bd F20F1015 		movsd	.LC5(%rip), %xmm2
 1142      00000000 
 1143 07c5 F20F58CA 		addsd	%xmm2, %xmm1
 1144 07c9 F20F5AC9 		cvtsd2ss	%xmm1, %xmm1
 417:Src/findwayBases.cpp ****             ret->x = obst->c->x + obst->a + CONST;
 1145              		.loc 1 417 20 view .LVU374
 1146 07cd F30F1108 		movss	%xmm1, (%rax)
 418:Src/findwayBases.cpp ****             ret->y = obst->c->y + obst->a + CONST;
 1147              		.loc 1 418 13 is_stmt 1 view .LVU375
 418:Src/findwayBases.cpp ****             ret->y = obst->c->y + obst->a + CONST;
 1148              		.loc 1 418 33 is_stmt 0 view .LVU376
 1149 07d1 F30F5842 		addss	4(%rdx), %xmm0
 1149      04
 1150 07d6 F30F5AC0 		cvtss2sd	%xmm0, %xmm0
 418:Src/findwayBases.cpp ****             ret->y = obst->c->y + obst->a + CONST;
 1151              		.loc 1 418 43 view .LVU377
 1152 07da F20F58C2 		addsd	%xmm2, %xmm0
 1153 07de F20F5AC0 		cvtsd2ss	%xmm0, %xmm0
 418:Src/findwayBases.cpp ****             ret->y = obst->c->y + obst->a + CONST;
 1154              		.loc 1 418 20 view .LVU378
 1155 07e2 F30F1140 		movss	%xmm0, 4(%rax)
 1155      04
 419:Src/findwayBases.cpp ****             break;
 1156              		.loc 1 419 13 is_stmt 1 view .LVU379
 422:Src/findwayBases.cpp ****     return ret;
 1157              		.loc 1 422 5 view .LVU380
 422:Src/findwayBases.cpp ****     return ret;
 1158              		.loc 1 422 12 is_stmt 0 view .LVU381
 1159 07e7 EBB9     		jmp	.L117
 1160              		.cfi_endproc
 1161              	.LFE1738:
 1163              		.globl	_Z14createObstaclefff
 1165              	_Z14createObstaclefff:
 1166              	.LVL97:
 1167              	.LFB1734:
 375:Src/findwayBases.cpp **** {
 1168              		.loc 1 375 1 is_stmt 1 view -0
 1169              		.cfi_startproc
 375:Src/findwayBases.cpp **** {
 1170              		.loc 1 375 1 is_stmt 0 view .LVU383
 1171 07e9 4155     		pushq	%r13
 1172              		.cfi_def_cfa_offset 16
 1173              		.cfi_offset 13, -16
 1174 07eb 4154     		pushq	%r12
 1175              		.cfi_def_cfa_offset 24
 1176              		.cfi_offset 12, -24
GAS LISTING /tmp/ccC5Gb9O.s 			page 51


 1177 07ed 55       		pushq	%rbp
 1178              		.cfi_def_cfa_offset 32
 1179              		.cfi_offset 6, -32
 1180 07ee 53       		pushq	%rbx
 1181              		.cfi_def_cfa_offset 40
 1182              		.cfi_offset 3, -40
 1183 07ef 4883EC08 		subq	$8, %rsp
 1184              		.cfi_def_cfa_offset 48
 1185 07f3 4889FB   		movq	%rdi, %rbx
 1186 07f6 66410F7E 		movd	%xmm0, %r13d
 1186      C5
 1187 07fb 66410F7E 		movd	%xmm1, %r12d
 1187      CC
 1188 0800 660F7ED5 		movd	%xmm2, %ebp
 376:Src/findwayBases.cpp ****     struct obstacle ret;
 1189              		.loc 1 376 5 is_stmt 1 view .LVU384
 376:Src/findwayBases.cpp ****     struct obstacle ret;
 1190              		.loc 1 376 21 is_stmt 0 view .LVU385
 1191 0804 48C74708 		movq	$0, 8(%rdi)
 1191      00000000 
 1192 080c 48C74710 		movq	$0, 16(%rdi)
 1192      00000000 
 1193 0814 48C74718 		movq	$0, 24(%rdi)
 1193      00000000 
 1194 081c 48C74720 		movq	$0, 32(%rdi)
 1194      00000000 
 377:Src/findwayBases.cpp ****     ret.c = (struct coords*)malloc(sizeof(struct coords));
 1195              		.loc 1 377 5 is_stmt 1 view .LVU386
 377:Src/findwayBases.cpp ****     ret.c = (struct coords*)malloc(sizeof(struct coords));
 1196              		.loc 1 377 35 is_stmt 0 view .LVU387
 1197 0824 BF080000 		movl	$8, %edi
 1197      00
 1198              	.LVL98:
 377:Src/findwayBases.cpp ****     ret.c = (struct coords*)malloc(sizeof(struct coords));
 1199              		.loc 1 377 35 view .LVU388
 1200 0829 E8000000 		call	malloc@PLT
 1200      00
 1201              	.LVL99:
 377:Src/findwayBases.cpp ****     ret.c = (struct coords*)malloc(sizeof(struct coords));
 1202              		.loc 1 377 11 view .LVU389
 1203 082e 488903   		movq	%rax, (%rbx)
 378:Src/findwayBases.cpp ****     ret.c->x = x;
 1204              		.loc 1 378 5 is_stmt 1 view .LVU390
 378:Src/findwayBases.cpp ****     ret.c->x = x;
 1205              		.loc 1 378 14 is_stmt 0 view .LVU391
 1206 0831 448928   		movl	%r13d, (%rax)
 379:Src/findwayBases.cpp ****     ret.c->y = y;
 1207              		.loc 1 379 5 is_stmt 1 view .LVU392
 379:Src/findwayBases.cpp ****     ret.c->y = y;
 1208              		.loc 1 379 14 is_stmt 0 view .LVU393
 1209 0834 44896004 		movl	%r12d, 4(%rax)
 380:Src/findwayBases.cpp ****     ret.a    = a;
 1210              		.loc 1 380 5 is_stmt 1 view .LVU394
 380:Src/findwayBases.cpp ****     ret.a    = a;
 1211              		.loc 1 380 14 is_stmt 0 view .LVU395
 1212 0838 896B28   		movl	%ebp, 40(%rbx)
 381:Src/findwayBases.cpp ****     for(uint8_t i = 0; i < 4; i++)
GAS LISTING /tmp/ccC5Gb9O.s 			page 52


 1213              		.loc 1 381 5 is_stmt 1 view .LVU396
 1214              	.LVL100:
 1215              	.LBB54:
 381:Src/findwayBases.cpp ****     for(uint8_t i = 0; i < 4; i++)
 1216              		.loc 1 381 17 is_stmt 0 view .LVU397
 1217 083b BD000000 		movl	$0, %ebp
 1217      00
 1218              	.LVL101:
 381:Src/findwayBases.cpp ****     for(uint8_t i = 0; i < 4; i++)
 1219              		.loc 1 381 17 view .LVU398
 1220 0840 EB33     		jmp	.L127
 1221              	.LVL102:
 1222              	.L129:
 383:Src/findwayBases.cpp ****         ret.corners[i] = (struct graphPoint*)malloc(sizeof(struct graphPoint));
 1223              		.loc 1 383 9 is_stmt 1 discriminator 2 view .LVU399
 383:Src/findwayBases.cpp ****         ret.corners[i] = (struct graphPoint*)malloc(sizeof(struct graphPoint));
 1224              		.loc 1 383 21 is_stmt 0 discriminator 2 view .LVU400
 1225 0842 440FB6ED 		movzbl	%bpl, %r13d
 383:Src/findwayBases.cpp ****         ret.corners[i] = (struct graphPoint*)malloc(sizeof(struct graphPoint));
 1226              		.loc 1 383 52 discriminator 2 view .LVU401
 1227 0846 BF280000 		movl	$40, %edi
 1227      00
 1228 084b E8000000 		call	malloc@PLT
 1228      00
 1229              	.LVL103:
 383:Src/findwayBases.cpp ****         ret.corners[i] = (struct graphPoint*)malloc(sizeof(struct graphPoint));
 1230              		.loc 1 383 24 discriminator 2 view .LVU402
 1231 0850 4D63E5   		movslq	%r13d, %r12
 1232 0853 4A8944E3 		movq	%rax, 8(%rbx,%r12,8)
 1232      08
 384:Src/findwayBases.cpp ****         ret.corners[i]->c = *getCoordsOfCorner(&ret, i);
 1233              		.loc 1 384 9 is_stmt 1 discriminator 2 view .LVU403
 384:Src/findwayBases.cpp ****         ret.corners[i]->c = *getCoordsOfCorner(&ret, i);
 1234              		.loc 1 384 47 is_stmt 0 discriminator 2 view .LVU404
 1235 0858 4489EE   		movl	%r13d, %esi
 1236 085b 4889DF   		movq	%rbx, %rdi
 1237 085e E8000000 		call	_Z17getCoordsOfCornerPK8obstacleh
 1237      00
 1238              	.LVL104:
 1239 0863 4889C2   		movq	%rax, %rdx
 384:Src/findwayBases.cpp ****         ret.corners[i]->c = *getCoordsOfCorner(&ret, i);
 1240              		.loc 1 384 22 discriminator 2 view .LVU405
 1241 0866 4A8B44E3 		movq	8(%rbx,%r12,8), %rax
 1241      08
 384:Src/findwayBases.cpp ****         ret.corners[i]->c = *getCoordsOfCorner(&ret, i);
 1242              		.loc 1 384 27 discriminator 2 view .LVU406
 1243 086b 488B12   		movq	(%rdx), %rdx
 1244 086e 48895010 		movq	%rdx, 16(%rax)
 381:Src/findwayBases.cpp ****     for(uint8_t i = 0; i < 4; i++)
 1245              		.loc 1 381 5 is_stmt 1 discriminator 2 view .LVU407
 1246 0872 83C501   		addl	$1, %ebp
 1247              	.LVL105:
 1248              	.L127:
 381:Src/findwayBases.cpp ****     for(uint8_t i = 0; i < 4; i++)
 1249              		.loc 1 381 26 discriminator 3 view .LVU408
 1250 0875 4080FD03 		cmpb	$3, %bpl
 1251 0879 76C7     		jbe	.L129
GAS LISTING /tmp/ccC5Gb9O.s 			page 53


 1252              	.LBE54:
 388:Src/findwayBases.cpp **** }
 1253              		.loc 1 388 1 is_stmt 0 view .LVU409
 1254 087b 4889D8   		movq	%rbx, %rax
 1255 087e 4883C408 		addq	$8, %rsp
 1256              		.cfi_def_cfa_offset 40
 1257 0882 5B       		popq	%rbx
 1258              		.cfi_def_cfa_offset 32
 1259              	.LVL106:
 388:Src/findwayBases.cpp **** }
 1260              		.loc 1 388 1 view .LVU410
 1261 0883 5D       		popq	%rbp
 1262              		.cfi_def_cfa_offset 24
 1263              	.LVL107:
 388:Src/findwayBases.cpp **** }
 1264              		.loc 1 388 1 view .LVU411
 1265 0884 415C     		popq	%r12
 1266              		.cfi_def_cfa_offset 16
 1267 0886 415D     		popq	%r13
 1268              		.cfi_def_cfa_offset 8
 1269 0888 C3       		ret
 1270              		.cfi_endproc
 1271              	.LFE1734:
 1273              		.globl	_Z8getPointPK8obstacleh
 1275              	_Z8getPointPK8obstacleh:
 1276              	.LVL108:
 1277              	.LFB1739:
 427:Src/findwayBases.cpp **** {
 1278              		.loc 1 427 1 is_stmt 1 view -0
 1279              		.cfi_startproc
 428:Src/findwayBases.cpp ****     return obst->corners[corner];
 1280              		.loc 1 428 5 view .LVU413
 428:Src/findwayBases.cpp ****     return obst->corners[corner];
 1281              		.loc 1 428 32 is_stmt 0 view .LVU414
 1282 0889 400FB6F6 		movzbl	%sil, %esi
 428:Src/findwayBases.cpp ****     return obst->corners[corner];
 1283              		.loc 1 428 32 view .LVU415
 1284 088d 488B44F7 		movq	8(%rdi,%rsi,8), %rax
 1284      08
 429:Src/findwayBases.cpp **** }
 1285              		.loc 1 429 1 view .LVU416
 1286 0892 C3       		ret
 1287              		.cfi_endproc
 1288              	.LFE1739:
 1290              		.globl	_Z15hasIntersectionPK8obstaclePK4vect
 1292              	_Z15hasIntersectionPK8obstaclePK4vect:
 1293              	.LVL109:
 1294              	.LFB1740:
 434:Src/findwayBases.cpp **** {
 1295              		.loc 1 434 1 is_stmt 1 view -0
 1296              		.cfi_startproc
 434:Src/findwayBases.cpp **** {
 1297              		.loc 1 434 1 is_stmt 0 view .LVU418
 1298 0893 53       		pushq	%rbx
 1299              		.cfi_def_cfa_offset 16
 1300              		.cfi_offset 3, -16
 1301 0894 4889F3   		movq	%rsi, %rbx
GAS LISTING /tmp/ccC5Gb9O.s 			page 54


 435:Src/findwayBases.cpp ****     struct coords c = getIntersection(obst, v);
 1302              		.loc 1 435 5 is_stmt 1 view .LVU419
 435:Src/findwayBases.cpp ****     struct coords c = getIntersection(obst, v);
 1303              		.loc 1 435 46 is_stmt 0 view .LVU420
 1304 0897 E8000000 		call	_Z15getIntersectionPK8obstaclePK4vect
 1304      00
 1305              	.LVL110:
 435:Src/findwayBases.cpp ****     struct coords c = getIntersection(obst, v);
 1306              		.loc 1 435 46 view .LVU421
 1307 089c 66480F7E 		movq	%xmm0, %rax
 1307      C0
 1308              	.LVL111:
 437:Src/findwayBases.cpp ****     if((c.x == 0 && c.y == 0) || c.eq(v->c) || (((v->dx + v->c->x) == c.x) && ((v->dy + v->c->y) ==
 1309              		.loc 1 437 5 is_stmt 1 view .LVU422
 437:Src/findwayBases.cpp ****     if((c.x == 0 && c.y == 0) || c.eq(v->c) || (((v->dx + v->c->x) == c.x) && ((v->dy + v->c->y) ==
 1310              		.loc 1 437 45 is_stmt 0 view .LVU423
 1311 08a1 0F2E0500 		ucomiss	.LC0(%rip), %xmm0
 1311      000000
 1312 08a8 7A18     		jp	.L132
 1313 08aa 7516     		jne	.L132
 1314              	.LVL112:
 437:Src/findwayBases.cpp ****     if((c.x == 0 && c.y == 0) || c.eq(v->c) || (((v->dx + v->c->x) == c.x) && ((v->dy + v->c->y) ==
 1315              		.loc 1 437 23 discriminator 1 view .LVU424
 1316 08ac 66480F7E 		movq	%xmm0, %rcx
 1316      C1
 1317 08b1 48C1E920 		shrq	$32, %rcx
 1318 08b5 660F6EC9 		movd	%ecx, %xmm1
 437:Src/findwayBases.cpp ****     if((c.x == 0 && c.y == 0) || c.eq(v->c) || (((v->dx + v->c->x) == c.x) && ((v->dy + v->c->y) ==
 1319              		.loc 1 437 18 discriminator 1 view .LVU425
 1320 08b9 0F2E0D00 		ucomiss	.LC0(%rip), %xmm1
 1320      000000
 1321 08c0 7B2C     		jnp	.L150
 1322              	.L132:
 437:Src/findwayBases.cpp ****     if((c.x == 0 && c.y == 0) || c.eq(v->c) || (((v->dx + v->c->x) == c.x) && ((v->dy + v->c->y) ==
 1323              		.loc 1 437 42 discriminator 4 view .LVU426
 1324 08c2 488B13   		movq	(%rbx), %rdx
 1325              	.LVL113:
 1326              	.LBB55:
 1327              	.LBI55:
  27:Includes/findwayBases.hpp ****     {
 1328              		.loc 5 27 10 is_stmt 1 discriminator 4 view .LVU427
 1329              	.LBB56:
  29:Includes/findwayBases.hpp ****     }
 1330              		.loc 5 29 9 discriminator 4 view .LVU428
  29:Includes/findwayBases.hpp ****     }
 1331              		.loc 5 29 25 is_stmt 0 discriminator 4 view .LVU429
 1332 08c5 F30F100A 		movss	(%rdx), %xmm1
  29:Includes/findwayBases.hpp ****     }
 1333              		.loc 5 29 27 discriminator 4 view .LVU430
 1334 08c9 0F2EC1   		ucomiss	%xmm1, %xmm0
 1335 08cc 7A29     		jp	.L136
 1336 08ce 7527     		jne	.L136
 1337              	.LVL114:
  29:Includes/findwayBases.hpp ****     }
 1338              		.loc 5 29 30 view .LVU431
 1339 08d0 4889C1   		movq	%rax, %rcx
 1340 08d3 48C1E920 		shrq	$32, %rcx
GAS LISTING /tmp/ccC5Gb9O.s 			page 55


 1341 08d7 660F6ED1 		movd	%ecx, %xmm2
  29:Includes/findwayBases.hpp ****     }
 1342              		.loc 5 29 38 view .LVU432
 1343 08db F30F105A 		movss	4(%rdx), %xmm3
 1343      04
  29:Includes/findwayBases.hpp ****     }
 1344              		.loc 5 29 27 view .LVU433
 1345 08e0 0F2ED3   		ucomiss	%xmm3, %xmm2
 1346 08e3 7A12     		jp	.L136
 1347 08e5 7510     		jne	.L136
 1348              	.LBE56:
 1349              	.LBE55:
 440:Src/findwayBases.cpp ****         return false;
 1350              		.loc 1 440 16 view .LVU434
 1351 08e7 B8000000 		movl	$0, %eax
 1351      00
 1352 08ec EB41     		jmp	.L131
 1353              	.LVL115:
 1354              	.L150:
 437:Src/findwayBases.cpp ****     if((c.x == 0 && c.y == 0) || c.eq(v->c) || (((v->dx + v->c->x) == c.x) && ((v->dy + v->c->y) ==
 1355              		.loc 1 437 18 discriminator 1 view .LVU435
 1356 08ee 75D2     		jne	.L132
 440:Src/findwayBases.cpp ****         return false;
 1357              		.loc 1 440 16 view .LVU436
 1358 08f0 B8000000 		movl	$0, %eax
 1358      00
 1359 08f5 EB38     		jmp	.L131
 1360              	.LVL116:
 1361              	.L136:
 437:Src/findwayBases.cpp ****     if((c.x == 0 && c.y == 0) || c.eq(v->c) || (((v->dx + v->c->x) == c.x) && ((v->dy + v->c->y) ==
 1362              		.loc 1 437 57 view .LVU437
 1363 08f7 F30F584B 		addss	8(%rbx), %xmm1
 1363      08
 437:Src/findwayBases.cpp ****     if((c.x == 0 && c.y == 0) || c.eq(v->c) || (((v->dx + v->c->x) == c.x) && ((v->dy + v->c->y) ==
 1364              		.loc 1 437 45 view .LVU438
 1365 08fc 0F2EC1   		ucomiss	%xmm1, %xmm0
 1366 08ff 7A29     		jp	.L143
 1367 0901 7527     		jne	.L143
 437:Src/findwayBases.cpp ****     if((c.x == 0 && c.y == 0) || c.eq(v->c) || (((v->dx + v->c->x) == c.x) && ((v->dy + v->c->y) ==
 1368              		.loc 1 437 95 discriminator 7 view .LVU439
 1369 0903 F30F104A 		movss	4(%rdx), %xmm1
 1369      04
 437:Src/findwayBases.cpp ****     if((c.x == 0 && c.y == 0) || c.eq(v->c) || (((v->dx + v->c->x) == c.x) && ((v->dy + v->c->y) ==
 1370              		.loc 1 437 87 discriminator 7 view .LVU440
 1371 0908 F30F584B 		addss	12(%rbx), %xmm1
 1371      0C
 437:Src/findwayBases.cpp ****     if((c.x == 0 && c.y == 0) || c.eq(v->c) || (((v->dx + v->c->x) == c.x) && ((v->dy + v->c->y) ==
 1372              		.loc 1 437 103 discriminator 7 view .LVU441
 1373 090d 48C1E820 		shrq	$32, %rax
 1374              	.LVL117:
 437:Src/findwayBases.cpp ****     if((c.x == 0 && c.y == 0) || c.eq(v->c) || (((v->dx + v->c->x) == c.x) && ((v->dy + v->c->y) ==
 1375              		.loc 1 437 103 discriminator 7 view .LVU442
 1376 0911 660F6EC0 		movd	%eax, %xmm0
 1377              	.LVL118:
 437:Src/findwayBases.cpp ****     if((c.x == 0 && c.y == 0) || c.eq(v->c) || (((v->dx + v->c->x) == c.x) && ((v->dy + v->c->y) ==
 1378              		.loc 1 437 76 discriminator 7 view .LVU443
 1379 0915 0F2EC8   		ucomiss	%xmm0, %xmm1
GAS LISTING /tmp/ccC5Gb9O.s 			page 56


 1380 0918 7A09     		jp	.L148
 1381 091a 7507     		jne	.L148
 440:Src/findwayBases.cpp ****         return false;
 1382              		.loc 1 440 16 view .LVU444
 1383 091c B8000000 		movl	$0, %eax
 1383      00
 1384 0921 EB0C     		jmp	.L131
 1385              	.L148:
 445:Src/findwayBases.cpp ****         return true;
 1386              		.loc 1 445 16 view .LVU445
 1387 0923 B8010000 		movl	$1, %eax
 1387      00
 1388 0928 EB05     		jmp	.L131
 1389              	.LVL119:
 1390              	.L143:
 445:Src/findwayBases.cpp ****         return true;
 1391              		.loc 1 445 16 view .LVU446
 1392 092a B8010000 		movl	$1, %eax
 1392      00
 1393              	.LVL120:
 1394              	.L131:
 447:Src/findwayBases.cpp **** }
 1395              		.loc 1 447 1 view .LVU447
 1396 092f 5B       		popq	%rbx
 1397              		.cfi_def_cfa_offset 8
 1398              	.LVL121:
 447:Src/findwayBases.cpp **** }
 1399              		.loc 1 447 1 view .LVU448
 1400 0930 C3       		ret
 1401              		.cfi_endproc
 1402              	.LFE1740:
 1404              		.section	.rodata.str1.1,"aMS",@progbits,1
 1405              	.LC6:
 1406 0000 41444420 		.string	"ADD TARGET "
 1406      54415247 
 1406      45542000 
 1407              	.LC7:
 1408 000c 53543D45 		.string	"ST=EN "
 1408      4E2000
 1409              	.LC8:
 1410 0013 414C5245 		.string	"ALREADY EXISTS "
 1410      41445920 
 1410      45584953 
 1410      54532000 
 1411              		.text
 1412              		.globl	_Z9addTargetP10graphPointS0_
 1414              	_Z9addTargetP10graphPointS0_:
 1415              	.LVL122:
 1416              	.LFB1741:
 451:Src/findwayBases.cpp **** {
 1417              		.loc 1 451 1 is_stmt 1 view -0
 1418              		.cfi_startproc
 451:Src/findwayBases.cpp **** {
 1419              		.loc 1 451 1 is_stmt 0 view .LVU450
 1420 0931 55       		pushq	%rbp
 1421              		.cfi_def_cfa_offset 16
 1422              		.cfi_offset 6, -16
GAS LISTING /tmp/ccC5Gb9O.s 			page 57


 1423 0932 53       		pushq	%rbx
 1424              		.cfi_def_cfa_offset 24
 1425              		.cfi_offset 3, -24
 1426 0933 4883EC08 		subq	$8, %rsp
 1427              		.cfi_def_cfa_offset 32
 1428 0937 4889FB   		movq	%rdi, %rbx
 1429 093a 4889F5   		movq	%rsi, %rbp
 452:Src/findwayBases.cpp ****     std::cout << "ADD TARGET ";
 1430              		.loc 1 452 5 is_stmt 1 view .LVU451
 1431              	.LVL123:
 1432              	.LBB99:
 1433              	.LBI99:
 1434              		.file 6 "/usr/include/c++/9.2.0/ostream"
   1:/usr/include/c++/9.2.0/ostream **** // Output streams -*- C++ -*-
   2:/usr/include/c++/9.2.0/ostream **** 
   3:/usr/include/c++/9.2.0/ostream **** // Copyright (C) 1997-2019 Free Software Foundation, Inc.
   4:/usr/include/c++/9.2.0/ostream **** //
   5:/usr/include/c++/9.2.0/ostream **** // This file is part of the GNU ISO C++ Library.  This library is free
   6:/usr/include/c++/9.2.0/ostream **** // software; you can redistribute it and/or modify it under the
   7:/usr/include/c++/9.2.0/ostream **** // terms of the GNU General Public License as published by the
   8:/usr/include/c++/9.2.0/ostream **** // Free Software Foundation; either version 3, or (at your option)
   9:/usr/include/c++/9.2.0/ostream **** // any later version.
  10:/usr/include/c++/9.2.0/ostream **** 
  11:/usr/include/c++/9.2.0/ostream **** // This library is distributed in the hope that it will be useful,
  12:/usr/include/c++/9.2.0/ostream **** // but WITHOUT ANY WARRANTY; without even the implied warranty of
  13:/usr/include/c++/9.2.0/ostream **** // MERCHANTABILITY or FITNESS FOR A PARTICULAR PURPOSE.  See the
  14:/usr/include/c++/9.2.0/ostream **** // GNU General Public License for more details.
  15:/usr/include/c++/9.2.0/ostream **** 
  16:/usr/include/c++/9.2.0/ostream **** // Under Section 7 of GPL version 3, you are granted additional
  17:/usr/include/c++/9.2.0/ostream **** // permissions described in the GCC Runtime Library Exception, version
  18:/usr/include/c++/9.2.0/ostream **** // 3.1, as published by the Free Software Foundation.
  19:/usr/include/c++/9.2.0/ostream **** 
  20:/usr/include/c++/9.2.0/ostream **** // You should have received a copy of the GNU General Public License and
  21:/usr/include/c++/9.2.0/ostream **** // a copy of the GCC Runtime Library Exception along with this program;
  22:/usr/include/c++/9.2.0/ostream **** // see the files COPYING3 and COPYING.RUNTIME respectively.  If not, see
  23:/usr/include/c++/9.2.0/ostream **** // <http://www.gnu.org/licenses/>.
  24:/usr/include/c++/9.2.0/ostream **** 
  25:/usr/include/c++/9.2.0/ostream **** /** @file include/ostream
  26:/usr/include/c++/9.2.0/ostream ****  *  This is a Standard C++ Library header.
  27:/usr/include/c++/9.2.0/ostream ****  */
  28:/usr/include/c++/9.2.0/ostream **** 
  29:/usr/include/c++/9.2.0/ostream **** //
  30:/usr/include/c++/9.2.0/ostream **** // ISO C++ 14882: 27.6.2  Output streams
  31:/usr/include/c++/9.2.0/ostream **** //
  32:/usr/include/c++/9.2.0/ostream **** 
  33:/usr/include/c++/9.2.0/ostream **** #ifndef _GLIBCXX_OSTREAM
  34:/usr/include/c++/9.2.0/ostream **** #define _GLIBCXX_OSTREAM 1
  35:/usr/include/c++/9.2.0/ostream **** 
  36:/usr/include/c++/9.2.0/ostream **** #pragma GCC system_header
  37:/usr/include/c++/9.2.0/ostream **** 
  38:/usr/include/c++/9.2.0/ostream **** #include <ios>
  39:/usr/include/c++/9.2.0/ostream **** #include <bits/ostream_insert.h>
  40:/usr/include/c++/9.2.0/ostream **** 
  41:/usr/include/c++/9.2.0/ostream **** namespace std _GLIBCXX_VISIBILITY(default)
  42:/usr/include/c++/9.2.0/ostream **** {
  43:/usr/include/c++/9.2.0/ostream **** _GLIBCXX_BEGIN_NAMESPACE_VERSION
  44:/usr/include/c++/9.2.0/ostream **** 
GAS LISTING /tmp/ccC5Gb9O.s 			page 58


  45:/usr/include/c++/9.2.0/ostream ****   /**
  46:/usr/include/c++/9.2.0/ostream ****    *  @brief  Template class basic_ostream.
  47:/usr/include/c++/9.2.0/ostream ****    *  @ingroup io
  48:/usr/include/c++/9.2.0/ostream ****    *
  49:/usr/include/c++/9.2.0/ostream ****    *  @tparam _CharT  Type of character stream.
  50:/usr/include/c++/9.2.0/ostream ****    *  @tparam _Traits  Traits for character type, defaults to
  51:/usr/include/c++/9.2.0/ostream ****    *                   char_traits<_CharT>.
  52:/usr/include/c++/9.2.0/ostream ****    *
  53:/usr/include/c++/9.2.0/ostream ****    *  This is the base class for all output streams.  It provides text
  54:/usr/include/c++/9.2.0/ostream ****    *  formatting of all builtin types, and communicates with any class
  55:/usr/include/c++/9.2.0/ostream ****    *  derived from basic_streambuf to do the actual output.
  56:/usr/include/c++/9.2.0/ostream ****   */
  57:/usr/include/c++/9.2.0/ostream ****   template<typename _CharT, typename _Traits>
  58:/usr/include/c++/9.2.0/ostream ****     class basic_ostream : virtual public basic_ios<_CharT, _Traits>
  59:/usr/include/c++/9.2.0/ostream ****     {
  60:/usr/include/c++/9.2.0/ostream ****     public:
  61:/usr/include/c++/9.2.0/ostream ****       // Types (inherited from basic_ios):
  62:/usr/include/c++/9.2.0/ostream ****       typedef _CharT			 		char_type;
  63:/usr/include/c++/9.2.0/ostream ****       typedef typename _Traits::int_type 		int_type;
  64:/usr/include/c++/9.2.0/ostream ****       typedef typename _Traits::pos_type 		pos_type;
  65:/usr/include/c++/9.2.0/ostream ****       typedef typename _Traits::off_type 		off_type;
  66:/usr/include/c++/9.2.0/ostream ****       typedef _Traits			 		traits_type;
  67:/usr/include/c++/9.2.0/ostream **** 
  68:/usr/include/c++/9.2.0/ostream ****       // Non-standard Types:
  69:/usr/include/c++/9.2.0/ostream ****       typedef basic_streambuf<_CharT, _Traits> 		__streambuf_type;
  70:/usr/include/c++/9.2.0/ostream ****       typedef basic_ios<_CharT, _Traits>		__ios_type;
  71:/usr/include/c++/9.2.0/ostream ****       typedef basic_ostream<_CharT, _Traits>		__ostream_type;
  72:/usr/include/c++/9.2.0/ostream ****       typedef num_put<_CharT, ostreambuf_iterator<_CharT, _Traits> >
  73:/usr/include/c++/9.2.0/ostream ****       							__num_put_type;
  74:/usr/include/c++/9.2.0/ostream ****       typedef ctype<_CharT>	      			__ctype_type;
  75:/usr/include/c++/9.2.0/ostream **** 
  76:/usr/include/c++/9.2.0/ostream ****       /**
  77:/usr/include/c++/9.2.0/ostream ****        *  @brief  Base constructor.
  78:/usr/include/c++/9.2.0/ostream ****        *
  79:/usr/include/c++/9.2.0/ostream ****        *  This ctor is almost never called by the user directly, rather from
  80:/usr/include/c++/9.2.0/ostream ****        *  derived classes' initialization lists, which pass a pointer to
  81:/usr/include/c++/9.2.0/ostream ****        *  their own stream buffer.
  82:/usr/include/c++/9.2.0/ostream ****       */
  83:/usr/include/c++/9.2.0/ostream ****       explicit
  84:/usr/include/c++/9.2.0/ostream ****       basic_ostream(__streambuf_type* __sb)
  85:/usr/include/c++/9.2.0/ostream ****       { this->init(__sb); }
  86:/usr/include/c++/9.2.0/ostream **** 
  87:/usr/include/c++/9.2.0/ostream ****       /**
  88:/usr/include/c++/9.2.0/ostream ****        *  @brief  Base destructor.
  89:/usr/include/c++/9.2.0/ostream ****        *
  90:/usr/include/c++/9.2.0/ostream ****        *  This does very little apart from providing a virtual base dtor.
  91:/usr/include/c++/9.2.0/ostream ****       */
  92:/usr/include/c++/9.2.0/ostream ****       virtual
  93:/usr/include/c++/9.2.0/ostream ****       ~basic_ostream() { }
  94:/usr/include/c++/9.2.0/ostream **** 
  95:/usr/include/c++/9.2.0/ostream ****       /// Safe prefix/suffix operations.
  96:/usr/include/c++/9.2.0/ostream ****       class sentry;
  97:/usr/include/c++/9.2.0/ostream ****       friend class sentry;
  98:/usr/include/c++/9.2.0/ostream **** 
  99:/usr/include/c++/9.2.0/ostream ****       //@{
 100:/usr/include/c++/9.2.0/ostream ****       /**
 101:/usr/include/c++/9.2.0/ostream ****        *  @brief  Interface for manipulators.
GAS LISTING /tmp/ccC5Gb9O.s 			page 59


 102:/usr/include/c++/9.2.0/ostream ****        *
 103:/usr/include/c++/9.2.0/ostream ****        *  Manipulators such as @c std::endl and @c std::hex use these
 104:/usr/include/c++/9.2.0/ostream ****        *  functions in constructs like "std::cout << std::endl".  For more
 105:/usr/include/c++/9.2.0/ostream ****        *  information, see the iomanip header.
 106:/usr/include/c++/9.2.0/ostream ****       */
 107:/usr/include/c++/9.2.0/ostream ****       __ostream_type&
 108:/usr/include/c++/9.2.0/ostream ****       operator<<(__ostream_type& (*__pf)(__ostream_type&))
 109:/usr/include/c++/9.2.0/ostream ****       {
 110:/usr/include/c++/9.2.0/ostream **** 	// _GLIBCXX_RESOLVE_LIB_DEFECTS
 111:/usr/include/c++/9.2.0/ostream **** 	// DR 60. What is a formatted input function?
 112:/usr/include/c++/9.2.0/ostream **** 	// The inserters for manipulators are *not* formatted output functions.
 113:/usr/include/c++/9.2.0/ostream **** 	return __pf(*this);
 114:/usr/include/c++/9.2.0/ostream ****       }
 115:/usr/include/c++/9.2.0/ostream **** 
 116:/usr/include/c++/9.2.0/ostream ****       __ostream_type&
 117:/usr/include/c++/9.2.0/ostream ****       operator<<(__ios_type& (*__pf)(__ios_type&))
 118:/usr/include/c++/9.2.0/ostream ****       {
 119:/usr/include/c++/9.2.0/ostream **** 	// _GLIBCXX_RESOLVE_LIB_DEFECTS
 120:/usr/include/c++/9.2.0/ostream **** 	// DR 60. What is a formatted input function?
 121:/usr/include/c++/9.2.0/ostream **** 	// The inserters for manipulators are *not* formatted output functions.
 122:/usr/include/c++/9.2.0/ostream **** 	__pf(*this);
 123:/usr/include/c++/9.2.0/ostream **** 	return *this;
 124:/usr/include/c++/9.2.0/ostream ****       }
 125:/usr/include/c++/9.2.0/ostream **** 
 126:/usr/include/c++/9.2.0/ostream ****       __ostream_type&
 127:/usr/include/c++/9.2.0/ostream ****       operator<<(ios_base& (*__pf) (ios_base&))
 128:/usr/include/c++/9.2.0/ostream ****       {
 129:/usr/include/c++/9.2.0/ostream **** 	// _GLIBCXX_RESOLVE_LIB_DEFECTS
 130:/usr/include/c++/9.2.0/ostream **** 	// DR 60. What is a formatted input function?
 131:/usr/include/c++/9.2.0/ostream **** 	// The inserters for manipulators are *not* formatted output functions.
 132:/usr/include/c++/9.2.0/ostream **** 	__pf(*this);
 133:/usr/include/c++/9.2.0/ostream **** 	return *this;
 134:/usr/include/c++/9.2.0/ostream ****       }
 135:/usr/include/c++/9.2.0/ostream ****       //@}
 136:/usr/include/c++/9.2.0/ostream **** 
 137:/usr/include/c++/9.2.0/ostream ****       //@{
 138:/usr/include/c++/9.2.0/ostream ****       /**
 139:/usr/include/c++/9.2.0/ostream ****        *  @name Inserters
 140:/usr/include/c++/9.2.0/ostream ****        *
 141:/usr/include/c++/9.2.0/ostream ****        *  All the @c operator<< functions (aka <em>formatted output
 142:/usr/include/c++/9.2.0/ostream ****        *  functions</em>) have some common behavior.  Each starts by
 143:/usr/include/c++/9.2.0/ostream ****        *  constructing a temporary object of type std::basic_ostream::sentry.
 144:/usr/include/c++/9.2.0/ostream ****        *  This can have several effects, concluding with the setting of a
 145:/usr/include/c++/9.2.0/ostream ****        *  status flag; see the sentry documentation for more.
 146:/usr/include/c++/9.2.0/ostream ****        *
 147:/usr/include/c++/9.2.0/ostream ****        *  If the sentry status is good, the function tries to generate
 148:/usr/include/c++/9.2.0/ostream ****        *  whatever data is appropriate for the type of the argument.
 149:/usr/include/c++/9.2.0/ostream ****        *
 150:/usr/include/c++/9.2.0/ostream ****        *  If an exception is thrown during insertion, ios_base::badbit
 151:/usr/include/c++/9.2.0/ostream ****        *  will be turned on in the stream's error state without causing an
 152:/usr/include/c++/9.2.0/ostream ****        *  ios_base::failure to be thrown.  The original exception will then
 153:/usr/include/c++/9.2.0/ostream ****        *  be rethrown.
 154:/usr/include/c++/9.2.0/ostream ****       */
 155:/usr/include/c++/9.2.0/ostream **** 
 156:/usr/include/c++/9.2.0/ostream ****       //@{
 157:/usr/include/c++/9.2.0/ostream ****       /**
 158:/usr/include/c++/9.2.0/ostream ****        *  @brief Integer arithmetic inserters
GAS LISTING /tmp/ccC5Gb9O.s 			page 60


 159:/usr/include/c++/9.2.0/ostream ****        *  @param  __n A variable of builtin integral type.
 160:/usr/include/c++/9.2.0/ostream ****        *  @return  @c *this if successful
 161:/usr/include/c++/9.2.0/ostream ****        *
 162:/usr/include/c++/9.2.0/ostream ****        *  These functions use the stream's current locale (specifically, the
 163:/usr/include/c++/9.2.0/ostream ****        *  @c num_get facet) to perform numeric formatting.
 164:/usr/include/c++/9.2.0/ostream ****       */
 165:/usr/include/c++/9.2.0/ostream ****       __ostream_type&
 166:/usr/include/c++/9.2.0/ostream ****       operator<<(long __n)
 167:/usr/include/c++/9.2.0/ostream ****       { return _M_insert(__n); }
 168:/usr/include/c++/9.2.0/ostream **** 
 169:/usr/include/c++/9.2.0/ostream ****       __ostream_type&
 170:/usr/include/c++/9.2.0/ostream ****       operator<<(unsigned long __n)
 171:/usr/include/c++/9.2.0/ostream ****       { return _M_insert(__n); }
 172:/usr/include/c++/9.2.0/ostream **** 
 173:/usr/include/c++/9.2.0/ostream ****       __ostream_type&
 174:/usr/include/c++/9.2.0/ostream ****       operator<<(bool __n)
 175:/usr/include/c++/9.2.0/ostream ****       { return _M_insert(__n); }
 176:/usr/include/c++/9.2.0/ostream **** 
 177:/usr/include/c++/9.2.0/ostream ****       __ostream_type&
 178:/usr/include/c++/9.2.0/ostream ****       operator<<(short __n);
 179:/usr/include/c++/9.2.0/ostream **** 
 180:/usr/include/c++/9.2.0/ostream ****       __ostream_type&
 181:/usr/include/c++/9.2.0/ostream ****       operator<<(unsigned short __n)
 182:/usr/include/c++/9.2.0/ostream ****       {
 183:/usr/include/c++/9.2.0/ostream **** 	// _GLIBCXX_RESOLVE_LIB_DEFECTS
 184:/usr/include/c++/9.2.0/ostream **** 	// 117. basic_ostream uses nonexistent num_put member functions.
 185:/usr/include/c++/9.2.0/ostream **** 	return _M_insert(static_cast<unsigned long>(__n));
 186:/usr/include/c++/9.2.0/ostream ****       }
 187:/usr/include/c++/9.2.0/ostream **** 
 188:/usr/include/c++/9.2.0/ostream ****       __ostream_type&
 189:/usr/include/c++/9.2.0/ostream ****       operator<<(int __n);
 190:/usr/include/c++/9.2.0/ostream **** 
 191:/usr/include/c++/9.2.0/ostream ****       __ostream_type&
 192:/usr/include/c++/9.2.0/ostream ****       operator<<(unsigned int __n)
 193:/usr/include/c++/9.2.0/ostream ****       {
 194:/usr/include/c++/9.2.0/ostream **** 	// _GLIBCXX_RESOLVE_LIB_DEFECTS
 195:/usr/include/c++/9.2.0/ostream **** 	// 117. basic_ostream uses nonexistent num_put member functions.
 196:/usr/include/c++/9.2.0/ostream **** 	return _M_insert(static_cast<unsigned long>(__n));
 197:/usr/include/c++/9.2.0/ostream ****       }
 198:/usr/include/c++/9.2.0/ostream **** 
 199:/usr/include/c++/9.2.0/ostream **** #ifdef _GLIBCXX_USE_LONG_LONG
 200:/usr/include/c++/9.2.0/ostream ****       __ostream_type&
 201:/usr/include/c++/9.2.0/ostream ****       operator<<(long long __n)
 202:/usr/include/c++/9.2.0/ostream ****       { return _M_insert(__n); }
 203:/usr/include/c++/9.2.0/ostream **** 
 204:/usr/include/c++/9.2.0/ostream ****       __ostream_type&
 205:/usr/include/c++/9.2.0/ostream ****       operator<<(unsigned long long __n)
 206:/usr/include/c++/9.2.0/ostream ****       { return _M_insert(__n); }
 207:/usr/include/c++/9.2.0/ostream **** #endif
 208:/usr/include/c++/9.2.0/ostream ****       //@}
 209:/usr/include/c++/9.2.0/ostream **** 
 210:/usr/include/c++/9.2.0/ostream ****       //@{
 211:/usr/include/c++/9.2.0/ostream ****       /**
 212:/usr/include/c++/9.2.0/ostream ****        *  @brief  Floating point arithmetic inserters
 213:/usr/include/c++/9.2.0/ostream ****        *  @param  __f A variable of builtin floating point type.
 214:/usr/include/c++/9.2.0/ostream ****        *  @return  @c *this if successful
 215:/usr/include/c++/9.2.0/ostream ****        *
GAS LISTING /tmp/ccC5Gb9O.s 			page 61


 216:/usr/include/c++/9.2.0/ostream ****        *  These functions use the stream's current locale (specifically, the
 217:/usr/include/c++/9.2.0/ostream ****        *  @c num_get facet) to perform numeric formatting.
 218:/usr/include/c++/9.2.0/ostream ****       */
 219:/usr/include/c++/9.2.0/ostream ****       __ostream_type&
 220:/usr/include/c++/9.2.0/ostream ****       operator<<(double __f)
 221:/usr/include/c++/9.2.0/ostream ****       { return _M_insert(__f); }
 222:/usr/include/c++/9.2.0/ostream **** 
 223:/usr/include/c++/9.2.0/ostream ****       __ostream_type&
 224:/usr/include/c++/9.2.0/ostream ****       operator<<(float __f)
 225:/usr/include/c++/9.2.0/ostream ****       {
 226:/usr/include/c++/9.2.0/ostream **** 	// _GLIBCXX_RESOLVE_LIB_DEFECTS
 227:/usr/include/c++/9.2.0/ostream **** 	// 117. basic_ostream uses nonexistent num_put member functions.
 228:/usr/include/c++/9.2.0/ostream **** 	return _M_insert(static_cast<double>(__f));
 229:/usr/include/c++/9.2.0/ostream ****       }
 230:/usr/include/c++/9.2.0/ostream **** 
 231:/usr/include/c++/9.2.0/ostream ****       __ostream_type&
 232:/usr/include/c++/9.2.0/ostream ****       operator<<(long double __f)
 233:/usr/include/c++/9.2.0/ostream ****       { return _M_insert(__f); }
 234:/usr/include/c++/9.2.0/ostream ****       //@}
 235:/usr/include/c++/9.2.0/ostream **** 
 236:/usr/include/c++/9.2.0/ostream ****       /**
 237:/usr/include/c++/9.2.0/ostream ****        *  @brief  Pointer arithmetic inserters
 238:/usr/include/c++/9.2.0/ostream ****        *  @param  __p A variable of pointer type.
 239:/usr/include/c++/9.2.0/ostream ****        *  @return  @c *this if successful
 240:/usr/include/c++/9.2.0/ostream ****        *
 241:/usr/include/c++/9.2.0/ostream ****        *  These functions use the stream's current locale (specifically, the
 242:/usr/include/c++/9.2.0/ostream ****        *  @c num_get facet) to perform numeric formatting.
 243:/usr/include/c++/9.2.0/ostream ****       */
 244:/usr/include/c++/9.2.0/ostream ****       __ostream_type&
 245:/usr/include/c++/9.2.0/ostream ****       operator<<(const void* __p)
 246:/usr/include/c++/9.2.0/ostream ****       { return _M_insert(__p); }
 247:/usr/include/c++/9.2.0/ostream **** 
 248:/usr/include/c++/9.2.0/ostream **** #if __cplusplus >= 201703L
 249:/usr/include/c++/9.2.0/ostream ****       __ostream_type&
 250:/usr/include/c++/9.2.0/ostream ****       operator<<(nullptr_t)
 251:/usr/include/c++/9.2.0/ostream ****       { return *this << "nullptr"; }
 252:/usr/include/c++/9.2.0/ostream **** #endif
 253:/usr/include/c++/9.2.0/ostream **** 
 254:/usr/include/c++/9.2.0/ostream ****       /**
 255:/usr/include/c++/9.2.0/ostream ****        *  @brief  Extracting from another streambuf.
 256:/usr/include/c++/9.2.0/ostream ****        *  @param  __sb  A pointer to a streambuf
 257:/usr/include/c++/9.2.0/ostream ****        *
 258:/usr/include/c++/9.2.0/ostream ****        *  This function behaves like one of the basic arithmetic extractors,
 259:/usr/include/c++/9.2.0/ostream ****        *  in that it also constructs a sentry object and has the same error
 260:/usr/include/c++/9.2.0/ostream ****        *  handling behavior.
 261:/usr/include/c++/9.2.0/ostream ****        *
 262:/usr/include/c++/9.2.0/ostream ****        *  If @p __sb is NULL, the stream will set failbit in its error state.
 263:/usr/include/c++/9.2.0/ostream ****        *
 264:/usr/include/c++/9.2.0/ostream ****        *  Characters are extracted from @p __sb and inserted into @c *this
 265:/usr/include/c++/9.2.0/ostream ****        *  until one of the following occurs:
 266:/usr/include/c++/9.2.0/ostream ****        *
 267:/usr/include/c++/9.2.0/ostream ****        *  - the input stream reaches end-of-file,
 268:/usr/include/c++/9.2.0/ostream ****        *  - insertion into the output sequence fails (in this case, the
 269:/usr/include/c++/9.2.0/ostream ****        *    character that would have been inserted is not extracted), or
 270:/usr/include/c++/9.2.0/ostream ****        *  - an exception occurs while getting a character from @p __sb, which
 271:/usr/include/c++/9.2.0/ostream ****        *    sets failbit in the error state
 272:/usr/include/c++/9.2.0/ostream ****        *
GAS LISTING /tmp/ccC5Gb9O.s 			page 62


 273:/usr/include/c++/9.2.0/ostream ****        *  If the function inserts no characters, failbit is set.
 274:/usr/include/c++/9.2.0/ostream ****       */
 275:/usr/include/c++/9.2.0/ostream ****       __ostream_type&
 276:/usr/include/c++/9.2.0/ostream ****       operator<<(__streambuf_type* __sb);
 277:/usr/include/c++/9.2.0/ostream ****       //@}
 278:/usr/include/c++/9.2.0/ostream **** 
 279:/usr/include/c++/9.2.0/ostream ****       //@{
 280:/usr/include/c++/9.2.0/ostream ****       /**
 281:/usr/include/c++/9.2.0/ostream ****        *  @name Unformatted Output Functions
 282:/usr/include/c++/9.2.0/ostream ****        *
 283:/usr/include/c++/9.2.0/ostream ****        *  All the unformatted output functions have some common behavior.
 284:/usr/include/c++/9.2.0/ostream ****        *  Each starts by constructing a temporary object of type
 285:/usr/include/c++/9.2.0/ostream ****        *  std::basic_ostream::sentry.  This has several effects, concluding
 286:/usr/include/c++/9.2.0/ostream ****        *  with the setting of a status flag; see the sentry documentation
 287:/usr/include/c++/9.2.0/ostream ****        *  for more.
 288:/usr/include/c++/9.2.0/ostream ****        *
 289:/usr/include/c++/9.2.0/ostream ****        *  If the sentry status is good, the function tries to generate
 290:/usr/include/c++/9.2.0/ostream ****        *  whatever data is appropriate for the type of the argument.
 291:/usr/include/c++/9.2.0/ostream ****        *
 292:/usr/include/c++/9.2.0/ostream ****        *  If an exception is thrown during insertion, ios_base::badbit
 293:/usr/include/c++/9.2.0/ostream ****        *  will be turned on in the stream's error state.  If badbit is on in
 294:/usr/include/c++/9.2.0/ostream ****        *  the stream's exceptions mask, the exception will be rethrown
 295:/usr/include/c++/9.2.0/ostream ****        *  without completing its actions.
 296:/usr/include/c++/9.2.0/ostream ****       */
 297:/usr/include/c++/9.2.0/ostream **** 
 298:/usr/include/c++/9.2.0/ostream ****       /**
 299:/usr/include/c++/9.2.0/ostream ****        *  @brief  Simple insertion.
 300:/usr/include/c++/9.2.0/ostream ****        *  @param  __c  The character to insert.
 301:/usr/include/c++/9.2.0/ostream ****        *  @return  *this
 302:/usr/include/c++/9.2.0/ostream ****        *
 303:/usr/include/c++/9.2.0/ostream ****        *  Tries to insert @p __c.
 304:/usr/include/c++/9.2.0/ostream ****        *
 305:/usr/include/c++/9.2.0/ostream ****        *  @note  This function is not overloaded on signed char and
 306:/usr/include/c++/9.2.0/ostream ****        *         unsigned char.
 307:/usr/include/c++/9.2.0/ostream ****       */
 308:/usr/include/c++/9.2.0/ostream ****       __ostream_type&
 309:/usr/include/c++/9.2.0/ostream ****       put(char_type __c);
 310:/usr/include/c++/9.2.0/ostream **** 
 311:/usr/include/c++/9.2.0/ostream ****       /**
 312:/usr/include/c++/9.2.0/ostream ****        *  @brief  Core write functionality, without sentry.
 313:/usr/include/c++/9.2.0/ostream ****        *  @param  __s  The array to insert.
 314:/usr/include/c++/9.2.0/ostream ****        *  @param  __n  Maximum number of characters to insert.
 315:/usr/include/c++/9.2.0/ostream ****       */
 316:/usr/include/c++/9.2.0/ostream ****       void
 317:/usr/include/c++/9.2.0/ostream ****       _M_write(const char_type* __s, streamsize __n)
 318:/usr/include/c++/9.2.0/ostream ****       {
 319:/usr/include/c++/9.2.0/ostream **** 	const streamsize __put = this->rdbuf()->sputn(__s, __n);
 320:/usr/include/c++/9.2.0/ostream **** 	if (__put != __n)
 321:/usr/include/c++/9.2.0/ostream **** 	  this->setstate(ios_base::badbit);
 322:/usr/include/c++/9.2.0/ostream ****       }
 323:/usr/include/c++/9.2.0/ostream **** 
 324:/usr/include/c++/9.2.0/ostream ****       /**
 325:/usr/include/c++/9.2.0/ostream ****        *  @brief  Character string insertion.
 326:/usr/include/c++/9.2.0/ostream ****        *  @param  __s  The array to insert.
 327:/usr/include/c++/9.2.0/ostream ****        *  @param  __n  Maximum number of characters to insert.
 328:/usr/include/c++/9.2.0/ostream ****        *  @return  *this
 329:/usr/include/c++/9.2.0/ostream ****        *
GAS LISTING /tmp/ccC5Gb9O.s 			page 63


 330:/usr/include/c++/9.2.0/ostream ****        *  Characters are copied from @p __s and inserted into the stream until
 331:/usr/include/c++/9.2.0/ostream ****        *  one of the following happens:
 332:/usr/include/c++/9.2.0/ostream ****        *
 333:/usr/include/c++/9.2.0/ostream ****        *  - @p __n characters are inserted
 334:/usr/include/c++/9.2.0/ostream ****        *  - inserting into the output sequence fails (in this case, badbit
 335:/usr/include/c++/9.2.0/ostream ****        *    will be set in the stream's error state)
 336:/usr/include/c++/9.2.0/ostream ****        *
 337:/usr/include/c++/9.2.0/ostream ****        *  @note  This function is not overloaded on signed char and
 338:/usr/include/c++/9.2.0/ostream ****        *         unsigned char.
 339:/usr/include/c++/9.2.0/ostream ****       */
 340:/usr/include/c++/9.2.0/ostream ****       __ostream_type&
 341:/usr/include/c++/9.2.0/ostream ****       write(const char_type* __s, streamsize __n);
 342:/usr/include/c++/9.2.0/ostream ****       //@}
 343:/usr/include/c++/9.2.0/ostream **** 
 344:/usr/include/c++/9.2.0/ostream ****       /**
 345:/usr/include/c++/9.2.0/ostream ****        *  @brief  Synchronizing the stream buffer.
 346:/usr/include/c++/9.2.0/ostream ****        *  @return  *this
 347:/usr/include/c++/9.2.0/ostream ****        *
 348:/usr/include/c++/9.2.0/ostream ****        *  If @c rdbuf() is a null pointer, changes nothing.
 349:/usr/include/c++/9.2.0/ostream ****        *
 350:/usr/include/c++/9.2.0/ostream ****        *  Otherwise, calls @c rdbuf()->pubsync(), and if that returns -1,
 351:/usr/include/c++/9.2.0/ostream ****        *  sets badbit.
 352:/usr/include/c++/9.2.0/ostream ****       */
 353:/usr/include/c++/9.2.0/ostream ****       __ostream_type&
 354:/usr/include/c++/9.2.0/ostream ****       flush();
 355:/usr/include/c++/9.2.0/ostream **** 
 356:/usr/include/c++/9.2.0/ostream ****       /**
 357:/usr/include/c++/9.2.0/ostream ****        *  @brief  Getting the current write position.
 358:/usr/include/c++/9.2.0/ostream ****        *  @return  A file position object.
 359:/usr/include/c++/9.2.0/ostream ****        *
 360:/usr/include/c++/9.2.0/ostream ****        *  If @c fail() is not false, returns @c pos_type(-1) to indicate
 361:/usr/include/c++/9.2.0/ostream ****        *  failure.  Otherwise returns @c rdbuf()->pubseekoff(0,cur,out).
 362:/usr/include/c++/9.2.0/ostream ****       */
 363:/usr/include/c++/9.2.0/ostream ****       pos_type
 364:/usr/include/c++/9.2.0/ostream ****       tellp();
 365:/usr/include/c++/9.2.0/ostream **** 
 366:/usr/include/c++/9.2.0/ostream ****       /**
 367:/usr/include/c++/9.2.0/ostream ****        *  @brief  Changing the current write position.
 368:/usr/include/c++/9.2.0/ostream ****        *  @param  __pos  A file position object.
 369:/usr/include/c++/9.2.0/ostream ****        *  @return  *this
 370:/usr/include/c++/9.2.0/ostream ****        *
 371:/usr/include/c++/9.2.0/ostream ****        *  If @c fail() is not true, calls @c rdbuf()->pubseekpos(pos).  If
 372:/usr/include/c++/9.2.0/ostream ****        *  that function fails, sets failbit.
 373:/usr/include/c++/9.2.0/ostream ****       */
 374:/usr/include/c++/9.2.0/ostream ****       __ostream_type&
 375:/usr/include/c++/9.2.0/ostream ****       seekp(pos_type);
 376:/usr/include/c++/9.2.0/ostream **** 
 377:/usr/include/c++/9.2.0/ostream ****       /**
 378:/usr/include/c++/9.2.0/ostream ****        *  @brief  Changing the current write position.
 379:/usr/include/c++/9.2.0/ostream ****        *  @param  __off  A file offset object.
 380:/usr/include/c++/9.2.0/ostream ****        *  @param  __dir  The direction in which to seek.
 381:/usr/include/c++/9.2.0/ostream ****        *  @return  *this
 382:/usr/include/c++/9.2.0/ostream ****        *
 383:/usr/include/c++/9.2.0/ostream ****        *  If @c fail() is not true, calls @c rdbuf()->pubseekoff(off,dir).
 384:/usr/include/c++/9.2.0/ostream ****        *  If that function fails, sets failbit.
 385:/usr/include/c++/9.2.0/ostream ****       */
 386:/usr/include/c++/9.2.0/ostream ****        __ostream_type&
GAS LISTING /tmp/ccC5Gb9O.s 			page 64


 387:/usr/include/c++/9.2.0/ostream ****       seekp(off_type, ios_base::seekdir);
 388:/usr/include/c++/9.2.0/ostream **** 
 389:/usr/include/c++/9.2.0/ostream ****     protected:
 390:/usr/include/c++/9.2.0/ostream ****       basic_ostream()
 391:/usr/include/c++/9.2.0/ostream ****       { this->init(0); }
 392:/usr/include/c++/9.2.0/ostream **** 
 393:/usr/include/c++/9.2.0/ostream **** #if __cplusplus >= 201103L
 394:/usr/include/c++/9.2.0/ostream ****       // Non-standard constructor that does not call init()
 395:/usr/include/c++/9.2.0/ostream ****       basic_ostream(basic_iostream<_CharT, _Traits>&) { }
 396:/usr/include/c++/9.2.0/ostream **** 
 397:/usr/include/c++/9.2.0/ostream ****       basic_ostream(const basic_ostream&) = delete;
 398:/usr/include/c++/9.2.0/ostream **** 
 399:/usr/include/c++/9.2.0/ostream ****       basic_ostream(basic_ostream&& __rhs)
 400:/usr/include/c++/9.2.0/ostream ****       : __ios_type()
 401:/usr/include/c++/9.2.0/ostream ****       { __ios_type::move(__rhs); }
 402:/usr/include/c++/9.2.0/ostream **** 
 403:/usr/include/c++/9.2.0/ostream ****       // 27.7.3.3 Assign/swap
 404:/usr/include/c++/9.2.0/ostream **** 
 405:/usr/include/c++/9.2.0/ostream ****       basic_ostream& operator=(const basic_ostream&) = delete;
 406:/usr/include/c++/9.2.0/ostream **** 
 407:/usr/include/c++/9.2.0/ostream ****       basic_ostream&
 408:/usr/include/c++/9.2.0/ostream ****       operator=(basic_ostream&& __rhs)
 409:/usr/include/c++/9.2.0/ostream ****       {
 410:/usr/include/c++/9.2.0/ostream **** 	swap(__rhs);
 411:/usr/include/c++/9.2.0/ostream **** 	return *this;
 412:/usr/include/c++/9.2.0/ostream ****       }
 413:/usr/include/c++/9.2.0/ostream **** 
 414:/usr/include/c++/9.2.0/ostream ****       void
 415:/usr/include/c++/9.2.0/ostream ****       swap(basic_ostream& __rhs)
 416:/usr/include/c++/9.2.0/ostream ****       { __ios_type::swap(__rhs); }
 417:/usr/include/c++/9.2.0/ostream **** #endif
 418:/usr/include/c++/9.2.0/ostream **** 
 419:/usr/include/c++/9.2.0/ostream ****       template<typename _ValueT>
 420:/usr/include/c++/9.2.0/ostream **** 	__ostream_type&
 421:/usr/include/c++/9.2.0/ostream **** 	_M_insert(_ValueT __v);
 422:/usr/include/c++/9.2.0/ostream ****     };
 423:/usr/include/c++/9.2.0/ostream **** 
 424:/usr/include/c++/9.2.0/ostream ****   /**
 425:/usr/include/c++/9.2.0/ostream ****    *  @brief  Performs setup work for output streams.
 426:/usr/include/c++/9.2.0/ostream ****    *
 427:/usr/include/c++/9.2.0/ostream ****    *  Objects of this class are created before all of the standard
 428:/usr/include/c++/9.2.0/ostream ****    *  inserters are run.  It is responsible for <em>exception-safe prefix and
 429:/usr/include/c++/9.2.0/ostream ****    *  suffix operations</em>.
 430:/usr/include/c++/9.2.0/ostream ****   */
 431:/usr/include/c++/9.2.0/ostream ****   template <typename _CharT, typename _Traits>
 432:/usr/include/c++/9.2.0/ostream ****     class basic_ostream<_CharT, _Traits>::sentry
 433:/usr/include/c++/9.2.0/ostream ****     {
 434:/usr/include/c++/9.2.0/ostream ****       // Data Members.
 435:/usr/include/c++/9.2.0/ostream ****       bool 				_M_ok;
 436:/usr/include/c++/9.2.0/ostream ****       basic_ostream<_CharT, _Traits>& 	_M_os;
 437:/usr/include/c++/9.2.0/ostream **** 
 438:/usr/include/c++/9.2.0/ostream ****     public:
 439:/usr/include/c++/9.2.0/ostream ****       /**
 440:/usr/include/c++/9.2.0/ostream ****        *  @brief  The constructor performs preparatory work.
 441:/usr/include/c++/9.2.0/ostream ****        *  @param  __os  The output stream to guard.
 442:/usr/include/c++/9.2.0/ostream ****        *
 443:/usr/include/c++/9.2.0/ostream ****        *  If the stream state is good (@a __os.good() is true), then if the
GAS LISTING /tmp/ccC5Gb9O.s 			page 65


 444:/usr/include/c++/9.2.0/ostream ****        *  stream is tied to another output stream, @c is.tie()->flush()
 445:/usr/include/c++/9.2.0/ostream ****        *  is called to synchronize the output sequences.
 446:/usr/include/c++/9.2.0/ostream ****        *
 447:/usr/include/c++/9.2.0/ostream ****        *  If the stream state is still good, then the sentry state becomes
 448:/usr/include/c++/9.2.0/ostream ****        *  true (@a okay).
 449:/usr/include/c++/9.2.0/ostream ****       */
 450:/usr/include/c++/9.2.0/ostream ****       explicit
 451:/usr/include/c++/9.2.0/ostream ****       sentry(basic_ostream<_CharT, _Traits>& __os);
 452:/usr/include/c++/9.2.0/ostream **** 
 453:/usr/include/c++/9.2.0/ostream **** #pragma GCC diagnostic push
 454:/usr/include/c++/9.2.0/ostream **** #pragma GCC diagnostic ignored "-Wdeprecated-declarations"
 455:/usr/include/c++/9.2.0/ostream ****       /**
 456:/usr/include/c++/9.2.0/ostream ****        *  @brief  Possibly flushes the stream.
 457:/usr/include/c++/9.2.0/ostream ****        *
 458:/usr/include/c++/9.2.0/ostream ****        *  If @c ios_base::unitbuf is set in @c os.flags(), and
 459:/usr/include/c++/9.2.0/ostream ****        *  @c std::uncaught_exception() is true, the sentry destructor calls
 460:/usr/include/c++/9.2.0/ostream ****        *  @c flush() on the output stream.
 461:/usr/include/c++/9.2.0/ostream ****       */
 462:/usr/include/c++/9.2.0/ostream ****       ~sentry()
 463:/usr/include/c++/9.2.0/ostream ****       {
 464:/usr/include/c++/9.2.0/ostream **** 	// XXX MT
 465:/usr/include/c++/9.2.0/ostream **** 	if (bool(_M_os.flags() & ios_base::unitbuf) && !uncaught_exception())
 466:/usr/include/c++/9.2.0/ostream **** 	  {
 467:/usr/include/c++/9.2.0/ostream **** 	    // Can't call flush directly or else will get into recursive lock.
 468:/usr/include/c++/9.2.0/ostream **** 	    if (_M_os.rdbuf() && _M_os.rdbuf()->pubsync() == -1)
 469:/usr/include/c++/9.2.0/ostream **** 	      _M_os.setstate(ios_base::badbit);
 470:/usr/include/c++/9.2.0/ostream **** 	  }
 471:/usr/include/c++/9.2.0/ostream ****       }
 472:/usr/include/c++/9.2.0/ostream **** #pragma GCC diagnostic pop
 473:/usr/include/c++/9.2.0/ostream **** 
 474:/usr/include/c++/9.2.0/ostream ****       /**
 475:/usr/include/c++/9.2.0/ostream ****        *  @brief  Quick status checking.
 476:/usr/include/c++/9.2.0/ostream ****        *  @return  The sentry state.
 477:/usr/include/c++/9.2.0/ostream ****        *
 478:/usr/include/c++/9.2.0/ostream ****        *  For ease of use, sentries may be converted to booleans.  The
 479:/usr/include/c++/9.2.0/ostream ****        *  return value is that of the sentry state (true == okay).
 480:/usr/include/c++/9.2.0/ostream ****       */
 481:/usr/include/c++/9.2.0/ostream **** #if __cplusplus >= 201103L
 482:/usr/include/c++/9.2.0/ostream ****       explicit
 483:/usr/include/c++/9.2.0/ostream **** #endif
 484:/usr/include/c++/9.2.0/ostream ****       operator bool() const
 485:/usr/include/c++/9.2.0/ostream ****       { return _M_ok; }
 486:/usr/include/c++/9.2.0/ostream ****     };
 487:/usr/include/c++/9.2.0/ostream **** 
 488:/usr/include/c++/9.2.0/ostream ****   //@{
 489:/usr/include/c++/9.2.0/ostream ****   /**
 490:/usr/include/c++/9.2.0/ostream ****    *  @brief  Character inserters
 491:/usr/include/c++/9.2.0/ostream ****    *  @param  __out  An output stream.
 492:/usr/include/c++/9.2.0/ostream ****    *  @param  __c  A character.
 493:/usr/include/c++/9.2.0/ostream ****    *  @return  out
 494:/usr/include/c++/9.2.0/ostream ****    *
 495:/usr/include/c++/9.2.0/ostream ****    *  Behaves like one of the formatted arithmetic inserters described in
 496:/usr/include/c++/9.2.0/ostream ****    *  std::basic_ostream.  After constructing a sentry object with good
 497:/usr/include/c++/9.2.0/ostream ****    *  status, this function inserts a single character and any required
 498:/usr/include/c++/9.2.0/ostream ****    *  padding (as determined by [22.2.2.2.2]).  @c __out.width(0) is then
 499:/usr/include/c++/9.2.0/ostream ****    *  called.
 500:/usr/include/c++/9.2.0/ostream ****    *
GAS LISTING /tmp/ccC5Gb9O.s 			page 66


 501:/usr/include/c++/9.2.0/ostream ****    *  If @p __c is of type @c char and the character type of the stream is not
 502:/usr/include/c++/9.2.0/ostream ****    *  @c char, the character is widened before insertion.
 503:/usr/include/c++/9.2.0/ostream ****   */
 504:/usr/include/c++/9.2.0/ostream ****   template<typename _CharT, typename _Traits>
 505:/usr/include/c++/9.2.0/ostream ****     inline basic_ostream<_CharT, _Traits>&
 506:/usr/include/c++/9.2.0/ostream ****     operator<<(basic_ostream<_CharT, _Traits>& __out, _CharT __c)
 507:/usr/include/c++/9.2.0/ostream ****     { return __ostream_insert(__out, &__c, 1); }
 508:/usr/include/c++/9.2.0/ostream **** 
 509:/usr/include/c++/9.2.0/ostream ****   template<typename _CharT, typename _Traits>
 510:/usr/include/c++/9.2.0/ostream ****     inline basic_ostream<_CharT, _Traits>&
 511:/usr/include/c++/9.2.0/ostream ****     operator<<(basic_ostream<_CharT, _Traits>& __out, char __c)
 512:/usr/include/c++/9.2.0/ostream ****     { return (__out << __out.widen(__c)); }
 513:/usr/include/c++/9.2.0/ostream **** 
 514:/usr/include/c++/9.2.0/ostream ****   // Specialization
 515:/usr/include/c++/9.2.0/ostream ****   template <class _Traits>
 516:/usr/include/c++/9.2.0/ostream ****     inline basic_ostream<char, _Traits>&
 517:/usr/include/c++/9.2.0/ostream ****     operator<<(basic_ostream<char, _Traits>& __out, char __c)
 518:/usr/include/c++/9.2.0/ostream ****     { return __ostream_insert(__out, &__c, 1); }
 519:/usr/include/c++/9.2.0/ostream **** 
 520:/usr/include/c++/9.2.0/ostream ****   // Signed and unsigned
 521:/usr/include/c++/9.2.0/ostream ****   template<class _Traits>
 522:/usr/include/c++/9.2.0/ostream ****     inline basic_ostream<char, _Traits>&
 523:/usr/include/c++/9.2.0/ostream ****     operator<<(basic_ostream<char, _Traits>& __out, signed char __c)
 524:/usr/include/c++/9.2.0/ostream ****     { return (__out << static_cast<char>(__c)); }
 525:/usr/include/c++/9.2.0/ostream **** 
 526:/usr/include/c++/9.2.0/ostream ****   template<class _Traits>
 527:/usr/include/c++/9.2.0/ostream ****     inline basic_ostream<char, _Traits>&
 528:/usr/include/c++/9.2.0/ostream ****     operator<<(basic_ostream<char, _Traits>& __out, unsigned char __c)
 529:/usr/include/c++/9.2.0/ostream ****     { return (__out << static_cast<char>(__c)); }
 530:/usr/include/c++/9.2.0/ostream ****   //@}
 531:/usr/include/c++/9.2.0/ostream **** 
 532:/usr/include/c++/9.2.0/ostream ****   //@{
 533:/usr/include/c++/9.2.0/ostream ****   /**
 534:/usr/include/c++/9.2.0/ostream ****    *  @brief  String inserters
 535:/usr/include/c++/9.2.0/ostream ****    *  @param  __out  An output stream.
 536:/usr/include/c++/9.2.0/ostream ****    *  @param  __s  A character string.
 537:/usr/include/c++/9.2.0/ostream ****    *  @return  out
 538:/usr/include/c++/9.2.0/ostream ****    *  @pre  @p __s must be a non-NULL pointer
 539:/usr/include/c++/9.2.0/ostream ****    *
 540:/usr/include/c++/9.2.0/ostream ****    *  Behaves like one of the formatted arithmetic inserters described in
 541:/usr/include/c++/9.2.0/ostream ****    *  std::basic_ostream.  After constructing a sentry object with good
 542:/usr/include/c++/9.2.0/ostream ****    *  status, this function inserts @c traits::length(__s) characters starting
 543:/usr/include/c++/9.2.0/ostream ****    *  at @p __s, widened if necessary, followed by any required padding (as
 544:/usr/include/c++/9.2.0/ostream ****    *  determined by [22.2.2.2.2]).  @c __out.width(0) is then called.
 545:/usr/include/c++/9.2.0/ostream ****   */
 546:/usr/include/c++/9.2.0/ostream ****   template<typename _CharT, typename _Traits>
 547:/usr/include/c++/9.2.0/ostream ****     inline basic_ostream<_CharT, _Traits>&
 548:/usr/include/c++/9.2.0/ostream ****     operator<<(basic_ostream<_CharT, _Traits>& __out, const _CharT* __s)
 549:/usr/include/c++/9.2.0/ostream ****     {
 550:/usr/include/c++/9.2.0/ostream ****       if (!__s)
 551:/usr/include/c++/9.2.0/ostream **** 	__out.setstate(ios_base::badbit);
 552:/usr/include/c++/9.2.0/ostream ****       else
 553:/usr/include/c++/9.2.0/ostream **** 	__ostream_insert(__out, __s,
 554:/usr/include/c++/9.2.0/ostream **** 			 static_cast<streamsize>(_Traits::length(__s)));
 555:/usr/include/c++/9.2.0/ostream ****       return __out;
 556:/usr/include/c++/9.2.0/ostream ****     }
 557:/usr/include/c++/9.2.0/ostream **** 
GAS LISTING /tmp/ccC5Gb9O.s 			page 67


 558:/usr/include/c++/9.2.0/ostream ****   template<typename _CharT, typename _Traits>
 559:/usr/include/c++/9.2.0/ostream ****     basic_ostream<_CharT, _Traits> &
 560:/usr/include/c++/9.2.0/ostream ****     operator<<(basic_ostream<_CharT, _Traits>& __out, const char* __s);
 561:/usr/include/c++/9.2.0/ostream **** 
 562:/usr/include/c++/9.2.0/ostream ****   // Partial specializations
 563:/usr/include/c++/9.2.0/ostream ****   template<class _Traits>
 564:/usr/include/c++/9.2.0/ostream ****     inline basic_ostream<char, _Traits>&
 565:/usr/include/c++/9.2.0/ostream ****     operator<<(basic_ostream<char, _Traits>& __out, const char* __s)
 1435              		.loc 6 565 5 view .LVU452
 1436              		.loc 6 565 5 is_stmt 0 view .LVU453
 1437              	.LBE99:
 1438              		.file 7 "/usr/include/c++/9.2.0/bits/char_traits.h"
   1:/usr/include/c++/9.2.0/bits/char_traits.h **** // Character Traits for use by standard string and iostream -*- C++ -*-
   2:/usr/include/c++/9.2.0/bits/char_traits.h **** 
   3:/usr/include/c++/9.2.0/bits/char_traits.h **** // Copyright (C) 1997-2019 Free Software Foundation, Inc.
   4:/usr/include/c++/9.2.0/bits/char_traits.h **** //
   5:/usr/include/c++/9.2.0/bits/char_traits.h **** // This file is part of the GNU ISO C++ Library.  This library is free
   6:/usr/include/c++/9.2.0/bits/char_traits.h **** // software; you can redistribute it and/or modify it under the
   7:/usr/include/c++/9.2.0/bits/char_traits.h **** // terms of the GNU General Public License as published by the
   8:/usr/include/c++/9.2.0/bits/char_traits.h **** // Free Software Foundation; either version 3, or (at your option)
   9:/usr/include/c++/9.2.0/bits/char_traits.h **** // any later version.
  10:/usr/include/c++/9.2.0/bits/char_traits.h **** 
  11:/usr/include/c++/9.2.0/bits/char_traits.h **** // This library is distributed in the hope that it will be useful,
  12:/usr/include/c++/9.2.0/bits/char_traits.h **** // but WITHOUT ANY WARRANTY; without even the implied warranty of
  13:/usr/include/c++/9.2.0/bits/char_traits.h **** // MERCHANTABILITY or FITNESS FOR A PARTICULAR PURPOSE.  See the
  14:/usr/include/c++/9.2.0/bits/char_traits.h **** // GNU General Public License for more details.
  15:/usr/include/c++/9.2.0/bits/char_traits.h **** 
  16:/usr/include/c++/9.2.0/bits/char_traits.h **** // Under Section 7 of GPL version 3, you are granted additional
  17:/usr/include/c++/9.2.0/bits/char_traits.h **** // permissions described in the GCC Runtime Library Exception, version
  18:/usr/include/c++/9.2.0/bits/char_traits.h **** // 3.1, as published by the Free Software Foundation.
  19:/usr/include/c++/9.2.0/bits/char_traits.h **** 
  20:/usr/include/c++/9.2.0/bits/char_traits.h **** // You should have received a copy of the GNU General Public License and
  21:/usr/include/c++/9.2.0/bits/char_traits.h **** // a copy of the GCC Runtime Library Exception along with this program;
  22:/usr/include/c++/9.2.0/bits/char_traits.h **** // see the files COPYING3 and COPYING.RUNTIME respectively.  If not, see
  23:/usr/include/c++/9.2.0/bits/char_traits.h **** // <http://www.gnu.org/licenses/>.
  24:/usr/include/c++/9.2.0/bits/char_traits.h **** 
  25:/usr/include/c++/9.2.0/bits/char_traits.h **** /** @file bits/char_traits.h
  26:/usr/include/c++/9.2.0/bits/char_traits.h ****  *  This is an internal header file, included by other library headers.
  27:/usr/include/c++/9.2.0/bits/char_traits.h ****  *  Do not attempt to use it directly. @headername{string}
  28:/usr/include/c++/9.2.0/bits/char_traits.h ****  */
  29:/usr/include/c++/9.2.0/bits/char_traits.h **** 
  30:/usr/include/c++/9.2.0/bits/char_traits.h **** //
  31:/usr/include/c++/9.2.0/bits/char_traits.h **** // ISO C++ 14882: 21  Strings library
  32:/usr/include/c++/9.2.0/bits/char_traits.h **** //
  33:/usr/include/c++/9.2.0/bits/char_traits.h **** 
  34:/usr/include/c++/9.2.0/bits/char_traits.h **** #ifndef _CHAR_TRAITS_H
  35:/usr/include/c++/9.2.0/bits/char_traits.h **** #define _CHAR_TRAITS_H 1
  36:/usr/include/c++/9.2.0/bits/char_traits.h **** 
  37:/usr/include/c++/9.2.0/bits/char_traits.h **** #pragma GCC system_header
  38:/usr/include/c++/9.2.0/bits/char_traits.h **** 
  39:/usr/include/c++/9.2.0/bits/char_traits.h **** #include <bits/stl_algobase.h>  // std::copy, std::fill_n
  40:/usr/include/c++/9.2.0/bits/char_traits.h **** #include <bits/postypes.h>      // For streampos
  41:/usr/include/c++/9.2.0/bits/char_traits.h **** #include <cwchar>               // For WEOF, wmemmove, wmemset, etc.
  42:/usr/include/c++/9.2.0/bits/char_traits.h **** 
  43:/usr/include/c++/9.2.0/bits/char_traits.h **** #ifndef _GLIBCXX_ALWAYS_INLINE
  44:/usr/include/c++/9.2.0/bits/char_traits.h **** # define _GLIBCXX_ALWAYS_INLINE inline __attribute__((__always_inline__))
  45:/usr/include/c++/9.2.0/bits/char_traits.h **** #endif
GAS LISTING /tmp/ccC5Gb9O.s 			page 68


  46:/usr/include/c++/9.2.0/bits/char_traits.h **** 
  47:/usr/include/c++/9.2.0/bits/char_traits.h **** namespace __gnu_cxx _GLIBCXX_VISIBILITY(default)
  48:/usr/include/c++/9.2.0/bits/char_traits.h **** {
  49:/usr/include/c++/9.2.0/bits/char_traits.h **** _GLIBCXX_BEGIN_NAMESPACE_VERSION
  50:/usr/include/c++/9.2.0/bits/char_traits.h **** 
  51:/usr/include/c++/9.2.0/bits/char_traits.h ****   /**
  52:/usr/include/c++/9.2.0/bits/char_traits.h ****    *  @brief  Mapping from character type to associated types.
  53:/usr/include/c++/9.2.0/bits/char_traits.h ****    *
  54:/usr/include/c++/9.2.0/bits/char_traits.h ****    *  @note This is an implementation class for the generic version
  55:/usr/include/c++/9.2.0/bits/char_traits.h ****    *  of char_traits.  It defines int_type, off_type, pos_type, and
  56:/usr/include/c++/9.2.0/bits/char_traits.h ****    *  state_type.  By default these are unsigned long, streamoff,
  57:/usr/include/c++/9.2.0/bits/char_traits.h ****    *  streampos, and mbstate_t.  Users who need a different set of
  58:/usr/include/c++/9.2.0/bits/char_traits.h ****    *  types, but who don't need to change the definitions of any function
  59:/usr/include/c++/9.2.0/bits/char_traits.h ****    *  defined in char_traits, can specialize __gnu_cxx::_Char_types
  60:/usr/include/c++/9.2.0/bits/char_traits.h ****    *  while leaving __gnu_cxx::char_traits alone. */
  61:/usr/include/c++/9.2.0/bits/char_traits.h ****   template<typename _CharT>
  62:/usr/include/c++/9.2.0/bits/char_traits.h ****     struct _Char_types
  63:/usr/include/c++/9.2.0/bits/char_traits.h ****     {
  64:/usr/include/c++/9.2.0/bits/char_traits.h ****       typedef unsigned long   int_type;
  65:/usr/include/c++/9.2.0/bits/char_traits.h ****       typedef std::streampos  pos_type;
  66:/usr/include/c++/9.2.0/bits/char_traits.h ****       typedef std::streamoff  off_type;
  67:/usr/include/c++/9.2.0/bits/char_traits.h ****       typedef std::mbstate_t  state_type;
  68:/usr/include/c++/9.2.0/bits/char_traits.h ****     };
  69:/usr/include/c++/9.2.0/bits/char_traits.h **** 
  70:/usr/include/c++/9.2.0/bits/char_traits.h **** 
  71:/usr/include/c++/9.2.0/bits/char_traits.h ****   /**
  72:/usr/include/c++/9.2.0/bits/char_traits.h ****    *  @brief  Base class used to implement std::char_traits.
  73:/usr/include/c++/9.2.0/bits/char_traits.h ****    *
  74:/usr/include/c++/9.2.0/bits/char_traits.h ****    *  @note For any given actual character type, this definition is
  75:/usr/include/c++/9.2.0/bits/char_traits.h ****    *  probably wrong.  (Most of the member functions are likely to be
  76:/usr/include/c++/9.2.0/bits/char_traits.h ****    *  right, but the int_type and state_type typedefs, and the eof()
  77:/usr/include/c++/9.2.0/bits/char_traits.h ****    *  member function, are likely to be wrong.)  The reason this class
  78:/usr/include/c++/9.2.0/bits/char_traits.h ****    *  exists is so users can specialize it.  Classes in namespace std
  79:/usr/include/c++/9.2.0/bits/char_traits.h ****    *  may not be specialized for fundamental types, but classes in
  80:/usr/include/c++/9.2.0/bits/char_traits.h ****    *  namespace __gnu_cxx may be.
  81:/usr/include/c++/9.2.0/bits/char_traits.h ****    *
  82:/usr/include/c++/9.2.0/bits/char_traits.h ****    *  See https://gcc.gnu.org/onlinedocs/libstdc++/manual/strings.html#strings.string.character_typ
  83:/usr/include/c++/9.2.0/bits/char_traits.h ****    *  for advice on how to make use of this class for @a unusual character
  84:/usr/include/c++/9.2.0/bits/char_traits.h ****    *  types. Also, check out include/ext/pod_char_traits.h.  
  85:/usr/include/c++/9.2.0/bits/char_traits.h ****    */
  86:/usr/include/c++/9.2.0/bits/char_traits.h ****   template<typename _CharT>
  87:/usr/include/c++/9.2.0/bits/char_traits.h ****     struct char_traits
  88:/usr/include/c++/9.2.0/bits/char_traits.h ****     {
  89:/usr/include/c++/9.2.0/bits/char_traits.h ****       typedef _CharT                                    char_type;
  90:/usr/include/c++/9.2.0/bits/char_traits.h ****       typedef typename _Char_types<_CharT>::int_type    int_type;
  91:/usr/include/c++/9.2.0/bits/char_traits.h ****       typedef typename _Char_types<_CharT>::pos_type    pos_type;
  92:/usr/include/c++/9.2.0/bits/char_traits.h ****       typedef typename _Char_types<_CharT>::off_type    off_type;
  93:/usr/include/c++/9.2.0/bits/char_traits.h ****       typedef typename _Char_types<_CharT>::state_type  state_type;
  94:/usr/include/c++/9.2.0/bits/char_traits.h **** 
  95:/usr/include/c++/9.2.0/bits/char_traits.h ****       static _GLIBCXX14_CONSTEXPR void
  96:/usr/include/c++/9.2.0/bits/char_traits.h ****       assign(char_type& __c1, const char_type& __c2)
  97:/usr/include/c++/9.2.0/bits/char_traits.h ****       { __c1 = __c2; }
  98:/usr/include/c++/9.2.0/bits/char_traits.h **** 
  99:/usr/include/c++/9.2.0/bits/char_traits.h ****       static _GLIBCXX_CONSTEXPR bool
 100:/usr/include/c++/9.2.0/bits/char_traits.h ****       eq(const char_type& __c1, const char_type& __c2)
 101:/usr/include/c++/9.2.0/bits/char_traits.h ****       { return __c1 == __c2; }
 102:/usr/include/c++/9.2.0/bits/char_traits.h **** 
GAS LISTING /tmp/ccC5Gb9O.s 			page 69


 103:/usr/include/c++/9.2.0/bits/char_traits.h ****       static _GLIBCXX_CONSTEXPR bool
 104:/usr/include/c++/9.2.0/bits/char_traits.h ****       lt(const char_type& __c1, const char_type& __c2)
 105:/usr/include/c++/9.2.0/bits/char_traits.h ****       { return __c1 < __c2; }
 106:/usr/include/c++/9.2.0/bits/char_traits.h **** 
 107:/usr/include/c++/9.2.0/bits/char_traits.h ****       static _GLIBCXX14_CONSTEXPR int
 108:/usr/include/c++/9.2.0/bits/char_traits.h ****       compare(const char_type* __s1, const char_type* __s2, std::size_t __n);
 109:/usr/include/c++/9.2.0/bits/char_traits.h **** 
 110:/usr/include/c++/9.2.0/bits/char_traits.h ****       static _GLIBCXX14_CONSTEXPR std::size_t
 111:/usr/include/c++/9.2.0/bits/char_traits.h ****       length(const char_type* __s);
 112:/usr/include/c++/9.2.0/bits/char_traits.h **** 
 113:/usr/include/c++/9.2.0/bits/char_traits.h ****       static _GLIBCXX14_CONSTEXPR const char_type*
 114:/usr/include/c++/9.2.0/bits/char_traits.h ****       find(const char_type* __s, std::size_t __n, const char_type& __a);
 115:/usr/include/c++/9.2.0/bits/char_traits.h **** 
 116:/usr/include/c++/9.2.0/bits/char_traits.h ****       static char_type*
 117:/usr/include/c++/9.2.0/bits/char_traits.h ****       move(char_type* __s1, const char_type* __s2, std::size_t __n);
 118:/usr/include/c++/9.2.0/bits/char_traits.h **** 
 119:/usr/include/c++/9.2.0/bits/char_traits.h ****       static char_type*
 120:/usr/include/c++/9.2.0/bits/char_traits.h ****       copy(char_type* __s1, const char_type* __s2, std::size_t __n);
 121:/usr/include/c++/9.2.0/bits/char_traits.h **** 
 122:/usr/include/c++/9.2.0/bits/char_traits.h ****       static char_type*
 123:/usr/include/c++/9.2.0/bits/char_traits.h ****       assign(char_type* __s, std::size_t __n, char_type __a);
 124:/usr/include/c++/9.2.0/bits/char_traits.h **** 
 125:/usr/include/c++/9.2.0/bits/char_traits.h ****       static _GLIBCXX_CONSTEXPR char_type
 126:/usr/include/c++/9.2.0/bits/char_traits.h ****       to_char_type(const int_type& __c)
 127:/usr/include/c++/9.2.0/bits/char_traits.h ****       { return static_cast<char_type>(__c); }
 128:/usr/include/c++/9.2.0/bits/char_traits.h **** 
 129:/usr/include/c++/9.2.0/bits/char_traits.h ****       static _GLIBCXX_CONSTEXPR int_type
 130:/usr/include/c++/9.2.0/bits/char_traits.h ****       to_int_type(const char_type& __c)
 131:/usr/include/c++/9.2.0/bits/char_traits.h ****       { return static_cast<int_type>(__c); }
 132:/usr/include/c++/9.2.0/bits/char_traits.h **** 
 133:/usr/include/c++/9.2.0/bits/char_traits.h ****       static _GLIBCXX_CONSTEXPR bool
 134:/usr/include/c++/9.2.0/bits/char_traits.h ****       eq_int_type(const int_type& __c1, const int_type& __c2)
 135:/usr/include/c++/9.2.0/bits/char_traits.h ****       { return __c1 == __c2; }
 136:/usr/include/c++/9.2.0/bits/char_traits.h **** 
 137:/usr/include/c++/9.2.0/bits/char_traits.h ****       static _GLIBCXX_CONSTEXPR int_type
 138:/usr/include/c++/9.2.0/bits/char_traits.h ****       eof()
 139:/usr/include/c++/9.2.0/bits/char_traits.h ****       { return static_cast<int_type>(_GLIBCXX_STDIO_EOF); }
 140:/usr/include/c++/9.2.0/bits/char_traits.h **** 
 141:/usr/include/c++/9.2.0/bits/char_traits.h ****       static _GLIBCXX_CONSTEXPR int_type
 142:/usr/include/c++/9.2.0/bits/char_traits.h ****       not_eof(const int_type& __c)
 143:/usr/include/c++/9.2.0/bits/char_traits.h ****       { return !eq_int_type(__c, eof()) ? __c : to_int_type(char_type()); }
 144:/usr/include/c++/9.2.0/bits/char_traits.h ****     };
 145:/usr/include/c++/9.2.0/bits/char_traits.h **** 
 146:/usr/include/c++/9.2.0/bits/char_traits.h ****   template<typename _CharT>
 147:/usr/include/c++/9.2.0/bits/char_traits.h ****     _GLIBCXX14_CONSTEXPR int
 148:/usr/include/c++/9.2.0/bits/char_traits.h ****     char_traits<_CharT>::
 149:/usr/include/c++/9.2.0/bits/char_traits.h ****     compare(const char_type* __s1, const char_type* __s2, std::size_t __n)
 150:/usr/include/c++/9.2.0/bits/char_traits.h ****     {
 151:/usr/include/c++/9.2.0/bits/char_traits.h ****       for (std::size_t __i = 0; __i < __n; ++__i)
 152:/usr/include/c++/9.2.0/bits/char_traits.h **** 	if (lt(__s1[__i], __s2[__i]))
 153:/usr/include/c++/9.2.0/bits/char_traits.h **** 	  return -1;
 154:/usr/include/c++/9.2.0/bits/char_traits.h **** 	else if (lt(__s2[__i], __s1[__i]))
 155:/usr/include/c++/9.2.0/bits/char_traits.h **** 	  return 1;
 156:/usr/include/c++/9.2.0/bits/char_traits.h ****       return 0;
 157:/usr/include/c++/9.2.0/bits/char_traits.h ****     }
 158:/usr/include/c++/9.2.0/bits/char_traits.h **** 
 159:/usr/include/c++/9.2.0/bits/char_traits.h ****   template<typename _CharT>
GAS LISTING /tmp/ccC5Gb9O.s 			page 70


 160:/usr/include/c++/9.2.0/bits/char_traits.h ****     _GLIBCXX14_CONSTEXPR std::size_t
 161:/usr/include/c++/9.2.0/bits/char_traits.h ****     char_traits<_CharT>::
 162:/usr/include/c++/9.2.0/bits/char_traits.h ****     length(const char_type* __p)
 163:/usr/include/c++/9.2.0/bits/char_traits.h ****     {
 164:/usr/include/c++/9.2.0/bits/char_traits.h ****       std::size_t __i = 0;
 165:/usr/include/c++/9.2.0/bits/char_traits.h ****       while (!eq(__p[__i], char_type()))
 166:/usr/include/c++/9.2.0/bits/char_traits.h ****         ++__i;
 167:/usr/include/c++/9.2.0/bits/char_traits.h ****       return __i;
 168:/usr/include/c++/9.2.0/bits/char_traits.h ****     }
 169:/usr/include/c++/9.2.0/bits/char_traits.h **** 
 170:/usr/include/c++/9.2.0/bits/char_traits.h ****   template<typename _CharT>
 171:/usr/include/c++/9.2.0/bits/char_traits.h ****     _GLIBCXX14_CONSTEXPR const typename char_traits<_CharT>::char_type*
 172:/usr/include/c++/9.2.0/bits/char_traits.h ****     char_traits<_CharT>::
 173:/usr/include/c++/9.2.0/bits/char_traits.h ****     find(const char_type* __s, std::size_t __n, const char_type& __a)
 174:/usr/include/c++/9.2.0/bits/char_traits.h ****     {
 175:/usr/include/c++/9.2.0/bits/char_traits.h ****       for (std::size_t __i = 0; __i < __n; ++__i)
 176:/usr/include/c++/9.2.0/bits/char_traits.h ****         if (eq(__s[__i], __a))
 177:/usr/include/c++/9.2.0/bits/char_traits.h ****           return __s + __i;
 178:/usr/include/c++/9.2.0/bits/char_traits.h ****       return 0;
 179:/usr/include/c++/9.2.0/bits/char_traits.h ****     }
 180:/usr/include/c++/9.2.0/bits/char_traits.h **** 
 181:/usr/include/c++/9.2.0/bits/char_traits.h ****   template<typename _CharT>
 182:/usr/include/c++/9.2.0/bits/char_traits.h ****     typename char_traits<_CharT>::char_type*
 183:/usr/include/c++/9.2.0/bits/char_traits.h ****     char_traits<_CharT>::
 184:/usr/include/c++/9.2.0/bits/char_traits.h ****     move(char_type* __s1, const char_type* __s2, std::size_t __n)
 185:/usr/include/c++/9.2.0/bits/char_traits.h ****     {
 186:/usr/include/c++/9.2.0/bits/char_traits.h ****       if (__n == 0)
 187:/usr/include/c++/9.2.0/bits/char_traits.h **** 	return __s1;
 188:/usr/include/c++/9.2.0/bits/char_traits.h ****       return static_cast<_CharT*>(__builtin_memmove(__s1, __s2,
 189:/usr/include/c++/9.2.0/bits/char_traits.h **** 						    __n * sizeof(char_type)));
 190:/usr/include/c++/9.2.0/bits/char_traits.h ****     }
 191:/usr/include/c++/9.2.0/bits/char_traits.h **** 
 192:/usr/include/c++/9.2.0/bits/char_traits.h ****   template<typename _CharT>
 193:/usr/include/c++/9.2.0/bits/char_traits.h ****     typename char_traits<_CharT>::char_type*
 194:/usr/include/c++/9.2.0/bits/char_traits.h ****     char_traits<_CharT>::
 195:/usr/include/c++/9.2.0/bits/char_traits.h ****     copy(char_type* __s1, const char_type* __s2, std::size_t __n)
 196:/usr/include/c++/9.2.0/bits/char_traits.h ****     {
 197:/usr/include/c++/9.2.0/bits/char_traits.h ****       // NB: Inline std::copy so no recursive dependencies.
 198:/usr/include/c++/9.2.0/bits/char_traits.h ****       std::copy(__s2, __s2 + __n, __s1);
 199:/usr/include/c++/9.2.0/bits/char_traits.h ****       return __s1;
 200:/usr/include/c++/9.2.0/bits/char_traits.h ****     }
 201:/usr/include/c++/9.2.0/bits/char_traits.h **** 
 202:/usr/include/c++/9.2.0/bits/char_traits.h ****   template<typename _CharT>
 203:/usr/include/c++/9.2.0/bits/char_traits.h ****     typename char_traits<_CharT>::char_type*
 204:/usr/include/c++/9.2.0/bits/char_traits.h ****     char_traits<_CharT>::
 205:/usr/include/c++/9.2.0/bits/char_traits.h ****     assign(char_type* __s, std::size_t __n, char_type __a)
 206:/usr/include/c++/9.2.0/bits/char_traits.h ****     {
 207:/usr/include/c++/9.2.0/bits/char_traits.h ****       // NB: Inline std::fill_n so no recursive dependencies.
 208:/usr/include/c++/9.2.0/bits/char_traits.h ****       std::fill_n(__s, __n, __a);
 209:/usr/include/c++/9.2.0/bits/char_traits.h ****       return __s;
 210:/usr/include/c++/9.2.0/bits/char_traits.h ****     }
 211:/usr/include/c++/9.2.0/bits/char_traits.h **** 
 212:/usr/include/c++/9.2.0/bits/char_traits.h **** _GLIBCXX_END_NAMESPACE_VERSION
 213:/usr/include/c++/9.2.0/bits/char_traits.h **** } // namespace
 214:/usr/include/c++/9.2.0/bits/char_traits.h **** 
 215:/usr/include/c++/9.2.0/bits/char_traits.h **** namespace std _GLIBCXX_VISIBILITY(default)
 216:/usr/include/c++/9.2.0/bits/char_traits.h **** {
GAS LISTING /tmp/ccC5Gb9O.s 			page 71


 217:/usr/include/c++/9.2.0/bits/char_traits.h **** _GLIBCXX_BEGIN_NAMESPACE_VERSION
 218:/usr/include/c++/9.2.0/bits/char_traits.h **** 
 219:/usr/include/c++/9.2.0/bits/char_traits.h **** #if __cplusplus >= 201703L
 220:/usr/include/c++/9.2.0/bits/char_traits.h **** #define __cpp_lib_constexpr_char_traits 201611
 221:/usr/include/c++/9.2.0/bits/char_traits.h **** 
 222:/usr/include/c++/9.2.0/bits/char_traits.h ****   /**
 223:/usr/include/c++/9.2.0/bits/char_traits.h ****    *  @brief Determine whether the characters of a NULL-terminated
 224:/usr/include/c++/9.2.0/bits/char_traits.h ****    *  string are known at compile time.
 225:/usr/include/c++/9.2.0/bits/char_traits.h ****    *  @param  __s  The string.
 226:/usr/include/c++/9.2.0/bits/char_traits.h ****    *
 227:/usr/include/c++/9.2.0/bits/char_traits.h ****    *  Assumes that _CharT is a built-in character type.
 228:/usr/include/c++/9.2.0/bits/char_traits.h ****    */
 229:/usr/include/c++/9.2.0/bits/char_traits.h ****   template<typename _CharT>
 230:/usr/include/c++/9.2.0/bits/char_traits.h ****     static _GLIBCXX_ALWAYS_INLINE constexpr bool
 231:/usr/include/c++/9.2.0/bits/char_traits.h ****     __constant_string_p(const _CharT* __s)
 232:/usr/include/c++/9.2.0/bits/char_traits.h ****     {
 233:/usr/include/c++/9.2.0/bits/char_traits.h **** #ifdef _GLIBCXX_HAVE_BUILTIN_IS_CONSTANT_EVALUATED
 234:/usr/include/c++/9.2.0/bits/char_traits.h ****       (void) __s;
 235:/usr/include/c++/9.2.0/bits/char_traits.h ****       // In constexpr contexts all strings should be constant.
 236:/usr/include/c++/9.2.0/bits/char_traits.h ****       return __builtin_is_constant_evaluated();
 237:/usr/include/c++/9.2.0/bits/char_traits.h **** #else
 238:/usr/include/c++/9.2.0/bits/char_traits.h ****       while (__builtin_constant_p(*__s) && *__s)
 239:/usr/include/c++/9.2.0/bits/char_traits.h **** 	__s++;
 240:/usr/include/c++/9.2.0/bits/char_traits.h ****       return __builtin_constant_p(*__s);
 241:/usr/include/c++/9.2.0/bits/char_traits.h **** #endif
 242:/usr/include/c++/9.2.0/bits/char_traits.h ****     }
 243:/usr/include/c++/9.2.0/bits/char_traits.h **** 
 244:/usr/include/c++/9.2.0/bits/char_traits.h ****   /**
 245:/usr/include/c++/9.2.0/bits/char_traits.h ****    *  @brief Determine whether the characters of a character array are
 246:/usr/include/c++/9.2.0/bits/char_traits.h ****    *  known at compile time.
 247:/usr/include/c++/9.2.0/bits/char_traits.h ****    *  @param  __a  The character array.
 248:/usr/include/c++/9.2.0/bits/char_traits.h ****    *  @param  __n  Number of characters.
 249:/usr/include/c++/9.2.0/bits/char_traits.h ****    *
 250:/usr/include/c++/9.2.0/bits/char_traits.h ****    *  Assumes that _CharT is a built-in character type.
 251:/usr/include/c++/9.2.0/bits/char_traits.h ****    */
 252:/usr/include/c++/9.2.0/bits/char_traits.h ****   template<typename _CharT>
 253:/usr/include/c++/9.2.0/bits/char_traits.h ****     static _GLIBCXX_ALWAYS_INLINE constexpr bool
 254:/usr/include/c++/9.2.0/bits/char_traits.h ****     __constant_char_array_p(const _CharT* __a, size_t __n)
 255:/usr/include/c++/9.2.0/bits/char_traits.h ****     {
 256:/usr/include/c++/9.2.0/bits/char_traits.h **** #ifdef _GLIBCXX_HAVE_BUILTIN_IS_CONSTANT_EVALUATED
 257:/usr/include/c++/9.2.0/bits/char_traits.h ****       (void) __a;
 258:/usr/include/c++/9.2.0/bits/char_traits.h ****       (void) __n;
 259:/usr/include/c++/9.2.0/bits/char_traits.h ****       // In constexpr contexts all character arrays should be constant.
 260:/usr/include/c++/9.2.0/bits/char_traits.h ****       return __builtin_is_constant_evaluated();
 261:/usr/include/c++/9.2.0/bits/char_traits.h **** #else
 262:/usr/include/c++/9.2.0/bits/char_traits.h ****       size_t __i = 0;
 263:/usr/include/c++/9.2.0/bits/char_traits.h ****       while (__i < __n && __builtin_constant_p(__a[__i]))
 264:/usr/include/c++/9.2.0/bits/char_traits.h **** 	__i++;
 265:/usr/include/c++/9.2.0/bits/char_traits.h ****       return __i == __n;
 266:/usr/include/c++/9.2.0/bits/char_traits.h **** #endif
 267:/usr/include/c++/9.2.0/bits/char_traits.h ****     }
 268:/usr/include/c++/9.2.0/bits/char_traits.h **** #endif
 269:/usr/include/c++/9.2.0/bits/char_traits.h **** 
 270:/usr/include/c++/9.2.0/bits/char_traits.h ****   // 21.1
 271:/usr/include/c++/9.2.0/bits/char_traits.h ****   /**
 272:/usr/include/c++/9.2.0/bits/char_traits.h ****    *  @brief  Basis for explicit traits specializations.
 273:/usr/include/c++/9.2.0/bits/char_traits.h ****    *
GAS LISTING /tmp/ccC5Gb9O.s 			page 72


 274:/usr/include/c++/9.2.0/bits/char_traits.h ****    *  @note  For any given actual character type, this definition is
 275:/usr/include/c++/9.2.0/bits/char_traits.h ****    *  probably wrong.  Since this is just a thin wrapper around
 276:/usr/include/c++/9.2.0/bits/char_traits.h ****    *  __gnu_cxx::char_traits, it is possible to achieve a more
 277:/usr/include/c++/9.2.0/bits/char_traits.h ****    *  appropriate definition by specializing __gnu_cxx::char_traits.
 278:/usr/include/c++/9.2.0/bits/char_traits.h ****    *
 279:/usr/include/c++/9.2.0/bits/char_traits.h ****    *  See https://gcc.gnu.org/onlinedocs/libstdc++/manual/strings.html#strings.string.character_typ
 280:/usr/include/c++/9.2.0/bits/char_traits.h ****    *  for advice on how to make use of this class for @a unusual character
 281:/usr/include/c++/9.2.0/bits/char_traits.h ****    *  types. Also, check out include/ext/pod_char_traits.h.
 282:/usr/include/c++/9.2.0/bits/char_traits.h ****   */
 283:/usr/include/c++/9.2.0/bits/char_traits.h ****   template<class _CharT>
 284:/usr/include/c++/9.2.0/bits/char_traits.h ****     struct char_traits : public __gnu_cxx::char_traits<_CharT>
 285:/usr/include/c++/9.2.0/bits/char_traits.h ****     { };
 286:/usr/include/c++/9.2.0/bits/char_traits.h **** 
 287:/usr/include/c++/9.2.0/bits/char_traits.h **** 
 288:/usr/include/c++/9.2.0/bits/char_traits.h ****   /// 21.1.3.1  char_traits specializations
 289:/usr/include/c++/9.2.0/bits/char_traits.h ****   template<>
 290:/usr/include/c++/9.2.0/bits/char_traits.h ****     struct char_traits<char>
 291:/usr/include/c++/9.2.0/bits/char_traits.h ****     {
 292:/usr/include/c++/9.2.0/bits/char_traits.h ****       typedef char              char_type;
 293:/usr/include/c++/9.2.0/bits/char_traits.h ****       typedef int               int_type;
 294:/usr/include/c++/9.2.0/bits/char_traits.h ****       typedef streampos         pos_type;
 295:/usr/include/c++/9.2.0/bits/char_traits.h ****       typedef streamoff         off_type;
 296:/usr/include/c++/9.2.0/bits/char_traits.h ****       typedef mbstate_t         state_type;
 297:/usr/include/c++/9.2.0/bits/char_traits.h **** 
 298:/usr/include/c++/9.2.0/bits/char_traits.h ****       static _GLIBCXX17_CONSTEXPR void
 299:/usr/include/c++/9.2.0/bits/char_traits.h ****       assign(char_type& __c1, const char_type& __c2) _GLIBCXX_NOEXCEPT
 300:/usr/include/c++/9.2.0/bits/char_traits.h ****       { __c1 = __c2; }
 301:/usr/include/c++/9.2.0/bits/char_traits.h **** 
 302:/usr/include/c++/9.2.0/bits/char_traits.h ****       static _GLIBCXX_CONSTEXPR bool
 303:/usr/include/c++/9.2.0/bits/char_traits.h ****       eq(const char_type& __c1, const char_type& __c2) _GLIBCXX_NOEXCEPT
 304:/usr/include/c++/9.2.0/bits/char_traits.h ****       { return __c1 == __c2; }
 305:/usr/include/c++/9.2.0/bits/char_traits.h **** 
 306:/usr/include/c++/9.2.0/bits/char_traits.h ****       static _GLIBCXX_CONSTEXPR bool
 307:/usr/include/c++/9.2.0/bits/char_traits.h ****       lt(const char_type& __c1, const char_type& __c2) _GLIBCXX_NOEXCEPT
 308:/usr/include/c++/9.2.0/bits/char_traits.h ****       {
 309:/usr/include/c++/9.2.0/bits/char_traits.h **** 	// LWG 467.
 310:/usr/include/c++/9.2.0/bits/char_traits.h **** 	return (static_cast<unsigned char>(__c1)
 311:/usr/include/c++/9.2.0/bits/char_traits.h **** 		< static_cast<unsigned char>(__c2));
 312:/usr/include/c++/9.2.0/bits/char_traits.h ****       }
 313:/usr/include/c++/9.2.0/bits/char_traits.h **** 
 314:/usr/include/c++/9.2.0/bits/char_traits.h ****       static _GLIBCXX17_CONSTEXPR int
 315:/usr/include/c++/9.2.0/bits/char_traits.h ****       compare(const char_type* __s1, const char_type* __s2, size_t __n)
 316:/usr/include/c++/9.2.0/bits/char_traits.h ****       {
 317:/usr/include/c++/9.2.0/bits/char_traits.h **** 	if (__n == 0)
 318:/usr/include/c++/9.2.0/bits/char_traits.h **** 	  return 0;
 319:/usr/include/c++/9.2.0/bits/char_traits.h **** #if __cplusplus >= 201703L
 320:/usr/include/c++/9.2.0/bits/char_traits.h **** 	if (__builtin_constant_p(__n)
 321:/usr/include/c++/9.2.0/bits/char_traits.h **** 	    && __constant_char_array_p(__s1, __n)
 322:/usr/include/c++/9.2.0/bits/char_traits.h **** 	    && __constant_char_array_p(__s2, __n))
 323:/usr/include/c++/9.2.0/bits/char_traits.h **** 	  return __gnu_cxx::char_traits<char_type>::compare(__s1, __s2, __n);
 324:/usr/include/c++/9.2.0/bits/char_traits.h **** #endif
 325:/usr/include/c++/9.2.0/bits/char_traits.h **** 	return __builtin_memcmp(__s1, __s2, __n);
 326:/usr/include/c++/9.2.0/bits/char_traits.h ****       }
 327:/usr/include/c++/9.2.0/bits/char_traits.h **** 
 328:/usr/include/c++/9.2.0/bits/char_traits.h ****       static _GLIBCXX17_CONSTEXPR size_t
 329:/usr/include/c++/9.2.0/bits/char_traits.h ****       length(const char_type* __s)
 330:/usr/include/c++/9.2.0/bits/char_traits.h ****       {
GAS LISTING /tmp/ccC5Gb9O.s 			page 73


 331:/usr/include/c++/9.2.0/bits/char_traits.h **** #if __cplusplus >= 201703L
 332:/usr/include/c++/9.2.0/bits/char_traits.h **** 	if (__constant_string_p(__s))
 333:/usr/include/c++/9.2.0/bits/char_traits.h **** 	  return __gnu_cxx::char_traits<char_type>::length(__s);
 334:/usr/include/c++/9.2.0/bits/char_traits.h **** #endif
 335:/usr/include/c++/9.2.0/bits/char_traits.h **** 	return __builtin_strlen(__s);
 1439              		.loc 7 335 2 is_stmt 1 view .LVU454
 1440              	.LBB101:
 1441              	.LBB100:
 566:/usr/include/c++/9.2.0/ostream ****     {
 567:/usr/include/c++/9.2.0/ostream ****       if (!__s)
 568:/usr/include/c++/9.2.0/ostream **** 	__out.setstate(ios_base::badbit);
 569:/usr/include/c++/9.2.0/ostream ****       else
 570:/usr/include/c++/9.2.0/ostream **** 	__ostream_insert(__out, __s,
 1442              		.loc 6 570 18 is_stmt 0 view .LVU455
 1443 093d BA0B0000 		movl	$11, %edx
 1443      00
 1444 0942 488D3500 		leaq	.LC6(%rip), %rsi
 1444      000000
 1445              	.LVL124:
 1446              		.loc 6 570 18 view .LVU456
 1447 0949 488D3D00 		leaq	_ZSt4cout(%rip), %rdi
 1447      000000
 1448              	.LVL125:
 1449              		.loc 6 570 18 view .LVU457
 1450 0950 E8000000 		call	_ZSt16__ostream_insertIcSt11char_traitsIcEERSt13basic_ostreamIT_T0_ES6_PKS3_l@PLT
 1450      00
 1451              	.LVL126:
 1452              		.loc 6 570 18 view .LVU458
 1453              	.LBE100:
 1454              	.LBE101:
 453:Src/findwayBases.cpp ****     if(start == end) 
 1455              		.loc 1 453 5 is_stmt 1 view .LVU459
 1456 0955 4839EB   		cmpq	%rbp, %rbx
 1457 0958 741D     		je	.L161
 1458              	.LBB102:
 458:Src/findwayBases.cpp ****     for(size_t i = 0; i < start->numOfTargets; i++)
 1459              		.loc 1 458 16 is_stmt 0 view .LVU460
 1460 095a B8000000 		movl	$0, %eax
 1460      00
 1461              	.L152:
 1462              	.LVL127:
 458:Src/findwayBases.cpp ****     for(size_t i = 0; i < start->numOfTargets; i++)
 1463              		.loc 1 458 25 is_stmt 1 discriminator 1 view .LVU461
 458:Src/findwayBases.cpp ****     for(size_t i = 0; i < start->numOfTargets; i++)
 1464              		.loc 1 458 34 is_stmt 0 discriminator 1 view .LVU462
 1465 095f 488B5308 		movq	8(%rbx), %rdx
 458:Src/findwayBases.cpp ****     for(size_t i = 0; i < start->numOfTargets; i++)
 1466              		.loc 1 458 25 discriminator 1 view .LVU463
 1467 0963 4839C2   		cmpq	%rax, %rdx
 1468 0966 7648     		jbe	.L159
 459:Src/findwayBases.cpp ****         if(start->targets[i] == end)
 1469              		.loc 1 459 9 is_stmt 1 view .LVU464
 459:Src/findwayBases.cpp ****         if(start->targets[i] == end)
 1470              		.loc 1 459 19 is_stmt 0 view .LVU465
 1471 0968 488B13   		movq	(%rbx), %rdx
 459:Src/findwayBases.cpp ****         if(start->targets[i] == end)
 1472              		.loc 1 459 9 view .LVU466
GAS LISTING /tmp/ccC5Gb9O.s 			page 74


 1473 096b 48392CC2 		cmpq	%rbp, (%rdx,%rax,8)
 1474 096f 7420     		je	.L162
 458:Src/findwayBases.cpp ****     for(size_t i = 0; i < start->numOfTargets; i++)
 1475              		.loc 1 458 5 is_stmt 1 discriminator 2 view .LVU467
 1476 0971 4883C001 		addq	$1, %rax
 1477              	.LVL128:
 458:Src/findwayBases.cpp ****     for(size_t i = 0; i < start->numOfTargets; i++)
 1478              		.loc 1 458 5 is_stmt 0 discriminator 2 view .LVU468
 1479 0975 EBE8     		jmp	.L152
 1480              	.LVL129:
 1481              	.L161:
 458:Src/findwayBases.cpp ****     for(size_t i = 0; i < start->numOfTargets; i++)
 1482              		.loc 1 458 5 discriminator 2 view .LVU469
 1483              	.LBE102:
 455:Src/findwayBases.cpp ****         std::cout << "ST=EN ";
 1484              		.loc 1 455 9 is_stmt 1 view .LVU470
 1485              	.LBB106:
 1486              	.LBI106:
 565:/usr/include/c++/9.2.0/ostream ****     {
 1487              		.loc 6 565 5 view .LVU471
 565:/usr/include/c++/9.2.0/ostream ****     {
 1488              		.loc 6 565 5 is_stmt 0 view .LVU472
 1489              	.LBE106:
 1490              		.loc 7 335 2 is_stmt 1 view .LVU473
 1491              	.LBB108:
 1492              	.LBB107:
 1493              		.loc 6 570 18 is_stmt 0 view .LVU474
 1494 0977 BA060000 		movl	$6, %edx
 1494      00
 1495 097c 488D3500 		leaq	.LC7(%rip), %rsi
 1495      000000
 1496 0983 488D3D00 		leaq	_ZSt4cout(%rip), %rdi
 1496      000000
 1497 098a E8000000 		call	_ZSt16__ostream_insertIcSt11char_traitsIcEERSt13basic_ostreamIT_T0_ES6_PKS3_l@PLT
 1497      00
 1498              	.LVL130:
 571:/usr/include/c++/9.2.0/ostream **** 			 static_cast<streamsize>(_Traits::length(__s)));
 572:/usr/include/c++/9.2.0/ostream ****       return __out;
 1499              		.loc 6 572 14 view .LVU475
 1500 098f EB18     		jmp	.L151
 1501              	.LVL131:
 1502              	.L162:
 1503              		.loc 6 572 14 view .LVU476
 1504              	.LBE107:
 1505              	.LBE108:
 1506              	.LBB109:
 461:Src/findwayBases.cpp ****             std::cout << "ALREADY EXISTS ";
 1507              		.loc 1 461 13 is_stmt 1 view .LVU477
 1508              	.LBB103:
 1509              	.LBI103:
 565:/usr/include/c++/9.2.0/ostream ****     {
 1510              		.loc 6 565 5 view .LVU478
 565:/usr/include/c++/9.2.0/ostream ****     {
 1511              		.loc 6 565 5 is_stmt 0 view .LVU479
 1512              	.LBE103:
 1513              	.LBE109:
 1514              		.loc 7 335 2 is_stmt 1 view .LVU480
GAS LISTING /tmp/ccC5Gb9O.s 			page 75


 1515              	.LBB110:
 1516              	.LBB105:
 1517              	.LBB104:
 570:/usr/include/c++/9.2.0/ostream **** 			 static_cast<streamsize>(_Traits::length(__s)));
 1518              		.loc 6 570 18 is_stmt 0 view .LVU481
 1519 0991 BA0F0000 		movl	$15, %edx
 1519      00
 1520 0996 488D3500 		leaq	.LC8(%rip), %rsi
 1520      000000
 1521 099d 488D3D00 		leaq	_ZSt4cout(%rip), %rdi
 1521      000000
 1522 09a4 E8000000 		call	_ZSt16__ostream_insertIcSt11char_traitsIcEERSt13basic_ostreamIT_T0_ES6_PKS3_l@PLT
 1522      00
 1523              	.LVL132:
 1524              	.L151:
 570:/usr/include/c++/9.2.0/ostream **** 			 static_cast<streamsize>(_Traits::length(__s)));
 1525              		.loc 6 570 18 view .LVU482
 1526              	.LBE104:
 1527              	.LBE105:
 1528              	.LBE110:
 476:Src/findwayBases.cpp **** }
 1529              		.loc 1 476 1 view .LVU483
 1530 09a9 4883C408 		addq	$8, %rsp
 1531              		.cfi_remember_state
 1532              		.cfi_def_cfa_offset 24
 1533 09ad 5B       		popq	%rbx
 1534              		.cfi_def_cfa_offset 16
 1535              	.LVL133:
 476:Src/findwayBases.cpp **** }
 1536              		.loc 1 476 1 view .LVU484
 1537 09ae 5D       		popq	%rbp
 1538              		.cfi_def_cfa_offset 8
 1539              	.LVL134:
 476:Src/findwayBases.cpp **** }
 1540              		.loc 1 476 1 view .LVU485
 1541 09af C3       		ret
 1542              	.LVL135:
 1543              	.L159:
 1544              		.cfi_restore_state
 1545              	.LBB111:
 464:Src/findwayBases.cpp ****     for(size_t i = 0; i < end->numOfTargets; i++)
 1546              		.loc 1 464 16 view .LVU486
 1547 09b0 B8000000 		movl	$0, %eax
 1547      00
 1548              	.LVL136:
 1549              	.L154:
 464:Src/findwayBases.cpp ****     for(size_t i = 0; i < end->numOfTargets; i++)
 1550              		.loc 1 464 25 is_stmt 1 discriminator 1 view .LVU487
 1551 09b5 48394508 		cmpq	%rax, 8(%rbp)
 1552 09b9 762A     		jbe	.L156
 465:Src/findwayBases.cpp ****         if(end->targets[i] == start)
 1553              		.loc 1 465 9 view .LVU488
 465:Src/findwayBases.cpp ****         if(end->targets[i] == start)
 1554              		.loc 1 465 17 is_stmt 0 view .LVU489
 1555 09bb 488B4D00 		movq	0(%rbp), %rcx
 465:Src/findwayBases.cpp ****         if(end->targets[i] == start)
 1556              		.loc 1 465 9 view .LVU490
GAS LISTING /tmp/ccC5Gb9O.s 			page 76


 1557 09bf 48391CC1 		cmpq	%rbx, (%rcx,%rax,8)
 1558 09c3 7406     		je	.L163
 464:Src/findwayBases.cpp ****     for(size_t i = 0; i < end->numOfTargets; i++)
 1559              		.loc 1 464 5 is_stmt 1 discriminator 2 view .LVU491
 1560 09c5 4883C001 		addq	$1, %rax
 1561              	.LVL137:
 464:Src/findwayBases.cpp ****     for(size_t i = 0; i < end->numOfTargets; i++)
 1562              		.loc 1 464 5 is_stmt 0 discriminator 2 view .LVU492
 1563 09c9 EBEA     		jmp	.L154
 1564              	.L163:
 467:Src/findwayBases.cpp ****             std::cout << "ALREADY EXISTS ";
 1565              		.loc 1 467 13 is_stmt 1 view .LVU493
 1566              	.LVL138:
 1567              	.LBB112:
 1568              	.LBI112:
 565:/usr/include/c++/9.2.0/ostream ****     {
 1569              		.loc 6 565 5 view .LVU494
 565:/usr/include/c++/9.2.0/ostream ****     {
 1570              		.loc 6 565 5 is_stmt 0 view .LVU495
 1571              	.LBE112:
 1572              	.LBE111:
 1573              		.loc 7 335 2 is_stmt 1 view .LVU496
 1574              	.LBB115:
 1575              	.LBB114:
 1576              	.LBB113:
 570:/usr/include/c++/9.2.0/ostream **** 			 static_cast<streamsize>(_Traits::length(__s)));
 1577              		.loc 6 570 18 is_stmt 0 view .LVU497
 1578 09cb BA0F0000 		movl	$15, %edx
 1578      00
 1579 09d0 488D3500 		leaq	.LC8(%rip), %rsi
 1579      000000
 1580 09d7 488D3D00 		leaq	_ZSt4cout(%rip), %rdi
 1580      000000
 1581 09de E8000000 		call	_ZSt16__ostream_insertIcSt11char_traitsIcEERSt13basic_ostreamIT_T0_ES6_PKS3_l@PLT
 1581      00
 1582              	.LVL139:
 1583              		.loc 6 572 14 view .LVU498
 1584 09e3 EBC4     		jmp	.L151
 1585              	.LVL140:
 1586              	.L156:
 1587              		.loc 6 572 14 view .LVU499
 1588              	.LBE113:
 1589              	.LBE114:
 1590              	.LBE115:
 471:Src/findwayBases.cpp ****     start->targets = (struct graphPoint**)realloc(start->targets, (++(start->numOfTargets)) * sizeo
 1591              		.loc 1 471 5 is_stmt 1 view .LVU500
 471:Src/findwayBases.cpp ****     start->targets = (struct graphPoint**)realloc(start->targets, (++(start->numOfTargets)) * sizeo
 1592              		.loc 1 471 68 is_stmt 0 view .LVU501
 1593 09e5 4883C201 		addq	$1, %rdx
 471:Src/findwayBases.cpp ****     start->targets = (struct graphPoint**)realloc(start->targets, (++(start->numOfTargets)) * sizeo
 1594              		.loc 1 471 20 view .LVU502
 1595 09e9 48895308 		movq	%rdx, 8(%rbx)
 471:Src/findwayBases.cpp ****     start->targets = (struct graphPoint**)realloc(start->targets, (++(start->numOfTargets)) * sizeo
 1596              		.loc 1 471 58 view .LVU503
 1597 09ed 488B3B   		movq	(%rbx), %rdi
 471:Src/findwayBases.cpp ****     start->targets = (struct graphPoint**)realloc(start->targets, (++(start->numOfTargets)) * sizeo
 1598              		.loc 1 471 50 view .LVU504
GAS LISTING /tmp/ccC5Gb9O.s 			page 77


 1599 09f0 488D34D5 		leaq	0(,%rdx,8), %rsi
 1599      00000000 
 1600 09f8 E8000000 		call	realloc@PLT
 1600      00
 1601              	.LVL141:
 471:Src/findwayBases.cpp ****     start->targets = (struct graphPoint**)realloc(start->targets, (++(start->numOfTargets)) * sizeo
 1602              		.loc 1 471 20 view .LVU505
 1603 09fd 488903   		movq	%rax, (%rbx)
 472:Src/findwayBases.cpp ****     start->targets[start->numOfTargets - 1] = end;
 1604              		.loc 1 472 5 is_stmt 1 view .LVU506
 472:Src/findwayBases.cpp ****     start->targets[start->numOfTargets - 1] = end;
 1605              		.loc 1 472 27 is_stmt 0 view .LVU507
 1606 0a00 488B5308 		movq	8(%rbx), %rdx
 472:Src/findwayBases.cpp ****     start->targets[start->numOfTargets - 1] = end;
 1607              		.loc 1 472 45 view .LVU508
 1608 0a04 48896CD0 		movq	%rbp, -8(%rax,%rdx,8)
 1608      F8
 474:Src/findwayBases.cpp ****     end->targets = (struct graphPoint**)realloc(end->targets, (++(end->numOfTargets)) * sizeof(stru
 1609              		.loc 1 474 5 is_stmt 1 view .LVU509
 474:Src/findwayBases.cpp ****     end->targets = (struct graphPoint**)realloc(end->targets, (++(end->numOfTargets)) * sizeof(stru
 1610              		.loc 1 474 64 is_stmt 0 view .LVU510
 1611 0a09 488B4508 		movq	8(%rbp), %rax
 1612 0a0d 488D7001 		leaq	1(%rax), %rsi
 474:Src/findwayBases.cpp ****     end->targets = (struct graphPoint**)realloc(end->targets, (++(end->numOfTargets)) * sizeof(stru
 1613              		.loc 1 474 18 view .LVU511
 1614 0a11 48897508 		movq	%rsi, 8(%rbp)
 474:Src/findwayBases.cpp ****     end->targets = (struct graphPoint**)realloc(end->targets, (++(end->numOfTargets)) * sizeof(stru
 1615              		.loc 1 474 54 view .LVU512
 1616 0a15 488B7D00 		movq	0(%rbp), %rdi
 474:Src/findwayBases.cpp ****     end->targets = (struct graphPoint**)realloc(end->targets, (++(end->numOfTargets)) * sizeof(stru
 1617              		.loc 1 474 48 view .LVU513
 1618 0a19 48C1E603 		salq	$3, %rsi
 1619 0a1d E8000000 		call	realloc@PLT
 1619      00
 1620              	.LVL142:
 474:Src/findwayBases.cpp ****     end->targets = (struct graphPoint**)realloc(end->targets, (++(end->numOfTargets)) * sizeof(stru
 1621              		.loc 1 474 18 view .LVU514
 1622 0a22 48894500 		movq	%rax, 0(%rbp)
 475:Src/findwayBases.cpp ****     end->targets[end->numOfTargets - 1] = start;
 1623              		.loc 1 475 5 is_stmt 1 view .LVU515
 475:Src/findwayBases.cpp ****     end->targets[end->numOfTargets - 1] = start;
 1624              		.loc 1 475 23 is_stmt 0 view .LVU516
 1625 0a26 488B5508 		movq	8(%rbp), %rdx
 475:Src/findwayBases.cpp ****     end->targets[end->numOfTargets - 1] = start;
 1626              		.loc 1 475 41 view .LVU517
 1627 0a2a 48895CD0 		movq	%rbx, -8(%rax,%rdx,8)
 1627      F8
 1628 0a2f E975FFFF 		jmp	.L151
 1628      FF
 1629              		.cfi_endproc
 1630              	.LFE1741:
 1632              		.globl	_Z11getWayPriceP10graphPointS0_
 1634              	_Z11getWayPriceP10graphPointS0_:
 1635              	.LVL143:
 1636              	.LFB1742:
 480:Src/findwayBases.cpp **** {
 1637              		.loc 1 480 1 is_stmt 1 view -0
GAS LISTING /tmp/ccC5Gb9O.s 			page 78


 1638              		.cfi_startproc
 480:Src/findwayBases.cpp **** {
 1639              		.loc 1 480 1 is_stmt 0 view .LVU519
 1640 0a34 55       		pushq	%rbp
 1641              		.cfi_def_cfa_offset 16
 1642              		.cfi_offset 6, -16
 1643 0a35 53       		pushq	%rbx
 1644              		.cfi_def_cfa_offset 24
 1645              		.cfi_offset 3, -24
 1646 0a36 4883EC18 		subq	$24, %rsp
 1647              		.cfi_def_cfa_offset 48
 1648 0a3a 4889FD   		movq	%rdi, %rbp
 1649 0a3d 4889F3   		movq	%rsi, %rbx
 481:Src/findwayBases.cpp ****     return sqrt(pow(start->c.x - end->c.x, 2) + pow(start->c.y - end->c.y, 2));
 1650              		.loc 1 481 5 is_stmt 1 view .LVU520
 481:Src/findwayBases.cpp ****     return sqrt(pow(start->c.x - end->c.x, 2) + pow(start->c.y - end->c.y, 2));
 1651              		.loc 1 481 30 is_stmt 0 view .LVU521
 1652 0a40 F30F1047 		movss	16(%rdi), %xmm0
 1652      10
 481:Src/findwayBases.cpp ****     return sqrt(pow(start->c.x - end->c.x, 2) + pow(start->c.y - end->c.y, 2));
 1653              		.loc 1 481 20 view .LVU522
 1654 0a45 F30F5C46 		subss	16(%rsi), %xmm0
 1654      10
 1655              	.LVL144:
 1656              	.LBB116:
 1657              	.LBI116:
 415:/usr/include/c++/9.2.0/cmath ****     {
 1658              		.loc 4 415 5 is_stmt 1 view .LVU523
 1659              	.LBB117:
 418:/usr/include/c++/9.2.0/cmath ****     }
 1660              		.loc 4 418 17 is_stmt 0 view .LVU524
 1661 0a4a F30F5AC0 		cvtss2sd	%xmm0, %xmm0
 1662              	.LVL145:
 418:/usr/include/c++/9.2.0/cmath ****     }
 1663              		.loc 4 418 17 view .LVU525
 1664 0a4e 488B0500 		movq	.LC9(%rip), %rax
 1664      000000
 1665 0a55 66480F6E 		movq	%rax, %xmm1
 1665      C8
 1666 0a5a E8000000 		call	pow@PLT
 1666      00
 1667              	.LVL146:
 418:/usr/include/c++/9.2.0/cmath ****     }
 1668              		.loc 4 418 17 view .LVU526
 1669 0a5f F20F1144 		movsd	%xmm0, 8(%rsp)
 1669      2408
 1670              	.LVL147:
 418:/usr/include/c++/9.2.0/cmath ****     }
 1671              		.loc 4 418 17 view .LVU527
 1672              	.LBE117:
 1673              	.LBE116:
 481:Src/findwayBases.cpp ****     return sqrt(pow(start->c.x - end->c.x, 2) + pow(start->c.y - end->c.y, 2));
 1674              		.loc 1 481 62 view .LVU528
 1675 0a65 F30F1045 		movss	20(%rbp), %xmm0
 1675      14
 481:Src/findwayBases.cpp ****     return sqrt(pow(start->c.x - end->c.x, 2) + pow(start->c.y - end->c.y, 2));
 1676              		.loc 1 481 52 view .LVU529
GAS LISTING /tmp/ccC5Gb9O.s 			page 79


 1677 0a6a F30F5C43 		subss	20(%rbx), %xmm0
 1677      14
 1678              	.LVL148:
 1679              	.LBB118:
 1680              	.LBI118:
 415:/usr/include/c++/9.2.0/cmath ****     {
 1681              		.loc 4 415 5 is_stmt 1 view .LVU530
 1682              	.LBB119:
 418:/usr/include/c++/9.2.0/cmath ****     }
 1683              		.loc 4 418 17 is_stmt 0 view .LVU531
 1684 0a6f F30F5AC0 		cvtss2sd	%xmm0, %xmm0
 1685              	.LVL149:
 418:/usr/include/c++/9.2.0/cmath ****     }
 1686              		.loc 4 418 17 view .LVU532
 1687 0a73 488B0500 		movq	.LC9(%rip), %rax
 1687      000000
 1688 0a7a 66480F6E 		movq	%rax, %xmm1
 1688      C8
 1689 0a7f E8000000 		call	pow@PLT
 1689      00
 1690              	.LVL150:
 418:/usr/include/c++/9.2.0/cmath ****     }
 1691              		.loc 4 418 17 view .LVU533
 1692              	.LBE119:
 1693              	.LBE118:
 481:Src/findwayBases.cpp ****     return sqrt(pow(start->c.x - end->c.x, 2) + pow(start->c.y - end->c.y, 2));
 1694              		.loc 1 481 16 view .LVU534
 1695 0a84 F20F5844 		addsd	8(%rsp), %xmm0
 1695      2408
 1696 0a8a E8000000 		call	sqrt@PLT
 1696      00
 1697              	.LVL151:
 481:Src/findwayBases.cpp ****     return sqrt(pow(start->c.x - end->c.x, 2) + pow(start->c.y - end->c.y, 2));
 1698              		.loc 1 481 78 view .LVU535
 1699 0a8f F20F5AC0 		cvtsd2ss	%xmm0, %xmm0
 482:Src/findwayBases.cpp **** }
 1700              		.loc 1 482 1 view .LVU536
 1701 0a93 4883C418 		addq	$24, %rsp
 1702              		.cfi_def_cfa_offset 24
 1703 0a97 5B       		popq	%rbx
 1704              		.cfi_def_cfa_offset 16
 1705              	.LVL152:
 482:Src/findwayBases.cpp **** }
 1706              		.loc 1 482 1 view .LVU537
 1707 0a98 5D       		popq	%rbp
 1708              		.cfi_def_cfa_offset 8
 1709              	.LVL153:
 482:Src/findwayBases.cpp **** }
 1710              		.loc 1 482 1 view .LVU538
 1711 0a99 C3       		ret
 1712              		.cfi_endproc
 1713              	.LFE1742:
 1715              		.globl	_Z11getWayPriceP6coordsS0_
 1717              	_Z11getWayPriceP6coordsS0_:
 1718              	.LVL154:
 1719              	.LFB1744:
 485:Src/findwayBases.cpp **** {
GAS LISTING /tmp/ccC5Gb9O.s 			page 80


 1720              		.loc 1 485 1 is_stmt 1 view -0
 1721              		.cfi_startproc
 485:Src/findwayBases.cpp **** {
 1722              		.loc 1 485 1 is_stmt 0 view .LVU540
 1723 0a9a 55       		pushq	%rbp
 1724              		.cfi_def_cfa_offset 16
 1725              		.cfi_offset 6, -16
 1726 0a9b 53       		pushq	%rbx
 1727              		.cfi_def_cfa_offset 24
 1728              		.cfi_offset 3, -24
 1729 0a9c 4883EC18 		subq	$24, %rsp
 1730              		.cfi_def_cfa_offset 48
 1731 0aa0 4889FD   		movq	%rdi, %rbp
 1732 0aa3 4889F3   		movq	%rsi, %rbx
 486:Src/findwayBases.cpp ****     return sqrt(pow(start->x - end->x, 2) + pow(start->y - end->y, 2));
 1733              		.loc 1 486 5 is_stmt 1 view .LVU541
 486:Src/findwayBases.cpp ****     return sqrt(pow(start->x - end->x, 2) + pow(start->y - end->y, 2));
 1734              		.loc 1 486 28 is_stmt 0 view .LVU542
 1735 0aa6 F30F1007 		movss	(%rdi), %xmm0
 486:Src/findwayBases.cpp ****     return sqrt(pow(start->x - end->x, 2) + pow(start->y - end->y, 2));
 1736              		.loc 1 486 20 view .LVU543
 1737 0aaa F30F5C06 		subss	(%rsi), %xmm0
 1738              	.LVL155:
 1739              	.LBB120:
 1740              	.LBI120:
 415:/usr/include/c++/9.2.0/cmath ****     {
 1741              		.loc 4 415 5 is_stmt 1 view .LVU544
 1742              	.LBB121:
 418:/usr/include/c++/9.2.0/cmath ****     }
 1743              		.loc 4 418 17 is_stmt 0 view .LVU545
 1744 0aae F30F5AC0 		cvtss2sd	%xmm0, %xmm0
 1745              	.LVL156:
 418:/usr/include/c++/9.2.0/cmath ****     }
 1746              		.loc 4 418 17 view .LVU546
 1747 0ab2 488B0500 		movq	.LC9(%rip), %rax
 1747      000000
 1748 0ab9 66480F6E 		movq	%rax, %xmm1
 1748      C8
 1749 0abe E8000000 		call	pow@PLT
 1749      00
 1750              	.LVL157:
 418:/usr/include/c++/9.2.0/cmath ****     }
 1751              		.loc 4 418 17 view .LVU547
 1752 0ac3 F20F1144 		movsd	%xmm0, 8(%rsp)
 1752      2408
 1753              	.LVL158:
 418:/usr/include/c++/9.2.0/cmath ****     }
 1754              		.loc 4 418 17 view .LVU548
 1755              	.LBE121:
 1756              	.LBE120:
 486:Src/findwayBases.cpp ****     return sqrt(pow(start->x - end->x, 2) + pow(start->y - end->y, 2));
 1757              		.loc 1 486 56 view .LVU549
 1758 0ac9 F30F1045 		movss	4(%rbp), %xmm0
 1758      04
 486:Src/findwayBases.cpp ****     return sqrt(pow(start->x - end->x, 2) + pow(start->y - end->y, 2));
 1759              		.loc 1 486 48 view .LVU550
 1760 0ace F30F5C43 		subss	4(%rbx), %xmm0
GAS LISTING /tmp/ccC5Gb9O.s 			page 81


 1760      04
 1761              	.LVL159:
 1762              	.LBB122:
 1763              	.LBI122:
 415:/usr/include/c++/9.2.0/cmath ****     {
 1764              		.loc 4 415 5 is_stmt 1 view .LVU551
 1765              	.LBB123:
 418:/usr/include/c++/9.2.0/cmath ****     }
 1766              		.loc 4 418 17 is_stmt 0 view .LVU552
 1767 0ad3 F30F5AC0 		cvtss2sd	%xmm0, %xmm0
 1768              	.LVL160:
 418:/usr/include/c++/9.2.0/cmath ****     }
 1769              		.loc 4 418 17 view .LVU553
 1770 0ad7 488B0500 		movq	.LC9(%rip), %rax
 1770      000000
 1771 0ade 66480F6E 		movq	%rax, %xmm1
 1771      C8
 1772 0ae3 E8000000 		call	pow@PLT
 1772      00
 1773              	.LVL161:
 418:/usr/include/c++/9.2.0/cmath ****     }
 1774              		.loc 4 418 17 view .LVU554
 1775              	.LBE123:
 1776              	.LBE122:
 486:Src/findwayBases.cpp ****     return sqrt(pow(start->x - end->x, 2) + pow(start->y - end->y, 2));
 1777              		.loc 1 486 16 view .LVU555
 1778 0ae8 F20F5844 		addsd	8(%rsp), %xmm0
 1778      2408
 1779 0aee E8000000 		call	sqrt@PLT
 1779      00
 1780              	.LVL162:
 486:Src/findwayBases.cpp ****     return sqrt(pow(start->x - end->x, 2) + pow(start->y - end->y, 2));
 1781              		.loc 1 486 70 view .LVU556
 1782 0af3 F20F5AC0 		cvtsd2ss	%xmm0, %xmm0
 1783              		.loc 1 487 1 view .LVU557
 1784 0af7 4883C418 		addq	$24, %rsp
 1785              		.cfi_def_cfa_offset 24
 1786 0afb 5B       		popq	%rbx
 1787              		.cfi_def_cfa_offset 16
 1788              	.LVL163:
 1789              		.loc 1 487 1 view .LVU558
 1790 0afc 5D       		popq	%rbp
 1791              		.cfi_def_cfa_offset 8
 1792              	.LVL164:
 1793              		.loc 1 487 1 view .LVU559
 1794 0afd C3       		ret
 1795              		.cfi_endproc
 1796              	.LFE1744:
 1799              	_GLOBAL__sub_I__Z15hasIntersectionPK8baselineS1_:
 1800              	.LFB2078:
 1801              		.loc 1 487 1 is_stmt 1 view -0
 1802              		.cfi_startproc
 1803 0afe 4883EC08 		subq	$8, %rsp
 1804              		.cfi_def_cfa_offset 16
 1805              		.loc 1 487 1 is_stmt 0 view .LVU561
 1806 0b02 BEFFFF00 		movl	$65535, %esi
 1806      00
GAS LISTING /tmp/ccC5Gb9O.s 			page 82


 1807 0b07 BF010000 		movl	$1, %edi
 1807      00
 1808 0b0c E8EFF4FF 		call	_Z41__static_initialization_and_destruction_0ii
 1808      FF
 1809              	.LVL165:
 1810 0b11 4883C408 		addq	$8, %rsp
 1811              		.cfi_def_cfa_offset 8
 1812 0b15 C3       		ret
 1813              		.cfi_endproc
 1814              	.LFE2078:
 1816              		.section	.init_array,"aw"
 1817              		.align 8
 1818 0000 00000000 		.quad	_GLOBAL__sub_I__Z15hasIntersectionPK8baselineS1_
 1818      00000000 
 1819              		.local	_ZStL8__ioinit
 1820              		.comm	_ZStL8__ioinit,1,1
 1821              		.section	.rodata.cst4,"aM",@progbits,4
 1822              		.align 4
 1823              	.LC0:
 1824 0000 00000000 		.long	0
 1825              		.section	.rodata.cst16,"aM",@progbits,16
 1826              		.align 16
 1827              	.LC1:
 1828 0000 FFFFFF7F 		.long	2147483647
 1829 0004 00000000 		.long	0
 1830 0008 00000000 		.long	0
 1831 000c 00000000 		.long	0
 1832              		.section	.rodata.cst8,"aM",@progbits,8
 1833              		.align 8
 1834              	.LC2:
 1835 0000 00000000 		.long	0
 1836 0004 0000F03F 		.long	1072693248
 1837              		.align 8
 1838              	.LC3:
 1839 0008 00000000 		.long	0
 1840 000c 00000000 		.long	0
 1841              		.section	.rodata.cst4
 1842              		.align 4
 1843              	.LC4:
 1844 0004 0000803F 		.long	1065353216
 1845              		.section	.rodata.cst8
 1846              		.align 8
 1847              	.LC5:
 1848 0010 9A999999 		.long	2576980378
 1849 0014 9999D93F 		.long	1071225241
 1850              		.align 8
 1851              	.LC9:
 1852 0018 00000000 		.long	0
 1853 001c 00000040 		.long	1073741824
 1854              		.text
 1855              	.Letext0:
 1856              		.file 8 "/usr/include/c++/9.2.0/bits/basic_string.h"
 1857              		.file 9 "/usr/include/c++/9.2.0/cwchar"
 1858              		.file 10 "/usr/include/c++/9.2.0/new"
 1859              		.file 11 "/usr/include/c++/9.2.0/bits/exception_ptr.h"
 1860              		.file 12 "/usr/include/c++/9.2.0/x86_64-pc-linux-gnu/bits/c++config.h"
 1861              		.file 13 "/usr/include/c++/9.2.0/type_traits"
GAS LISTING /tmp/ccC5Gb9O.s 			page 83


 1862              		.file 14 "/usr/include/c++/9.2.0/bits/stl_pair.h"
 1863              		.file 15 "/usr/include/c++/9.2.0/debug/debug.h"
 1864              		.file 16 "/usr/include/c++/9.2.0/cstdint"
 1865              		.file 17 "/usr/include/c++/9.2.0/clocale"
 1866              		.file 18 "/usr/include/c++/9.2.0/bits/allocator.h"
 1867              		.file 19 "/usr/include/c++/9.2.0/cstdlib"
 1868              		.file 20 "/usr/include/c++/9.2.0/cstdio"
 1869              		.file 21 "/usr/include/c++/9.2.0/bits/alloc_traits.h"
 1870              		.file 22 "/usr/include/c++/9.2.0/initializer_list"
 1871              		.file 23 "/usr/include/c++/9.2.0/bits/stringfwd.h"
 1872              		.file 24 "/usr/include/c++/9.2.0/system_error"
 1873              		.file 25 "/usr/include/c++/9.2.0/bits/ios_base.h"
 1874              		.file 26 "/usr/include/c++/9.2.0/cwctype"
 1875              		.file 27 "/usr/include/c++/9.2.0/iosfwd"
 1876              		.file 28 "/usr/include/c++/9.2.0/bits/stl_iterator_base_types.h"
 1877              		.file 29 "/usr/include/c++/9.2.0/bits/basic_ios.h"
 1878              		.file 30 "/usr/include/c++/9.2.0/bits/predefined_ops.h"
 1879              		.file 31 "/usr/include/c++/9.2.0/ext/new_allocator.h"
 1880              		.file 32 "/usr/include/c++/9.2.0/ext/numeric_traits.h"
 1881              		.file 33 "/usr/include/c++/9.2.0/ext/alloc_traits.h"
 1882              		.file 34 "/usr/include/c++/9.2.0/bits/stl_iterator.h"
 1883              		.file 35 "/usr/include/c++/9.2.0/ext/type_traits.h"
 1884              		.file 36 "/usr/lib/gcc/x86_64-pc-linux-gnu/9.2.0/include/stddef.h"
 1885              		.file 37 "<built-in>"
 1886              		.file 38 "/usr/include/bits/types/wint_t.h"
 1887              		.file 39 "/usr/include/bits/types/__mbstate_t.h"
 1888              		.file 40 "/usr/include/bits/types/mbstate_t.h"
 1889              		.file 41 "/usr/include/bits/types/__FILE.h"
 1890              		.file 42 "/usr/include/bits/types/struct_FILE.h"
 1891              		.file 43 "/usr/include/bits/types/FILE.h"
 1892              		.file 44 "/usr/include/wchar.h"
 1893              		.file 45 "/usr/include/bits/types/struct_tm.h"
 1894              		.file 46 "/usr/include/bits/types.h"
 1895              		.file 47 "/usr/include/bits/stdint-intn.h"
 1896              		.file 48 "/usr/include/bits/stdint-uintn.h"
 1897              		.file 49 "/usr/include/stdint.h"
 1898              		.file 50 "/usr/include/locale.h"
 1899              		.file 51 "/usr/include/time.h"
 1900              		.file 52 "/usr/include/c++/9.2.0/x86_64-pc-linux-gnu/bits/atomic_word.h"
 1901              		.file 53 "/usr/include/stdlib.h"
 1902              		.file 54 "/usr/include/bits/stdlib-float.h"
 1903              		.file 55 "/usr/include/bits/stdlib-bsearch.h"
 1904              		.file 56 "/usr/include/bits/types/__fpos_t.h"
 1905              		.file 57 "/usr/include/stdio.h"
 1906              		.file 58 "/usr/include/bits/sys_errlist.h"
 1907              		.file 59 "/usr/include/bits/stdio.h"
 1908              		.file 60 "/usr/include/errno.h"
 1909              		.file 61 "/usr/include/bits/wctype-wchar.h"
 1910              		.file 62 "/usr/include/wctype.h"
 1911              		.file 63 "/usr/include/math.h"
 1912              		.file 64 "/usr/include/c++/9.2.0/math.h"
 1913              		.file 65 "/usr/include/bits/mathcalls.h"
 1914              		.file 66 "/usr/include/c++/9.2.0/bits/ostream_insert.h"
GAS LISTING /tmp/ccC5Gb9O.s 			page 84


DEFINED SYMBOLS
                            *ABS*:0000000000000000 findwayBases.cpp
     /tmp/ccC5Gb9O.s:5      .text:0000000000000000 _Z41__static_initialization_and_destruction_0ii
                             .bss:0000000000000000 _ZStL8__ioinit
     /tmp/ccC5Gb9O.s:45     .text:000000000000003d _Z15hasIntersectionPK8baselineS1_
     /tmp/ccC5Gb9O.s:65     .text:0000000000000050 _Z15getIntersectionPK8baselineS1_
     /tmp/ccC5Gb9O.s:220    .text:0000000000000140 _Z15isCoDirectionalPK4vectPK6coords
     /tmp/ccC5Gb9O.s:297    .text:00000000000001c5 _Z11isDotInsidePK6coordsPK8obstacle
     /tmp/ccC5Gb9O.s:352    .text:0000000000000219 _Z14vectToBaselinePK4vect
     /tmp/ccC5Gb9O.s:405    .text:0000000000000265 _Z6getLenPK6coordsS1_
     /tmp/ccC5Gb9O.s:455    .text:0000000000000291 _Z6getLenPK4vect
     /tmp/ccC5Gb9O.s:494    .text:00000000000002b5 _Z15getIntersectionPK8obstaclePK4vect
     /tmp/ccC5Gb9O.s:973    .text:00000000000006a4 _Z12createCoordsff
     /tmp/ccC5Gb9O.s:1001   .text:00000000000006bc _Z17getCoordsOfCornerPK8obstacleh
     /tmp/ccC5Gb9O.s:1165   .text:00000000000007e9 _Z14createObstaclefff
     /tmp/ccC5Gb9O.s:1275   .text:0000000000000889 _Z8getPointPK8obstacleh
     /tmp/ccC5Gb9O.s:1292   .text:0000000000000893 _Z15hasIntersectionPK8obstaclePK4vect
     /tmp/ccC5Gb9O.s:1414   .text:0000000000000931 _Z9addTargetP10graphPointS0_
     /tmp/ccC5Gb9O.s:1634   .text:0000000000000a34 _Z11getWayPriceP10graphPointS0_
     /tmp/ccC5Gb9O.s:1717   .text:0000000000000a9a _Z11getWayPriceP6coordsS0_
     /tmp/ccC5Gb9O.s:1799   .text:0000000000000afe _GLOBAL__sub_I__Z15hasIntersectionPK8baselineS1_
     /tmp/ccC5Gb9O.s:1827   .rodata.cst16:0000000000000000 .LC1
     /tmp/ccC5Gb9O.s:1834   .rodata.cst8:0000000000000000 .LC2
     /tmp/ccC5Gb9O.s:1838   .rodata.cst8:0000000000000008 .LC3
     /tmp/ccC5Gb9O.s:1823   .rodata.cst4:0000000000000000 .LC0
     /tmp/ccC5Gb9O.s:1843   .rodata.cst4:0000000000000004 .LC4
     /tmp/ccC5Gb9O.s:1847   .rodata.cst8:0000000000000010 .LC5
     /tmp/ccC5Gb9O.s:1405   .rodata.str1.1:0000000000000000 .LC6
     /tmp/ccC5Gb9O.s:1407   .rodata.str1.1:000000000000000c .LC7
     /tmp/ccC5Gb9O.s:1409   .rodata.str1.1:0000000000000013 .LC8
     /tmp/ccC5Gb9O.s:1851   .rodata.cst8:0000000000000018 .LC9

UNDEFINED SYMBOLS
_GLOBAL_OFFSET_TABLE_
_ZNSt8ios_base4InitC1Ev
__dso_handle
_ZNSt8ios_base4InitD1Ev
__cxa_atexit
sqrtf
__stack_chk_fail
malloc
_ZSt4cout
_ZSt16__ostream_insertIcSt11char_traitsIcEERSt13basic_ostreamIT_T0_ES6_PKS3_l
realloc
pow
sqrt
