GAS LISTING /tmp/ccKMsxGX.s 			page 1


   1              		.file	"findwayBases.cpp"
   2              		.text
   4              	_Z41__static_initialization_and_destruction_0ii:
   5              	.LFB2044:
   6              		.cfi_startproc
   7 0000 83FF01   		cmpl	$1, %edi
   8 0003 7401     		je	.L7
   9              	.L4:
  10 0005 C3       		ret
  11              	.L7:
  12 0006 81FEFFFF 		cmpl	$65535, %esi
  12      0000
  13 000c 75F7     		jne	.L4
  14 000e 4883EC08 		subq	$8, %rsp
  15              		.cfi_def_cfa_offset 16
  16 0012 488D3D00 		leaq	_ZStL8__ioinit(%rip), %rdi
  16      000000
  17 0019 E8000000 		call	_ZNSt8ios_base4InitC1Ev@PLT
  17      00
  18 001e 488D1500 		leaq	__dso_handle(%rip), %rdx
  18      000000
  19 0025 488D3500 		leaq	_ZStL8__ioinit(%rip), %rsi
  19      000000
  20 002c 488B3D00 		movq	_ZNSt8ios_base4InitD1Ev@GOTPCREL(%rip), %rdi
  20      000000
  21 0033 E8000000 		call	__cxa_atexit@PLT
  21      00
  22 0038 4883C408 		addq	$8, %rsp
  23              		.cfi_def_cfa_offset 8
  24 003c C3       		ret
  25              		.cfi_endproc
  26              	.LFE2044:
  28              		.globl	_Z15hasIntersectionPK8baselineS1_
  30              	_Z15hasIntersectionPK8baselineS1_:
  31              	.LFB1718:
  32              		.cfi_startproc
  33 003d F30F1007 		movss	(%rdi), %xmm0
  34 0041 0F2E06   		ucomiss	(%rsi), %xmm0
  35 0044 0F9AC0   		setp	%al
  36 0047 BA010000 		movl	$1, %edx
  36      00
  37 004c 0F45C2   		cmovne	%edx, %eax
  38 004f C3       		ret
  39              		.cfi_endproc
  40              	.LFE1718:
  42              		.globl	_Z15getIntersectionPK8baselineS1_
  44              	_Z15getIntersectionPK8baselineS1_:
  45              	.LFB1719:
  46              		.cfi_startproc
  47 0050 F30F105E 		movss	4(%rsi), %xmm3
  47      04
  48 0055 F30F1047 		movss	4(%rdi), %xmm0
  48      04
  49 005a 0F28CB   		movaps	%xmm3, %xmm1
  50 005d F30F5CC8 		subss	%xmm0, %xmm1
  51 0061 F30F1027 		movss	(%rdi), %xmm4
  52 0065 F30F1016 		movss	(%rsi), %xmm2
GAS LISTING /tmp/ccKMsxGX.s 			page 2


  53 0069 0F28EC   		movaps	%xmm4, %xmm5
  54 006c F30F5CEA 		subss	%xmm2, %xmm5
  55 0070 F30F5ECD 		divss	%xmm5, %xmm1
  56 0074 F30F59C2 		mulss	%xmm2, %xmm0
  57 0078 F30F59DC 		mulss	%xmm4, %xmm3
  58 007c F30F5CC3 		subss	%xmm3, %xmm0
  59 0080 F30F5CD4 		subss	%xmm4, %xmm2
  60 0084 F30F5EC2 		divss	%xmm2, %xmm0
  61 0088 66480F7E 		movq	%xmm0, %rax
  61      C0
  62 008d 48C1E020 		salq	$32, %rax
  63 0091 660F7ECA 		movd	%xmm1, %edx
  64 0095 4809D0   		orq	%rdx, %rax
  65 0098 66480F6E 		movq	%rax, %xmm0
  65      C0
  66 009d C3       		ret
  67              		.cfi_endproc
  68              	.LFE1719:
  70              		.globl	_Z11isDotInsidePK6coordsPK8obstacle
  72              	_Z11isDotInsidePK6coordsPK8obstacle:
  73              	.LFB1721:
  74              		.cfi_startproc
  75 009e F30F100F 		movss	(%rdi), %xmm1
  76 00a2 488B06   		movq	(%rsi), %rax
  77 00a5 F30F1000 		movss	(%rax), %xmm0
  78 00a9 0F2FC8   		comiss	%xmm0, %xmm1
  79 00ac 722C     		jb	.L22
  80 00ae F30F1056 		movss	40(%rsi), %xmm2
  80      28
  81 00b3 F30F58C2 		addss	%xmm2, %xmm0
  82 00b7 0F2FC1   		comiss	%xmm1, %xmm0
  83 00ba 7224     		jb	.L23
  84 00bc F30F1047 		movss	4(%rdi), %xmm0
  84      04
  85 00c1 F30F1048 		movss	4(%rax), %xmm1
  85      04
  86 00c6 0F2FC1   		comiss	%xmm1, %xmm0
  87 00c9 721B     		jb	.L24
  88 00cb F30F58D1 		addss	%xmm1, %xmm2
  89 00cf 0F2FD0   		comiss	%xmm0, %xmm2
  90 00d2 7318     		jnb	.L18
  91 00d4 B8000000 		movl	$0, %eax
  91      00
  92 00d9 C3       		ret
  93              	.L22:
  94 00da B8000000 		movl	$0, %eax
  94      00
  95 00df C3       		ret
  96              	.L23:
  97 00e0 B8000000 		movl	$0, %eax
  97      00
  98 00e5 C3       		ret
  99              	.L24:
 100 00e6 B8000000 		movl	$0, %eax
 100      00
 101 00eb C3       		ret
 102              	.L18:
GAS LISTING /tmp/ccKMsxGX.s 			page 3


 103 00ec B8010000 		movl	$1, %eax
 103      00
 104 00f1 C3       		ret
 105              		.cfi_endproc
 106              	.LFE1721:
 108              		.globl	_Z14vectToBaselinePK4vect
 110              	_Z14vectToBaselinePK4vect:
 111              	.LFB1722:
 112              		.cfi_startproc
 113 00f2 F30F1047 		movss	12(%rdi), %xmm0
 113      0C
 114 00f7 F30F5E47 		divss	8(%rdi), %xmm0
 114      08
 115 00fc 488B07   		movq	(%rdi), %rax
 116 00ff 8B4004   		movl	4(%rax), %eax
 117 0102 48C1E020 		salq	$32, %rax
 118 0106 4889C2   		movq	%rax, %rdx
 119 0109 660F7EC0 		movd	%xmm0, %eax
 120 010d 4809D0   		orq	%rdx, %rax
 121 0110 66480F6E 		movq	%rax, %xmm0
 121      C0
 122 0115 C3       		ret
 123              		.cfi_endproc
 124              	.LFE1722:
 126              		.globl	_Z6getLenPK6coordsS1_
 128              	_Z6getLenPK6coordsS1_:
 129              	.LFB1723:
 130              		.cfi_startproc
 131 0116 4883EC08 		subq	$8, %rsp
 132              		.cfi_def_cfa_offset 16
 133 011a F30F1007 		movss	(%rdi), %xmm0
 134 011e F30F100E 		movss	(%rsi), %xmm1
 135 0122 0F28D0   		movaps	%xmm0, %xmm2
 136 0125 F30F59D1 		mulss	%xmm1, %xmm2
 137 0129 F30F5CC2 		subss	%xmm2, %xmm0
 138 012d F30F5CC1 		subss	%xmm1, %xmm0
 139 0131 F30F104F 		movss	4(%rdi), %xmm1
 139      04
 140 0136 F30F1056 		movss	4(%rsi), %xmm2
 140      04
 141 013b 0F28D9   		movaps	%xmm1, %xmm3
 142 013e F30F59DA 		mulss	%xmm2, %xmm3
 143 0142 F30F5CCB 		subss	%xmm3, %xmm1
 144 0146 F30F5CCA 		subss	%xmm2, %xmm1
 145 014a F30F58C1 		addss	%xmm1, %xmm0
 146 014e E8000000 		call	sqrtf@PLT
 146      00
 147 0153 4883C408 		addq	$8, %rsp
 148              		.cfi_def_cfa_offset 8
 149 0157 C3       		ret
 150              		.cfi_endproc
 151              	.LFE1723:
 153              		.globl	_Z12createCoordsff
 155              	_Z12createCoordsff:
 156              	.LFB1724:
 157              		.cfi_startproc
 158 0158 660F7EC8 		movd	%xmm1, %eax
GAS LISTING /tmp/ccKMsxGX.s 			page 4


 159 015c 4889C2   		movq	%rax, %rdx
 160 015f 48C1E220 		salq	$32, %rdx
 161 0163 660F7EC0 		movd	%xmm0, %eax
 162 0167 4809D0   		orq	%rdx, %rax
 163 016a 66480F6E 		movq	%rax, %xmm0
 163      C0
 164 016f C3       		ret
 165              		.cfi_endproc
 166              	.LFE1724:
 168              		.globl	_Z15getIntersectionPK4vectPK8obstacle
 170              	_Z15getIntersectionPK4vectPK8obstacle:
 171              	.LFB1720:
 172              		.cfi_startproc
 173 0170 4156     		pushq	%r14
 174              		.cfi_def_cfa_offset 16
 175              		.cfi_offset 14, -16
 176 0172 4155     		pushq	%r13
 177              		.cfi_def_cfa_offset 24
 178              		.cfi_offset 13, -24
 179 0174 4154     		pushq	%r12
 180              		.cfi_def_cfa_offset 32
 181              		.cfi_offset 12, -32
 182 0176 55       		pushq	%rbp
 183              		.cfi_def_cfa_offset 40
 184              		.cfi_offset 6, -40
 185 0177 53       		pushq	%rbx
 186              		.cfi_def_cfa_offset 48
 187              		.cfi_offset 3, -48
 188 0178 4883EC40 		subq	$64, %rsp
 189              		.cfi_def_cfa_offset 112
 190 017c 4889FD   		movq	%rdi, %rbp
 191 017f 4889F3   		movq	%rsi, %rbx
 192 0182 64488B04 		movq	%fs:40, %rax
 192      25280000 
 192      00
 193 018b 48894424 		movq	%rax, 56(%rsp)
 193      38
 194 0190 31C0     		xorl	%eax, %eax
 195 0192 F30F1005 		movss	.LC0(%rip), %xmm0
 195      00000000 
 196 019a F30F5E05 		divss	.LC1(%rip), %xmm0
 196      00000000 
 197 01a2 F30F1144 		movss	%xmm0, 40(%rsp)
 197      2428
 198 01a8 4C8B36   		movq	(%rsi), %r14
 199 01ab F3410F10 		movss	(%r14), %xmm0
 199      06
 200 01b0 F30F1144 		movss	%xmm0, 44(%rsp)
 200      242C
 201 01b6 E8000000 		call	_Z14vectToBaselinePK4vect
 201      00
 202 01bb 660FD644 		movq	%xmm0, 48(%rsp)
 202      2430
 203 01c1 4C8D6C24 		leaq	48(%rsp), %r13
 203      30
 204 01c6 4C8D6424 		leaq	40(%rsp), %r12
 204      28
GAS LISTING /tmp/ccKMsxGX.s 			page 5


 205 01cb 4C89EE   		movq	%r13, %rsi
 206 01ce 4C89E7   		movq	%r12, %rdi
 207 01d1 E8000000 		call	_Z15getIntersectionPK8baselineS1_
 207      00
 208 01d6 660FD644 		movq	%xmm0, 16(%rsp)
 208      2410
 209 01dc F30F1043 		movss	40(%rbx), %xmm0
 209      28
 210 01e1 F3410F58 		addss	(%r14), %xmm0
 210      06
 211 01e6 F30F1144 		movss	%xmm0, 44(%rsp)
 211      242C
 212 01ec 4C89EE   		movq	%r13, %rsi
 213 01ef 4C89E7   		movq	%r12, %rdi
 214 01f2 E8000000 		call	_Z15getIntersectionPK8baselineS1_
 214      00
 215 01f7 660FD644 		movq	%xmm0, 24(%rsp)
 215      2418
 216 01fd 488D7C24 		leaq	16(%rsp), %rdi
 216      10
 217 0202 4889DE   		movq	%rbx, %rsi
 218 0205 E8000000 		call	_Z11isDotInsidePK6coordsPK8obstacle
 218      00
 219 020a 84C0     		testb	%al, %al
 220 020c 751B     		jne	.L30
 221 020e 488D7C24 		leaq	24(%rsp), %rdi
 221      18
 222 0213 4889DE   		movq	%rbx, %rsi
 223 0216 E8000000 		call	_Z11isDotInsidePK6coordsPK8obstacle
 223      00
 224 021b 84C0     		testb	%al, %al
 225 021d 740A     		je	.L30
 226 021f 488B4424 		movq	24(%rsp), %rax
 226      18
 227 0224 48894424 		movq	%rax, 16(%rsp)
 227      10
 228              	.L30:
 229 0229 C7442428 		movl	$0x00000000, 40(%rsp)
 229      00000000 
 230 0231 4C8B33   		movq	(%rbx), %r14
 231 0234 F3410F10 		movss	4(%r14), %xmm0
 231      4604
 232 023a F30F1144 		movss	%xmm0, 44(%rsp)
 232      242C
 233 0240 4C8D6C24 		leaq	48(%rsp), %r13
 233      30
 234 0245 4C8D6424 		leaq	40(%rsp), %r12
 234      28
 235 024a 4C89EE   		movq	%r13, %rsi
 236 024d 4C89E7   		movq	%r12, %rdi
 237 0250 E8000000 		call	_Z15getIntersectionPK8baselineS1_
 237      00
 238 0255 660FD644 		movq	%xmm0, 24(%rsp)
 238      2418
 239 025b F30F1043 		movss	40(%rbx), %xmm0
 239      28
 240 0260 F3410F58 		addss	4(%r14), %xmm0
GAS LISTING /tmp/ccKMsxGX.s 			page 6


 240      4604
 241 0266 F30F1144 		movss	%xmm0, 44(%rsp)
 241      242C
 242 026c 4C89EE   		movq	%r13, %rsi
 243 026f 4C89E7   		movq	%r12, %rdi
 244 0272 E8000000 		call	_Z15getIntersectionPK8baselineS1_
 244      00
 245 0277 660FD644 		movq	%xmm0, 32(%rsp)
 245      2420
 246 027d 488D7C24 		leaq	24(%rsp), %rdi
 246      18
 247 0282 4889DE   		movq	%rbx, %rsi
 248 0285 E8000000 		call	_Z11isDotInsidePK6coordsPK8obstacle
 248      00
 249 028a 84C0     		testb	%al, %al
 250 028c 751B     		jne	.L31
 251 028e 488D7C24 		leaq	32(%rsp), %rdi
 251      20
 252 0293 4889DE   		movq	%rbx, %rsi
 253 0296 E8000000 		call	_Z11isDotInsidePK6coordsPK8obstacle
 253      00
 254 029b 84C0     		testb	%al, %al
 255 029d 740A     		je	.L31
 256 029f 488B4424 		movq	32(%rsp), %rax
 256      20
 257 02a4 48894424 		movq	%rax, 24(%rsp)
 257      18
 258              	.L31:
 259 02a9 488D7C24 		leaq	16(%rsp), %rdi
 259      10
 260 02ae 4889DE   		movq	%rbx, %rsi
 261 02b1 E8000000 		call	_Z11isDotInsidePK6coordsPK8obstacle
 261      00
 262 02b6 84C0     		testb	%al, %al
 263 02b8 7532     		jne	.L32
 264 02ba 488D7C24 		leaq	24(%rsp), %rdi
 264      18
 265 02bf 4889DE   		movq	%rbx, %rsi
 266 02c2 E8000000 		call	_Z11isDotInsidePK6coordsPK8obstacle
 266      00
 267 02c7 84C0     		testb	%al, %al
 268 02c9 7519     		jne	.L33
 269 02cb 48BA0000 		movabsq	$-4647714815446351872, %rdx
 269      00000000 
 269      80BF
 270 02d5 B8000080 		movl	$3212836864, %eax
 270      BF
 271 02da 4809D0   		orq	%rdx, %rax
 272 02dd 66480F6E 		movq	%rax, %xmm0
 272      C0
 273 02e2 EB1F     		jmp	.L34
 274              	.L33:
 275 02e4 F30F7E44 		movq	24(%rsp), %xmm0
 275      2418
 276 02ea EB17     		jmp	.L34
 277              	.L32:
 278 02ec 488D7C24 		leaq	24(%rsp), %rdi
GAS LISTING /tmp/ccKMsxGX.s 			page 7


 278      18
 279 02f1 4889DE   		movq	%rbx, %rsi
 280 02f4 E8000000 		call	_Z11isDotInsidePK6coordsPK8obstacle
 280      00
 281 02f9 84C0     		testb	%al, %al
 282 02fb 7523     		jne	.L35
 283 02fd F30F7E44 		movq	16(%rsp), %xmm0
 283      2410
 284              	.L34:
 285 0303 488B4424 		movq	56(%rsp), %rax
 285      38
 286 0308 64483304 		xorq	%fs:40, %rax
 286      25280000 
 286      00
 287 0311 7565     		jne	.L42
 288 0313 4883C440 		addq	$64, %rsp
 289              		.cfi_remember_state
 290              		.cfi_def_cfa_offset 48
 291 0317 5B       		popq	%rbx
 292              		.cfi_def_cfa_offset 40
 293 0318 5D       		popq	%rbp
 294              		.cfi_def_cfa_offset 32
 295 0319 415C     		popq	%r12
 296              		.cfi_def_cfa_offset 24
 297 031b 415D     		popq	%r13
 298              		.cfi_def_cfa_offset 16
 299 031d 415E     		popq	%r14
 300              		.cfi_def_cfa_offset 8
 301 031f C3       		ret
 302              	.L35:
 303              		.cfi_restore_state
 304 0320 488B4500 		movq	0(%rbp), %rax
 305 0324 F30F1048 		movss	4(%rax), %xmm1
 305      04
 306 0329 F30F1000 		movss	(%rax), %xmm0
 307 032d E8000000 		call	_Z12createCoordsff
 307      00
 308 0332 660FD644 		movq	%xmm0, 32(%rsp)
 308      2420
 309 0338 488D7424 		leaq	16(%rsp), %rsi
 309      10
 310 033d 488D5C24 		leaq	32(%rsp), %rbx
 310      20
 311 0342 4889DF   		movq	%rbx, %rdi
 312 0345 E8000000 		call	_Z6getLenPK6coordsS1_
 312      00
 313 034a F30F1144 		movss	%xmm0, 12(%rsp)
 313      240C
 314 0350 488D7424 		leaq	24(%rsp), %rsi
 314      18
 315 0355 4889DF   		movq	%rbx, %rdi
 316 0358 E8000000 		call	_Z6getLenPK6coordsS1_
 316      00
 317 035d F30F1054 		movss	12(%rsp), %xmm2
 317      240C
 318 0363 0F2FD0   		comiss	%xmm0, %xmm2
 319 0366 7608     		jbe	.L40
GAS LISTING /tmp/ccKMsxGX.s 			page 8


 320 0368 F30F7E44 		movq	16(%rsp), %xmm0
 320      2410
 321 036e EB93     		jmp	.L34
 322              	.L40:
 323 0370 F30F7E44 		movq	24(%rsp), %xmm0
 323      2418
 324 0376 EB8B     		jmp	.L34
 325              	.L42:
 326 0378 E8000000 		call	__stack_chk_fail@PLT
 326      00
 327              		.cfi_endproc
 328              	.LFE1720:
 330              		.globl	_Z14createObstaclefff
 332              	_Z14createObstaclefff:
 333              	.LFB1725:
 334              		.cfi_startproc
 335 037d 4155     		pushq	%r13
 336              		.cfi_def_cfa_offset 16
 337              		.cfi_offset 13, -16
 338 037f 4154     		pushq	%r12
 339              		.cfi_def_cfa_offset 24
 340              		.cfi_offset 12, -24
 341 0381 55       		pushq	%rbp
 342              		.cfi_def_cfa_offset 32
 343              		.cfi_offset 6, -32
 344 0382 53       		pushq	%rbx
 345              		.cfi_def_cfa_offset 40
 346              		.cfi_offset 3, -40
 347 0383 4883EC08 		subq	$8, %rsp
 348              		.cfi_def_cfa_offset 48
 349 0387 4889FB   		movq	%rdi, %rbx
 350 038a 66410F7E 		movd	%xmm0, %r13d
 350      C5
 351 038f 66410F7E 		movd	%xmm1, %r12d
 351      CC
 352 0394 660F7ED5 		movd	%xmm2, %ebp
 353 0398 BF080000 		movl	$8, %edi
 353      00
 354 039d E8000000 		call	malloc@PLT
 354      00
 355 03a2 488903   		movq	%rax, (%rbx)
 356 03a5 448928   		movl	%r13d, (%rax)
 357 03a8 44896004 		movl	%r12d, 4(%rax)
 358 03ac 896B28   		movl	%ebp, 40(%rbx)
 359 03af 4889D8   		movq	%rbx, %rax
 360 03b2 4883C408 		addq	$8, %rsp
 361              		.cfi_def_cfa_offset 40
 362 03b6 5B       		popq	%rbx
 363              		.cfi_def_cfa_offset 32
 364 03b7 5D       		popq	%rbp
 365              		.cfi_def_cfa_offset 24
 366 03b8 415C     		popq	%r12
 367              		.cfi_def_cfa_offset 16
 368 03ba 415D     		popq	%r13
 369              		.cfi_def_cfa_offset 8
 370 03bc C3       		ret
 371              		.cfi_endproc
GAS LISTING /tmp/ccKMsxGX.s 			page 9


 372              	.LFE1725:
 374              		.globl	_Z17getCoordsOfCornerPK8obstacleh
 376              	_Z17getCoordsOfCornerPK8obstacleh:
 377              	.LFB1726:
 378              		.cfi_startproc
 379 03bd 55       		pushq	%rbp
 380              		.cfi_def_cfa_offset 16
 381              		.cfi_offset 6, -16
 382 03be 53       		pushq	%rbx
 383              		.cfi_def_cfa_offset 24
 384              		.cfi_offset 3, -24
 385 03bf 4883EC08 		subq	$8, %rsp
 386              		.cfi_def_cfa_offset 32
 387 03c3 4889FD   		movq	%rdi, %rbp
 388 03c6 89F3     		movl	%esi, %ebx
 389 03c8 BF080000 		movl	$8, %edi
 389      00
 390 03cd E8000000 		call	malloc@PLT
 390      00
 391 03d2 80FB02   		cmpb	$2, %bl
 392 03d5 7467     		je	.L46
 393 03d7 7726     		ja	.L47
 394 03d9 84DB     		testb	%bl, %bl
 395 03db 7444     		je	.L48
 396 03dd 80FB01   		cmpb	$1, %bl
 397 03e0 7555     		jne	.L45
 398 03e2 488B5500 		movq	0(%rbp), %rdx
 399 03e6 F30F1002 		movss	(%rdx), %xmm0
 400 03ea F30F1100 		movss	%xmm0, (%rax)
 401 03ee F30F1045 		movss	40(%rbp), %xmm0
 401      28
 402 03f3 F30F5842 		addss	4(%rdx), %xmm0
 402      04
 403 03f8 F30F1140 		movss	%xmm0, 4(%rax)
 403      04
 404 03fd EB38     		jmp	.L45
 405              	.L47:
 406 03ff 80FB03   		cmpb	$3, %bl
 407 0402 7533     		jne	.L45
 408 0404 488B5500 		movq	0(%rbp), %rdx
 409 0408 F30F1045 		movss	40(%rbp), %xmm0
 409      28
 410 040d F30F5802 		addss	(%rdx), %xmm0
 411 0411 F30F1100 		movss	%xmm0, (%rax)
 412 0415 F30F1042 		movss	4(%rdx), %xmm0
 412      04
 413 041a F30F1140 		movss	%xmm0, 4(%rax)
 413      04
 414 041f EB16     		jmp	.L45
 415              	.L48:
 416 0421 488B5500 		movq	0(%rbp), %rdx
 417 0425 F30F1002 		movss	(%rdx), %xmm0
 418 0429 F30F1100 		movss	%xmm0, (%rax)
 419 042d F30F1042 		movss	4(%rdx), %xmm0
 419      04
 420 0432 F30F1140 		movss	%xmm0, 4(%rax)
 420      04
GAS LISTING /tmp/ccKMsxGX.s 			page 10


 421              	.L45:
 422 0437 4883C408 		addq	$8, %rsp
 423              		.cfi_remember_state
 424              		.cfi_def_cfa_offset 24
 425 043b 5B       		popq	%rbx
 426              		.cfi_def_cfa_offset 16
 427 043c 5D       		popq	%rbp
 428              		.cfi_def_cfa_offset 8
 429 043d C3       		ret
 430              	.L46:
 431              		.cfi_restore_state
 432 043e 488B5500 		movq	0(%rbp), %rdx
 433 0442 F30F1045 		movss	40(%rbp), %xmm0
 433      28
 434 0447 0F28C8   		movaps	%xmm0, %xmm1
 435 044a F30F580A 		addss	(%rdx), %xmm1
 436 044e F30F1108 		movss	%xmm1, (%rax)
 437 0452 F30F5842 		addss	4(%rdx), %xmm0
 437      04
 438 0457 F30F1140 		movss	%xmm0, 4(%rax)
 438      04
 439 045c EBD9     		jmp	.L45
 440              		.cfi_endproc
 441              	.LFE1726:
 443              		.globl	_Z8getPointPK8obstacleh
 445              	_Z8getPointPK8obstacleh:
 446              	.LFB1727:
 447              		.cfi_startproc
 448 045e 400FB6F6 		movzbl	%sil, %esi
 449 0462 488B44F7 		movq	8(%rdi,%rsi,8), %rax
 449      08
 450 0467 C3       		ret
 451              		.cfi_endproc
 452              	.LFE1727:
 455              	_GLOBAL__sub_I__Z15hasIntersectionPK8baselineS1_:
 456              	.LFB2045:
 457              		.cfi_startproc
 458 0468 4883EC08 		subq	$8, %rsp
 459              		.cfi_def_cfa_offset 16
 460 046c BEFFFF00 		movl	$65535, %esi
 460      00
 461 0471 BF010000 		movl	$1, %edi
 461      00
 462 0476 E885FBFF 		call	_Z41__static_initialization_and_destruction_0ii
 462      FF
 463 047b 4883C408 		addq	$8, %rsp
 464              		.cfi_def_cfa_offset 8
 465 047f C3       		ret
 466              		.cfi_endproc
 467              	.LFE2045:
 469              		.section	.init_array,"aw"
 470              		.align 8
 471 0000 00000000 		.quad	_GLOBAL__sub_I__Z15hasIntersectionPK8baselineS1_
 471      00000000 
 472              		.local	_ZStL8__ioinit
 473              		.comm	_ZStL8__ioinit,1,1
 474              		.section	.rodata.cst4,"aM",@progbits,4
GAS LISTING /tmp/ccKMsxGX.s 			page 11


 475              		.align 4
 476              	.LC0:
 477 0000 0000803F 		.long	1065353216
 478              		.align 4
 479              	.LC1:
 480 0004 00000000 		.long	0
 481              		.hidden	__dso_handle
 482              		.ident	"GCC: (GNU) 9.1.0"
 483              		.section	.note.GNU-stack,"",@progbits
GAS LISTING /tmp/ccKMsxGX.s 			page 12


DEFINED SYMBOLS
                            *ABS*:0000000000000000 findwayBases.cpp
     /tmp/ccKMsxGX.s:4      .text:0000000000000000 _Z41__static_initialization_and_destruction_0ii
                             .bss:0000000000000000 _ZStL8__ioinit
     /tmp/ccKMsxGX.s:30     .text:000000000000003d _Z15hasIntersectionPK8baselineS1_
     /tmp/ccKMsxGX.s:44     .text:0000000000000050 _Z15getIntersectionPK8baselineS1_
     /tmp/ccKMsxGX.s:72     .text:000000000000009e _Z11isDotInsidePK6coordsPK8obstacle
     /tmp/ccKMsxGX.s:110    .text:00000000000000f2 _Z14vectToBaselinePK4vect
     /tmp/ccKMsxGX.s:128    .text:0000000000000116 _Z6getLenPK6coordsS1_
     /tmp/ccKMsxGX.s:155    .text:0000000000000158 _Z12createCoordsff
     /tmp/ccKMsxGX.s:170    .text:0000000000000170 _Z15getIntersectionPK4vectPK8obstacle
     /tmp/ccKMsxGX.s:332    .text:000000000000037d _Z14createObstaclefff
     /tmp/ccKMsxGX.s:376    .text:00000000000003bd _Z17getCoordsOfCornerPK8obstacleh
     /tmp/ccKMsxGX.s:445    .text:000000000000045e _Z8getPointPK8obstacleh
     /tmp/ccKMsxGX.s:455    .text:0000000000000468 _GLOBAL__sub_I__Z15hasIntersectionPK8baselineS1_
     /tmp/ccKMsxGX.s:476    .rodata.cst4:0000000000000000 .LC0
     /tmp/ccKMsxGX.s:479    .rodata.cst4:0000000000000004 .LC1

UNDEFINED SYMBOLS
_GLOBAL_OFFSET_TABLE_
_ZNSt8ios_base4InitC1Ev
__dso_handle
_ZNSt8ios_base4InitD1Ev
__cxa_atexit
sqrtf
__stack_chk_fail
malloc
