GAS LISTING /tmp/ccAGSJp6.s 			page 1


   1              		.file	"grapher.cpp"
   2              		.text
   3              	.Ltext0:
   5              	_Z41__static_initialization_and_destruction_0ii:
   6              	.LVL0:
   7              	.LFB2043:
   8              		.file 1 "Src/grapher.cpp"
   1:Src/grapher.cpp **** #include "bases.hpp"
   2:Src/grapher.cpp **** #include "geometry.hpp"
   3:Src/grapher.cpp **** #include "grapher.hpp"
   4:Src/grapher.cpp **** 
   5:Src/grapher.cpp **** namespace grapher
   6:Src/grapher.cpp **** {
   7:Src/grapher.cpp **** 	using namespace bases;
   8:Src/grapher.cpp **** 
   9:Src/grapher.cpp **** 
  10:Src/grapher.cpp **** 	uint8_t getMinDatasetSize()
  11:Src/grapher.cpp **** 	{
  12:Src/grapher.cpp **** 		int ret = numOfObstacles;
  13:Src/grapher.cpp **** 		if(ret < 2)
  14:Src/grapher.cpp **** 			ret = 2;
  15:Src/grapher.cpp **** 		if(ret >= numOfObstacles)
  16:Src/grapher.cpp **** 			ret = (numOfObstacles) - 1;
  17:Src/grapher.cpp **** 		return ret;
  18:Src/grapher.cpp **** 	}
  19:Src/grapher.cpp **** 
  20:Src/grapher.cpp **** 	struct array* getPointsDataSet(const struct coords *c)
  21:Src/grapher.cpp **** 	{
  22:Src/grapher.cpp **** 		size_t size = 0;
  23:Src/grapher.cpp **** 		uint16_t watchRadius = ZERO_QUAD_CHECK_SIDE;
  24:Src/grapher.cpp **** 		while (size < getMinDatasetSize()) {
  25:Src/grapher.cpp **** 			size = 0;
  26:Src/grapher.cpp **** 			for(size_t i = 0; i < graphSize; i++)
  27:Src/grapher.cpp **** 			{
  28:Src/grapher.cpp **** 				if(graph[i]->c.x >= c->x - watchRadius
  29:Src/grapher.cpp **** 				&& graph[i]->c.x <= c->x + watchRadius
  30:Src/grapher.cpp **** 				&& graph[i]->c.y >= c->y - watchRadius
  31:Src/grapher.cpp **** 				&& graph[i]->c.y <= c->y + watchRadius)
  32:Src/grapher.cpp **** 					size++;
  33:Src/grapher.cpp **** 			}
  34:Src/grapher.cpp **** 			if(size < getMinDatasetSize())
  35:Src/grapher.cpp **** 			{
  36:Src/grapher.cpp **** 				watchRadius += 100;
  37:Src/grapher.cpp **** 			}
  38:Src/grapher.cpp **** 		}
  39:Src/grapher.cpp **** 		size_t iter = 0;
  40:Src/grapher.cpp **** 		struct graphPoint **dataset = (struct graphPoint**)malloc(sizeof(struct graphPoint*) * size);
  41:Src/grapher.cpp **** 		for(size_t i = 0; i < graphSize; i++)
  42:Src/grapher.cpp **** 		{
  43:Src/grapher.cpp **** 			if(graph[i]->c.x >= c->x - watchRadius
  44:Src/grapher.cpp **** 			&& graph[i]->c.x <= c->x + watchRadius
  45:Src/grapher.cpp **** 			&& graph[i]->c.y >= c->y - watchRadius
  46:Src/grapher.cpp **** 			&& graph[i]->c.y <= c->y + watchRadius)
  47:Src/grapher.cpp **** 				dataset[iter++] = graph[i];
  48:Src/grapher.cpp **** 		}
  49:Src/grapher.cpp **** 		struct array *ret = (struct array*)malloc(sizeof(struct array));
  50:Src/grapher.cpp **** 		ret->items = dataset;
GAS LISTING /tmp/ccAGSJp6.s 			page 2


  51:Src/grapher.cpp **** 		ret->size = size;
  52:Src/grapher.cpp **** 		return ret;
  53:Src/grapher.cpp **** 	}
  54:Src/grapher.cpp **** 
  55:Src/grapher.cpp **** 
  56:Src/grapher.cpp **** 	void initPoint(struct graphPoint *p)
  57:Src/grapher.cpp **** 	{
  58:Src/grapher.cpp **** 		struct array* points = getPointsDataSet(&p->c);
  59:Src/grapher.cpp **** 		struct vect v;
  60:Src/grapher.cpp **** 		struct coords *tgt;
  61:Src/grapher.cpp **** 		struct bases::graphPoint *currP = 0x00;
  62:Src/grapher.cpp **** 		for(int i = 0; i < points->size; i++)
  63:Src/grapher.cpp **** 		{
  64:Src/grapher.cpp **** 			currP = ((struct bases::graphPoint**)(points->items))[i];
  65:Src/grapher.cpp **** 			v = geometry::createVect(&p->c, &currP->c);
  66:Src/grapher.cpp **** 			if((v.dx != 0 || v.dy != 0) && !geometry::hasIntersections(&v) && !geometry::isDotInside(&p->c) 
  67:Src/grapher.cpp **** 			{
  68:Src/grapher.cpp **** 				if(p->numOfTargets == 0)
  69:Src/grapher.cpp **** 					calculatedPoints++;
  70:Src/grapher.cpp **** 				if(currP->numOfTargets == 0)
  71:Src/grapher.cpp **** 					calculatedPoints++;
  72:Src/grapher.cpp **** 				addTarget(p, currP);
  73:Src/grapher.cpp **** 				if(currP->numOfTargets == 1)
  74:Src/grapher.cpp **** 					initPoint(currP);
  75:Src/grapher.cpp **** 			}
  76:Src/grapher.cpp **** 		}
  77:Src/grapher.cpp **** 		free(points);
  78:Src/grapher.cpp **** 	}
  79:Src/grapher.cpp **** 
  80:Src/grapher.cpp **** 
  81:Src/grapher.cpp **** }...
   9              		.loc 1 81 1 view -0
  10              		.cfi_startproc
  11              		.loc 1 81 1 is_stmt 0 view .LVU1
  12 0000 83FF01   		cmpl	$1, %edi
  13 0003 7401     		je	.L7
  14              	.L4:
  15 0005 C3       		ret
  16              	.L7:
  17              		.loc 1 81 1 discriminator 1 view .LVU2
  18 0006 81FEFFFF 		cmpl	$65535, %esi
  18      0000
  19 000c 75F7     		jne	.L4
  20              		.loc 1 81 1 view .LVU3
  21 000e 4883EC08 		subq	$8, %rsp
  22              		.cfi_def_cfa_offset 16
  23              		.file 2 "/usr/include/c++/9.2.0/iostream"
   1:/usr/include/c++/9.2.0/iostream **** // Standard iostream objects -*- C++ -*-
   2:/usr/include/c++/9.2.0/iostream **** 
   3:/usr/include/c++/9.2.0/iostream **** // Copyright (C) 1997-2019 Free Software Foundation, Inc.
   4:/usr/include/c++/9.2.0/iostream **** //
   5:/usr/include/c++/9.2.0/iostream **** // This file is part of the GNU ISO C++ Library.  This library is free
   6:/usr/include/c++/9.2.0/iostream **** // software; you can redistribute it and/or modify it under the
   7:/usr/include/c++/9.2.0/iostream **** // terms of the GNU General Public License as published by the
   8:/usr/include/c++/9.2.0/iostream **** // Free Software Foundation; either version 3, or (at your option)
   9:/usr/include/c++/9.2.0/iostream **** // any later version.
  10:/usr/include/c++/9.2.0/iostream **** 
GAS LISTING /tmp/ccAGSJp6.s 			page 3


  11:/usr/include/c++/9.2.0/iostream **** // This library is distributed in the hope that it will be useful,
  12:/usr/include/c++/9.2.0/iostream **** // but WITHOUT ANY WARRANTY; without even the implied warranty of
  13:/usr/include/c++/9.2.0/iostream **** // MERCHANTABILITY or FITNESS FOR A PARTICULAR PURPOSE.  See the
  14:/usr/include/c++/9.2.0/iostream **** // GNU General Public License for more details.
  15:/usr/include/c++/9.2.0/iostream **** 
  16:/usr/include/c++/9.2.0/iostream **** // Under Section 7 of GPL version 3, you are granted additional
  17:/usr/include/c++/9.2.0/iostream **** // permissions described in the GCC Runtime Library Exception, version
  18:/usr/include/c++/9.2.0/iostream **** // 3.1, as published by the Free Software Foundation.
  19:/usr/include/c++/9.2.0/iostream **** 
  20:/usr/include/c++/9.2.0/iostream **** // You should have received a copy of the GNU General Public License and
  21:/usr/include/c++/9.2.0/iostream **** // a copy of the GCC Runtime Library Exception along with this program;
  22:/usr/include/c++/9.2.0/iostream **** // see the files COPYING3 and COPYING.RUNTIME respectively.  If not, see
  23:/usr/include/c++/9.2.0/iostream **** // <http://www.gnu.org/licenses/>.
  24:/usr/include/c++/9.2.0/iostream **** 
  25:/usr/include/c++/9.2.0/iostream **** /** @file include/iostream
  26:/usr/include/c++/9.2.0/iostream ****  *  This is a Standard C++ Library header.
  27:/usr/include/c++/9.2.0/iostream ****  */
  28:/usr/include/c++/9.2.0/iostream **** 
  29:/usr/include/c++/9.2.0/iostream **** //
  30:/usr/include/c++/9.2.0/iostream **** // ISO C++ 14882: 27.3  Standard iostream objects
  31:/usr/include/c++/9.2.0/iostream **** //
  32:/usr/include/c++/9.2.0/iostream **** 
  33:/usr/include/c++/9.2.0/iostream **** #ifndef _GLIBCXX_IOSTREAM
  34:/usr/include/c++/9.2.0/iostream **** #define _GLIBCXX_IOSTREAM 1
  35:/usr/include/c++/9.2.0/iostream **** 
  36:/usr/include/c++/9.2.0/iostream **** #pragma GCC system_header
  37:/usr/include/c++/9.2.0/iostream **** 
  38:/usr/include/c++/9.2.0/iostream **** #include <bits/c++config.h>
  39:/usr/include/c++/9.2.0/iostream **** #include <ostream>
  40:/usr/include/c++/9.2.0/iostream **** #include <istream>
  41:/usr/include/c++/9.2.0/iostream **** 
  42:/usr/include/c++/9.2.0/iostream **** namespace std _GLIBCXX_VISIBILITY(default)
  43:/usr/include/c++/9.2.0/iostream **** {
  44:/usr/include/c++/9.2.0/iostream **** _GLIBCXX_BEGIN_NAMESPACE_VERSION
  45:/usr/include/c++/9.2.0/iostream **** 
  46:/usr/include/c++/9.2.0/iostream ****   /**
  47:/usr/include/c++/9.2.0/iostream ****    *  @name Standard Stream Objects
  48:/usr/include/c++/9.2.0/iostream ****    *
  49:/usr/include/c++/9.2.0/iostream ****    *  The &lt;iostream&gt; header declares the eight <em>standard stream
  50:/usr/include/c++/9.2.0/iostream ****    *  objects</em>.  For other declarations, see
  51:/usr/include/c++/9.2.0/iostream ****    *  http://gcc.gnu.org/onlinedocs/libstdc++/manual/io.html
  52:/usr/include/c++/9.2.0/iostream ****    *  and the @link iosfwd I/O forward declarations @endlink
  53:/usr/include/c++/9.2.0/iostream ****    *
  54:/usr/include/c++/9.2.0/iostream ****    *  They are required by default to cooperate with the global C
  55:/usr/include/c++/9.2.0/iostream ****    *  library's @c FILE streams, and to be available during program
  56:/usr/include/c++/9.2.0/iostream ****    *  startup and termination. For more information, see the section of the
  57:/usr/include/c++/9.2.0/iostream ****    *  manual linked to above.
  58:/usr/include/c++/9.2.0/iostream ****   */
  59:/usr/include/c++/9.2.0/iostream ****   //@{
  60:/usr/include/c++/9.2.0/iostream ****   extern istream cin;		/// Linked to standard input
  61:/usr/include/c++/9.2.0/iostream ****   extern ostream cout;		/// Linked to standard output
  62:/usr/include/c++/9.2.0/iostream ****   extern ostream cerr;		/// Linked to standard error (unbuffered)
  63:/usr/include/c++/9.2.0/iostream ****   extern ostream clog;		/// Linked to standard error (buffered)
  64:/usr/include/c++/9.2.0/iostream **** 
  65:/usr/include/c++/9.2.0/iostream **** #ifdef _GLIBCXX_USE_WCHAR_T
  66:/usr/include/c++/9.2.0/iostream ****   extern wistream wcin;		/// Linked to standard input
  67:/usr/include/c++/9.2.0/iostream ****   extern wostream wcout;	/// Linked to standard output
GAS LISTING /tmp/ccAGSJp6.s 			page 4


  68:/usr/include/c++/9.2.0/iostream ****   extern wostream wcerr;	/// Linked to standard error (unbuffered)
  69:/usr/include/c++/9.2.0/iostream ****   extern wostream wclog;	/// Linked to standard error (buffered)
  70:/usr/include/c++/9.2.0/iostream **** #endif
  71:/usr/include/c++/9.2.0/iostream ****   //@}
  72:/usr/include/c++/9.2.0/iostream **** 
  73:/usr/include/c++/9.2.0/iostream ****   // For construction of filebuffers for cout, cin, cerr, clog et. al.
  74:/usr/include/c++/9.2.0/iostream ****   static ios_base::Init __ioinit;
  24              		.loc 2 74 25 view .LVU4
  25 0012 488D3D00 		leaq	_ZStL8__ioinit(%rip), %rdi
  25      000000
  26              	.LVL1:
  27              		.loc 2 74 25 view .LVU5
  28 0019 E8000000 		call	_ZNSt8ios_base4InitC1Ev@PLT
  28      00
  29              	.LVL2:
  30              		.loc 2 74 25 view .LVU6
  31 001e 488D1500 		leaq	__dso_handle(%rip), %rdx
  31      000000
  32 0025 488D3500 		leaq	_ZStL8__ioinit(%rip), %rsi
  32      000000
  33 002c 488B3D00 		movq	_ZNSt8ios_base4InitD1Ev@GOTPCREL(%rip), %rdi
  33      000000
  34 0033 E8000000 		call	__cxa_atexit@PLT
  34      00
  35              	.LVL3:
  36              		.loc 1 81 1 view .LVU7
  37 0038 4883C408 		addq	$8, %rsp
  38              		.cfi_def_cfa_offset 8
  39 003c C3       		ret
  40              		.cfi_endproc
  41              	.LFE2043:
  43              		.globl	_ZN7grapher17getMinDatasetSizeEv
  45              	_ZN7grapher17getMinDatasetSizeEv:
  46              	.LFB1721:
  11:Src/grapher.cpp **** 	{
  47              		.loc 1 11 2 is_stmt 1 view -0
  48              		.cfi_startproc
  12:Src/grapher.cpp **** 		int ret = numOfObstacles;
  49              		.loc 1 12 3 view .LVU9
  12:Src/grapher.cpp **** 		int ret = numOfObstacles;
  50              		.loc 1 12 7 is_stmt 0 view .LVU10
  51 003d 488B1500 		movq	numOfObstacles(%rip), %rdx
  51      000000
  52 0044 89D0     		movl	%edx, %eax
  53              	.LVL4:
  13:Src/grapher.cpp **** 		if(ret < 2)
  54              		.loc 1 13 3 is_stmt 1 view .LVU11
  55 0046 83FA01   		cmpl	$1, %edx
  56 0049 7E0C     		jle	.L12
  57              	.LVL5:
  58              	.L9:
  15:Src/grapher.cpp **** 		if(ret >= numOfObstacles)
  59              		.loc 1 15 3 view .LVU12
  15:Src/grapher.cpp **** 		if(ret >= numOfObstacles)
  60              		.loc 1 15 6 is_stmt 0 view .LVU13
  61 004b 4863C8   		movslq	%eax, %rcx
  15:Src/grapher.cpp **** 		if(ret >= numOfObstacles)
GAS LISTING /tmp/ccAGSJp6.s 			page 5


  62              		.loc 1 15 3 view .LVU14
  63 004e 4839CA   		cmpq	%rcx, %rdx
  64 0051 7703     		ja	.L10
  16:Src/grapher.cpp **** 			ret = (numOfObstacles) - 1;
  65              		.loc 1 16 4 is_stmt 1 view .LVU15
  16:Src/grapher.cpp **** 			ret = (numOfObstacles) - 1;
  66              		.loc 1 16 8 is_stmt 0 view .LVU16
  67 0053 8D42FF   		leal	-1(%rdx), %eax
  68              	.LVL6:
  69              	.L10:
  17:Src/grapher.cpp **** 		return ret;
  70              		.loc 1 17 3 is_stmt 1 view .LVU17
  18:Src/grapher.cpp **** 	}
  71              		.loc 1 18 2 is_stmt 0 view .LVU18
  72 0056 C3       		ret
  73              	.L12:
  14:Src/grapher.cpp **** 			ret = 2;
  74              		.loc 1 14 8 view .LVU19
  75 0057 B8020000 		movl	$2, %eax
  75      00
  76              	.LVL7:
  14:Src/grapher.cpp **** 			ret = 2;
  77              		.loc 1 14 8 view .LVU20
  78 005c EBED     		jmp	.L9
  79              		.cfi_endproc
  80              	.LFE1721:
  82              		.globl	_ZN7grapher16getPointsDataSetEPKN5bases6coordsE
  84              	_ZN7grapher16getPointsDataSetEPKN5bases6coordsE:
  85              	.LVL8:
  86              	.LFB1722:
  21:Src/grapher.cpp **** 	{
  87              		.loc 1 21 2 is_stmt 1 view -0
  88              		.cfi_startproc
  21:Src/grapher.cpp **** 	{
  89              		.loc 1 21 2 is_stmt 0 view .LVU22
  90 005e 4155     		pushq	%r13
  91              		.cfi_def_cfa_offset 16
  92              		.cfi_offset 13, -16
  93 0060 4154     		pushq	%r12
  94              		.cfi_def_cfa_offset 24
  95              		.cfi_offset 12, -24
  96 0062 55       		pushq	%rbp
  97              		.cfi_def_cfa_offset 32
  98              		.cfi_offset 6, -32
  99 0063 53       		pushq	%rbx
 100              		.cfi_def_cfa_offset 40
 101              		.cfi_offset 3, -40
 102 0064 4883EC08 		subq	$8, %rsp
 103              		.cfi_def_cfa_offset 48
 104 0068 4889FB   		movq	%rdi, %rbx
  22:Src/grapher.cpp **** 		size_t size = 0;
 105              		.loc 1 22 3 is_stmt 1 view .LVU23
 106              	.LVL9:
  23:Src/grapher.cpp **** 		uint16_t watchRadius = ZERO_QUAD_CHECK_SIDE;
 107              		.loc 1 23 3 view .LVU24
  23:Src/grapher.cpp **** 		uint16_t watchRadius = ZERO_QUAD_CHECK_SIDE;
 108              		.loc 1 23 12 is_stmt 0 view .LVU25
GAS LISTING /tmp/ccAGSJp6.s 			page 6


 109 006b BDD00700 		movl	$2000, %ebp
 109      00
  22:Src/grapher.cpp **** 		size_t size = 0;
 110              		.loc 1 22 10 view .LVU26
 111 0070 41BC0000 		movl	$0, %r12d
 111      0000
 112 0076 EB6E     		jmp	.L14
 113              	.LVL10:
 114              	.L17:
 115              	.LBB2:
 116              	.LBB3:
  26:Src/grapher.cpp **** 			for(size_t i = 0; i < graphSize; i++)
 117              		.loc 1 26 4 is_stmt 1 discriminator 2 view .LVU27
 118 0078 4883C101 		addq	$1, %rcx
 119              	.LVL11:
 120              	.L22:
  26:Src/grapher.cpp **** 			for(size_t i = 0; i < graphSize; i++)
 121              		.loc 1 26 24 discriminator 1 view .LVU28
 122 007c 48390D00 		cmpq	%rcx, graphSize(%rip)
 122      000000
 123 0083 7659     		jbe	.L16
  28:Src/grapher.cpp **** 				if(graph[i]->c.x >= c->x - watchRadius
 124              		.loc 1 28 5 view .LVU29
  28:Src/grapher.cpp **** 				if(graph[i]->c.x >= c->x - watchRadius
 125              		.loc 1 28 15 is_stmt 0 view .LVU30
 126 0085 488B1500 		movq	graph(%rip), %rdx
 126      000000
 127 008c 488B34CA 		movq	(%rdx,%rcx,8), %rsi
  28:Src/grapher.cpp **** 				if(graph[i]->c.x >= c->x - watchRadius
 128              		.loc 1 28 20 view .LVU31
 129 0090 F30F1056 		movss	16(%rsi), %xmm2
 129      10
  28:Src/grapher.cpp **** 				if(graph[i]->c.x >= c->x - watchRadius
 130              		.loc 1 28 28 view .LVU32
 131 0095 F30F100B 		movss	(%rbx), %xmm1
  28:Src/grapher.cpp **** 				if(graph[i]->c.x >= c->x - watchRadius
 132              		.loc 1 28 32 view .LVU33
 133 0099 0FB7D5   		movzwl	%bp, %edx
  28:Src/grapher.cpp **** 				if(graph[i]->c.x >= c->x - watchRadius
 134              		.loc 1 28 30 view .LVU34
 135 009c 660FEFC0 		pxor	%xmm0, %xmm0
 136 00a0 F30F2AC2 		cvtsi2ssl	%edx, %xmm0
 137 00a4 0F28D9   		movaps	%xmm1, %xmm3
 138 00a7 F30F5CD8 		subss	%xmm0, %xmm3
  28:Src/grapher.cpp **** 				if(graph[i]->c.x >= c->x - watchRadius
 139              		.loc 1 28 5 view .LVU35
 140 00ab 0F2FD3   		comiss	%xmm3, %xmm2
 141 00ae 72C8     		jb	.L17
  29:Src/grapher.cpp **** 				&& graph[i]->c.x <= c->x + watchRadius
 142              		.loc 1 29 30 view .LVU36
 143 00b0 F30F58C8 		addss	%xmm0, %xmm1
  29:Src/grapher.cpp **** 				&& graph[i]->c.x <= c->x + watchRadius
 144              		.loc 1 29 5 view .LVU37
 145 00b4 0F2FCA   		comiss	%xmm2, %xmm1
 146 00b7 72BF     		jb	.L17
  30:Src/grapher.cpp **** 				&& graph[i]->c.y >= c->y - watchRadius
 147              		.loc 1 30 20 view .LVU38
GAS LISTING /tmp/ccAGSJp6.s 			page 7


 148 00b9 F30F104E 		movss	20(%rsi), %xmm1
 148      14
  30:Src/grapher.cpp **** 				&& graph[i]->c.y >= c->y - watchRadius
 149              		.loc 1 30 28 view .LVU39
 150 00be F30F1053 		movss	4(%rbx), %xmm2
 150      04
  30:Src/grapher.cpp **** 				&& graph[i]->c.y >= c->y - watchRadius
 151              		.loc 1 30 30 view .LVU40
 152 00c3 0F28DA   		movaps	%xmm2, %xmm3
 153 00c6 F30F5CD8 		subss	%xmm0, %xmm3
  30:Src/grapher.cpp **** 				&& graph[i]->c.y >= c->y - watchRadius
 154              		.loc 1 30 5 view .LVU41
 155 00ca 0F2FCB   		comiss	%xmm3, %xmm1
 156 00cd 72A9     		jb	.L17
  31:Src/grapher.cpp **** 				&& graph[i]->c.y <= c->y + watchRadius)
 157              		.loc 1 31 30 view .LVU42
 158 00cf F30F58C2 		addss	%xmm2, %xmm0
  31:Src/grapher.cpp **** 				&& graph[i]->c.y <= c->y + watchRadius)
 159              		.loc 1 31 5 view .LVU43
 160 00d3 0F2FC1   		comiss	%xmm1, %xmm0
 161 00d6 72A0     		jb	.L17
  32:Src/grapher.cpp **** 					size++;
 162              		.loc 1 32 6 is_stmt 1 view .LVU44
  32:Src/grapher.cpp **** 					size++;
 163              		.loc 1 32 10 is_stmt 0 view .LVU45
 164 00d8 4983C401 		addq	$1, %r12
 165              	.LVL12:
  32:Src/grapher.cpp **** 					size++;
 166              		.loc 1 32 10 view .LVU46
 167 00dc EB9A     		jmp	.L17
 168              	.L16:
  32:Src/grapher.cpp **** 					size++;
 169              		.loc 1 32 10 view .LVU47
 170              	.LBE3:
  34:Src/grapher.cpp **** 			if(size < getMinDatasetSize())
 171              		.loc 1 34 4 is_stmt 1 view .LVU48
 172 00de 4C39E0   		cmpq	%r12, %rax
 173 00e1 7603     		jbe	.L14
  36:Src/grapher.cpp **** 				watchRadius += 100;
 174              		.loc 1 36 5 view .LVU49
  36:Src/grapher.cpp **** 				watchRadius += 100;
 175              		.loc 1 36 17 is_stmt 0 view .LVU50
 176 00e3 83C564   		addl	$100, %ebp
 177              	.LVL13:
 178              	.L14:
  36:Src/grapher.cpp **** 				watchRadius += 100;
 179              		.loc 1 36 17 view .LVU51
 180              	.LBE2:
  24:Src/grapher.cpp **** 		while (size < getMinDatasetSize()) {
 181              		.loc 1 24 3 is_stmt 1 view .LVU52
  24:Src/grapher.cpp **** 		while (size < getMinDatasetSize()) {
 182              		.loc 1 24 15 view .LVU53
  24:Src/grapher.cpp **** 		while (size < getMinDatasetSize()) {
 183              		.loc 1 24 34 is_stmt 0 view .LVU54
 184 00e6 E8000000 		call	_ZN7grapher17getMinDatasetSizeEv
 184      00
 185              	.LVL14:
GAS LISTING /tmp/ccAGSJp6.s 			page 8


 186 00eb 0FB6C0   		movzbl	%al, %eax
  24:Src/grapher.cpp **** 		while (size < getMinDatasetSize()) {
 187              		.loc 1 24 15 view .LVU55
 188 00ee 4C39E0   		cmpq	%r12, %rax
 189 00f1 7610     		jbe	.L15
 190              	.LBB5:
 191              	.LBB4:
  26:Src/grapher.cpp **** 			for(size_t i = 0; i < graphSize; i++)
 192              		.loc 1 26 15 view .LVU56
 193 00f3 B9000000 		movl	$0, %ecx
 193      00
 194              	.LBE4:
  25:Src/grapher.cpp **** 			size = 0;
 195              		.loc 1 25 9 view .LVU57
 196 00f8 41BC0000 		movl	$0, %r12d
 196      0000
 197              	.LVL15:
  25:Src/grapher.cpp **** 			size = 0;
 198              		.loc 1 25 9 view .LVU58
 199 00fe E979FFFF 		jmp	.L22
 199      FF
 200              	.LVL16:
 201              	.L15:
  25:Src/grapher.cpp **** 			size = 0;
 202              		.loc 1 25 9 view .LVU59
 203              	.LBE5:
  39:Src/grapher.cpp **** 		size_t iter = 0;
 204              		.loc 1 39 3 is_stmt 1 view .LVU60
  40:Src/grapher.cpp **** 		struct graphPoint **dataset = (struct graphPoint**)malloc(sizeof(struct graphPoint*) * size);
 205              		.loc 1 40 3 view .LVU61
  40:Src/grapher.cpp **** 		struct graphPoint **dataset = (struct graphPoint**)malloc(sizeof(struct graphPoint*) * size);
 206              		.loc 1 40 60 is_stmt 0 view .LVU62
 207 0103 4A8D3CE5 		leaq	0(,%r12,8), %rdi
 207      00000000 
 208 010b E8000000 		call	malloc@PLT
 208      00
 209              	.LVL17:
 210 0110 4989C5   		movq	%rax, %r13
 211              	.LVL18:
  41:Src/grapher.cpp **** 		for(size_t i = 0; i < graphSize; i++)
 212              		.loc 1 41 3 is_stmt 1 view .LVU63
 213              	.LBB6:
  41:Src/grapher.cpp **** 		for(size_t i = 0; i < graphSize; i++)
 214              		.loc 1 41 14 is_stmt 0 view .LVU64
 215 0113 BA000000 		movl	$0, %edx
 215      00
 216              	.LBE6:
  39:Src/grapher.cpp **** 		size_t iter = 0;
 217              		.loc 1 39 10 view .LVU65
 218 0118 BE000000 		movl	$0, %esi
 218      00
 219 011d EB04     		jmp	.L30
 220              	.LVL19:
 221              	.L25:
 222              	.LBB7:
  41:Src/grapher.cpp **** 		for(size_t i = 0; i < graphSize; i++)
 223              		.loc 1 41 3 is_stmt 1 discriminator 2 view .LVU66
GAS LISTING /tmp/ccAGSJp6.s 			page 9


 224 011f 4883C201 		addq	$1, %rdx
 225              	.LVL20:
 226              	.L30:
  41:Src/grapher.cpp **** 		for(size_t i = 0; i < graphSize; i++)
 227              		.loc 1 41 23 discriminator 1 view .LVU67
 228 0123 48391500 		cmpq	%rdx, graphSize(%rip)
 228      000000
 229 012a 765E     		jbe	.L24
  43:Src/grapher.cpp **** 			if(graph[i]->c.x >= c->x - watchRadius
 230              		.loc 1 43 4 view .LVU68
  43:Src/grapher.cpp **** 			if(graph[i]->c.x >= c->x - watchRadius
 231              		.loc 1 43 14 is_stmt 0 view .LVU69
 232 012c 488B0500 		movq	graph(%rip), %rax
 232      000000
 233 0133 488B0CD0 		movq	(%rax,%rdx,8), %rcx
  43:Src/grapher.cpp **** 			if(graph[i]->c.x >= c->x - watchRadius
 234              		.loc 1 43 19 view .LVU70
 235 0137 F30F1051 		movss	16(%rcx), %xmm2
 235      10
  43:Src/grapher.cpp **** 			if(graph[i]->c.x >= c->x - watchRadius
 236              		.loc 1 43 27 view .LVU71
 237 013c F30F100B 		movss	(%rbx), %xmm1
  43:Src/grapher.cpp **** 			if(graph[i]->c.x >= c->x - watchRadius
 238              		.loc 1 43 31 view .LVU72
 239 0140 0FB7C5   		movzwl	%bp, %eax
  43:Src/grapher.cpp **** 			if(graph[i]->c.x >= c->x - watchRadius
 240              		.loc 1 43 29 view .LVU73
 241 0143 660FEFC0 		pxor	%xmm0, %xmm0
 242 0147 F30F2AC0 		cvtsi2ssl	%eax, %xmm0
 243 014b 0F28D9   		movaps	%xmm1, %xmm3
 244 014e F30F5CD8 		subss	%xmm0, %xmm3
  43:Src/grapher.cpp **** 			if(graph[i]->c.x >= c->x - watchRadius
 245              		.loc 1 43 4 view .LVU74
 246 0152 0F2FD3   		comiss	%xmm3, %xmm2
 247 0155 72C8     		jb	.L25
  44:Src/grapher.cpp **** 			&& graph[i]->c.x <= c->x + watchRadius
 248              		.loc 1 44 29 view .LVU75
 249 0157 F30F58C8 		addss	%xmm0, %xmm1
  44:Src/grapher.cpp **** 			&& graph[i]->c.x <= c->x + watchRadius
 250              		.loc 1 44 4 view .LVU76
 251 015b 0F2FCA   		comiss	%xmm2, %xmm1
 252 015e 72BF     		jb	.L25
  45:Src/grapher.cpp **** 			&& graph[i]->c.y >= c->y - watchRadius
 253              		.loc 1 45 19 view .LVU77
 254 0160 F30F1049 		movss	20(%rcx), %xmm1
 254      14
  45:Src/grapher.cpp **** 			&& graph[i]->c.y >= c->y - watchRadius
 255              		.loc 1 45 27 view .LVU78
 256 0165 F30F1053 		movss	4(%rbx), %xmm2
 256      04
  45:Src/grapher.cpp **** 			&& graph[i]->c.y >= c->y - watchRadius
 257              		.loc 1 45 29 view .LVU79
 258 016a 0F28DA   		movaps	%xmm2, %xmm3
 259 016d F30F5CD8 		subss	%xmm0, %xmm3
  45:Src/grapher.cpp **** 			&& graph[i]->c.y >= c->y - watchRadius
 260              		.loc 1 45 4 view .LVU80
 261 0171 0F2FCB   		comiss	%xmm3, %xmm1
GAS LISTING /tmp/ccAGSJp6.s 			page 10


 262 0174 72A9     		jb	.L25
  46:Src/grapher.cpp **** 			&& graph[i]->c.y <= c->y + watchRadius)
 263              		.loc 1 46 29 view .LVU81
 264 0176 F30F58C2 		addss	%xmm2, %xmm0
  46:Src/grapher.cpp **** 			&& graph[i]->c.y <= c->y + watchRadius)
 265              		.loc 1 46 4 view .LVU82
 266 017a 0F2FC1   		comiss	%xmm1, %xmm0
 267 017d 72A0     		jb	.L25
  47:Src/grapher.cpp **** 				dataset[iter++] = graph[i];
 268              		.loc 1 47 5 is_stmt 1 view .LVU83
 269              	.LVL21:
  47:Src/grapher.cpp **** 				dataset[iter++] = graph[i];
 270              		.loc 1 47 21 is_stmt 0 view .LVU84
 271 017f 49894CF5 		movq	%rcx, 0(%r13,%rsi,8)
 271      00
  47:Src/grapher.cpp **** 				dataset[iter++] = graph[i];
 272              		.loc 1 47 17 view .LVU85
 273 0184 488D7601 		leaq	1(%rsi), %rsi
 274              	.LVL22:
  47:Src/grapher.cpp **** 				dataset[iter++] = graph[i];
 275              		.loc 1 47 17 view .LVU86
 276 0188 EB95     		jmp	.L25
 277              	.L24:
  47:Src/grapher.cpp **** 				dataset[iter++] = graph[i];
 278              		.loc 1 47 17 view .LVU87
 279              	.LBE7:
  49:Src/grapher.cpp **** 		struct array *ret = (struct array*)malloc(sizeof(struct array));
 280              		.loc 1 49 3 is_stmt 1 view .LVU88
  49:Src/grapher.cpp **** 		struct array *ret = (struct array*)malloc(sizeof(struct array));
 281              		.loc 1 49 44 is_stmt 0 view .LVU89
 282 018a BF100000 		movl	$16, %edi
 282      00
 283 018f E8000000 		call	malloc@PLT
 283      00
 284              	.LVL23:
  50:Src/grapher.cpp **** 		ret->items = dataset;
 285              		.loc 1 50 3 is_stmt 1 view .LVU90
  50:Src/grapher.cpp **** 		ret->items = dataset;
 286              		.loc 1 50 14 is_stmt 0 view .LVU91
 287 0194 4C8928   		movq	%r13, (%rax)
  51:Src/grapher.cpp **** 		ret->size = size;
 288              		.loc 1 51 3 is_stmt 1 view .LVU92
  51:Src/grapher.cpp **** 		ret->size = size;
 289              		.loc 1 51 13 is_stmt 0 view .LVU93
 290 0197 4C896008 		movq	%r12, 8(%rax)
  52:Src/grapher.cpp **** 		return ret;
 291              		.loc 1 52 3 is_stmt 1 view .LVU94
  53:Src/grapher.cpp **** 	}
 292              		.loc 1 53 2 is_stmt 0 view .LVU95
 293 019b 4883C408 		addq	$8, %rsp
 294              		.cfi_def_cfa_offset 40
 295 019f 5B       		popq	%rbx
 296              		.cfi_def_cfa_offset 32
 297              	.LVL24:
  53:Src/grapher.cpp **** 	}
 298              		.loc 1 53 2 view .LVU96
 299 01a0 5D       		popq	%rbp
GAS LISTING /tmp/ccAGSJp6.s 			page 11


 300              		.cfi_def_cfa_offset 24
 301              	.LVL25:
  53:Src/grapher.cpp **** 	}
 302              		.loc 1 53 2 view .LVU97
 303 01a1 415C     		popq	%r12
 304              		.cfi_def_cfa_offset 16
 305              	.LVL26:
  53:Src/grapher.cpp **** 	}
 306              		.loc 1 53 2 view .LVU98
 307 01a3 415D     		popq	%r13
 308              		.cfi_def_cfa_offset 8
 309              	.LVL27:
  53:Src/grapher.cpp **** 	}
 310              		.loc 1 53 2 view .LVU99
 311 01a5 C3       		ret
 312              		.cfi_endproc
 313              	.LFE1722:
 315              		.globl	_ZN7grapher9initPointEPN5bases10graphPointE
 317              	_ZN7grapher9initPointEPN5bases10graphPointE:
 318              	.LVL28:
 319              	.LFB1723:
  57:Src/grapher.cpp **** 	{
 320              		.loc 1 57 2 is_stmt 1 view -0
 321              		.cfi_startproc
  57:Src/grapher.cpp **** 	{
 322              		.loc 1 57 2 is_stmt 0 view .LVU101
 323 01a6 4157     		pushq	%r15
 324              		.cfi_def_cfa_offset 16
 325              		.cfi_offset 15, -16
 326 01a8 4156     		pushq	%r14
 327              		.cfi_def_cfa_offset 24
 328              		.cfi_offset 14, -24
 329 01aa 4155     		pushq	%r13
 330              		.cfi_def_cfa_offset 32
 331              		.cfi_offset 13, -32
 332 01ac 4154     		pushq	%r12
 333              		.cfi_def_cfa_offset 40
 334              		.cfi_offset 12, -40
 335 01ae 55       		pushq	%rbp
 336              		.cfi_def_cfa_offset 48
 337              		.cfi_offset 6, -48
 338 01af 53       		pushq	%rbx
 339              		.cfi_def_cfa_offset 56
 340              		.cfi_offset 3, -56
 341 01b0 4883EC28 		subq	$40, %rsp
 342              		.cfi_def_cfa_offset 96
 343 01b4 4989FD   		movq	%rdi, %r13
  57:Src/grapher.cpp **** 	{
 344              		.loc 1 57 2 view .LVU102
 345 01b7 64488B04 		movq	%fs:40, %rax
 345      25280000 
 345      00
 346 01c0 48894424 		movq	%rax, 24(%rsp)
 346      18
 347 01c5 31C0     		xorl	%eax, %eax
  58:Src/grapher.cpp **** 		struct array* points = getPointsDataSet(&p->c);
 348              		.loc 1 58 3 is_stmt 1 view .LVU103
GAS LISTING /tmp/ccAGSJp6.s 			page 12


  58:Src/grapher.cpp **** 		struct array* points = getPointsDataSet(&p->c);
 349              		.loc 1 58 43 is_stmt 0 view .LVU104
 350 01c7 4C8D6710 		leaq	16(%rdi), %r12
  58:Src/grapher.cpp **** 		struct array* points = getPointsDataSet(&p->c);
 351              		.loc 1 58 42 view .LVU105
 352 01cb 4C89E7   		movq	%r12, %rdi
 353              	.LVL29:
  58:Src/grapher.cpp **** 		struct array* points = getPointsDataSet(&p->c);
 354              		.loc 1 58 42 view .LVU106
 355 01ce E8000000 		call	_ZN7grapher16getPointsDataSetEPKN5bases6coordsE
 355      00
 356              	.LVL30:
 357 01d3 4889C5   		movq	%rax, %rbp
 358              	.LVL31:
  59:Src/grapher.cpp **** 		struct vect v;
 359              		.loc 1 59 3 is_stmt 1 view .LVU107
  59:Src/grapher.cpp **** 		struct vect v;
 360              		.loc 1 59 15 is_stmt 0 view .LVU108
 361 01d6 48C70424 		movq	$0, (%rsp)
 361      00000000 
 362 01de C7442408 		movl	$0x00000000, 8(%rsp)
 362      00000000 
 363 01e6 C744240C 		movl	$0x00000000, 12(%rsp)
 363      00000000 
  60:Src/grapher.cpp **** 		struct coords *tgt;
 364              		.loc 1 60 3 is_stmt 1 view .LVU109
  61:Src/grapher.cpp **** 		struct bases::graphPoint *currP = 0x00;
 365              		.loc 1 61 3 view .LVU110
 366              	.LVL32:
  62:Src/grapher.cpp **** 		for(int i = 0; i < points->size; i++)
 367              		.loc 1 62 3 view .LVU111
 368              	.LBB8:
  62:Src/grapher.cpp **** 		for(int i = 0; i < points->size; i++)
 369              		.loc 1 62 11 is_stmt 0 view .LVU112
 370 01ee BB000000 		movl	$0, %ebx
 370      00
 371 01f3 EB0F     		jmp	.L47
 372              	.LVL33:
 373              	.L42:
  66:Src/grapher.cpp **** 			if((v.dx != 0 || v.dy != 0) && !geometry::hasIntersections(&v) && !geometry::isDotInside(&p->c) 
 374              		.loc 1 66 62 discriminator 3 view .LVU113
 375 01f5 4889E7   		movq	%rsp, %rdi
 376 01f8 E8000000 		call	_ZN8geometry16hasIntersectionsEPKN5bases4vectE@PLT
 376      00
 377              	.LVL34:
  66:Src/grapher.cpp **** 			if((v.dx != 0 || v.dy != 0) && !geometry::hasIntersections(&v) && !geometry::isDotInside(&p->c) 
 378              		.loc 1 66 32 discriminator 3 view .LVU114
 379 01fd 84C0     		testb	%al, %al
 380 01ff 7458     		je	.L50
 381              	.L43:
  62:Src/grapher.cpp **** 		for(int i = 0; i < points->size; i++)
 382              		.loc 1 62 3 is_stmt 1 discriminator 2 view .LVU115
 383 0201 83C301   		addl	$1, %ebx
 384              	.LVL35:
 385              	.L47:
  62:Src/grapher.cpp **** 		for(int i = 0; i < points->size; i++)
 386              		.loc 1 62 20 discriminator 1 view .LVU116
GAS LISTING /tmp/ccAGSJp6.s 			page 13


  62:Src/grapher.cpp **** 		for(int i = 0; i < points->size; i++)
 387              		.loc 1 62 18 is_stmt 0 discriminator 1 view .LVU117
 388 0204 4863C3   		movslq	%ebx, %rax
  62:Src/grapher.cpp **** 		for(int i = 0; i < points->size; i++)
 389              		.loc 1 62 20 discriminator 1 view .LVU118
 390 0207 483B4508 		cmpq	8(%rbp), %rax
 391 020b 0F83A100 		jnb	.L41
 391      0000
  64:Src/grapher.cpp **** 			currP = ((struct bases::graphPoint**)(points->items))[i];
 392              		.loc 1 64 4 is_stmt 1 view .LVU119
  64:Src/grapher.cpp **** 			currP = ((struct bases::graphPoint**)(points->items))[i];
 393              		.loc 1 64 59 is_stmt 0 view .LVU120
 394 0211 48C1E003 		salq	$3, %rax
 395 0215 48034500 		addq	0(%rbp), %rax
  64:Src/grapher.cpp **** 			currP = ((struct bases::graphPoint**)(points->items))[i];
 396              		.loc 1 64 10 view .LVU121
 397 0219 4C8B30   		movq	(%rax), %r14
 398              	.LVL36:
  65:Src/grapher.cpp **** 			v = geometry::createVect(&p->c, &currP->c);
 399              		.loc 1 65 4 is_stmt 1 view .LVU122
  65:Src/grapher.cpp **** 			v = geometry::createVect(&p->c, &currP->c);
 400              		.loc 1 65 36 is_stmt 0 view .LVU123
 401 021c 4D8D7E10 		leaq	16(%r14), %r15
  65:Src/grapher.cpp **** 			v = geometry::createVect(&p->c, &currP->c);
 402              		.loc 1 65 45 view .LVU124
 403 0220 4C89FE   		movq	%r15, %rsi
 404 0223 4C89E7   		movq	%r12, %rdi
 405 0226 E8000000 		call	_ZN8geometry10createVectEPKN5bases6coordsES3_@PLT
 405      00
 406              	.LVL37:
 407 022b 48890424 		movq	%rax, (%rsp)
 408 022f 660FD644 		movq	%xmm0, 8(%rsp)
 408      2408
  66:Src/grapher.cpp **** 			if((v.dx != 0 || v.dy != 0) && !geometry::hasIntersections(&v) && !geometry::isDotInside(&p->c) 
 409              		.loc 1 66 4 is_stmt 1 view .LVU125
  66:Src/grapher.cpp **** 			if((v.dx != 0 || v.dy != 0) && !geometry::hasIntersections(&v) && !geometry::isDotInside(&p->c) 
 410              		.loc 1 66 10 is_stmt 0 view .LVU126
 411 0235 F30F1044 		movss	8(%rsp), %xmm0
 411      2408
  66:Src/grapher.cpp **** 			if((v.dx != 0 || v.dy != 0) && !geometry::hasIntersections(&v) && !geometry::isDotInside(&p->c) 
 412              		.loc 1 66 100 view .LVU127
 413 023b 0F2E0500 		ucomiss	.LC0(%rip), %xmm0
 413      000000
 414 0242 7AB1     		jp	.L42
 415 0244 75AF     		jne	.L42
  66:Src/grapher.cpp **** 			if((v.dx != 0 || v.dy != 0) && !geometry::hasIntersections(&v) && !geometry::isDotInside(&p->c) 
 416              		.loc 1 66 23 discriminator 2 view .LVU128
 417 0246 F30F1044 		movss	12(%rsp), %xmm0
 417      240C
  66:Src/grapher.cpp **** 			if((v.dx != 0 || v.dy != 0) && !geometry::hasIntersections(&v) && !geometry::isDotInside(&p->c) 
 418              		.loc 1 66 18 discriminator 2 view .LVU129
 419 024c 0F2E0500 		ucomiss	.LC0(%rip), %xmm0
 419      000000
 420 0253 7AA0     		jp	.L42
 421 0255 74AA     		je	.L43
 422 0257 EB9C     		jmp	.L42
 423              	.L50:
GAS LISTING /tmp/ccAGSJp6.s 			page 14


  66:Src/grapher.cpp **** 			if((v.dx != 0 || v.dy != 0) && !geometry::hasIntersections(&v) && !geometry::isDotInside(&p->c) 
 424              		.loc 1 66 92 discriminator 6 view .LVU130
 425 0259 4C89E7   		movq	%r12, %rdi
 426 025c E8000000 		call	_ZN8geometry11isDotInsideEPKN5bases6coordsE@PLT
 426      00
 427              	.LVL38:
  66:Src/grapher.cpp **** 			if((v.dx != 0 || v.dy != 0) && !geometry::hasIntersections(&v) && !geometry::isDotInside(&p->c) 
 428              		.loc 1 66 67 discriminator 6 view .LVU131
 429 0261 84C0     		testb	%al, %al
 430 0263 759C     		jne	.L43
  66:Src/grapher.cpp **** 			if((v.dx != 0 || v.dy != 0) && !geometry::hasIntersections(&v) && !geometry::isDotInside(&p->c) 
 431              		.loc 1 66 125 discriminator 9 view .LVU132
 432 0265 4C89FF   		movq	%r15, %rdi
 433 0268 E8000000 		call	_ZN8geometry11isDotInsideEPKN5bases6coordsE@PLT
 433      00
 434              	.LVL39:
  66:Src/grapher.cpp **** 			if((v.dx != 0 || v.dy != 0) && !geometry::hasIntersections(&v) && !geometry::isDotInside(&p->c) 
 435              		.loc 1 66 100 discriminator 9 view .LVU133
 436 026d 84C0     		testb	%al, %al
 437 026f 7590     		jne	.L43
  68:Src/grapher.cpp **** 				if(p->numOfTargets == 0)
 438              		.loc 1 68 5 is_stmt 1 view .LVU134
 439 0271 49837D08 		cmpq	$0, 8(%r13)
 439      00
 440 0276 7508     		jne	.L45
  69:Src/grapher.cpp **** 					calculatedPoints++;
 441              		.loc 1 69 6 view .LVU135
  69:Src/grapher.cpp **** 					calculatedPoints++;
 442              		.loc 1 69 22 is_stmt 0 view .LVU136
 443 0278 48830500 		addq	$1, calculatedPoints(%rip)
 443      00000001 
 444              	.L45:
  70:Src/grapher.cpp **** 				if(currP->numOfTargets == 0)
 445              		.loc 1 70 5 is_stmt 1 view .LVU137
 446 0280 49837E08 		cmpq	$0, 8(%r14)
 446      00
 447 0285 7508     		jne	.L46
  71:Src/grapher.cpp **** 					calculatedPoints++;
 448              		.loc 1 71 6 view .LVU138
  71:Src/grapher.cpp **** 					calculatedPoints++;
 449              		.loc 1 71 22 is_stmt 0 view .LVU139
 450 0287 48830500 		addq	$1, calculatedPoints(%rip)
 450      00000001 
 451              	.L46:
  72:Src/grapher.cpp **** 				addTarget(p, currP);
 452              		.loc 1 72 5 is_stmt 1 view .LVU140
  72:Src/grapher.cpp **** 				addTarget(p, currP);
 453              		.loc 1 72 14 is_stmt 0 view .LVU141
 454 028f 4C89F6   		movq	%r14, %rsi
 455 0292 4C89EF   		movq	%r13, %rdi
 456 0295 E8000000 		call	_ZN5bases9addTargetEPNS_10graphPointES1_@PLT
 456      00
 457              	.LVL40:
  73:Src/grapher.cpp **** 				if(currP->numOfTargets == 1)
 458              		.loc 1 73 5 is_stmt 1 view .LVU142
 459 029a 49837E08 		cmpq	$1, 8(%r14)
 459      01
GAS LISTING /tmp/ccAGSJp6.s 			page 15


 460 029f 0F855CFF 		jne	.L43
 460      FFFF
  74:Src/grapher.cpp **** 					initPoint(currP);
 461              		.loc 1 74 6 view .LVU143
  74:Src/grapher.cpp **** 					initPoint(currP);
 462              		.loc 1 74 15 is_stmt 0 view .LVU144
 463 02a5 4C89F7   		movq	%r14, %rdi
 464 02a8 E8000000 		call	_ZN7grapher9initPointEPN5bases10graphPointE
 464      00
 465              	.LVL41:
 466 02ad E94FFFFF 		jmp	.L43
 466      FF
 467              	.LVL42:
 468              	.L41:
  74:Src/grapher.cpp **** 					initPoint(currP);
 469              		.loc 1 74 15 view .LVU145
 470              	.LBE8:
  77:Src/grapher.cpp **** 		free(points);
 471              		.loc 1 77 3 is_stmt 1 view .LVU146
  77:Src/grapher.cpp **** 		free(points);
 472              		.loc 1 77 7 is_stmt 0 view .LVU147
 473 02b2 4889EF   		movq	%rbp, %rdi
 474 02b5 E8000000 		call	free@PLT
 474      00
 475              	.LVL43:
  78:Src/grapher.cpp **** 	}
 476              		.loc 1 78 2 view .LVU148
 477 02ba 488B4424 		movq	24(%rsp), %rax
 477      18
 478 02bf 64483304 		xorq	%fs:40, %rax
 478      25280000 
 478      00
 479 02c8 750F     		jne	.L51
 480 02ca 4883C428 		addq	$40, %rsp
 481              		.cfi_remember_state
 482              		.cfi_def_cfa_offset 56
 483 02ce 5B       		popq	%rbx
 484              		.cfi_def_cfa_offset 48
 485              	.LVL44:
  78:Src/grapher.cpp **** 	}
 486              		.loc 1 78 2 view .LVU149
 487 02cf 5D       		popq	%rbp
 488              		.cfi_def_cfa_offset 40
 489              	.LVL45:
  78:Src/grapher.cpp **** 	}
 490              		.loc 1 78 2 view .LVU150
 491 02d0 415C     		popq	%r12
 492              		.cfi_def_cfa_offset 32
 493 02d2 415D     		popq	%r13
 494              		.cfi_def_cfa_offset 24
 495              	.LVL46:
  78:Src/grapher.cpp **** 	}
 496              		.loc 1 78 2 view .LVU151
 497 02d4 415E     		popq	%r14
 498              		.cfi_def_cfa_offset 16
 499 02d6 415F     		popq	%r15
 500              		.cfi_def_cfa_offset 8
GAS LISTING /tmp/ccAGSJp6.s 			page 16


 501 02d8 C3       		ret
 502              	.LVL47:
 503              	.L51:
 504              		.cfi_restore_state
  78:Src/grapher.cpp **** 	}
 505              		.loc 1 78 2 view .LVU152
 506 02d9 E8000000 		call	__stack_chk_fail@PLT
 506      00
 507              	.LVL48:
 508              		.cfi_endproc
 509              	.LFE1723:
 512              	_GLOBAL__sub_I__ZN7grapher17getMinDatasetSizeEv:
 513              	.LFB2044:
 514              		.loc 1 81 1 is_stmt 1 view -0
 515              		.cfi_startproc
 516 02de 4883EC08 		subq	$8, %rsp
 517              		.cfi_def_cfa_offset 16
 518              		.loc 1 81 1 is_stmt 0 view .LVU154
 519 02e2 BEFFFF00 		movl	$65535, %esi
 519      00
 520 02e7 BF010000 		movl	$1, %edi
 520      00
 521 02ec E80FFDFF 		call	_Z41__static_initialization_and_destruction_0ii
 521      FF
 522              	.LVL49:
 523 02f1 4883C408 		addq	$8, %rsp
 524              		.cfi_def_cfa_offset 8
 525 02f5 C3       		ret
 526              		.cfi_endproc
 527              	.LFE2044:
 529              		.section	.init_array,"aw"
 530              		.align 8
 531 0000 00000000 		.quad	_GLOBAL__sub_I__ZN7grapher17getMinDatasetSizeEv
 531      00000000 
 532              		.local	_ZStL8__ioinit
 533              		.comm	_ZStL8__ioinit,1,1
 534              		.section	.rodata.cst4,"aM",@progbits,4
 535              		.align 4
 536              	.LC0:
 537 0000 00000000 		.long	0
 538              		.text
 539              	.Letext0:
 540              		.file 3 "/usr/include/c++/9.2.0/cwchar"
 541              		.file 4 "/usr/include/c++/9.2.0/new"
 542              		.file 5 "/usr/include/c++/9.2.0/bits/exception_ptr.h"
 543              		.file 6 "/usr/include/c++/9.2.0/type_traits"
 544              		.file 7 "/usr/include/c++/9.2.0/x86_64-pc-linux-gnu/bits/c++config.h"
 545              		.file 8 "/usr/include/c++/9.2.0/bits/stl_pair.h"
 546              		.file 9 "/usr/include/c++/9.2.0/debug/debug.h"
 547              		.file 10 "/usr/include/c++/9.2.0/bits/char_traits.h"
 548              		.file 11 "/usr/include/c++/9.2.0/cstdint"
 549              		.file 12 "/usr/include/c++/9.2.0/clocale"
 550              		.file 13 "/usr/include/c++/9.2.0/cstdlib"
 551              		.file 14 "/usr/include/c++/9.2.0/cstdio"
 552              		.file 15 "/usr/include/c++/9.2.0/system_error"
 553              		.file 16 "/usr/include/c++/9.2.0/bits/ios_base.h"
 554              		.file 17 "/usr/include/c++/9.2.0/cwctype"
GAS LISTING /tmp/ccAGSJp6.s 			page 17


 555              		.file 18 "/usr/include/c++/9.2.0/iosfwd"
 556              		.file 19 "/usr/include/c++/9.2.0/bits/std_abs.h"
 557              		.file 20 "/usr/include/c++/9.2.0/cmath"
 558              		.file 21 "/usr/include/c++/9.2.0/bits/predefined_ops.h"
 559              		.file 22 "/usr/include/c++/9.2.0/ext/new_allocator.h"
 560              		.file 23 "/usr/include/c++/9.2.0/ext/numeric_traits.h"
 561              		.file 24 "/usr/lib/gcc/x86_64-pc-linux-gnu/9.2.0/include/stddef.h"
 562              		.file 25 "<built-in>"
 563              		.file 26 "/usr/include/bits/types/wint_t.h"
 564              		.file 27 "/usr/include/bits/types/__mbstate_t.h"
 565              		.file 28 "/usr/include/bits/types/mbstate_t.h"
 566              		.file 29 "/usr/include/bits/types/__FILE.h"
 567              		.file 30 "/usr/include/bits/types/struct_FILE.h"
 568              		.file 31 "/usr/include/bits/types/FILE.h"
 569              		.file 32 "/usr/include/wchar.h"
 570              		.file 33 "/usr/include/bits/types/struct_tm.h"
 571              		.file 34 "/usr/include/bits/types.h"
 572              		.file 35 "/usr/include/bits/stdint-intn.h"
 573              		.file 36 "/usr/include/bits/stdint-uintn.h"
 574              		.file 37 "/usr/include/stdint.h"
 575              		.file 38 "/usr/include/locale.h"
 576              		.file 39 "/usr/include/time.h"
 577              		.file 40 "/usr/include/c++/9.2.0/x86_64-pc-linux-gnu/bits/atomic_word.h"
 578              		.file 41 "/usr/include/stdlib.h"
 579              		.file 42 "/usr/include/bits/stdlib-float.h"
 580              		.file 43 "/usr/include/bits/stdlib-bsearch.h"
 581              		.file 44 "/usr/include/bits/types/__fpos_t.h"
 582              		.file 45 "/usr/include/stdio.h"
 583              		.file 46 "/usr/include/bits/sys_errlist.h"
 584              		.file 47 "/usr/include/bits/stdio.h"
 585              		.file 48 "/usr/include/errno.h"
 586              		.file 49 "/usr/include/bits/wctype-wchar.h"
 587              		.file 50 "/usr/include/wctype.h"
 588              		.file 51 "/usr/include/c++/9.2.0/stdlib.h"
 589              		.file 52 "/usr/include/unistd.h"
 590              		.file 53 "/usr/include/bits/getopt_core.h"
 591              		.file 54 "/usr/include/math.h"
 592              		.file 55 "/usr/include/c++/9.2.0/math.h"
 593              		.file 56 "/usr/include/bits/mathcalls.h"
 594              		.file 57 "Includes/bases.hpp"
 595              		.file 58 "Includes/geometry.hpp"
 596              		.file 59 "Includes/grapher.hpp"
GAS LISTING /tmp/ccAGSJp6.s 			page 18


DEFINED SYMBOLS
                            *ABS*:0000000000000000 grapher.cpp
     /tmp/ccAGSJp6.s:5      .text:0000000000000000 _Z41__static_initialization_and_destruction_0ii
                             .bss:0000000000000000 _ZStL8__ioinit
     /tmp/ccAGSJp6.s:45     .text:000000000000003d _ZN7grapher17getMinDatasetSizeEv
     /tmp/ccAGSJp6.s:84     .text:000000000000005e _ZN7grapher16getPointsDataSetEPKN5bases6coordsE
     /tmp/ccAGSJp6.s:317    .text:00000000000001a6 _ZN7grapher9initPointEPN5bases10graphPointE
     /tmp/ccAGSJp6.s:512    .text:00000000000002de _GLOBAL__sub_I__ZN7grapher17getMinDatasetSizeEv
     /tmp/ccAGSJp6.s:536    .rodata.cst4:0000000000000000 .LC0

UNDEFINED SYMBOLS
_GLOBAL_OFFSET_TABLE_
_ZNSt8ios_base4InitC1Ev
__dso_handle
_ZNSt8ios_base4InitD1Ev
__cxa_atexit
numOfObstacles
graphSize
graph
malloc
_ZN8geometry16hasIntersectionsEPKN5bases4vectE
_ZN8geometry10createVectEPKN5bases6coordsES3_
_ZN8geometry11isDotInsideEPKN5bases6coordsE
calculatedPoints
_ZN5bases9addTargetEPNS_10graphPointES1_
free
__stack_chk_fail
