GAS LISTING /tmp/ccK1lRdA.s 			page 1


   1              		.file	"main.cpp"
   2              		.text
   3              	.Ltext0:
   4              		.globl	_Z7reshapeii
   6              	_Z7reshapeii:
   7              	.LVL0:
   8              	.LFB2487:
   9              		.file 1 "Src/main.cpp"
   1:Src/main.cpp  **** #include <iostream>
   2:Src/main.cpp  **** #include <stdio.h>      // standard input / output functions
   3:Src/main.cpp  **** #include <stdlib.h>
   4:Src/main.cpp  **** #include <string.h>     // string function definitions
   5:Src/main.cpp  **** #include <unistd.h>     // UNIX standard function definitions
   6:Src/main.cpp  **** #include <fcntl.h>      // File control definitions
   7:Src/main.cpp  **** #include <errno.h>      // Error number definitions
   8:Src/main.cpp  **** #include <termios.h>    // POSIX terminal control definitions
   9:Src/main.cpp  **** #include <signal.h>
  10:Src/main.cpp  **** #include <GL/glew.h>
  11:Src/main.cpp  **** #include <GL/glut.h>
  12:Src/main.cpp  **** #include <GL/gl.h>
  13:Src/main.cpp  **** #include <GL/glu.h>
  14:Src/main.cpp  **** #include <FTGL/ftgl.h>
  15:Src/main.cpp  **** #include <FTGL/FTGLPixmapFont.h>
  16:Src/main.cpp  **** 
  17:Src/main.cpp  **** #include "routines.hpp"
  18:Src/main.cpp  **** #include "findwayBases.hpp"
  19:Src/main.cpp  **** 
  20:Src/main.cpp  **** #define GL_TIMER_DELAY	400
  21:Src/main.cpp  **** #define RETURN_CODE_OK 0
  22:Src/main.cpp  **** #define OBST_COLOR 0xFF0000
  23:Src/main.cpp  **** #define GRAPH_COLOR 0x00FFFF
  24:Src/main.cpp  **** 
  25:Src/main.cpp  **** #define VECTORS_PER_CHECK	20
  26:Src/main.cpp  **** 
  27:Src/main.cpp  **** size_t QUAD_CHECK_SIDE = 5;
  28:Src/main.cpp  **** 
  29:Src/main.cpp  **** using namespace std;
  30:Src/main.cpp  **** 
  31:Src/main.cpp  **** 
  32:Src/main.cpp  **** bool terminated = false;
  33:Src/main.cpp  **** size_t numOfObstacles;
  34:Src/main.cpp  **** 
  35:Src/main.cpp  **** 
  36:Src/main.cpp  **** struct obstacle *obstacles;
  37:Src/main.cpp  **** struct coords	startway,
  38:Src/main.cpp  **** 				endway;
  39:Src/main.cpp  **** 
  40:Src/main.cpp  **** 
  41:Src/main.cpp  **** 
  42:Src/main.cpp  **** struct array
  43:Src/main.cpp  **** {
  44:Src/main.cpp  **** 	void *items;
  45:Src/main.cpp  **** 	size_t size;
  46:Src/main.cpp  **** };
  47:Src/main.cpp  **** 
  48:Src/main.cpp  **** 
  49:Src/main.cpp  **** 
GAS LISTING /tmp/ccK1lRdA.s 			page 2


  50:Src/main.cpp  **** 
  51:Src/main.cpp  **** 
  52:Src/main.cpp  **** 
  53:Src/main.cpp  **** 
  54:Src/main.cpp  **** void calculateWay()
  55:Src/main.cpp  **** {
  56:Src/main.cpp  **** 
  57:Src/main.cpp  **** }
  58:Src/main.cpp  **** 
  59:Src/main.cpp  **** 
  60:Src/main.cpp  **** 
  61:Src/main.cpp  **** /*
  62:Src/main.cpp  ****  *	-------+----->	0
  63:Src/main.cpp  ****  *	<------+------	180
  64:Src/main.cpp  ****  *		  /|\
  65:Src/main.cpp  ****  *         |		90
  66:Src/main.cpp  ****  *		   +
  67:Src/main.cpp  ****  */
  68:Src/main.cpp  **** struct vect createVect(const struct obstacle *obst, const uint8_t corner, const COORDS_DATATYPE ang
  69:Src/main.cpp  **** {
  70:Src/main.cpp  **** 	struct vect ret;
  71:Src/main.cpp  **** 	ret.c  = (getCoordsOfCorner(obst, corner));
  72:Src/main.cpp  **** 	ret.dx = QUAD_CHECK_SIDE;
  73:Src/main.cpp  **** 	ret.dy = ret.dx * tan(angle / 180 * PI);
  74:Src/main.cpp  **** 
  75:Src/main.cpp  **** 	// cout <<  "\tcreate vect:" << endl
  76:Src/main.cpp  **** 	// 	 << "\tdx: " << ret.dx << endl
  77:Src/main.cpp  **** 	// 	 << "\tdy: " << ret.dy << endl
  78:Src/main.cpp  **** 	// 	 << "\tx:  " << ret.c->x << endl
  79:Src/main.cpp  **** 	// 	 << "\ty:  " << ret.c->y << endl;
  80:Src/main.cpp  **** 	return ret;
  81:Src/main.cpp  **** }
  82:Src/main.cpp  **** 
  83:Src/main.cpp  **** struct array* getDataSet(const struct obstacle *obst, const uint8_t corner)
  84:Src/main.cpp  **** {
  85:Src/main.cpp  **** 	struct graphPoint *p = getPoint(obst, corner);
  86:Src/main.cpp  **** 	size_t size = 0;
  87:Src/main.cpp  **** 	while (size < 2) {
  88:Src/main.cpp  **** 		size = 0;
  89:Src/main.cpp  **** 		for(size_t i = 0; i < numOfObstacles; i++)
  90:Src/main.cpp  **** 		{
  91:Src/main.cpp  **** 			struct coords *c = getCoordsOfCorner(obst, corner);
  92:Src/main.cpp  **** 			if(obstacles[i].c->x + obstacles[i].a >= c->x - QUAD_CHECK_SIDE / 2
  93:Src/main.cpp  **** 			&& obstacles[i].c->x <= c->x + obstacles[i].a + QUAD_CHECK_SIDE / 2
  94:Src/main.cpp  **** 			&& obstacles[i].c->y + obstacles[i].a >= c->y - QUAD_CHECK_SIDE / 2
  95:Src/main.cpp  **** 			&& obstacles[i].c->y <= c->y + obstacles[i].a + QUAD_CHECK_SIDE / 2)
  96:Src/main.cpp  **** 				size++;
  97:Src/main.cpp  **** 		}
  98:Src/main.cpp  **** 		if(size < 2)
  99:Src/main.cpp  **** 		{
 100:Src/main.cpp  **** 			cout << "Increacing radius\n";
 101:Src/main.cpp  **** 			QUAD_CHECK_SIDE += 40;
 102:Src/main.cpp  **** 		}
 103:Src/main.cpp  **** 	}
 104:Src/main.cpp  **** 	cout << "Size: " << size << endl;
 105:Src/main.cpp  **** 	size_t iter = 0;
 106:Src/main.cpp  **** 	struct obstacle **obsts = (struct obstacle**)malloc(sizeof(struct obstacle*) * size);
GAS LISTING /tmp/ccK1lRdA.s 			page 3


 107:Src/main.cpp  **** 	for(size_t i = 0; i < numOfObstacles; i++)
 108:Src/main.cpp  **** 	{
 109:Src/main.cpp  **** 		struct coords *c = getCoordsOfCorner(obst, corner);
 110:Src/main.cpp  **** 		if(obstacles[i].c->x + obstacles[i].a >= c->x - QUAD_CHECK_SIDE / 2
 111:Src/main.cpp  **** 		&& obstacles[i].c->x <= c->x + obstacles[i].a + QUAD_CHECK_SIDE / 2
 112:Src/main.cpp  **** 		&& obstacles[i].c->y + obstacles[i].a >= c->y - QUAD_CHECK_SIDE / 2
 113:Src/main.cpp  **** 		&& obstacles[i].c->y <= c->y + obstacles[i].a + QUAD_CHECK_SIDE / 2)
 114:Src/main.cpp  **** 			obsts[iter++] = &(obstacles[i]);
 115:Src/main.cpp  **** 	}
 116:Src/main.cpp  **** 	struct array *ret = (struct array*)malloc(sizeof(struct array));
 117:Src/main.cpp  **** 	ret->items = *obsts;
 118:Src/main.cpp  **** 	ret->size = size;
 119:Src/main.cpp  **** 	return ret;
 120:Src/main.cpp  **** }
 121:Src/main.cpp  **** 
 122:Src/main.cpp  **** 
 123:Src/main.cpp  **** bool hasIntersections(const struct array *dataset, const struct vect *v)
 124:Src/main.cpp  **** {
 125:Src/main.cpp  **** 	for(size_t i = 0; i < dataset->size; i++)
 126:Src/main.cpp  **** 	{
 127:Src/main.cpp  **** 		if(hasIntersection(&((struct obstacle*)dataset->items)[i], v))
 128:Src/main.cpp  **** 			return true;
 129:Src/main.cpp  **** 	}
 130:Src/main.cpp  **** 	return false;
 131:Src/main.cpp  **** }
 132:Src/main.cpp  **** 
 133:Src/main.cpp  **** bool hasIntersections(const struct vect *v)
 134:Src/main.cpp  **** {
 135:Src/main.cpp  **** 	for(size_t i = 0; i < numOfObstacles; i++)
 136:Src/main.cpp  **** 	{
 137:Src/main.cpp  **** 		if(hasIntersection(&obstacles[i], v))
 138:Src/main.cpp  **** 			return true;
 139:Src/main.cpp  **** 	}
 140:Src/main.cpp  **** 	return false;
 141:Src/main.cpp  **** }
 142:Src/main.cpp  **** 
 143:Src/main.cpp  **** struct coords getIntersection(const struct array *dataset, const struct vect *v)
 144:Src/main.cpp  **** {
 145:Src/main.cpp  **** 	struct obstacle *o = NULL;
 146:Src/main.cpp  **** 	for(size_t i = 0; i < dataset->size; i++)
 147:Src/main.cpp  **** 	{
 148:Src/main.cpp  **** 		if(hasIntersection(&((struct obstacle*)dataset->items)[i], v))
 149:Src/main.cpp  **** 		{
 150:Src/main.cpp  **** 			o = &((struct obstacle*)dataset->items)[i];
 151:Src/main.cpp  **** 			break;
 152:Src/main.cpp  **** 		}
 153:Src/main.cpp  **** 	}
 154:Src/main.cpp  **** 	if(o != NULL)
 155:Src/main.cpp  **** 		return {-1, -1};
 156:Src/main.cpp  **** 
 157:Src/main.cpp  **** 	return getIntersection(o, v);
 158:Src/main.cpp  **** }
 159:Src/main.cpp  **** 
 160:Src/main.cpp  **** 
 161:Src/main.cpp  **** struct obstacle*	getIntersected(const struct array *dataset, const struct vect *v)
 162:Src/main.cpp  **** {
 163:Src/main.cpp  **** 	struct obstacle *o = NULL;
GAS LISTING /tmp/ccK1lRdA.s 			page 4


 164:Src/main.cpp  **** 	struct coords	inter;
 165:Src/main.cpp  **** 	COORDS_DATATYPE l = INF;
 166:Src/main.cpp  **** 	cout << "Watching for vect " << v->c->x << ":" << v->c->y << "; d" << v->dx << ":d" << v->dy << en
 167:Src/main.cpp  **** 	for(size_t i = 0; i < dataset->size; i++)
 168:Src/main.cpp  **** 	{
 169:Src/main.cpp  **** 		cout << "###Watching for intersection, obst: " << (int)i << "\t\t###" << endl;
 170:Src/main.cpp  **** 		inter = getIntersection(&((struct obstacle*)dataset->items)[i], v);
 171:Src/main.cpp  **** 		COORDS_DATATYPE _l = getLen(v->c, &inter);
 172:Src/main.cpp  **** 		if(inter.x != -1 && inter.y != -1 && _l < l)
 173:Src/main.cpp  **** 		{
 174:Src/main.cpp  **** 			cout << "####Found intersection: " << inter.x << ":" << inter.y << " with len " << _l << "\t\t\t
 175:Src/main.cpp  **** 			o = &((struct obstacle*)dataset->items)[i];
 176:Src/main.cpp  **** 			l = _l;
 177:Src/main.cpp  **** 		}
 178:Src/main.cpp  **** 	}
 179:Src/main.cpp  **** 	return o;
 180:Src/main.cpp  **** }
 181:Src/main.cpp  **** 
 182:Src/main.cpp  **** void initObstCorner(const struct obstacle *obst, const uint8_t corner)
 183:Src/main.cpp  **** {
 184:Src/main.cpp  **** 	cout << "Watching corner " << (int)corner << " of obstacle " << obst << endl;
 185:Src/main.cpp  **** 	struct graphPoint *point = getPoint(obst, corner);
 186:Src/main.cpp  **** 	struct array *obsts = getDataSet(obst, corner);
 187:Src/main.cpp  **** 	struct vect v;
 188:Src/main.cpp  **** 	for(uint8_t i = 0; i < VECTORS_PER_CHECK; i++)
 189:Src/main.cpp  **** 	{
 190:Src/main.cpp  **** 		// cout << "Creating vector " << (int)i << endl;
 191:Src/main.cpp  **** 		v = createVect(obst, corner, ((360 / VECTORS_PER_CHECK) * i));
 192:Src/main.cpp  **** 		// cout << "Watching vector " << (int)i << endl;
 193:Src/main.cpp  **** 		struct obstacle *o = getIntersected(obsts, &v);
 194:Src/main.cpp  **** 		if(o != NULL)
 195:Src/main.cpp  **** 		{
 196:Src/main.cpp  **** 			struct coords *c;
 197:Src/main.cpp  **** 			for(uint8_t h = 0; h < 4; h++)
 198:Src/main.cpp  **** 			{
 199:Src/main.cpp  **** 				cout << "->Found intersection" << endl;
 200:Src/main.cpp  **** 				c = getCoordsOfCorner(o, h);
 201:Src/main.cpp  **** 				v.dx = abs(c->x - v.c->x);
 202:Src/main.cpp  **** 				v.dy = abs(c->y - v.c->y);
 203:Src/main.cpp  **** 				if((v.dx != 0 || v.dy != 0) && getIntersected(obsts, &v) == NULL)
 204:Src/main.cpp  **** 				{
 205:Src/main.cpp  **** 					cout << "--->Adding edge from o_" << obst->c->x << ":" << obst->c->y << " to o_" << o->c->x <<
 206:Src/main.cpp  **** 						 << "With coords: " << v.c->x << ":" << v.c->y << " -> " << c->x << ":" << c->y << endl;
 207:Src/main.cpp  **** 					addTarget(point, o->corners[h]);
 208:Src/main.cpp  **** 				}
 209:Src/main.cpp  **** 			}
 210:Src/main.cpp  **** 		}
 211:Src/main.cpp  **** 	}
 212:Src/main.cpp  **** 	free(obsts);
 213:Src/main.cpp  **** }
 214:Src/main.cpp  **** 
 215:Src/main.cpp  **** 
 216:Src/main.cpp  **** 
 217:Src/main.cpp  **** void initObst(const struct obstacle *obst)
 218:Src/main.cpp  **** {
 219:Src/main.cpp  **** 	for(uint8_t i = 0; i < 4; i++)
 220:Src/main.cpp  **** 		initObstCorner(obst, i);
GAS LISTING /tmp/ccK1lRdA.s 			page 5


 221:Src/main.cpp  **** }
 222:Src/main.cpp  **** 
 223:Src/main.cpp  **** 
 224:Src/main.cpp  **** 
 225:Src/main.cpp  **** 
 226:Src/main.cpp  **** 
 227:Src/main.cpp  **** 
 228:Src/main.cpp  **** 
 229:Src/main.cpp  **** 
 230:Src/main.cpp  **** 
 231:Src/main.cpp  **** 
 232:Src/main.cpp  **** 
 233:Src/main.cpp  **** 
 234:Src/main.cpp  **** 
 235:Src/main.cpp  **** 
 236:Src/main.cpp  **** 
 237:Src/main.cpp  **** struct coords getCoordsOfPoint(const struct graphPoint *p)
 238:Src/main.cpp  **** {
 239:Src/main.cpp  **** 	return p->c;
 240:Src/main.cpp  **** 
 241:Src/main.cpp  **** 	for(size_t i = 0; i < numOfObstacles; i++)
 242:Src/main.cpp  **** 	{
 243:Src/main.cpp  **** 		for(size_t j = 0; j < 4; j++)
 244:Src/main.cpp  **** 		{
 245:Src/main.cpp  **** 			if(p == getPoint(&obstacles[i], j))
 246:Src/main.cpp  **** 			{
 247:Src/main.cpp  **** 				cout << "\t\t\tPoint found: obst: " << i << endl
 248:Src/main.cpp  **** 					 << "\t\t\tCorner: " << j << endl
 249:Src/main.cpp  **** 					 << "\t\tobst: " << &obstacles[i] << " corners: ";
 250:Src/main.cpp  **** 				for(int s = 0; s < 4; s++)
 251:Src/main.cpp  **** 					cout << obstacles[i].corners[s] << " ";
 252:Src/main.cpp  **** 				cout << endl << "\t\tCurr: " << p << endl;
 253:Src/main.cpp  **** 				return *getCoordsOfCorner(&obstacles[i], j);
 254:Src/main.cpp  **** 			}
 255:Src/main.cpp  **** 		}
 256:Src/main.cpp  **** 	}
 257:Src/main.cpp  **** 
 258:Src/main.cpp  **** 	return {-1, -1};
 259:Src/main.cpp  **** }
 260:Src/main.cpp  **** 
 261:Src/main.cpp  **** 
 262:Src/main.cpp  **** 
 263:Src/main.cpp  **** void drawEdges(const struct graphPoint *p)
 264:Src/main.cpp  **** {
 265:Src/main.cpp  **** 	if(p == NULL || p->numOfTargets == 0)
 266:Src/main.cpp  **** 		return;
 267:Src/main.cpp  **** 
 268:Src/main.cpp  **** 	struct coords start, end;
 269:Src/main.cpp  **** 	start = getCoordsOfPoint(p);
 270:Src/main.cpp  **** 	for(size_t i = 0; i < p->numOfTargets; i++)
 271:Src/main.cpp  **** 	{
 272:Src/main.cpp  **** 		end = getCoordsOfPoint(p->targets[i]);
 273:Src/main.cpp  **** 		drawLine(start.x, start.y, end.x, end.y);
 274:Src/main.cpp  **** 		cout 	<< "\tLine: " << endl
 275:Src/main.cpp  **** 				<< "\t\t" << start.x << ":" << start.y << " -> " << end.x << ":" << end.y << endl;
 276:Src/main.cpp  **** 	}
 277:Src/main.cpp  **** }
GAS LISTING /tmp/ccK1lRdA.s 			page 6


 278:Src/main.cpp  **** 
 279:Src/main.cpp  **** 
 280:Src/main.cpp  **** 
 281:Src/main.cpp  **** 
 282:Src/main.cpp  **** void drawObstacle(const struct obstacle *o)
 283:Src/main.cpp  **** {
 284:Src/main.cpp  **** 	glSetColor(OBST_COLOR);
 285:Src/main.cpp  **** 	drawQuad(o->c->x, o->c->y, o->a);
 286:Src/main.cpp  **** 	glSetColor(GRAPH_COLOR);
 287:Src/main.cpp  **** 	for(int i = 0; i < 4; i++)
 288:Src/main.cpp  **** 		drawEdges(o->corners[i]);
 289:Src/main.cpp  **** }
 290:Src/main.cpp  **** 
 291:Src/main.cpp  **** void renderScene(void)
 292:Src/main.cpp  **** {
 293:Src/main.cpp  **** 	glClear(GL_COLOR_BUFFER_BIT);
 294:Src/main.cpp  **** 
 295:Src/main.cpp  **** 		// glSetColor(0xFF0000);
 296:Src/main.cpp  **** 		// drawTriangle(glutGet(GLUT_WINDOW_WIDTH) / 2 - 200, glutGet(GLUT_WINDOW_HEIGHT) / 2 - 200, 400)
 297:Src/main.cpp  **** 		for(size_t i = 0; i < numOfObstacles; i++)
 298:Src/main.cpp  **** 		{
 299:Src/main.cpp  **** 			drawObstacle(&obstacles[i]);
 300:Src/main.cpp  **** 		}
 301:Src/main.cpp  **** 		// glSetColor(0x00FF00);
 302:Src/main.cpp  **** 		// drawLine(19, 40, 49, 70);
 303:Src/main.cpp  **** 		// drawLine(startway.x, startway.y, endway.x, endway.y);
 304:Src/main.cpp  **** 
 305:Src/main.cpp  **** 
 306:Src/main.cpp  ****     glutSwapBuffers();
 307:Src/main.cpp  **** }
 308:Src/main.cpp  **** 
 309:Src/main.cpp  **** 
 310:Src/main.cpp  **** void handleKeypress(unsigned char key, //The key that was pressed
 311:Src/main.cpp  ****                                         int x, int y) //The current mouse coordinates
 312:Src/main.cpp  **** {
 313:Src/main.cpp  ****     cout << "PRESSED\n" << (int)key << endl;
 314:Src/main.cpp  ****     if(key == 27) //ESC
 315:Src/main.cpp  ****     {
 316:Src/main.cpp  **** 	    cout << "ESC\n";
 317:Src/main.cpp  **** 		terminated = true;
 318:Src/main.cpp  ****     }
 319:Src/main.cpp  **** }
 320:Src/main.cpp  **** 
 321:Src/main.cpp  **** 
 322:Src/main.cpp  **** 
 323:Src/main.cpp  **** 
 324:Src/main.cpp  **** 
 325:Src/main.cpp  **** void reshape(int w, int h)
 326:Src/main.cpp  **** {
  10              		.loc 1 326 1 view -0
  11              		.cfi_startproc
  12              		.loc 1 326 1 is_stmt 0 view .LVU1
  13 0000 55       		pushq	%rbp
  14              		.cfi_def_cfa_offset 16
  15              		.cfi_offset 6, -16
  16 0001 53       		pushq	%rbx
  17              		.cfi_def_cfa_offset 24
GAS LISTING /tmp/ccK1lRdA.s 			page 7


  18              		.cfi_offset 3, -24
  19 0002 4883EC08 		subq	$8, %rsp
  20              		.cfi_def_cfa_offset 32
  21 0006 89FB     		movl	%edi, %ebx
  22 0008 89F5     		movl	%esi, %ebp
 327:Src/main.cpp  **** 	glViewport(0, 0, w, h);
  23              		.loc 1 327 2 is_stmt 1 view .LVU2
  24              		.loc 1 327 12 is_stmt 0 view .LVU3
  25 000a 89F1     		movl	%esi, %ecx
  26 000c 89FA     		movl	%edi, %edx
  27 000e BE000000 		movl	$0, %esi
  27      00
  28              	.LVL1:
  29              		.loc 1 327 12 view .LVU4
  30 0013 BF000000 		movl	$0, %edi
  30      00
  31              	.LVL2:
  32              		.loc 1 327 12 view .LVU5
  33 0018 E8000000 		call	glViewport@PLT
  33      00
  34              	.LVL3:
 328:Src/main.cpp  **** 
 329:Src/main.cpp  **** 	glMatrixMode(GL_PROJECTION);
  35              		.loc 1 329 2 is_stmt 1 view .LVU6
  36              		.loc 1 329 14 is_stmt 0 view .LVU7
  37 001d BF011700 		movl	$5889, %edi
  37      00
  38 0022 E8000000 		call	glMatrixMode@PLT
  38      00
  39              	.LVL4:
 330:Src/main.cpp  **** 	glLoadIdentity();
  40              		.loc 1 330 2 is_stmt 1 view .LVU8
  41              		.loc 1 330 16 is_stmt 0 view .LVU9
  42 0027 E8000000 		call	glLoadIdentity@PLT
  42      00
  43              	.LVL5:
 331:Src/main.cpp  **** 	gluOrtho2D(0, w, 0, h);
  44              		.loc 1 331 2 is_stmt 1 view .LVU10
  45              		.loc 1 331 12 is_stmt 0 view .LVU11
  46 002c 660FEFDB 		pxor	%xmm3, %xmm3
  47 0030 F20F2ADD 		cvtsi2sdl	%ebp, %xmm3
  48 0034 660FEFD2 		pxor	%xmm2, %xmm2
  49 0038 660FEFC9 		pxor	%xmm1, %xmm1
  50 003c F20F2ACB 		cvtsi2sdl	%ebx, %xmm1
  51 0040 660F28C2 		movapd	%xmm2, %xmm0
  52 0044 E8000000 		call	gluOrtho2D@PLT
  52      00
  53              	.LVL6:
 332:Src/main.cpp  **** 
 333:Src/main.cpp  **** 	glMatrixMode(GL_MODELVIEW);
  54              		.loc 1 333 2 is_stmt 1 view .LVU12
  55              		.loc 1 333 14 is_stmt 0 view .LVU13
  56 0049 BF001700 		movl	$5888, %edi
  56      00
  57 004e E8000000 		call	glMatrixMode@PLT
  57      00
  58              	.LVL7:
GAS LISTING /tmp/ccK1lRdA.s 			page 8


 334:Src/main.cpp  **** 	glLoadIdentity();
  59              		.loc 1 334 2 is_stmt 1 view .LVU14
  60              		.loc 1 334 16 is_stmt 0 view .LVU15
  61 0053 E8000000 		call	glLoadIdentity@PLT
  61      00
  62              	.LVL8:
 335:Src/main.cpp  **** }
  63              		.loc 1 335 1 view .LVU16
  64 0058 4883C408 		addq	$8, %rsp
  65              		.cfi_def_cfa_offset 24
  66 005c 5B       		popq	%rbx
  67              		.cfi_def_cfa_offset 16
  68              	.LVL9:
  69              		.loc 1 335 1 view .LVU17
  70 005d 5D       		popq	%rbp
  71              		.cfi_def_cfa_offset 8
  72              	.LVL10:
  73              		.loc 1 335 1 view .LVU18
  74 005e C3       		ret
  75              		.cfi_endproc
  76              	.LFE2487:
  78              		.globl	_Z4timfi
  80              	_Z4timfi:
  81              	.LVL11:
  82              	.LFB2488:
 336:Src/main.cpp  **** 
 337:Src/main.cpp  **** 
 338:Src/main.cpp  **** 
 339:Src/main.cpp  **** 
 340:Src/main.cpp  **** void timf(int value)				// Timer function
 341:Src/main.cpp  **** {
  83              		.loc 1 341 1 is_stmt 1 view -0
  84              		.cfi_startproc
  85              		.loc 1 341 1 is_stmt 0 view .LVU20
  86 005f 4883EC08 		subq	$8, %rsp
  87              		.cfi_def_cfa_offset 16
 342:Src/main.cpp  **** 	if(!terminated)					//if don't wanna terminate
  88              		.loc 1 342 2 is_stmt 1 view .LVU21
  89 0063 803D0000 		cmpb	$0, terminated(%rip)
  89      000000
  90 006a 7520     		jne	.L4
 343:Src/main.cpp  **** 	{
 344:Src/main.cpp  **** 		glutPostRedisplay();		//Redraw windows
  91              		.loc 1 344 3 view .LVU22
  92              		.loc 1 344 20 is_stmt 0 view .LVU23
  93 006c E8000000 		call	glutPostRedisplay@PLT
  93      00
  94              	.LVL12:
 345:Src/main.cpp  **** 		glutTimerFunc(GL_TIMER_DELAY, timf, 0);	//Setup next timer
  95              		.loc 1 345 3 is_stmt 1 view .LVU24
  96              		.loc 1 345 16 is_stmt 0 view .LVU25
  97 0071 BA000000 		movl	$0, %edx
  97      00
  98 0076 488D3500 		leaq	_Z4timfi(%rip), %rsi
  98      000000
  99 007d BF900100 		movl	$400, %edi
  99      00
GAS LISTING /tmp/ccK1lRdA.s 			page 9


 100 0082 E8000000 		call	glutTimerFunc@PLT
 100      00
 101              	.LVL13:
 346:Src/main.cpp  **** 	}
 347:Src/main.cpp  **** 	else							//if wanna terminate
 348:Src/main.cpp  **** 	{
 349:Src/main.cpp  **** 		terminated = false;			//set terminated flag
 350:Src/main.cpp  **** 		exit(RETURN_CODE_OK);		//terminate thread
 351:Src/main.cpp  **** 	}
 352:Src/main.cpp  **** }
 102              		.loc 1 352 1 view .LVU26
 103 0087 4883C408 		addq	$8, %rsp
 104              		.cfi_remember_state
 105              		.cfi_def_cfa_offset 8
 106 008b C3       		ret
 107              	.LVL14:
 108              	.L4:
 109              		.cfi_restore_state
 349:Src/main.cpp  **** 		exit(RETURN_CODE_OK);		//terminate thread
 110              		.loc 1 349 3 is_stmt 1 view .LVU27
 349:Src/main.cpp  **** 		exit(RETURN_CODE_OK);		//terminate thread
 111              		.loc 1 349 14 is_stmt 0 view .LVU28
 112 008c C6050000 		movb	$0, terminated(%rip)
 112      000000
 350:Src/main.cpp  **** 	}
 113              		.loc 1 350 3 is_stmt 1 view .LVU29
 350:Src/main.cpp  **** 	}
 114              		.loc 1 350 7 is_stmt 0 view .LVU30
 115 0093 BF000000 		movl	$0, %edi
 115      00
 116              	.LVL15:
 350:Src/main.cpp  **** 	}
 117              		.loc 1 350 7 view .LVU31
 118 0098 E8000000 		call	exit@PLT
 118      00
 119              	.LVL16:
 120              		.cfi_endproc
 121              	.LFE2488:
 124              	_Z41__static_initialization_and_destruction_0ii:
 125              	.LVL17:
 126              	.LFB2837:
 353:Src/main.cpp  **** 
 354:Src/main.cpp  **** 
 355:Src/main.cpp  **** 
 356:Src/main.cpp  **** 
 357:Src/main.cpp  **** int main(int argc, char **argv)
 358:Src/main.cpp  **** {
 359:Src/main.cpp  **** 	numOfObstacles = 2;
 360:Src/main.cpp  **** 	obstacles = (struct obstacle*)malloc(sizeof(struct obstacle) * numOfObstacles);
 361:Src/main.cpp  **** 	obstacles[0] = createObstacle(20, 20, 20);
 362:Src/main.cpp  **** 	obstacles[1] = createObstacle(50, 50, 20);
 363:Src/main.cpp  **** 	// obstacles[2] = createObstacle(70, 20, 20);
 364:Src/main.cpp  **** 	// obstacles[3] = createObstacle(5, 55, 20);
 365:Src/main.cpp  **** 
 366:Src/main.cpp  **** 	startway.x 	= 0;
 367:Src/main.cpp  **** 	startway.y 	= 0;
 368:Src/main.cpp  **** 	endway.x	= 150;
GAS LISTING /tmp/ccK1lRdA.s 			page 10


 369:Src/main.cpp  **** 	endway.y	= 150;
 370:Src/main.cpp  **** 
 371:Src/main.cpp  **** 
 372:Src/main.cpp  **** 
 373:Src/main.cpp  **** 	// cout << "AAAAAAAAAAAAAAAA" << endl;
 374:Src/main.cpp  **** 
 375:Src/main.cpp  **** 	initObst(&obstacles[0]);
 376:Src/main.cpp  **** 
 377:Src/main.cpp  **** 	// for(int i = 0; i < 4; i++)
 378:Src/main.cpp  **** 	// {
 379:Src/main.cpp  **** 	// 	if(obstacles[0].corners[i] != NULL)
 380:Src/main.cpp  **** 	// 	{
 381:Src/main.cpp  **** 	// 		for(int j = 0; j < obstacles[0].corners[i]->numOfTargets; j++)
 382:Src/main.cpp  **** 	// 		{
 383:Src/main.cpp  **** 	// 			cout << "corner: " << obstacles[0].corners[i]->c.x << ":" << obstacles[0].corners[i]->c.y <<
 384:Src/main.cpp  **** 	// 		}
 385:Src/main.cpp  **** 	// 	}
 386:Src/main.cpp  **** 	// }
 387:Src/main.cpp  **** 
 388:Src/main.cpp  **** 	// struct coords sss = getCoordsOfPoint(obstacles[0].corners[0]);
 389:Src/main.cpp  **** 	// cout << sss.x << " " << sss.y << endl;
 390:Src/main.cpp  **** 
 391:Src/main.cpp  **** 	// struct vect v = createVect(&obstacles[0], CORNER_RIGHT_TOP, 45);
 392:Src/main.cpp  **** 	// cout << hasIntersection(&obstacles[1], &v) << endl;
 393:Src/main.cpp  **** 
 394:Src/main.cpp  **** 	// struct array ar;
 395:Src/main.cpp  **** 	// ar.items = obstacles;
 396:Src/main.cpp  **** 	// ar.size = 4;
 397:Src/main.cpp  **** 	//
 398:Src/main.cpp  **** 	// struct obstacle *ob = getIntersected(&ar, &v);
 399:Src/main.cpp  **** 	//
 400:Src/main.cpp  **** 	// cout << ob << endl;
 401:Src/main.cpp  **** 	// struct coords dot = {20, 10};
 402:Src/main.cpp  **** 	// cout << isDotInside(&dot, &obstacles[0]);
 403:Src/main.cpp  **** // return 0;
 404:Src/main.cpp  ****  	cout << "glut init\n";
 405:Src/main.cpp  **** 	glutInit(&argc, argv);
 406:Src/main.cpp  **** 	cout << "dispmode\n";
 407:Src/main.cpp  **** 	glutInitDisplayMode(GLUT_DOUBLE | GLUT_RGBA);
 408:Src/main.cpp  **** 	glutCreateWindow("floating");
 409:Src/main.cpp  **** 	cout << "reshape\n";
 410:Src/main.cpp  **** 	glutReshapeFunc(reshape);
 411:Src/main.cpp  **** 	cout << "dispfunc\n";
 412:Src/main.cpp  **** 	glutDisplayFunc(renderScene);
 413:Src/main.cpp  ****     cout << "keyfunc\n";
 414:Src/main.cpp  ****     glutKeyboardFunc(handleKeypress);
 415:Src/main.cpp  **** 	cout << "timer\n";
 416:Src/main.cpp  **** 	glutTimerFunc(GL_TIMER_DELAY, timf, 0);
 417:Src/main.cpp  **** 	cout << "mainloop\n";
 418:Src/main.cpp  **** 	glutMainLoop();
 419:Src/main.cpp  **** 
 420:Src/main.cpp  **** 
 421:Src/main.cpp  **** 	return 1;
 422:Src/main.cpp  **** }
 127              		.loc 1 422 1 is_stmt 1 view -0
 128              		.cfi_startproc
 129              		.loc 1 422 1 is_stmt 0 view .LVU33
GAS LISTING /tmp/ccK1lRdA.s 			page 11


 130 009d 83FF01   		cmpl	$1, %edi
 131 00a0 7401     		je	.L13
 132              	.L10:
 133 00a2 C3       		ret
 134              	.L13:
 135              		.loc 1 422 1 discriminator 1 view .LVU34
 136 00a3 81FEFFFF 		cmpl	$65535, %esi
 136      0000
 137 00a9 75F7     		jne	.L10
 138              		.loc 1 422 1 view .LVU35
 139 00ab 4883EC08 		subq	$8, %rsp
 140              		.cfi_def_cfa_offset 16
 141              		.file 2 "/usr/include/c++/9.1.0/iostream"
   1:/usr/include/c++/9.1.0/iostream **** // Standard iostream objects -*- C++ -*-
   2:/usr/include/c++/9.1.0/iostream **** 
   3:/usr/include/c++/9.1.0/iostream **** // Copyright (C) 1997-2019 Free Software Foundation, Inc.
   4:/usr/include/c++/9.1.0/iostream **** //
   5:/usr/include/c++/9.1.0/iostream **** // This file is part of the GNU ISO C++ Library.  This library is free
   6:/usr/include/c++/9.1.0/iostream **** // software; you can redistribute it and/or modify it under the
   7:/usr/include/c++/9.1.0/iostream **** // terms of the GNU General Public License as published by the
   8:/usr/include/c++/9.1.0/iostream **** // Free Software Foundation; either version 3, or (at your option)
   9:/usr/include/c++/9.1.0/iostream **** // any later version.
  10:/usr/include/c++/9.1.0/iostream **** 
  11:/usr/include/c++/9.1.0/iostream **** // This library is distributed in the hope that it will be useful,
  12:/usr/include/c++/9.1.0/iostream **** // but WITHOUT ANY WARRANTY; without even the implied warranty of
  13:/usr/include/c++/9.1.0/iostream **** // MERCHANTABILITY or FITNESS FOR A PARTICULAR PURPOSE.  See the
  14:/usr/include/c++/9.1.0/iostream **** // GNU General Public License for more details.
  15:/usr/include/c++/9.1.0/iostream **** 
  16:/usr/include/c++/9.1.0/iostream **** // Under Section 7 of GPL version 3, you are granted additional
  17:/usr/include/c++/9.1.0/iostream **** // permissions described in the GCC Runtime Library Exception, version
  18:/usr/include/c++/9.1.0/iostream **** // 3.1, as published by the Free Software Foundation.
  19:/usr/include/c++/9.1.0/iostream **** 
  20:/usr/include/c++/9.1.0/iostream **** // You should have received a copy of the GNU General Public License and
  21:/usr/include/c++/9.1.0/iostream **** // a copy of the GCC Runtime Library Exception along with this program;
  22:/usr/include/c++/9.1.0/iostream **** // see the files COPYING3 and COPYING.RUNTIME respectively.  If not, see
  23:/usr/include/c++/9.1.0/iostream **** // <http://www.gnu.org/licenses/>.
  24:/usr/include/c++/9.1.0/iostream **** 
  25:/usr/include/c++/9.1.0/iostream **** /** @file include/iostream
  26:/usr/include/c++/9.1.0/iostream ****  *  This is a Standard C++ Library header.
  27:/usr/include/c++/9.1.0/iostream ****  */
  28:/usr/include/c++/9.1.0/iostream **** 
  29:/usr/include/c++/9.1.0/iostream **** //
  30:/usr/include/c++/9.1.0/iostream **** // ISO C++ 14882: 27.3  Standard iostream objects
  31:/usr/include/c++/9.1.0/iostream **** //
  32:/usr/include/c++/9.1.0/iostream **** 
  33:/usr/include/c++/9.1.0/iostream **** #ifndef _GLIBCXX_IOSTREAM
  34:/usr/include/c++/9.1.0/iostream **** #define _GLIBCXX_IOSTREAM 1
  35:/usr/include/c++/9.1.0/iostream **** 
  36:/usr/include/c++/9.1.0/iostream **** #pragma GCC system_header
  37:/usr/include/c++/9.1.0/iostream **** 
  38:/usr/include/c++/9.1.0/iostream **** #include <bits/c++config.h>
  39:/usr/include/c++/9.1.0/iostream **** #include <ostream>
  40:/usr/include/c++/9.1.0/iostream **** #include <istream>
  41:/usr/include/c++/9.1.0/iostream **** 
  42:/usr/include/c++/9.1.0/iostream **** namespace std _GLIBCXX_VISIBILITY(default)
  43:/usr/include/c++/9.1.0/iostream **** {
  44:/usr/include/c++/9.1.0/iostream **** _GLIBCXX_BEGIN_NAMESPACE_VERSION
GAS LISTING /tmp/ccK1lRdA.s 			page 12


  45:/usr/include/c++/9.1.0/iostream **** 
  46:/usr/include/c++/9.1.0/iostream ****   /**
  47:/usr/include/c++/9.1.0/iostream ****    *  @name Standard Stream Objects
  48:/usr/include/c++/9.1.0/iostream ****    *
  49:/usr/include/c++/9.1.0/iostream ****    *  The &lt;iostream&gt; header declares the eight <em>standard stream
  50:/usr/include/c++/9.1.0/iostream ****    *  objects</em>.  For other declarations, see
  51:/usr/include/c++/9.1.0/iostream ****    *  http://gcc.gnu.org/onlinedocs/libstdc++/manual/io.html
  52:/usr/include/c++/9.1.0/iostream ****    *  and the @link iosfwd I/O forward declarations @endlink
  53:/usr/include/c++/9.1.0/iostream ****    *
  54:/usr/include/c++/9.1.0/iostream ****    *  They are required by default to cooperate with the global C
  55:/usr/include/c++/9.1.0/iostream ****    *  library's @c FILE streams, and to be available during program
  56:/usr/include/c++/9.1.0/iostream ****    *  startup and termination. For more information, see the section of the
  57:/usr/include/c++/9.1.0/iostream ****    *  manual linked to above.
  58:/usr/include/c++/9.1.0/iostream ****   */
  59:/usr/include/c++/9.1.0/iostream ****   //@{
  60:/usr/include/c++/9.1.0/iostream ****   extern istream cin;		/// Linked to standard input
  61:/usr/include/c++/9.1.0/iostream ****   extern ostream cout;		/// Linked to standard output
  62:/usr/include/c++/9.1.0/iostream ****   extern ostream cerr;		/// Linked to standard error (unbuffered)
  63:/usr/include/c++/9.1.0/iostream ****   extern ostream clog;		/// Linked to standard error (buffered)
  64:/usr/include/c++/9.1.0/iostream **** 
  65:/usr/include/c++/9.1.0/iostream **** #ifdef _GLIBCXX_USE_WCHAR_T
  66:/usr/include/c++/9.1.0/iostream ****   extern wistream wcin;		/// Linked to standard input
  67:/usr/include/c++/9.1.0/iostream ****   extern wostream wcout;	/// Linked to standard output
  68:/usr/include/c++/9.1.0/iostream ****   extern wostream wcerr;	/// Linked to standard error (unbuffered)
  69:/usr/include/c++/9.1.0/iostream ****   extern wostream wclog;	/// Linked to standard error (buffered)
  70:/usr/include/c++/9.1.0/iostream **** #endif
  71:/usr/include/c++/9.1.0/iostream ****   //@}
  72:/usr/include/c++/9.1.0/iostream **** 
  73:/usr/include/c++/9.1.0/iostream ****   // For construction of filebuffers for cout, cin, cerr, clog et. al.
  74:/usr/include/c++/9.1.0/iostream ****   static ios_base::Init __ioinit;
 142              		.loc 2 74 25 view .LVU36
 143 00af 488D3D00 		leaq	_ZStL8__ioinit(%rip), %rdi
 143      000000
 144              	.LVL18:
 145              		.loc 2 74 25 view .LVU37
 146 00b6 E8000000 		call	_ZNSt8ios_base4InitC1Ev@PLT
 146      00
 147              	.LVL19:
 148              		.loc 2 74 25 view .LVU38
 149 00bb 488D1500 		leaq	__dso_handle(%rip), %rdx
 149      000000
 150 00c2 488D3500 		leaq	_ZStL8__ioinit(%rip), %rsi
 150      000000
 151 00c9 488B3D00 		movq	_ZNSt8ios_base4InitD1Ev@GOTPCREL(%rip), %rdi
 151      000000
 152 00d0 E8000000 		call	__cxa_atexit@PLT
 152      00
 153              	.LVL20:
 154              		.loc 1 422 1 view .LVU39
 155 00d5 4883C408 		addq	$8, %rsp
 156              		.cfi_def_cfa_offset 8
 157 00d9 C3       		ret
 158              		.cfi_endproc
 159              	.LFE2837:
 161              		.section	.rodata.str1.1,"aMS",@progbits,1
 162              	.LC1:
 163 0000 50524553 		.string	"PRESSED\n"
GAS LISTING /tmp/ccK1lRdA.s 			page 13


 163      5345440A 
 163      00
 164              	.LC2:
 165 0009 4553430A 		.string	"ESC\n"
 165      00
 166              		.text
 167              		.globl	_Z14handleKeypresshii
 169              	_Z14handleKeypresshii:
 170              	.LVL21:
 171              	.LFB2486:
 312:Src/main.cpp  ****     cout << "PRESSED\n" << (int)key << endl;
 172              		.loc 1 312 1 is_stmt 1 view -0
 173              		.cfi_startproc
 312:Src/main.cpp  ****     cout << "PRESSED\n" << (int)key << endl;
 174              		.loc 1 312 1 is_stmt 0 view .LVU41
 175 00da 4154     		pushq	%r12
 176              		.cfi_def_cfa_offset 16
 177              		.cfi_offset 12, -16
 178 00dc 55       		pushq	%rbp
 179              		.cfi_def_cfa_offset 24
 180              		.cfi_offset 6, -24
 181 00dd 53       		pushq	%rbx
 182              		.cfi_def_cfa_offset 32
 183              		.cfi_offset 3, -32
 184 00de 89FD     		movl	%edi, %ebp
 313:Src/main.cpp  ****     if(key == 27) //ESC
 185              		.loc 1 313 5 is_stmt 1 view .LVU42
 186              	.LVL22:
 187              	.LBB417:
 188              	.LBI417:
 189              		.file 3 "/usr/include/c++/9.1.0/ostream"
   1:/usr/include/c++/9.1.0/ostream **** // Output streams -*- C++ -*-
   2:/usr/include/c++/9.1.0/ostream **** 
   3:/usr/include/c++/9.1.0/ostream **** // Copyright (C) 1997-2019 Free Software Foundation, Inc.
   4:/usr/include/c++/9.1.0/ostream **** //
   5:/usr/include/c++/9.1.0/ostream **** // This file is part of the GNU ISO C++ Library.  This library is free
   6:/usr/include/c++/9.1.0/ostream **** // software; you can redistribute it and/or modify it under the
   7:/usr/include/c++/9.1.0/ostream **** // terms of the GNU General Public License as published by the
   8:/usr/include/c++/9.1.0/ostream **** // Free Software Foundation; either version 3, or (at your option)
   9:/usr/include/c++/9.1.0/ostream **** // any later version.
  10:/usr/include/c++/9.1.0/ostream **** 
  11:/usr/include/c++/9.1.0/ostream **** // This library is distributed in the hope that it will be useful,
  12:/usr/include/c++/9.1.0/ostream **** // but WITHOUT ANY WARRANTY; without even the implied warranty of
  13:/usr/include/c++/9.1.0/ostream **** // MERCHANTABILITY or FITNESS FOR A PARTICULAR PURPOSE.  See the
  14:/usr/include/c++/9.1.0/ostream **** // GNU General Public License for more details.
  15:/usr/include/c++/9.1.0/ostream **** 
  16:/usr/include/c++/9.1.0/ostream **** // Under Section 7 of GPL version 3, you are granted additional
  17:/usr/include/c++/9.1.0/ostream **** // permissions described in the GCC Runtime Library Exception, version
  18:/usr/include/c++/9.1.0/ostream **** // 3.1, as published by the Free Software Foundation.
  19:/usr/include/c++/9.1.0/ostream **** 
  20:/usr/include/c++/9.1.0/ostream **** // You should have received a copy of the GNU General Public License and
  21:/usr/include/c++/9.1.0/ostream **** // a copy of the GCC Runtime Library Exception along with this program;
  22:/usr/include/c++/9.1.0/ostream **** // see the files COPYING3 and COPYING.RUNTIME respectively.  If not, see
  23:/usr/include/c++/9.1.0/ostream **** // <http://www.gnu.org/licenses/>.
  24:/usr/include/c++/9.1.0/ostream **** 
  25:/usr/include/c++/9.1.0/ostream **** /** @file include/ostream
  26:/usr/include/c++/9.1.0/ostream ****  *  This is a Standard C++ Library header.
GAS LISTING /tmp/ccK1lRdA.s 			page 14


  27:/usr/include/c++/9.1.0/ostream ****  */
  28:/usr/include/c++/9.1.0/ostream **** 
  29:/usr/include/c++/9.1.0/ostream **** //
  30:/usr/include/c++/9.1.0/ostream **** // ISO C++ 14882: 27.6.2  Output streams
  31:/usr/include/c++/9.1.0/ostream **** //
  32:/usr/include/c++/9.1.0/ostream **** 
  33:/usr/include/c++/9.1.0/ostream **** #ifndef _GLIBCXX_OSTREAM
  34:/usr/include/c++/9.1.0/ostream **** #define _GLIBCXX_OSTREAM 1
  35:/usr/include/c++/9.1.0/ostream **** 
  36:/usr/include/c++/9.1.0/ostream **** #pragma GCC system_header
  37:/usr/include/c++/9.1.0/ostream **** 
  38:/usr/include/c++/9.1.0/ostream **** #include <ios>
  39:/usr/include/c++/9.1.0/ostream **** #include <bits/ostream_insert.h>
  40:/usr/include/c++/9.1.0/ostream **** 
  41:/usr/include/c++/9.1.0/ostream **** namespace std _GLIBCXX_VISIBILITY(default)
  42:/usr/include/c++/9.1.0/ostream **** {
  43:/usr/include/c++/9.1.0/ostream **** _GLIBCXX_BEGIN_NAMESPACE_VERSION
  44:/usr/include/c++/9.1.0/ostream **** 
  45:/usr/include/c++/9.1.0/ostream ****   /**
  46:/usr/include/c++/9.1.0/ostream ****    *  @brief  Template class basic_ostream.
  47:/usr/include/c++/9.1.0/ostream ****    *  @ingroup io
  48:/usr/include/c++/9.1.0/ostream ****    *
  49:/usr/include/c++/9.1.0/ostream ****    *  @tparam _CharT  Type of character stream.
  50:/usr/include/c++/9.1.0/ostream ****    *  @tparam _Traits  Traits for character type, defaults to
  51:/usr/include/c++/9.1.0/ostream ****    *                   char_traits<_CharT>.
  52:/usr/include/c++/9.1.0/ostream ****    *
  53:/usr/include/c++/9.1.0/ostream ****    *  This is the base class for all output streams.  It provides text
  54:/usr/include/c++/9.1.0/ostream ****    *  formatting of all builtin types, and communicates with any class
  55:/usr/include/c++/9.1.0/ostream ****    *  derived from basic_streambuf to do the actual output.
  56:/usr/include/c++/9.1.0/ostream ****   */
  57:/usr/include/c++/9.1.0/ostream ****   template<typename _CharT, typename _Traits>
  58:/usr/include/c++/9.1.0/ostream ****     class basic_ostream : virtual public basic_ios<_CharT, _Traits>
  59:/usr/include/c++/9.1.0/ostream ****     {
  60:/usr/include/c++/9.1.0/ostream ****     public:
  61:/usr/include/c++/9.1.0/ostream ****       // Types (inherited from basic_ios):
  62:/usr/include/c++/9.1.0/ostream ****       typedef _CharT			 		char_type;
  63:/usr/include/c++/9.1.0/ostream ****       typedef typename _Traits::int_type 		int_type;
  64:/usr/include/c++/9.1.0/ostream ****       typedef typename _Traits::pos_type 		pos_type;
  65:/usr/include/c++/9.1.0/ostream ****       typedef typename _Traits::off_type 		off_type;
  66:/usr/include/c++/9.1.0/ostream ****       typedef _Traits			 		traits_type;
  67:/usr/include/c++/9.1.0/ostream **** 
  68:/usr/include/c++/9.1.0/ostream ****       // Non-standard Types:
  69:/usr/include/c++/9.1.0/ostream ****       typedef basic_streambuf<_CharT, _Traits> 		__streambuf_type;
  70:/usr/include/c++/9.1.0/ostream ****       typedef basic_ios<_CharT, _Traits>		__ios_type;
  71:/usr/include/c++/9.1.0/ostream ****       typedef basic_ostream<_CharT, _Traits>		__ostream_type;
  72:/usr/include/c++/9.1.0/ostream ****       typedef num_put<_CharT, ostreambuf_iterator<_CharT, _Traits> >
  73:/usr/include/c++/9.1.0/ostream ****       							__num_put_type;
  74:/usr/include/c++/9.1.0/ostream ****       typedef ctype<_CharT>	      			__ctype_type;
  75:/usr/include/c++/9.1.0/ostream **** 
  76:/usr/include/c++/9.1.0/ostream ****       /**
  77:/usr/include/c++/9.1.0/ostream ****        *  @brief  Base constructor.
  78:/usr/include/c++/9.1.0/ostream ****        *
  79:/usr/include/c++/9.1.0/ostream ****        *  This ctor is almost never called by the user directly, rather from
  80:/usr/include/c++/9.1.0/ostream ****        *  derived classes' initialization lists, which pass a pointer to
  81:/usr/include/c++/9.1.0/ostream ****        *  their own stream buffer.
  82:/usr/include/c++/9.1.0/ostream ****       */
  83:/usr/include/c++/9.1.0/ostream ****       explicit
GAS LISTING /tmp/ccK1lRdA.s 			page 15


  84:/usr/include/c++/9.1.0/ostream ****       basic_ostream(__streambuf_type* __sb)
  85:/usr/include/c++/9.1.0/ostream ****       { this->init(__sb); }
  86:/usr/include/c++/9.1.0/ostream **** 
  87:/usr/include/c++/9.1.0/ostream ****       /**
  88:/usr/include/c++/9.1.0/ostream ****        *  @brief  Base destructor.
  89:/usr/include/c++/9.1.0/ostream ****        *
  90:/usr/include/c++/9.1.0/ostream ****        *  This does very little apart from providing a virtual base dtor.
  91:/usr/include/c++/9.1.0/ostream ****       */
  92:/usr/include/c++/9.1.0/ostream ****       virtual
  93:/usr/include/c++/9.1.0/ostream ****       ~basic_ostream() { }
  94:/usr/include/c++/9.1.0/ostream **** 
  95:/usr/include/c++/9.1.0/ostream ****       /// Safe prefix/suffix operations.
  96:/usr/include/c++/9.1.0/ostream ****       class sentry;
  97:/usr/include/c++/9.1.0/ostream ****       friend class sentry;
  98:/usr/include/c++/9.1.0/ostream **** 
  99:/usr/include/c++/9.1.0/ostream ****       //@{
 100:/usr/include/c++/9.1.0/ostream ****       /**
 101:/usr/include/c++/9.1.0/ostream ****        *  @brief  Interface for manipulators.
 102:/usr/include/c++/9.1.0/ostream ****        *
 103:/usr/include/c++/9.1.0/ostream ****        *  Manipulators such as @c std::endl and @c std::hex use these
 104:/usr/include/c++/9.1.0/ostream ****        *  functions in constructs like "std::cout << std::endl".  For more
 105:/usr/include/c++/9.1.0/ostream ****        *  information, see the iomanip header.
 106:/usr/include/c++/9.1.0/ostream ****       */
 107:/usr/include/c++/9.1.0/ostream ****       __ostream_type&
 108:/usr/include/c++/9.1.0/ostream ****       operator<<(__ostream_type& (*__pf)(__ostream_type&))
 109:/usr/include/c++/9.1.0/ostream ****       {
 110:/usr/include/c++/9.1.0/ostream **** 	// _GLIBCXX_RESOLVE_LIB_DEFECTS
 111:/usr/include/c++/9.1.0/ostream **** 	// DR 60. What is a formatted input function?
 112:/usr/include/c++/9.1.0/ostream **** 	// The inserters for manipulators are *not* formatted output functions.
 113:/usr/include/c++/9.1.0/ostream **** 	return __pf(*this);
 114:/usr/include/c++/9.1.0/ostream ****       }
 115:/usr/include/c++/9.1.0/ostream **** 
 116:/usr/include/c++/9.1.0/ostream ****       __ostream_type&
 117:/usr/include/c++/9.1.0/ostream ****       operator<<(__ios_type& (*__pf)(__ios_type&))
 118:/usr/include/c++/9.1.0/ostream ****       {
 119:/usr/include/c++/9.1.0/ostream **** 	// _GLIBCXX_RESOLVE_LIB_DEFECTS
 120:/usr/include/c++/9.1.0/ostream **** 	// DR 60. What is a formatted input function?
 121:/usr/include/c++/9.1.0/ostream **** 	// The inserters for manipulators are *not* formatted output functions.
 122:/usr/include/c++/9.1.0/ostream **** 	__pf(*this);
 123:/usr/include/c++/9.1.0/ostream **** 	return *this;
 124:/usr/include/c++/9.1.0/ostream ****       }
 125:/usr/include/c++/9.1.0/ostream **** 
 126:/usr/include/c++/9.1.0/ostream ****       __ostream_type&
 127:/usr/include/c++/9.1.0/ostream ****       operator<<(ios_base& (*__pf) (ios_base&))
 128:/usr/include/c++/9.1.0/ostream ****       {
 129:/usr/include/c++/9.1.0/ostream **** 	// _GLIBCXX_RESOLVE_LIB_DEFECTS
 130:/usr/include/c++/9.1.0/ostream **** 	// DR 60. What is a formatted input function?
 131:/usr/include/c++/9.1.0/ostream **** 	// The inserters for manipulators are *not* formatted output functions.
 132:/usr/include/c++/9.1.0/ostream **** 	__pf(*this);
 133:/usr/include/c++/9.1.0/ostream **** 	return *this;
 134:/usr/include/c++/9.1.0/ostream ****       }
 135:/usr/include/c++/9.1.0/ostream ****       //@}
 136:/usr/include/c++/9.1.0/ostream **** 
 137:/usr/include/c++/9.1.0/ostream ****       //@{
 138:/usr/include/c++/9.1.0/ostream ****       /**
 139:/usr/include/c++/9.1.0/ostream ****        *  @name Inserters
 140:/usr/include/c++/9.1.0/ostream ****        *
GAS LISTING /tmp/ccK1lRdA.s 			page 16


 141:/usr/include/c++/9.1.0/ostream ****        *  All the @c operator<< functions (aka <em>formatted output
 142:/usr/include/c++/9.1.0/ostream ****        *  functions</em>) have some common behavior.  Each starts by
 143:/usr/include/c++/9.1.0/ostream ****        *  constructing a temporary object of type std::basic_ostream::sentry.
 144:/usr/include/c++/9.1.0/ostream ****        *  This can have several effects, concluding with the setting of a
 145:/usr/include/c++/9.1.0/ostream ****        *  status flag; see the sentry documentation for more.
 146:/usr/include/c++/9.1.0/ostream ****        *
 147:/usr/include/c++/9.1.0/ostream ****        *  If the sentry status is good, the function tries to generate
 148:/usr/include/c++/9.1.0/ostream ****        *  whatever data is appropriate for the type of the argument.
 149:/usr/include/c++/9.1.0/ostream ****        *
 150:/usr/include/c++/9.1.0/ostream ****        *  If an exception is thrown during insertion, ios_base::badbit
 151:/usr/include/c++/9.1.0/ostream ****        *  will be turned on in the stream's error state without causing an
 152:/usr/include/c++/9.1.0/ostream ****        *  ios_base::failure to be thrown.  The original exception will then
 153:/usr/include/c++/9.1.0/ostream ****        *  be rethrown.
 154:/usr/include/c++/9.1.0/ostream ****       */
 155:/usr/include/c++/9.1.0/ostream **** 
 156:/usr/include/c++/9.1.0/ostream ****       //@{
 157:/usr/include/c++/9.1.0/ostream ****       /**
 158:/usr/include/c++/9.1.0/ostream ****        *  @brief Integer arithmetic inserters
 159:/usr/include/c++/9.1.0/ostream ****        *  @param  __n A variable of builtin integral type.
 160:/usr/include/c++/9.1.0/ostream ****        *  @return  @c *this if successful
 161:/usr/include/c++/9.1.0/ostream ****        *
 162:/usr/include/c++/9.1.0/ostream ****        *  These functions use the stream's current locale (specifically, the
 163:/usr/include/c++/9.1.0/ostream ****        *  @c num_get facet) to perform numeric formatting.
 164:/usr/include/c++/9.1.0/ostream ****       */
 165:/usr/include/c++/9.1.0/ostream ****       __ostream_type&
 166:/usr/include/c++/9.1.0/ostream ****       operator<<(long __n)
 167:/usr/include/c++/9.1.0/ostream ****       { return _M_insert(__n); }
 168:/usr/include/c++/9.1.0/ostream **** 
 169:/usr/include/c++/9.1.0/ostream ****       __ostream_type&
 170:/usr/include/c++/9.1.0/ostream ****       operator<<(unsigned long __n)
 171:/usr/include/c++/9.1.0/ostream ****       { return _M_insert(__n); }
 172:/usr/include/c++/9.1.0/ostream **** 
 173:/usr/include/c++/9.1.0/ostream ****       __ostream_type&
 174:/usr/include/c++/9.1.0/ostream ****       operator<<(bool __n)
 175:/usr/include/c++/9.1.0/ostream ****       { return _M_insert(__n); }
 176:/usr/include/c++/9.1.0/ostream **** 
 177:/usr/include/c++/9.1.0/ostream ****       __ostream_type&
 178:/usr/include/c++/9.1.0/ostream ****       operator<<(short __n);
 179:/usr/include/c++/9.1.0/ostream **** 
 180:/usr/include/c++/9.1.0/ostream ****       __ostream_type&
 181:/usr/include/c++/9.1.0/ostream ****       operator<<(unsigned short __n)
 182:/usr/include/c++/9.1.0/ostream ****       {
 183:/usr/include/c++/9.1.0/ostream **** 	// _GLIBCXX_RESOLVE_LIB_DEFECTS
 184:/usr/include/c++/9.1.0/ostream **** 	// 117. basic_ostream uses nonexistent num_put member functions.
 185:/usr/include/c++/9.1.0/ostream **** 	return _M_insert(static_cast<unsigned long>(__n));
 186:/usr/include/c++/9.1.0/ostream ****       }
 187:/usr/include/c++/9.1.0/ostream **** 
 188:/usr/include/c++/9.1.0/ostream ****       __ostream_type&
 189:/usr/include/c++/9.1.0/ostream ****       operator<<(int __n);
 190:/usr/include/c++/9.1.0/ostream **** 
 191:/usr/include/c++/9.1.0/ostream ****       __ostream_type&
 192:/usr/include/c++/9.1.0/ostream ****       operator<<(unsigned int __n)
 193:/usr/include/c++/9.1.0/ostream ****       {
 194:/usr/include/c++/9.1.0/ostream **** 	// _GLIBCXX_RESOLVE_LIB_DEFECTS
 195:/usr/include/c++/9.1.0/ostream **** 	// 117. basic_ostream uses nonexistent num_put member functions.
 196:/usr/include/c++/9.1.0/ostream **** 	return _M_insert(static_cast<unsigned long>(__n));
 197:/usr/include/c++/9.1.0/ostream ****       }
GAS LISTING /tmp/ccK1lRdA.s 			page 17


 198:/usr/include/c++/9.1.0/ostream **** 
 199:/usr/include/c++/9.1.0/ostream **** #ifdef _GLIBCXX_USE_LONG_LONG
 200:/usr/include/c++/9.1.0/ostream ****       __ostream_type&
 201:/usr/include/c++/9.1.0/ostream ****       operator<<(long long __n)
 202:/usr/include/c++/9.1.0/ostream ****       { return _M_insert(__n); }
 203:/usr/include/c++/9.1.0/ostream **** 
 204:/usr/include/c++/9.1.0/ostream ****       __ostream_type&
 205:/usr/include/c++/9.1.0/ostream ****       operator<<(unsigned long long __n)
 206:/usr/include/c++/9.1.0/ostream ****       { return _M_insert(__n); }
 207:/usr/include/c++/9.1.0/ostream **** #endif
 208:/usr/include/c++/9.1.0/ostream ****       //@}
 209:/usr/include/c++/9.1.0/ostream **** 
 210:/usr/include/c++/9.1.0/ostream ****       //@{
 211:/usr/include/c++/9.1.0/ostream ****       /**
 212:/usr/include/c++/9.1.0/ostream ****        *  @brief  Floating point arithmetic inserters
 213:/usr/include/c++/9.1.0/ostream ****        *  @param  __f A variable of builtin floating point type.
 214:/usr/include/c++/9.1.0/ostream ****        *  @return  @c *this if successful
 215:/usr/include/c++/9.1.0/ostream ****        *
 216:/usr/include/c++/9.1.0/ostream ****        *  These functions use the stream's current locale (specifically, the
 217:/usr/include/c++/9.1.0/ostream ****        *  @c num_get facet) to perform numeric formatting.
 218:/usr/include/c++/9.1.0/ostream ****       */
 219:/usr/include/c++/9.1.0/ostream ****       __ostream_type&
 220:/usr/include/c++/9.1.0/ostream ****       operator<<(double __f)
 221:/usr/include/c++/9.1.0/ostream ****       { return _M_insert(__f); }
 222:/usr/include/c++/9.1.0/ostream **** 
 223:/usr/include/c++/9.1.0/ostream ****       __ostream_type&
 224:/usr/include/c++/9.1.0/ostream ****       operator<<(float __f)
 225:/usr/include/c++/9.1.0/ostream ****       {
 226:/usr/include/c++/9.1.0/ostream **** 	// _GLIBCXX_RESOLVE_LIB_DEFECTS
 227:/usr/include/c++/9.1.0/ostream **** 	// 117. basic_ostream uses nonexistent num_put member functions.
 228:/usr/include/c++/9.1.0/ostream **** 	return _M_insert(static_cast<double>(__f));
 229:/usr/include/c++/9.1.0/ostream ****       }
 230:/usr/include/c++/9.1.0/ostream **** 
 231:/usr/include/c++/9.1.0/ostream ****       __ostream_type&
 232:/usr/include/c++/9.1.0/ostream ****       operator<<(long double __f)
 233:/usr/include/c++/9.1.0/ostream ****       { return _M_insert(__f); }
 234:/usr/include/c++/9.1.0/ostream ****       //@}
 235:/usr/include/c++/9.1.0/ostream **** 
 236:/usr/include/c++/9.1.0/ostream ****       /**
 237:/usr/include/c++/9.1.0/ostream ****        *  @brief  Pointer arithmetic inserters
 238:/usr/include/c++/9.1.0/ostream ****        *  @param  __p A variable of pointer type.
 239:/usr/include/c++/9.1.0/ostream ****        *  @return  @c *this if successful
 240:/usr/include/c++/9.1.0/ostream ****        *
 241:/usr/include/c++/9.1.0/ostream ****        *  These functions use the stream's current locale (specifically, the
 242:/usr/include/c++/9.1.0/ostream ****        *  @c num_get facet) to perform numeric formatting.
 243:/usr/include/c++/9.1.0/ostream ****       */
 244:/usr/include/c++/9.1.0/ostream ****       __ostream_type&
 245:/usr/include/c++/9.1.0/ostream ****       operator<<(const void* __p)
 246:/usr/include/c++/9.1.0/ostream ****       { return _M_insert(__p); }
 247:/usr/include/c++/9.1.0/ostream **** 
 248:/usr/include/c++/9.1.0/ostream **** #if __cplusplus >= 201703L
 249:/usr/include/c++/9.1.0/ostream ****       __ostream_type&
 250:/usr/include/c++/9.1.0/ostream ****       operator<<(nullptr_t)
 251:/usr/include/c++/9.1.0/ostream ****       { return *this << "nullptr"; }
 252:/usr/include/c++/9.1.0/ostream **** #endif
 253:/usr/include/c++/9.1.0/ostream **** 
 254:/usr/include/c++/9.1.0/ostream ****       /**
GAS LISTING /tmp/ccK1lRdA.s 			page 18


 255:/usr/include/c++/9.1.0/ostream ****        *  @brief  Extracting from another streambuf.
 256:/usr/include/c++/9.1.0/ostream ****        *  @param  __sb  A pointer to a streambuf
 257:/usr/include/c++/9.1.0/ostream ****        *
 258:/usr/include/c++/9.1.0/ostream ****        *  This function behaves like one of the basic arithmetic extractors,
 259:/usr/include/c++/9.1.0/ostream ****        *  in that it also constructs a sentry object and has the same error
 260:/usr/include/c++/9.1.0/ostream ****        *  handling behavior.
 261:/usr/include/c++/9.1.0/ostream ****        *
 262:/usr/include/c++/9.1.0/ostream ****        *  If @p __sb is NULL, the stream will set failbit in its error state.
 263:/usr/include/c++/9.1.0/ostream ****        *
 264:/usr/include/c++/9.1.0/ostream ****        *  Characters are extracted from @p __sb and inserted into @c *this
 265:/usr/include/c++/9.1.0/ostream ****        *  until one of the following occurs:
 266:/usr/include/c++/9.1.0/ostream ****        *
 267:/usr/include/c++/9.1.0/ostream ****        *  - the input stream reaches end-of-file,
 268:/usr/include/c++/9.1.0/ostream ****        *  - insertion into the output sequence fails (in this case, the
 269:/usr/include/c++/9.1.0/ostream ****        *    character that would have been inserted is not extracted), or
 270:/usr/include/c++/9.1.0/ostream ****        *  - an exception occurs while getting a character from @p __sb, which
 271:/usr/include/c++/9.1.0/ostream ****        *    sets failbit in the error state
 272:/usr/include/c++/9.1.0/ostream ****        *
 273:/usr/include/c++/9.1.0/ostream ****        *  If the function inserts no characters, failbit is set.
 274:/usr/include/c++/9.1.0/ostream ****       */
 275:/usr/include/c++/9.1.0/ostream ****       __ostream_type&
 276:/usr/include/c++/9.1.0/ostream ****       operator<<(__streambuf_type* __sb);
 277:/usr/include/c++/9.1.0/ostream ****       //@}
 278:/usr/include/c++/9.1.0/ostream **** 
 279:/usr/include/c++/9.1.0/ostream ****       //@{
 280:/usr/include/c++/9.1.0/ostream ****       /**
 281:/usr/include/c++/9.1.0/ostream ****        *  @name Unformatted Output Functions
 282:/usr/include/c++/9.1.0/ostream ****        *
 283:/usr/include/c++/9.1.0/ostream ****        *  All the unformatted output functions have some common behavior.
 284:/usr/include/c++/9.1.0/ostream ****        *  Each starts by constructing a temporary object of type
 285:/usr/include/c++/9.1.0/ostream ****        *  std::basic_ostream::sentry.  This has several effects, concluding
 286:/usr/include/c++/9.1.0/ostream ****        *  with the setting of a status flag; see the sentry documentation
 287:/usr/include/c++/9.1.0/ostream ****        *  for more.
 288:/usr/include/c++/9.1.0/ostream ****        *
 289:/usr/include/c++/9.1.0/ostream ****        *  If the sentry status is good, the function tries to generate
 290:/usr/include/c++/9.1.0/ostream ****        *  whatever data is appropriate for the type of the argument.
 291:/usr/include/c++/9.1.0/ostream ****        *
 292:/usr/include/c++/9.1.0/ostream ****        *  If an exception is thrown during insertion, ios_base::badbit
 293:/usr/include/c++/9.1.0/ostream ****        *  will be turned on in the stream's error state.  If badbit is on in
 294:/usr/include/c++/9.1.0/ostream ****        *  the stream's exceptions mask, the exception will be rethrown
 295:/usr/include/c++/9.1.0/ostream ****        *  without completing its actions.
 296:/usr/include/c++/9.1.0/ostream ****       */
 297:/usr/include/c++/9.1.0/ostream **** 
 298:/usr/include/c++/9.1.0/ostream ****       /**
 299:/usr/include/c++/9.1.0/ostream ****        *  @brief  Simple insertion.
 300:/usr/include/c++/9.1.0/ostream ****        *  @param  __c  The character to insert.
 301:/usr/include/c++/9.1.0/ostream ****        *  @return  *this
 302:/usr/include/c++/9.1.0/ostream ****        *
 303:/usr/include/c++/9.1.0/ostream ****        *  Tries to insert @p __c.
 304:/usr/include/c++/9.1.0/ostream ****        *
 305:/usr/include/c++/9.1.0/ostream ****        *  @note  This function is not overloaded on signed char and
 306:/usr/include/c++/9.1.0/ostream ****        *         unsigned char.
 307:/usr/include/c++/9.1.0/ostream ****       */
 308:/usr/include/c++/9.1.0/ostream ****       __ostream_type&
 309:/usr/include/c++/9.1.0/ostream ****       put(char_type __c);
 310:/usr/include/c++/9.1.0/ostream **** 
 311:/usr/include/c++/9.1.0/ostream ****       /**
GAS LISTING /tmp/ccK1lRdA.s 			page 19


 312:/usr/include/c++/9.1.0/ostream ****        *  @brief  Core write functionality, without sentry.
 313:/usr/include/c++/9.1.0/ostream ****        *  @param  __s  The array to insert.
 314:/usr/include/c++/9.1.0/ostream ****        *  @param  __n  Maximum number of characters to insert.
 315:/usr/include/c++/9.1.0/ostream ****       */
 316:/usr/include/c++/9.1.0/ostream ****       void
 317:/usr/include/c++/9.1.0/ostream ****       _M_write(const char_type* __s, streamsize __n)
 318:/usr/include/c++/9.1.0/ostream ****       {
 319:/usr/include/c++/9.1.0/ostream **** 	const streamsize __put = this->rdbuf()->sputn(__s, __n);
 320:/usr/include/c++/9.1.0/ostream **** 	if (__put != __n)
 321:/usr/include/c++/9.1.0/ostream **** 	  this->setstate(ios_base::badbit);
 322:/usr/include/c++/9.1.0/ostream ****       }
 323:/usr/include/c++/9.1.0/ostream **** 
 324:/usr/include/c++/9.1.0/ostream ****       /**
 325:/usr/include/c++/9.1.0/ostream ****        *  @brief  Character string insertion.
 326:/usr/include/c++/9.1.0/ostream ****        *  @param  __s  The array to insert.
 327:/usr/include/c++/9.1.0/ostream ****        *  @param  __n  Maximum number of characters to insert.
 328:/usr/include/c++/9.1.0/ostream ****        *  @return  *this
 329:/usr/include/c++/9.1.0/ostream ****        *
 330:/usr/include/c++/9.1.0/ostream ****        *  Characters are copied from @p __s and inserted into the stream until
 331:/usr/include/c++/9.1.0/ostream ****        *  one of the following happens:
 332:/usr/include/c++/9.1.0/ostream ****        *
 333:/usr/include/c++/9.1.0/ostream ****        *  - @p __n characters are inserted
 334:/usr/include/c++/9.1.0/ostream ****        *  - inserting into the output sequence fails (in this case, badbit
 335:/usr/include/c++/9.1.0/ostream ****        *    will be set in the stream's error state)
 336:/usr/include/c++/9.1.0/ostream ****        *
 337:/usr/include/c++/9.1.0/ostream ****        *  @note  This function is not overloaded on signed char and
 338:/usr/include/c++/9.1.0/ostream ****        *         unsigned char.
 339:/usr/include/c++/9.1.0/ostream ****       */
 340:/usr/include/c++/9.1.0/ostream ****       __ostream_type&
 341:/usr/include/c++/9.1.0/ostream ****       write(const char_type* __s, streamsize __n);
 342:/usr/include/c++/9.1.0/ostream ****       //@}
 343:/usr/include/c++/9.1.0/ostream **** 
 344:/usr/include/c++/9.1.0/ostream ****       /**
 345:/usr/include/c++/9.1.0/ostream ****        *  @brief  Synchronizing the stream buffer.
 346:/usr/include/c++/9.1.0/ostream ****        *  @return  *this
 347:/usr/include/c++/9.1.0/ostream ****        *
 348:/usr/include/c++/9.1.0/ostream ****        *  If @c rdbuf() is a null pointer, changes nothing.
 349:/usr/include/c++/9.1.0/ostream ****        *
 350:/usr/include/c++/9.1.0/ostream ****        *  Otherwise, calls @c rdbuf()->pubsync(), and if that returns -1,
 351:/usr/include/c++/9.1.0/ostream ****        *  sets badbit.
 352:/usr/include/c++/9.1.0/ostream ****       */
 353:/usr/include/c++/9.1.0/ostream ****       __ostream_type&
 354:/usr/include/c++/9.1.0/ostream ****       flush();
 355:/usr/include/c++/9.1.0/ostream **** 
 356:/usr/include/c++/9.1.0/ostream ****       /**
 357:/usr/include/c++/9.1.0/ostream ****        *  @brief  Getting the current write position.
 358:/usr/include/c++/9.1.0/ostream ****        *  @return  A file position object.
 359:/usr/include/c++/9.1.0/ostream ****        *
 360:/usr/include/c++/9.1.0/ostream ****        *  If @c fail() is not false, returns @c pos_type(-1) to indicate
 361:/usr/include/c++/9.1.0/ostream ****        *  failure.  Otherwise returns @c rdbuf()->pubseekoff(0,cur,out).
 362:/usr/include/c++/9.1.0/ostream ****       */
 363:/usr/include/c++/9.1.0/ostream ****       pos_type
 364:/usr/include/c++/9.1.0/ostream ****       tellp();
 365:/usr/include/c++/9.1.0/ostream **** 
 366:/usr/include/c++/9.1.0/ostream ****       /**
 367:/usr/include/c++/9.1.0/ostream ****        *  @brief  Changing the current write position.
 368:/usr/include/c++/9.1.0/ostream ****        *  @param  __pos  A file position object.
GAS LISTING /tmp/ccK1lRdA.s 			page 20


 369:/usr/include/c++/9.1.0/ostream ****        *  @return  *this
 370:/usr/include/c++/9.1.0/ostream ****        *
 371:/usr/include/c++/9.1.0/ostream ****        *  If @c fail() is not true, calls @c rdbuf()->pubseekpos(pos).  If
 372:/usr/include/c++/9.1.0/ostream ****        *  that function fails, sets failbit.
 373:/usr/include/c++/9.1.0/ostream ****       */
 374:/usr/include/c++/9.1.0/ostream ****       __ostream_type&
 375:/usr/include/c++/9.1.0/ostream ****       seekp(pos_type);
 376:/usr/include/c++/9.1.0/ostream **** 
 377:/usr/include/c++/9.1.0/ostream ****       /**
 378:/usr/include/c++/9.1.0/ostream ****        *  @brief  Changing the current write position.
 379:/usr/include/c++/9.1.0/ostream ****        *  @param  __off  A file offset object.
 380:/usr/include/c++/9.1.0/ostream ****        *  @param  __dir  The direction in which to seek.
 381:/usr/include/c++/9.1.0/ostream ****        *  @return  *this
 382:/usr/include/c++/9.1.0/ostream ****        *
 383:/usr/include/c++/9.1.0/ostream ****        *  If @c fail() is not true, calls @c rdbuf()->pubseekoff(off,dir).
 384:/usr/include/c++/9.1.0/ostream ****        *  If that function fails, sets failbit.
 385:/usr/include/c++/9.1.0/ostream ****       */
 386:/usr/include/c++/9.1.0/ostream ****        __ostream_type&
 387:/usr/include/c++/9.1.0/ostream ****       seekp(off_type, ios_base::seekdir);
 388:/usr/include/c++/9.1.0/ostream **** 
 389:/usr/include/c++/9.1.0/ostream ****     protected:
 390:/usr/include/c++/9.1.0/ostream ****       basic_ostream()
 391:/usr/include/c++/9.1.0/ostream ****       { this->init(0); }
 392:/usr/include/c++/9.1.0/ostream **** 
 393:/usr/include/c++/9.1.0/ostream **** #if __cplusplus >= 201103L
 394:/usr/include/c++/9.1.0/ostream ****       // Non-standard constructor that does not call init()
 395:/usr/include/c++/9.1.0/ostream ****       basic_ostream(basic_iostream<_CharT, _Traits>&) { }
 396:/usr/include/c++/9.1.0/ostream **** 
 397:/usr/include/c++/9.1.0/ostream ****       basic_ostream(const basic_ostream&) = delete;
 398:/usr/include/c++/9.1.0/ostream **** 
 399:/usr/include/c++/9.1.0/ostream ****       basic_ostream(basic_ostream&& __rhs)
 400:/usr/include/c++/9.1.0/ostream ****       : __ios_type()
 401:/usr/include/c++/9.1.0/ostream ****       { __ios_type::move(__rhs); }
 402:/usr/include/c++/9.1.0/ostream **** 
 403:/usr/include/c++/9.1.0/ostream ****       // 27.7.3.3 Assign/swap
 404:/usr/include/c++/9.1.0/ostream **** 
 405:/usr/include/c++/9.1.0/ostream ****       basic_ostream& operator=(const basic_ostream&) = delete;
 406:/usr/include/c++/9.1.0/ostream **** 
 407:/usr/include/c++/9.1.0/ostream ****       basic_ostream&
 408:/usr/include/c++/9.1.0/ostream ****       operator=(basic_ostream&& __rhs)
 409:/usr/include/c++/9.1.0/ostream ****       {
 410:/usr/include/c++/9.1.0/ostream **** 	swap(__rhs);
 411:/usr/include/c++/9.1.0/ostream **** 	return *this;
 412:/usr/include/c++/9.1.0/ostream ****       }
 413:/usr/include/c++/9.1.0/ostream **** 
 414:/usr/include/c++/9.1.0/ostream ****       void
 415:/usr/include/c++/9.1.0/ostream ****       swap(basic_ostream& __rhs)
 416:/usr/include/c++/9.1.0/ostream ****       { __ios_type::swap(__rhs); }
 417:/usr/include/c++/9.1.0/ostream **** #endif
 418:/usr/include/c++/9.1.0/ostream **** 
 419:/usr/include/c++/9.1.0/ostream ****       template<typename _ValueT>
 420:/usr/include/c++/9.1.0/ostream **** 	__ostream_type&
 421:/usr/include/c++/9.1.0/ostream **** 	_M_insert(_ValueT __v);
 422:/usr/include/c++/9.1.0/ostream ****     };
 423:/usr/include/c++/9.1.0/ostream **** 
 424:/usr/include/c++/9.1.0/ostream ****   /**
 425:/usr/include/c++/9.1.0/ostream ****    *  @brief  Performs setup work for output streams.
GAS LISTING /tmp/ccK1lRdA.s 			page 21


 426:/usr/include/c++/9.1.0/ostream ****    *
 427:/usr/include/c++/9.1.0/ostream ****    *  Objects of this class are created before all of the standard
 428:/usr/include/c++/9.1.0/ostream ****    *  inserters are run.  It is responsible for <em>exception-safe prefix and
 429:/usr/include/c++/9.1.0/ostream ****    *  suffix operations</em>.
 430:/usr/include/c++/9.1.0/ostream ****   */
 431:/usr/include/c++/9.1.0/ostream ****   template <typename _CharT, typename _Traits>
 432:/usr/include/c++/9.1.0/ostream ****     class basic_ostream<_CharT, _Traits>::sentry
 433:/usr/include/c++/9.1.0/ostream ****     {
 434:/usr/include/c++/9.1.0/ostream ****       // Data Members.
 435:/usr/include/c++/9.1.0/ostream ****       bool 				_M_ok;
 436:/usr/include/c++/9.1.0/ostream ****       basic_ostream<_CharT, _Traits>& 	_M_os;
 437:/usr/include/c++/9.1.0/ostream **** 
 438:/usr/include/c++/9.1.0/ostream ****     public:
 439:/usr/include/c++/9.1.0/ostream ****       /**
 440:/usr/include/c++/9.1.0/ostream ****        *  @brief  The constructor performs preparatory work.
 441:/usr/include/c++/9.1.0/ostream ****        *  @param  __os  The output stream to guard.
 442:/usr/include/c++/9.1.0/ostream ****        *
 443:/usr/include/c++/9.1.0/ostream ****        *  If the stream state is good (@a __os.good() is true), then if the
 444:/usr/include/c++/9.1.0/ostream ****        *  stream is tied to another output stream, @c is.tie()->flush()
 445:/usr/include/c++/9.1.0/ostream ****        *  is called to synchronize the output sequences.
 446:/usr/include/c++/9.1.0/ostream ****        *
 447:/usr/include/c++/9.1.0/ostream ****        *  If the stream state is still good, then the sentry state becomes
 448:/usr/include/c++/9.1.0/ostream ****        *  true (@a okay).
 449:/usr/include/c++/9.1.0/ostream ****       */
 450:/usr/include/c++/9.1.0/ostream ****       explicit
 451:/usr/include/c++/9.1.0/ostream ****       sentry(basic_ostream<_CharT, _Traits>& __os);
 452:/usr/include/c++/9.1.0/ostream **** 
 453:/usr/include/c++/9.1.0/ostream **** #pragma GCC diagnostic push
 454:/usr/include/c++/9.1.0/ostream **** #pragma GCC diagnostic ignored "-Wdeprecated-declarations"
 455:/usr/include/c++/9.1.0/ostream ****       /**
 456:/usr/include/c++/9.1.0/ostream ****        *  @brief  Possibly flushes the stream.
 457:/usr/include/c++/9.1.0/ostream ****        *
 458:/usr/include/c++/9.1.0/ostream ****        *  If @c ios_base::unitbuf is set in @c os.flags(), and
 459:/usr/include/c++/9.1.0/ostream ****        *  @c std::uncaught_exception() is true, the sentry destructor calls
 460:/usr/include/c++/9.1.0/ostream ****        *  @c flush() on the output stream.
 461:/usr/include/c++/9.1.0/ostream ****       */
 462:/usr/include/c++/9.1.0/ostream ****       ~sentry()
 463:/usr/include/c++/9.1.0/ostream ****       {
 464:/usr/include/c++/9.1.0/ostream **** 	// XXX MT
 465:/usr/include/c++/9.1.0/ostream **** 	if (bool(_M_os.flags() & ios_base::unitbuf) && !uncaught_exception())
 466:/usr/include/c++/9.1.0/ostream **** 	  {
 467:/usr/include/c++/9.1.0/ostream **** 	    // Can't call flush directly or else will get into recursive lock.
 468:/usr/include/c++/9.1.0/ostream **** 	    if (_M_os.rdbuf() && _M_os.rdbuf()->pubsync() == -1)
 469:/usr/include/c++/9.1.0/ostream **** 	      _M_os.setstate(ios_base::badbit);
 470:/usr/include/c++/9.1.0/ostream **** 	  }
 471:/usr/include/c++/9.1.0/ostream ****       }
 472:/usr/include/c++/9.1.0/ostream **** #pragma GCC diagnostic pop
 473:/usr/include/c++/9.1.0/ostream **** 
 474:/usr/include/c++/9.1.0/ostream ****       /**
 475:/usr/include/c++/9.1.0/ostream ****        *  @brief  Quick status checking.
 476:/usr/include/c++/9.1.0/ostream ****        *  @return  The sentry state.
 477:/usr/include/c++/9.1.0/ostream ****        *
 478:/usr/include/c++/9.1.0/ostream ****        *  For ease of use, sentries may be converted to booleans.  The
 479:/usr/include/c++/9.1.0/ostream ****        *  return value is that of the sentry state (true == okay).
 480:/usr/include/c++/9.1.0/ostream ****       */
 481:/usr/include/c++/9.1.0/ostream **** #if __cplusplus >= 201103L
 482:/usr/include/c++/9.1.0/ostream ****       explicit
GAS LISTING /tmp/ccK1lRdA.s 			page 22


 483:/usr/include/c++/9.1.0/ostream **** #endif
 484:/usr/include/c++/9.1.0/ostream ****       operator bool() const
 485:/usr/include/c++/9.1.0/ostream ****       { return _M_ok; }
 486:/usr/include/c++/9.1.0/ostream ****     };
 487:/usr/include/c++/9.1.0/ostream **** 
 488:/usr/include/c++/9.1.0/ostream ****   //@{
 489:/usr/include/c++/9.1.0/ostream ****   /**
 490:/usr/include/c++/9.1.0/ostream ****    *  @brief  Character inserters
 491:/usr/include/c++/9.1.0/ostream ****    *  @param  __out  An output stream.
 492:/usr/include/c++/9.1.0/ostream ****    *  @param  __c  A character.
 493:/usr/include/c++/9.1.0/ostream ****    *  @return  out
 494:/usr/include/c++/9.1.0/ostream ****    *
 495:/usr/include/c++/9.1.0/ostream ****    *  Behaves like one of the formatted arithmetic inserters described in
 496:/usr/include/c++/9.1.0/ostream ****    *  std::basic_ostream.  After constructing a sentry object with good
 497:/usr/include/c++/9.1.0/ostream ****    *  status, this function inserts a single character and any required
 498:/usr/include/c++/9.1.0/ostream ****    *  padding (as determined by [22.2.2.2.2]).  @c __out.width(0) is then
 499:/usr/include/c++/9.1.0/ostream ****    *  called.
 500:/usr/include/c++/9.1.0/ostream ****    *
 501:/usr/include/c++/9.1.0/ostream ****    *  If @p __c is of type @c char and the character type of the stream is not
 502:/usr/include/c++/9.1.0/ostream ****    *  @c char, the character is widened before insertion.
 503:/usr/include/c++/9.1.0/ostream ****   */
 504:/usr/include/c++/9.1.0/ostream ****   template<typename _CharT, typename _Traits>
 505:/usr/include/c++/9.1.0/ostream ****     inline basic_ostream<_CharT, _Traits>&
 506:/usr/include/c++/9.1.0/ostream ****     operator<<(basic_ostream<_CharT, _Traits>& __out, _CharT __c)
 507:/usr/include/c++/9.1.0/ostream ****     { return __ostream_insert(__out, &__c, 1); }
 508:/usr/include/c++/9.1.0/ostream **** 
 509:/usr/include/c++/9.1.0/ostream ****   template<typename _CharT, typename _Traits>
 510:/usr/include/c++/9.1.0/ostream ****     inline basic_ostream<_CharT, _Traits>&
 511:/usr/include/c++/9.1.0/ostream ****     operator<<(basic_ostream<_CharT, _Traits>& __out, char __c)
 512:/usr/include/c++/9.1.0/ostream ****     { return (__out << __out.widen(__c)); }
 513:/usr/include/c++/9.1.0/ostream **** 
 514:/usr/include/c++/9.1.0/ostream ****   // Specialization
 515:/usr/include/c++/9.1.0/ostream ****   template <class _Traits>
 516:/usr/include/c++/9.1.0/ostream ****     inline basic_ostream<char, _Traits>&
 517:/usr/include/c++/9.1.0/ostream ****     operator<<(basic_ostream<char, _Traits>& __out, char __c)
 518:/usr/include/c++/9.1.0/ostream ****     { return __ostream_insert(__out, &__c, 1); }
 519:/usr/include/c++/9.1.0/ostream **** 
 520:/usr/include/c++/9.1.0/ostream ****   // Signed and unsigned
 521:/usr/include/c++/9.1.0/ostream ****   template<class _Traits>
 522:/usr/include/c++/9.1.0/ostream ****     inline basic_ostream<char, _Traits>&
 523:/usr/include/c++/9.1.0/ostream ****     operator<<(basic_ostream<char, _Traits>& __out, signed char __c)
 524:/usr/include/c++/9.1.0/ostream ****     { return (__out << static_cast<char>(__c)); }
 525:/usr/include/c++/9.1.0/ostream **** 
 526:/usr/include/c++/9.1.0/ostream ****   template<class _Traits>
 527:/usr/include/c++/9.1.0/ostream ****     inline basic_ostream<char, _Traits>&
 528:/usr/include/c++/9.1.0/ostream ****     operator<<(basic_ostream<char, _Traits>& __out, unsigned char __c)
 529:/usr/include/c++/9.1.0/ostream ****     { return (__out << static_cast<char>(__c)); }
 530:/usr/include/c++/9.1.0/ostream ****   //@}
 531:/usr/include/c++/9.1.0/ostream **** 
 532:/usr/include/c++/9.1.0/ostream ****   //@{
 533:/usr/include/c++/9.1.0/ostream ****   /**
 534:/usr/include/c++/9.1.0/ostream ****    *  @brief  String inserters
 535:/usr/include/c++/9.1.0/ostream ****    *  @param  __out  An output stream.
 536:/usr/include/c++/9.1.0/ostream ****    *  @param  __s  A character string.
 537:/usr/include/c++/9.1.0/ostream ****    *  @return  out
 538:/usr/include/c++/9.1.0/ostream ****    *  @pre  @p __s must be a non-NULL pointer
 539:/usr/include/c++/9.1.0/ostream ****    *
GAS LISTING /tmp/ccK1lRdA.s 			page 23


 540:/usr/include/c++/9.1.0/ostream ****    *  Behaves like one of the formatted arithmetic inserters described in
 541:/usr/include/c++/9.1.0/ostream ****    *  std::basic_ostream.  After constructing a sentry object with good
 542:/usr/include/c++/9.1.0/ostream ****    *  status, this function inserts @c traits::length(__s) characters starting
 543:/usr/include/c++/9.1.0/ostream ****    *  at @p __s, widened if necessary, followed by any required padding (as
 544:/usr/include/c++/9.1.0/ostream ****    *  determined by [22.2.2.2.2]).  @c __out.width(0) is then called.
 545:/usr/include/c++/9.1.0/ostream ****   */
 546:/usr/include/c++/9.1.0/ostream ****   template<typename _CharT, typename _Traits>
 547:/usr/include/c++/9.1.0/ostream ****     inline basic_ostream<_CharT, _Traits>&
 548:/usr/include/c++/9.1.0/ostream ****     operator<<(basic_ostream<_CharT, _Traits>& __out, const _CharT* __s)
 549:/usr/include/c++/9.1.0/ostream ****     {
 550:/usr/include/c++/9.1.0/ostream ****       if (!__s)
 551:/usr/include/c++/9.1.0/ostream **** 	__out.setstate(ios_base::badbit);
 552:/usr/include/c++/9.1.0/ostream ****       else
 553:/usr/include/c++/9.1.0/ostream **** 	__ostream_insert(__out, __s,
 554:/usr/include/c++/9.1.0/ostream **** 			 static_cast<streamsize>(_Traits::length(__s)));
 555:/usr/include/c++/9.1.0/ostream ****       return __out;
 556:/usr/include/c++/9.1.0/ostream ****     }
 557:/usr/include/c++/9.1.0/ostream **** 
 558:/usr/include/c++/9.1.0/ostream ****   template<typename _CharT, typename _Traits>
 559:/usr/include/c++/9.1.0/ostream ****     basic_ostream<_CharT, _Traits> &
 560:/usr/include/c++/9.1.0/ostream ****     operator<<(basic_ostream<_CharT, _Traits>& __out, const char* __s);
 561:/usr/include/c++/9.1.0/ostream **** 
 562:/usr/include/c++/9.1.0/ostream ****   // Partial specializations
 563:/usr/include/c++/9.1.0/ostream ****   template<class _Traits>
 564:/usr/include/c++/9.1.0/ostream ****     inline basic_ostream<char, _Traits>&
 565:/usr/include/c++/9.1.0/ostream ****     operator<<(basic_ostream<char, _Traits>& __out, const char* __s)
 190              		.loc 3 565 5 view .LVU43
 191              		.loc 3 565 5 is_stmt 0 view .LVU44
 192              	.LBE417:
 193              		.file 4 "/usr/include/c++/9.1.0/bits/char_traits.h"
   1:/usr/include/c++/9.1.0/bits/char_traits.h **** // Character Traits for use by standard string and iostream -*- C++ -*-
   2:/usr/include/c++/9.1.0/bits/char_traits.h **** 
   3:/usr/include/c++/9.1.0/bits/char_traits.h **** // Copyright (C) 1997-2019 Free Software Foundation, Inc.
   4:/usr/include/c++/9.1.0/bits/char_traits.h **** //
   5:/usr/include/c++/9.1.0/bits/char_traits.h **** // This file is part of the GNU ISO C++ Library.  This library is free
   6:/usr/include/c++/9.1.0/bits/char_traits.h **** // software; you can redistribute it and/or modify it under the
   7:/usr/include/c++/9.1.0/bits/char_traits.h **** // terms of the GNU General Public License as published by the
   8:/usr/include/c++/9.1.0/bits/char_traits.h **** // Free Software Foundation; either version 3, or (at your option)
   9:/usr/include/c++/9.1.0/bits/char_traits.h **** // any later version.
  10:/usr/include/c++/9.1.0/bits/char_traits.h **** 
  11:/usr/include/c++/9.1.0/bits/char_traits.h **** // This library is distributed in the hope that it will be useful,
  12:/usr/include/c++/9.1.0/bits/char_traits.h **** // but WITHOUT ANY WARRANTY; without even the implied warranty of
  13:/usr/include/c++/9.1.0/bits/char_traits.h **** // MERCHANTABILITY or FITNESS FOR A PARTICULAR PURPOSE.  See the
  14:/usr/include/c++/9.1.0/bits/char_traits.h **** // GNU General Public License for more details.
  15:/usr/include/c++/9.1.0/bits/char_traits.h **** 
  16:/usr/include/c++/9.1.0/bits/char_traits.h **** // Under Section 7 of GPL version 3, you are granted additional
  17:/usr/include/c++/9.1.0/bits/char_traits.h **** // permissions described in the GCC Runtime Library Exception, version
  18:/usr/include/c++/9.1.0/bits/char_traits.h **** // 3.1, as published by the Free Software Foundation.
  19:/usr/include/c++/9.1.0/bits/char_traits.h **** 
  20:/usr/include/c++/9.1.0/bits/char_traits.h **** // You should have received a copy of the GNU General Public License and
  21:/usr/include/c++/9.1.0/bits/char_traits.h **** // a copy of the GCC Runtime Library Exception along with this program;
  22:/usr/include/c++/9.1.0/bits/char_traits.h **** // see the files COPYING3 and COPYING.RUNTIME respectively.  If not, see
  23:/usr/include/c++/9.1.0/bits/char_traits.h **** // <http://www.gnu.org/licenses/>.
  24:/usr/include/c++/9.1.0/bits/char_traits.h **** 
  25:/usr/include/c++/9.1.0/bits/char_traits.h **** /** @file bits/char_traits.h
  26:/usr/include/c++/9.1.0/bits/char_traits.h ****  *  This is an internal header file, included by other library headers.
  27:/usr/include/c++/9.1.0/bits/char_traits.h ****  *  Do not attempt to use it directly. @headername{string}
GAS LISTING /tmp/ccK1lRdA.s 			page 24


  28:/usr/include/c++/9.1.0/bits/char_traits.h ****  */
  29:/usr/include/c++/9.1.0/bits/char_traits.h **** 
  30:/usr/include/c++/9.1.0/bits/char_traits.h **** //
  31:/usr/include/c++/9.1.0/bits/char_traits.h **** // ISO C++ 14882: 21  Strings library
  32:/usr/include/c++/9.1.0/bits/char_traits.h **** //
  33:/usr/include/c++/9.1.0/bits/char_traits.h **** 
  34:/usr/include/c++/9.1.0/bits/char_traits.h **** #ifndef _CHAR_TRAITS_H
  35:/usr/include/c++/9.1.0/bits/char_traits.h **** #define _CHAR_TRAITS_H 1
  36:/usr/include/c++/9.1.0/bits/char_traits.h **** 
  37:/usr/include/c++/9.1.0/bits/char_traits.h **** #pragma GCC system_header
  38:/usr/include/c++/9.1.0/bits/char_traits.h **** 
  39:/usr/include/c++/9.1.0/bits/char_traits.h **** #include <bits/stl_algobase.h>  // std::copy, std::fill_n
  40:/usr/include/c++/9.1.0/bits/char_traits.h **** #include <bits/postypes.h>      // For streampos
  41:/usr/include/c++/9.1.0/bits/char_traits.h **** #include <cwchar>               // For WEOF, wmemmove, wmemset, etc.
  42:/usr/include/c++/9.1.0/bits/char_traits.h **** 
  43:/usr/include/c++/9.1.0/bits/char_traits.h **** #ifndef _GLIBCXX_ALWAYS_INLINE
  44:/usr/include/c++/9.1.0/bits/char_traits.h **** # define _GLIBCXX_ALWAYS_INLINE inline __attribute__((__always_inline__))
  45:/usr/include/c++/9.1.0/bits/char_traits.h **** #endif
  46:/usr/include/c++/9.1.0/bits/char_traits.h **** 
  47:/usr/include/c++/9.1.0/bits/char_traits.h **** namespace __gnu_cxx _GLIBCXX_VISIBILITY(default)
  48:/usr/include/c++/9.1.0/bits/char_traits.h **** {
  49:/usr/include/c++/9.1.0/bits/char_traits.h **** _GLIBCXX_BEGIN_NAMESPACE_VERSION
  50:/usr/include/c++/9.1.0/bits/char_traits.h **** 
  51:/usr/include/c++/9.1.0/bits/char_traits.h ****   /**
  52:/usr/include/c++/9.1.0/bits/char_traits.h ****    *  @brief  Mapping from character type to associated types.
  53:/usr/include/c++/9.1.0/bits/char_traits.h ****    *
  54:/usr/include/c++/9.1.0/bits/char_traits.h ****    *  @note This is an implementation class for the generic version
  55:/usr/include/c++/9.1.0/bits/char_traits.h ****    *  of char_traits.  It defines int_type, off_type, pos_type, and
  56:/usr/include/c++/9.1.0/bits/char_traits.h ****    *  state_type.  By default these are unsigned long, streamoff,
  57:/usr/include/c++/9.1.0/bits/char_traits.h ****    *  streampos, and mbstate_t.  Users who need a different set of
  58:/usr/include/c++/9.1.0/bits/char_traits.h ****    *  types, but who don't need to change the definitions of any function
  59:/usr/include/c++/9.1.0/bits/char_traits.h ****    *  defined in char_traits, can specialize __gnu_cxx::_Char_types
  60:/usr/include/c++/9.1.0/bits/char_traits.h ****    *  while leaving __gnu_cxx::char_traits alone. */
  61:/usr/include/c++/9.1.0/bits/char_traits.h ****   template<typename _CharT>
  62:/usr/include/c++/9.1.0/bits/char_traits.h ****     struct _Char_types
  63:/usr/include/c++/9.1.0/bits/char_traits.h ****     {
  64:/usr/include/c++/9.1.0/bits/char_traits.h ****       typedef unsigned long   int_type;
  65:/usr/include/c++/9.1.0/bits/char_traits.h ****       typedef std::streampos  pos_type;
  66:/usr/include/c++/9.1.0/bits/char_traits.h ****       typedef std::streamoff  off_type;
  67:/usr/include/c++/9.1.0/bits/char_traits.h ****       typedef std::mbstate_t  state_type;
  68:/usr/include/c++/9.1.0/bits/char_traits.h ****     };
  69:/usr/include/c++/9.1.0/bits/char_traits.h **** 
  70:/usr/include/c++/9.1.0/bits/char_traits.h **** 
  71:/usr/include/c++/9.1.0/bits/char_traits.h ****   /**
  72:/usr/include/c++/9.1.0/bits/char_traits.h ****    *  @brief  Base class used to implement std::char_traits.
  73:/usr/include/c++/9.1.0/bits/char_traits.h ****    *
  74:/usr/include/c++/9.1.0/bits/char_traits.h ****    *  @note For any given actual character type, this definition is
  75:/usr/include/c++/9.1.0/bits/char_traits.h ****    *  probably wrong.  (Most of the member functions are likely to be
  76:/usr/include/c++/9.1.0/bits/char_traits.h ****    *  right, but the int_type and state_type typedefs, and the eof()
  77:/usr/include/c++/9.1.0/bits/char_traits.h ****    *  member function, are likely to be wrong.)  The reason this class
  78:/usr/include/c++/9.1.0/bits/char_traits.h ****    *  exists is so users can specialize it.  Classes in namespace std
  79:/usr/include/c++/9.1.0/bits/char_traits.h ****    *  may not be specialized for fundamental types, but classes in
  80:/usr/include/c++/9.1.0/bits/char_traits.h ****    *  namespace __gnu_cxx may be.
  81:/usr/include/c++/9.1.0/bits/char_traits.h ****    *
  82:/usr/include/c++/9.1.0/bits/char_traits.h ****    *  See https://gcc.gnu.org/onlinedocs/libstdc++/manual/strings.html#strings.string.character_typ
  83:/usr/include/c++/9.1.0/bits/char_traits.h ****    *  for advice on how to make use of this class for @a unusual character
  84:/usr/include/c++/9.1.0/bits/char_traits.h ****    *  types. Also, check out include/ext/pod_char_traits.h.  
GAS LISTING /tmp/ccK1lRdA.s 			page 25


  85:/usr/include/c++/9.1.0/bits/char_traits.h ****    */
  86:/usr/include/c++/9.1.0/bits/char_traits.h ****   template<typename _CharT>
  87:/usr/include/c++/9.1.0/bits/char_traits.h ****     struct char_traits
  88:/usr/include/c++/9.1.0/bits/char_traits.h ****     {
  89:/usr/include/c++/9.1.0/bits/char_traits.h ****       typedef _CharT                                    char_type;
  90:/usr/include/c++/9.1.0/bits/char_traits.h ****       typedef typename _Char_types<_CharT>::int_type    int_type;
  91:/usr/include/c++/9.1.0/bits/char_traits.h ****       typedef typename _Char_types<_CharT>::pos_type    pos_type;
  92:/usr/include/c++/9.1.0/bits/char_traits.h ****       typedef typename _Char_types<_CharT>::off_type    off_type;
  93:/usr/include/c++/9.1.0/bits/char_traits.h ****       typedef typename _Char_types<_CharT>::state_type  state_type;
  94:/usr/include/c++/9.1.0/bits/char_traits.h **** 
  95:/usr/include/c++/9.1.0/bits/char_traits.h ****       static _GLIBCXX14_CONSTEXPR void
  96:/usr/include/c++/9.1.0/bits/char_traits.h ****       assign(char_type& __c1, const char_type& __c2)
  97:/usr/include/c++/9.1.0/bits/char_traits.h ****       { __c1 = __c2; }
  98:/usr/include/c++/9.1.0/bits/char_traits.h **** 
  99:/usr/include/c++/9.1.0/bits/char_traits.h ****       static _GLIBCXX_CONSTEXPR bool
 100:/usr/include/c++/9.1.0/bits/char_traits.h ****       eq(const char_type& __c1, const char_type& __c2)
 101:/usr/include/c++/9.1.0/bits/char_traits.h ****       { return __c1 == __c2; }
 102:/usr/include/c++/9.1.0/bits/char_traits.h **** 
 103:/usr/include/c++/9.1.0/bits/char_traits.h ****       static _GLIBCXX_CONSTEXPR bool
 104:/usr/include/c++/9.1.0/bits/char_traits.h ****       lt(const char_type& __c1, const char_type& __c2)
 105:/usr/include/c++/9.1.0/bits/char_traits.h ****       { return __c1 < __c2; }
 106:/usr/include/c++/9.1.0/bits/char_traits.h **** 
 107:/usr/include/c++/9.1.0/bits/char_traits.h ****       static _GLIBCXX14_CONSTEXPR int
 108:/usr/include/c++/9.1.0/bits/char_traits.h ****       compare(const char_type* __s1, const char_type* __s2, std::size_t __n);
 109:/usr/include/c++/9.1.0/bits/char_traits.h **** 
 110:/usr/include/c++/9.1.0/bits/char_traits.h ****       static _GLIBCXX14_CONSTEXPR std::size_t
 111:/usr/include/c++/9.1.0/bits/char_traits.h ****       length(const char_type* __s);
 112:/usr/include/c++/9.1.0/bits/char_traits.h **** 
 113:/usr/include/c++/9.1.0/bits/char_traits.h ****       static _GLIBCXX14_CONSTEXPR const char_type*
 114:/usr/include/c++/9.1.0/bits/char_traits.h ****       find(const char_type* __s, std::size_t __n, const char_type& __a);
 115:/usr/include/c++/9.1.0/bits/char_traits.h **** 
 116:/usr/include/c++/9.1.0/bits/char_traits.h ****       static char_type*
 117:/usr/include/c++/9.1.0/bits/char_traits.h ****       move(char_type* __s1, const char_type* __s2, std::size_t __n);
 118:/usr/include/c++/9.1.0/bits/char_traits.h **** 
 119:/usr/include/c++/9.1.0/bits/char_traits.h ****       static char_type*
 120:/usr/include/c++/9.1.0/bits/char_traits.h ****       copy(char_type* __s1, const char_type* __s2, std::size_t __n);
 121:/usr/include/c++/9.1.0/bits/char_traits.h **** 
 122:/usr/include/c++/9.1.0/bits/char_traits.h ****       static char_type*
 123:/usr/include/c++/9.1.0/bits/char_traits.h ****       assign(char_type* __s, std::size_t __n, char_type __a);
 124:/usr/include/c++/9.1.0/bits/char_traits.h **** 
 125:/usr/include/c++/9.1.0/bits/char_traits.h ****       static _GLIBCXX_CONSTEXPR char_type
 126:/usr/include/c++/9.1.0/bits/char_traits.h ****       to_char_type(const int_type& __c)
 127:/usr/include/c++/9.1.0/bits/char_traits.h ****       { return static_cast<char_type>(__c); }
 128:/usr/include/c++/9.1.0/bits/char_traits.h **** 
 129:/usr/include/c++/9.1.0/bits/char_traits.h ****       static _GLIBCXX_CONSTEXPR int_type
 130:/usr/include/c++/9.1.0/bits/char_traits.h ****       to_int_type(const char_type& __c)
 131:/usr/include/c++/9.1.0/bits/char_traits.h ****       { return static_cast<int_type>(__c); }
 132:/usr/include/c++/9.1.0/bits/char_traits.h **** 
 133:/usr/include/c++/9.1.0/bits/char_traits.h ****       static _GLIBCXX_CONSTEXPR bool
 134:/usr/include/c++/9.1.0/bits/char_traits.h ****       eq_int_type(const int_type& __c1, const int_type& __c2)
 135:/usr/include/c++/9.1.0/bits/char_traits.h ****       { return __c1 == __c2; }
 136:/usr/include/c++/9.1.0/bits/char_traits.h **** 
 137:/usr/include/c++/9.1.0/bits/char_traits.h ****       static _GLIBCXX_CONSTEXPR int_type
 138:/usr/include/c++/9.1.0/bits/char_traits.h ****       eof()
 139:/usr/include/c++/9.1.0/bits/char_traits.h ****       { return static_cast<int_type>(_GLIBCXX_STDIO_EOF); }
 140:/usr/include/c++/9.1.0/bits/char_traits.h **** 
 141:/usr/include/c++/9.1.0/bits/char_traits.h ****       static _GLIBCXX_CONSTEXPR int_type
GAS LISTING /tmp/ccK1lRdA.s 			page 26


 142:/usr/include/c++/9.1.0/bits/char_traits.h ****       not_eof(const int_type& __c)
 143:/usr/include/c++/9.1.0/bits/char_traits.h ****       { return !eq_int_type(__c, eof()) ? __c : to_int_type(char_type()); }
 144:/usr/include/c++/9.1.0/bits/char_traits.h ****     };
 145:/usr/include/c++/9.1.0/bits/char_traits.h **** 
 146:/usr/include/c++/9.1.0/bits/char_traits.h ****   template<typename _CharT>
 147:/usr/include/c++/9.1.0/bits/char_traits.h ****     _GLIBCXX14_CONSTEXPR int
 148:/usr/include/c++/9.1.0/bits/char_traits.h ****     char_traits<_CharT>::
 149:/usr/include/c++/9.1.0/bits/char_traits.h ****     compare(const char_type* __s1, const char_type* __s2, std::size_t __n)
 150:/usr/include/c++/9.1.0/bits/char_traits.h ****     {
 151:/usr/include/c++/9.1.0/bits/char_traits.h ****       for (std::size_t __i = 0; __i < __n; ++__i)
 152:/usr/include/c++/9.1.0/bits/char_traits.h **** 	if (lt(__s1[__i], __s2[__i]))
 153:/usr/include/c++/9.1.0/bits/char_traits.h **** 	  return -1;
 154:/usr/include/c++/9.1.0/bits/char_traits.h **** 	else if (lt(__s2[__i], __s1[__i]))
 155:/usr/include/c++/9.1.0/bits/char_traits.h **** 	  return 1;
 156:/usr/include/c++/9.1.0/bits/char_traits.h ****       return 0;
 157:/usr/include/c++/9.1.0/bits/char_traits.h ****     }
 158:/usr/include/c++/9.1.0/bits/char_traits.h **** 
 159:/usr/include/c++/9.1.0/bits/char_traits.h ****   template<typename _CharT>
 160:/usr/include/c++/9.1.0/bits/char_traits.h ****     _GLIBCXX14_CONSTEXPR std::size_t
 161:/usr/include/c++/9.1.0/bits/char_traits.h ****     char_traits<_CharT>::
 162:/usr/include/c++/9.1.0/bits/char_traits.h ****     length(const char_type* __p)
 163:/usr/include/c++/9.1.0/bits/char_traits.h ****     {
 164:/usr/include/c++/9.1.0/bits/char_traits.h ****       std::size_t __i = 0;
 165:/usr/include/c++/9.1.0/bits/char_traits.h ****       while (!eq(__p[__i], char_type()))
 166:/usr/include/c++/9.1.0/bits/char_traits.h ****         ++__i;
 167:/usr/include/c++/9.1.0/bits/char_traits.h ****       return __i;
 168:/usr/include/c++/9.1.0/bits/char_traits.h ****     }
 169:/usr/include/c++/9.1.0/bits/char_traits.h **** 
 170:/usr/include/c++/9.1.0/bits/char_traits.h ****   template<typename _CharT>
 171:/usr/include/c++/9.1.0/bits/char_traits.h ****     _GLIBCXX14_CONSTEXPR const typename char_traits<_CharT>::char_type*
 172:/usr/include/c++/9.1.0/bits/char_traits.h ****     char_traits<_CharT>::
 173:/usr/include/c++/9.1.0/bits/char_traits.h ****     find(const char_type* __s, std::size_t __n, const char_type& __a)
 174:/usr/include/c++/9.1.0/bits/char_traits.h ****     {
 175:/usr/include/c++/9.1.0/bits/char_traits.h ****       for (std::size_t __i = 0; __i < __n; ++__i)
 176:/usr/include/c++/9.1.0/bits/char_traits.h ****         if (eq(__s[__i], __a))
 177:/usr/include/c++/9.1.0/bits/char_traits.h ****           return __s + __i;
 178:/usr/include/c++/9.1.0/bits/char_traits.h ****       return 0;
 179:/usr/include/c++/9.1.0/bits/char_traits.h ****     }
 180:/usr/include/c++/9.1.0/bits/char_traits.h **** 
 181:/usr/include/c++/9.1.0/bits/char_traits.h ****   template<typename _CharT>
 182:/usr/include/c++/9.1.0/bits/char_traits.h ****     typename char_traits<_CharT>::char_type*
 183:/usr/include/c++/9.1.0/bits/char_traits.h ****     char_traits<_CharT>::
 184:/usr/include/c++/9.1.0/bits/char_traits.h ****     move(char_type* __s1, const char_type* __s2, std::size_t __n)
 185:/usr/include/c++/9.1.0/bits/char_traits.h ****     {
 186:/usr/include/c++/9.1.0/bits/char_traits.h ****       if (__n == 0)
 187:/usr/include/c++/9.1.0/bits/char_traits.h **** 	return __s1;
 188:/usr/include/c++/9.1.0/bits/char_traits.h ****       return static_cast<_CharT*>(__builtin_memmove(__s1, __s2,
 189:/usr/include/c++/9.1.0/bits/char_traits.h **** 						    __n * sizeof(char_type)));
 190:/usr/include/c++/9.1.0/bits/char_traits.h ****     }
 191:/usr/include/c++/9.1.0/bits/char_traits.h **** 
 192:/usr/include/c++/9.1.0/bits/char_traits.h ****   template<typename _CharT>
 193:/usr/include/c++/9.1.0/bits/char_traits.h ****     typename char_traits<_CharT>::char_type*
 194:/usr/include/c++/9.1.0/bits/char_traits.h ****     char_traits<_CharT>::
 195:/usr/include/c++/9.1.0/bits/char_traits.h ****     copy(char_type* __s1, const char_type* __s2, std::size_t __n)
 196:/usr/include/c++/9.1.0/bits/char_traits.h ****     {
 197:/usr/include/c++/9.1.0/bits/char_traits.h ****       // NB: Inline std::copy so no recursive dependencies.
 198:/usr/include/c++/9.1.0/bits/char_traits.h ****       std::copy(__s2, __s2 + __n, __s1);
GAS LISTING /tmp/ccK1lRdA.s 			page 27


 199:/usr/include/c++/9.1.0/bits/char_traits.h ****       return __s1;
 200:/usr/include/c++/9.1.0/bits/char_traits.h ****     }
 201:/usr/include/c++/9.1.0/bits/char_traits.h **** 
 202:/usr/include/c++/9.1.0/bits/char_traits.h ****   template<typename _CharT>
 203:/usr/include/c++/9.1.0/bits/char_traits.h ****     typename char_traits<_CharT>::char_type*
 204:/usr/include/c++/9.1.0/bits/char_traits.h ****     char_traits<_CharT>::
 205:/usr/include/c++/9.1.0/bits/char_traits.h ****     assign(char_type* __s, std::size_t __n, char_type __a)
 206:/usr/include/c++/9.1.0/bits/char_traits.h ****     {
 207:/usr/include/c++/9.1.0/bits/char_traits.h ****       // NB: Inline std::fill_n so no recursive dependencies.
 208:/usr/include/c++/9.1.0/bits/char_traits.h ****       std::fill_n(__s, __n, __a);
 209:/usr/include/c++/9.1.0/bits/char_traits.h ****       return __s;
 210:/usr/include/c++/9.1.0/bits/char_traits.h ****     }
 211:/usr/include/c++/9.1.0/bits/char_traits.h **** 
 212:/usr/include/c++/9.1.0/bits/char_traits.h **** _GLIBCXX_END_NAMESPACE_VERSION
 213:/usr/include/c++/9.1.0/bits/char_traits.h **** } // namespace
 214:/usr/include/c++/9.1.0/bits/char_traits.h **** 
 215:/usr/include/c++/9.1.0/bits/char_traits.h **** namespace std _GLIBCXX_VISIBILITY(default)
 216:/usr/include/c++/9.1.0/bits/char_traits.h **** {
 217:/usr/include/c++/9.1.0/bits/char_traits.h **** _GLIBCXX_BEGIN_NAMESPACE_VERSION
 218:/usr/include/c++/9.1.0/bits/char_traits.h **** 
 219:/usr/include/c++/9.1.0/bits/char_traits.h **** #if __cplusplus >= 201703L
 220:/usr/include/c++/9.1.0/bits/char_traits.h **** #define __cpp_lib_constexpr_char_traits 201611
 221:/usr/include/c++/9.1.0/bits/char_traits.h **** 
 222:/usr/include/c++/9.1.0/bits/char_traits.h ****   /**
 223:/usr/include/c++/9.1.0/bits/char_traits.h ****    *  @brief Determine whether the characters of a NULL-terminated
 224:/usr/include/c++/9.1.0/bits/char_traits.h ****    *  string are known at compile time.
 225:/usr/include/c++/9.1.0/bits/char_traits.h ****    *  @param  __s  The string.
 226:/usr/include/c++/9.1.0/bits/char_traits.h ****    *
 227:/usr/include/c++/9.1.0/bits/char_traits.h ****    *  Assumes that _CharT is a built-in character type.
 228:/usr/include/c++/9.1.0/bits/char_traits.h ****    */
 229:/usr/include/c++/9.1.0/bits/char_traits.h ****   template<typename _CharT>
 230:/usr/include/c++/9.1.0/bits/char_traits.h ****     static _GLIBCXX_ALWAYS_INLINE constexpr bool
 231:/usr/include/c++/9.1.0/bits/char_traits.h ****     __constant_string_p(const _CharT* __s)
 232:/usr/include/c++/9.1.0/bits/char_traits.h ****     {
 233:/usr/include/c++/9.1.0/bits/char_traits.h **** #ifdef _GLIBCXX_HAVE_BUILTIN_IS_CONSTANT_EVALUATED
 234:/usr/include/c++/9.1.0/bits/char_traits.h ****       (void) __s;
 235:/usr/include/c++/9.1.0/bits/char_traits.h ****       // In constexpr contexts all strings should be constant.
 236:/usr/include/c++/9.1.0/bits/char_traits.h ****       return __builtin_is_constant_evaluated();
 237:/usr/include/c++/9.1.0/bits/char_traits.h **** #else
 238:/usr/include/c++/9.1.0/bits/char_traits.h ****       while (__builtin_constant_p(*__s) && *__s)
 239:/usr/include/c++/9.1.0/bits/char_traits.h **** 	__s++;
 240:/usr/include/c++/9.1.0/bits/char_traits.h ****       return __builtin_constant_p(*__s);
 241:/usr/include/c++/9.1.0/bits/char_traits.h **** #endif
 242:/usr/include/c++/9.1.0/bits/char_traits.h ****     }
 243:/usr/include/c++/9.1.0/bits/char_traits.h **** 
 244:/usr/include/c++/9.1.0/bits/char_traits.h ****   /**
 245:/usr/include/c++/9.1.0/bits/char_traits.h ****    *  @brief Determine whether the characters of a character array are
 246:/usr/include/c++/9.1.0/bits/char_traits.h ****    *  known at compile time.
 247:/usr/include/c++/9.1.0/bits/char_traits.h ****    *  @param  __a  The character array.
 248:/usr/include/c++/9.1.0/bits/char_traits.h ****    *  @param  __n  Number of characters.
 249:/usr/include/c++/9.1.0/bits/char_traits.h ****    *
 250:/usr/include/c++/9.1.0/bits/char_traits.h ****    *  Assumes that _CharT is a built-in character type.
 251:/usr/include/c++/9.1.0/bits/char_traits.h ****    */
 252:/usr/include/c++/9.1.0/bits/char_traits.h ****   template<typename _CharT>
 253:/usr/include/c++/9.1.0/bits/char_traits.h ****     static _GLIBCXX_ALWAYS_INLINE constexpr bool
 254:/usr/include/c++/9.1.0/bits/char_traits.h ****     __constant_char_array_p(const _CharT* __a, size_t __n)
 255:/usr/include/c++/9.1.0/bits/char_traits.h ****     {
GAS LISTING /tmp/ccK1lRdA.s 			page 28


 256:/usr/include/c++/9.1.0/bits/char_traits.h **** #ifdef _GLIBCXX_HAVE_BUILTIN_IS_CONSTANT_EVALUATED
 257:/usr/include/c++/9.1.0/bits/char_traits.h ****       (void) __a;
 258:/usr/include/c++/9.1.0/bits/char_traits.h ****       (void) __n;
 259:/usr/include/c++/9.1.0/bits/char_traits.h ****       // In constexpr contexts all character arrays should be constant.
 260:/usr/include/c++/9.1.0/bits/char_traits.h ****       return __builtin_is_constant_evaluated();
 261:/usr/include/c++/9.1.0/bits/char_traits.h **** #else
 262:/usr/include/c++/9.1.0/bits/char_traits.h ****       size_t __i = 0;
 263:/usr/include/c++/9.1.0/bits/char_traits.h ****       while (__i < __n && __builtin_constant_p(__a[__i]))
 264:/usr/include/c++/9.1.0/bits/char_traits.h **** 	__i++;
 265:/usr/include/c++/9.1.0/bits/char_traits.h ****       return __i == __n;
 266:/usr/include/c++/9.1.0/bits/char_traits.h **** #endif
 267:/usr/include/c++/9.1.0/bits/char_traits.h ****     }
 268:/usr/include/c++/9.1.0/bits/char_traits.h **** #endif
 269:/usr/include/c++/9.1.0/bits/char_traits.h **** 
 270:/usr/include/c++/9.1.0/bits/char_traits.h ****   // 21.1
 271:/usr/include/c++/9.1.0/bits/char_traits.h ****   /**
 272:/usr/include/c++/9.1.0/bits/char_traits.h ****    *  @brief  Basis for explicit traits specializations.
 273:/usr/include/c++/9.1.0/bits/char_traits.h ****    *
 274:/usr/include/c++/9.1.0/bits/char_traits.h ****    *  @note  For any given actual character type, this definition is
 275:/usr/include/c++/9.1.0/bits/char_traits.h ****    *  probably wrong.  Since this is just a thin wrapper around
 276:/usr/include/c++/9.1.0/bits/char_traits.h ****    *  __gnu_cxx::char_traits, it is possible to achieve a more
 277:/usr/include/c++/9.1.0/bits/char_traits.h ****    *  appropriate definition by specializing __gnu_cxx::char_traits.
 278:/usr/include/c++/9.1.0/bits/char_traits.h ****    *
 279:/usr/include/c++/9.1.0/bits/char_traits.h ****    *  See https://gcc.gnu.org/onlinedocs/libstdc++/manual/strings.html#strings.string.character_typ
 280:/usr/include/c++/9.1.0/bits/char_traits.h ****    *  for advice on how to make use of this class for @a unusual character
 281:/usr/include/c++/9.1.0/bits/char_traits.h ****    *  types. Also, check out include/ext/pod_char_traits.h.
 282:/usr/include/c++/9.1.0/bits/char_traits.h ****   */
 283:/usr/include/c++/9.1.0/bits/char_traits.h ****   template<class _CharT>
 284:/usr/include/c++/9.1.0/bits/char_traits.h ****     struct char_traits : public __gnu_cxx::char_traits<_CharT>
 285:/usr/include/c++/9.1.0/bits/char_traits.h ****     { };
 286:/usr/include/c++/9.1.0/bits/char_traits.h **** 
 287:/usr/include/c++/9.1.0/bits/char_traits.h **** 
 288:/usr/include/c++/9.1.0/bits/char_traits.h ****   /// 21.1.3.1  char_traits specializations
 289:/usr/include/c++/9.1.0/bits/char_traits.h ****   template<>
 290:/usr/include/c++/9.1.0/bits/char_traits.h ****     struct char_traits<char>
 291:/usr/include/c++/9.1.0/bits/char_traits.h ****     {
 292:/usr/include/c++/9.1.0/bits/char_traits.h ****       typedef char              char_type;
 293:/usr/include/c++/9.1.0/bits/char_traits.h ****       typedef int               int_type;
 294:/usr/include/c++/9.1.0/bits/char_traits.h ****       typedef streampos         pos_type;
 295:/usr/include/c++/9.1.0/bits/char_traits.h ****       typedef streamoff         off_type;
 296:/usr/include/c++/9.1.0/bits/char_traits.h ****       typedef mbstate_t         state_type;
 297:/usr/include/c++/9.1.0/bits/char_traits.h **** 
 298:/usr/include/c++/9.1.0/bits/char_traits.h ****       static _GLIBCXX17_CONSTEXPR void
 299:/usr/include/c++/9.1.0/bits/char_traits.h ****       assign(char_type& __c1, const char_type& __c2) _GLIBCXX_NOEXCEPT
 300:/usr/include/c++/9.1.0/bits/char_traits.h ****       { __c1 = __c2; }
 301:/usr/include/c++/9.1.0/bits/char_traits.h **** 
 302:/usr/include/c++/9.1.0/bits/char_traits.h ****       static _GLIBCXX_CONSTEXPR bool
 303:/usr/include/c++/9.1.0/bits/char_traits.h ****       eq(const char_type& __c1, const char_type& __c2) _GLIBCXX_NOEXCEPT
 304:/usr/include/c++/9.1.0/bits/char_traits.h ****       { return __c1 == __c2; }
 305:/usr/include/c++/9.1.0/bits/char_traits.h **** 
 306:/usr/include/c++/9.1.0/bits/char_traits.h ****       static _GLIBCXX_CONSTEXPR bool
 307:/usr/include/c++/9.1.0/bits/char_traits.h ****       lt(const char_type& __c1, const char_type& __c2) _GLIBCXX_NOEXCEPT
 308:/usr/include/c++/9.1.0/bits/char_traits.h ****       {
 309:/usr/include/c++/9.1.0/bits/char_traits.h **** 	// LWG 467.
 310:/usr/include/c++/9.1.0/bits/char_traits.h **** 	return (static_cast<unsigned char>(__c1)
 311:/usr/include/c++/9.1.0/bits/char_traits.h **** 		< static_cast<unsigned char>(__c2));
 312:/usr/include/c++/9.1.0/bits/char_traits.h ****       }
GAS LISTING /tmp/ccK1lRdA.s 			page 29


 313:/usr/include/c++/9.1.0/bits/char_traits.h **** 
 314:/usr/include/c++/9.1.0/bits/char_traits.h ****       static _GLIBCXX17_CONSTEXPR int
 315:/usr/include/c++/9.1.0/bits/char_traits.h ****       compare(const char_type* __s1, const char_type* __s2, size_t __n)
 316:/usr/include/c++/9.1.0/bits/char_traits.h ****       {
 317:/usr/include/c++/9.1.0/bits/char_traits.h **** 	if (__n == 0)
 318:/usr/include/c++/9.1.0/bits/char_traits.h **** 	  return 0;
 319:/usr/include/c++/9.1.0/bits/char_traits.h **** #if __cplusplus >= 201703L
 320:/usr/include/c++/9.1.0/bits/char_traits.h **** 	if (__builtin_constant_p(__n)
 321:/usr/include/c++/9.1.0/bits/char_traits.h **** 	    && __constant_char_array_p(__s1, __n)
 322:/usr/include/c++/9.1.0/bits/char_traits.h **** 	    && __constant_char_array_p(__s2, __n))
 323:/usr/include/c++/9.1.0/bits/char_traits.h **** 	  return __gnu_cxx::char_traits<char_type>::compare(__s1, __s2, __n);
 324:/usr/include/c++/9.1.0/bits/char_traits.h **** #endif
 325:/usr/include/c++/9.1.0/bits/char_traits.h **** 	return __builtin_memcmp(__s1, __s2, __n);
 326:/usr/include/c++/9.1.0/bits/char_traits.h ****       }
 327:/usr/include/c++/9.1.0/bits/char_traits.h **** 
 328:/usr/include/c++/9.1.0/bits/char_traits.h ****       static _GLIBCXX17_CONSTEXPR size_t
 329:/usr/include/c++/9.1.0/bits/char_traits.h ****       length(const char_type* __s)
 330:/usr/include/c++/9.1.0/bits/char_traits.h ****       {
 331:/usr/include/c++/9.1.0/bits/char_traits.h **** #if __cplusplus >= 201703L
 332:/usr/include/c++/9.1.0/bits/char_traits.h **** 	if (__constant_string_p(__s))
 333:/usr/include/c++/9.1.0/bits/char_traits.h **** 	  return __gnu_cxx::char_traits<char_type>::length(__s);
 334:/usr/include/c++/9.1.0/bits/char_traits.h **** #endif
 335:/usr/include/c++/9.1.0/bits/char_traits.h **** 	return __builtin_strlen(__s);
 194              		.loc 4 335 2 is_stmt 1 view .LVU45
 195              	.LBB419:
 196              	.LBB418:
 566:/usr/include/c++/9.1.0/ostream ****     {
 567:/usr/include/c++/9.1.0/ostream ****       if (!__s)
 568:/usr/include/c++/9.1.0/ostream **** 	__out.setstate(ios_base::badbit);
 569:/usr/include/c++/9.1.0/ostream ****       else
 570:/usr/include/c++/9.1.0/ostream **** 	__ostream_insert(__out, __s,
 197              		.loc 3 570 18 is_stmt 0 view .LVU46
 198 00e0 BA080000 		movl	$8, %edx
 198      00
 199              	.LVL23:
 200              		.loc 3 570 18 view .LVU47
 201 00e5 488D3500 		leaq	.LC1(%rip), %rsi
 201      000000
 202              	.LVL24:
 203              		.loc 3 570 18 view .LVU48
 204 00ec 488D3D00 		leaq	_ZSt4cout(%rip), %rdi
 204      000000
 205              	.LVL25:
 206              		.loc 3 570 18 view .LVU49
 207 00f3 E8000000 		call	_ZSt16__ostream_insertIcSt11char_traitsIcEERSt13basic_ostreamIT_T0_ES6_PKS3_l@PLT
 207      00
 208              	.LVL26:
 209              		.loc 3 570 18 view .LVU50
 210              	.LBE418:
 211              	.LBE419:
 313:Src/main.cpp  ****     if(key == 27) //ESC
 212              		.loc 1 313 33 view .LVU51
 213 00f8 400FB6F5 		movzbl	%bpl, %esi
 214 00fc 488D3D00 		leaq	_ZSt4cout(%rip), %rdi
 214      000000
 215 0103 E8000000 		call	_ZNSolsEi@PLT
 215      00
GAS LISTING /tmp/ccK1lRdA.s 			page 30


 216              	.LVL27:
 217 0108 4889C3   		movq	%rax, %rbx
 218              	.LVL28:
 219              	.LBB420:
 220              	.LBI420:
 108:/usr/include/c++/9.1.0/ostream ****       {
 221              		.loc 3 108 7 is_stmt 1 view .LVU52
 222              	.LBB421:
 223              	.LBI421:
 571:/usr/include/c++/9.1.0/ostream **** 			 static_cast<streamsize>(_Traits::length(__s)));
 572:/usr/include/c++/9.1.0/ostream ****       return __out;
 573:/usr/include/c++/9.1.0/ostream ****     }
 574:/usr/include/c++/9.1.0/ostream **** 
 575:/usr/include/c++/9.1.0/ostream ****   // Signed and unsigned
 576:/usr/include/c++/9.1.0/ostream ****   template<class _Traits>
 577:/usr/include/c++/9.1.0/ostream ****     inline basic_ostream<char, _Traits>&
 578:/usr/include/c++/9.1.0/ostream ****     operator<<(basic_ostream<char, _Traits>& __out, const signed char* __s)
 579:/usr/include/c++/9.1.0/ostream ****     { return (__out << reinterpret_cast<const char*>(__s)); }
 580:/usr/include/c++/9.1.0/ostream **** 
 581:/usr/include/c++/9.1.0/ostream ****   template<class _Traits>
 582:/usr/include/c++/9.1.0/ostream ****     inline basic_ostream<char, _Traits> &
 583:/usr/include/c++/9.1.0/ostream ****     operator<<(basic_ostream<char, _Traits>& __out, const unsigned char* __s)
 584:/usr/include/c++/9.1.0/ostream ****     { return (__out << reinterpret_cast<const char*>(__s)); }
 585:/usr/include/c++/9.1.0/ostream ****   //@}
 586:/usr/include/c++/9.1.0/ostream **** 
 587:/usr/include/c++/9.1.0/ostream ****   // Standard basic_ostream manipulators
 588:/usr/include/c++/9.1.0/ostream **** 
 589:/usr/include/c++/9.1.0/ostream ****   /**
 590:/usr/include/c++/9.1.0/ostream ****    *  @brief  Write a newline and flush the stream.
 591:/usr/include/c++/9.1.0/ostream ****    *
 592:/usr/include/c++/9.1.0/ostream ****    *  This manipulator is often mistakenly used when a simple newline is
 593:/usr/include/c++/9.1.0/ostream ****    *  desired, leading to poor buffering performance.  See
 594:/usr/include/c++/9.1.0/ostream ****    *  https://gcc.gnu.org/onlinedocs/libstdc++/manual/streambufs.html#io.streambuf.buffering
 595:/usr/include/c++/9.1.0/ostream ****    *  for more on this subject.
 596:/usr/include/c++/9.1.0/ostream ****   */
 597:/usr/include/c++/9.1.0/ostream ****   template<typename _CharT, typename _Traits>
 598:/usr/include/c++/9.1.0/ostream ****     inline basic_ostream<_CharT, _Traits>&
 599:/usr/include/c++/9.1.0/ostream ****     endl(basic_ostream<_CharT, _Traits>& __os)
 224              		.loc 3 599 5 view .LVU53
 225              	.LBB422:
 600:/usr/include/c++/9.1.0/ostream ****     { return flush(__os.put(__os.widen('\n'))); }
 226              		.loc 3 600 19 is_stmt 0 view .LVU54
 227 010b 488B00   		movq	(%rax), %rax
 228              	.LVL29:
 229              		.loc 3 600 19 view .LVU55
 230 010e 4889D9   		movq	%rbx, %rcx
 231 0111 480348E8 		addq	-24(%rax), %rcx
 232              	.LVL30:
 233              	.LBB423:
 234              	.LBI423:
 235              		.file 5 "/usr/include/c++/9.1.0/bits/basic_ios.h"
   1:/usr/include/c++/9.1.0/bits/basic_ios.h **** // Iostreams base classes -*- C++ -*-
   2:/usr/include/c++/9.1.0/bits/basic_ios.h **** 
   3:/usr/include/c++/9.1.0/bits/basic_ios.h **** // Copyright (C) 1997-2019 Free Software Foundation, Inc.
   4:/usr/include/c++/9.1.0/bits/basic_ios.h **** //
   5:/usr/include/c++/9.1.0/bits/basic_ios.h **** // This file is part of the GNU ISO C++ Library.  This library is free
   6:/usr/include/c++/9.1.0/bits/basic_ios.h **** // software; you can redistribute it and/or modify it under the
GAS LISTING /tmp/ccK1lRdA.s 			page 31


   7:/usr/include/c++/9.1.0/bits/basic_ios.h **** // terms of the GNU General Public License as published by the
   8:/usr/include/c++/9.1.0/bits/basic_ios.h **** // Free Software Foundation; either version 3, or (at your option)
   9:/usr/include/c++/9.1.0/bits/basic_ios.h **** // any later version.
  10:/usr/include/c++/9.1.0/bits/basic_ios.h **** 
  11:/usr/include/c++/9.1.0/bits/basic_ios.h **** // This library is distributed in the hope that it will be useful,
  12:/usr/include/c++/9.1.0/bits/basic_ios.h **** // but WITHOUT ANY WARRANTY; without even the implied warranty of
  13:/usr/include/c++/9.1.0/bits/basic_ios.h **** // MERCHANTABILITY or FITNESS FOR A PARTICULAR PURPOSE.  See the
  14:/usr/include/c++/9.1.0/bits/basic_ios.h **** // GNU General Public License for more details.
  15:/usr/include/c++/9.1.0/bits/basic_ios.h **** 
  16:/usr/include/c++/9.1.0/bits/basic_ios.h **** // Under Section 7 of GPL version 3, you are granted additional
  17:/usr/include/c++/9.1.0/bits/basic_ios.h **** // permissions described in the GCC Runtime Library Exception, version
  18:/usr/include/c++/9.1.0/bits/basic_ios.h **** // 3.1, as published by the Free Software Foundation.
  19:/usr/include/c++/9.1.0/bits/basic_ios.h **** 
  20:/usr/include/c++/9.1.0/bits/basic_ios.h **** // You should have received a copy of the GNU General Public License and
  21:/usr/include/c++/9.1.0/bits/basic_ios.h **** // a copy of the GCC Runtime Library Exception along with this program;
  22:/usr/include/c++/9.1.0/bits/basic_ios.h **** // see the files COPYING3 and COPYING.RUNTIME respectively.  If not, see
  23:/usr/include/c++/9.1.0/bits/basic_ios.h **** // <http://www.gnu.org/licenses/>.
  24:/usr/include/c++/9.1.0/bits/basic_ios.h **** 
  25:/usr/include/c++/9.1.0/bits/basic_ios.h **** /** @file bits/basic_ios.h
  26:/usr/include/c++/9.1.0/bits/basic_ios.h ****  *  This is an internal header file, included by other library headers.
  27:/usr/include/c++/9.1.0/bits/basic_ios.h ****  *  Do not attempt to use it directly. @headername{ios}
  28:/usr/include/c++/9.1.0/bits/basic_ios.h ****  */
  29:/usr/include/c++/9.1.0/bits/basic_ios.h **** 
  30:/usr/include/c++/9.1.0/bits/basic_ios.h **** #ifndef _BASIC_IOS_H
  31:/usr/include/c++/9.1.0/bits/basic_ios.h **** #define _BASIC_IOS_H 1
  32:/usr/include/c++/9.1.0/bits/basic_ios.h **** 
  33:/usr/include/c++/9.1.0/bits/basic_ios.h **** #pragma GCC system_header
  34:/usr/include/c++/9.1.0/bits/basic_ios.h **** 
  35:/usr/include/c++/9.1.0/bits/basic_ios.h **** #include <bits/localefwd.h>
  36:/usr/include/c++/9.1.0/bits/basic_ios.h **** #include <bits/locale_classes.h>
  37:/usr/include/c++/9.1.0/bits/basic_ios.h **** #include <bits/locale_facets.h>
  38:/usr/include/c++/9.1.0/bits/basic_ios.h **** #include <bits/streambuf_iterator.h>
  39:/usr/include/c++/9.1.0/bits/basic_ios.h **** #include <bits/move.h>
  40:/usr/include/c++/9.1.0/bits/basic_ios.h **** 
  41:/usr/include/c++/9.1.0/bits/basic_ios.h **** namespace std _GLIBCXX_VISIBILITY(default)
  42:/usr/include/c++/9.1.0/bits/basic_ios.h **** {
  43:/usr/include/c++/9.1.0/bits/basic_ios.h **** _GLIBCXX_BEGIN_NAMESPACE_VERSION
  44:/usr/include/c++/9.1.0/bits/basic_ios.h **** 
  45:/usr/include/c++/9.1.0/bits/basic_ios.h ****   template<typename _Facet>
  46:/usr/include/c++/9.1.0/bits/basic_ios.h ****     inline const _Facet&
  47:/usr/include/c++/9.1.0/bits/basic_ios.h ****     __check_facet(const _Facet* __f)
  48:/usr/include/c++/9.1.0/bits/basic_ios.h ****     {
  49:/usr/include/c++/9.1.0/bits/basic_ios.h ****       if (!__f)
  50:/usr/include/c++/9.1.0/bits/basic_ios.h **** 	__throw_bad_cast();
  51:/usr/include/c++/9.1.0/bits/basic_ios.h ****       return *__f;
  52:/usr/include/c++/9.1.0/bits/basic_ios.h ****     }
  53:/usr/include/c++/9.1.0/bits/basic_ios.h **** 
  54:/usr/include/c++/9.1.0/bits/basic_ios.h ****   /**
  55:/usr/include/c++/9.1.0/bits/basic_ios.h ****    *  @brief Template class basic_ios, virtual base class for all
  56:/usr/include/c++/9.1.0/bits/basic_ios.h ****    *  stream classes. 
  57:/usr/include/c++/9.1.0/bits/basic_ios.h ****    *  @ingroup io
  58:/usr/include/c++/9.1.0/bits/basic_ios.h ****    *
  59:/usr/include/c++/9.1.0/bits/basic_ios.h ****    *  @tparam _CharT  Type of character stream.
  60:/usr/include/c++/9.1.0/bits/basic_ios.h ****    *  @tparam _Traits  Traits for character type, defaults to
  61:/usr/include/c++/9.1.0/bits/basic_ios.h ****    *                   char_traits<_CharT>.
  62:/usr/include/c++/9.1.0/bits/basic_ios.h ****    *
  63:/usr/include/c++/9.1.0/bits/basic_ios.h ****    *  Most of the member functions called dispatched on stream objects
GAS LISTING /tmp/ccK1lRdA.s 			page 32


  64:/usr/include/c++/9.1.0/bits/basic_ios.h ****    *  (e.g., @c std::cout.foo(bar);) are consolidated in this class.
  65:/usr/include/c++/9.1.0/bits/basic_ios.h ****   */
  66:/usr/include/c++/9.1.0/bits/basic_ios.h ****   template<typename _CharT, typename _Traits>
  67:/usr/include/c++/9.1.0/bits/basic_ios.h ****     class basic_ios : public ios_base
  68:/usr/include/c++/9.1.0/bits/basic_ios.h ****     {
  69:/usr/include/c++/9.1.0/bits/basic_ios.h ****     public:
  70:/usr/include/c++/9.1.0/bits/basic_ios.h ****       //@{
  71:/usr/include/c++/9.1.0/bits/basic_ios.h ****       /**
  72:/usr/include/c++/9.1.0/bits/basic_ios.h ****        *  These are standard types.  They permit a standardized way of
  73:/usr/include/c++/9.1.0/bits/basic_ios.h ****        *  referring to names of (or names dependent on) the template
  74:/usr/include/c++/9.1.0/bits/basic_ios.h ****        *  parameters, which are specific to the implementation.
  75:/usr/include/c++/9.1.0/bits/basic_ios.h ****       */
  76:/usr/include/c++/9.1.0/bits/basic_ios.h ****       typedef _CharT                                 char_type;
  77:/usr/include/c++/9.1.0/bits/basic_ios.h ****       typedef typename _Traits::int_type             int_type;
  78:/usr/include/c++/9.1.0/bits/basic_ios.h ****       typedef typename _Traits::pos_type             pos_type;
  79:/usr/include/c++/9.1.0/bits/basic_ios.h ****       typedef typename _Traits::off_type             off_type;
  80:/usr/include/c++/9.1.0/bits/basic_ios.h ****       typedef _Traits                                traits_type;
  81:/usr/include/c++/9.1.0/bits/basic_ios.h ****       //@}
  82:/usr/include/c++/9.1.0/bits/basic_ios.h **** 
  83:/usr/include/c++/9.1.0/bits/basic_ios.h ****       //@{
  84:/usr/include/c++/9.1.0/bits/basic_ios.h ****       /**
  85:/usr/include/c++/9.1.0/bits/basic_ios.h ****        *  These are non-standard types.
  86:/usr/include/c++/9.1.0/bits/basic_ios.h ****       */
  87:/usr/include/c++/9.1.0/bits/basic_ios.h ****       typedef ctype<_CharT>                          __ctype_type;
  88:/usr/include/c++/9.1.0/bits/basic_ios.h ****       typedef num_put<_CharT, ostreambuf_iterator<_CharT, _Traits> >
  89:/usr/include/c++/9.1.0/bits/basic_ios.h **** 						     __num_put_type;
  90:/usr/include/c++/9.1.0/bits/basic_ios.h ****       typedef num_get<_CharT, istreambuf_iterator<_CharT, _Traits> >
  91:/usr/include/c++/9.1.0/bits/basic_ios.h **** 						     __num_get_type;
  92:/usr/include/c++/9.1.0/bits/basic_ios.h ****       //@}
  93:/usr/include/c++/9.1.0/bits/basic_ios.h **** 
  94:/usr/include/c++/9.1.0/bits/basic_ios.h ****       // Data members:
  95:/usr/include/c++/9.1.0/bits/basic_ios.h ****     protected:
  96:/usr/include/c++/9.1.0/bits/basic_ios.h ****       basic_ostream<_CharT, _Traits>*                _M_tie;
  97:/usr/include/c++/9.1.0/bits/basic_ios.h ****       mutable char_type                              _M_fill;
  98:/usr/include/c++/9.1.0/bits/basic_ios.h ****       mutable bool                                   _M_fill_init;
  99:/usr/include/c++/9.1.0/bits/basic_ios.h ****       basic_streambuf<_CharT, _Traits>*              _M_streambuf;
 100:/usr/include/c++/9.1.0/bits/basic_ios.h **** 
 101:/usr/include/c++/9.1.0/bits/basic_ios.h ****       // Cached use_facet<ctype>, which is based on the current locale info.
 102:/usr/include/c++/9.1.0/bits/basic_ios.h ****       const __ctype_type*                            _M_ctype;
 103:/usr/include/c++/9.1.0/bits/basic_ios.h ****       // For ostream.
 104:/usr/include/c++/9.1.0/bits/basic_ios.h ****       const __num_put_type*                          _M_num_put;
 105:/usr/include/c++/9.1.0/bits/basic_ios.h ****       // For istream.
 106:/usr/include/c++/9.1.0/bits/basic_ios.h ****       const __num_get_type*                          _M_num_get;
 107:/usr/include/c++/9.1.0/bits/basic_ios.h **** 
 108:/usr/include/c++/9.1.0/bits/basic_ios.h ****     public:
 109:/usr/include/c++/9.1.0/bits/basic_ios.h ****       //@{
 110:/usr/include/c++/9.1.0/bits/basic_ios.h ****       /**
 111:/usr/include/c++/9.1.0/bits/basic_ios.h ****        *  @brief  The quick-and-easy status check.
 112:/usr/include/c++/9.1.0/bits/basic_ios.h ****        *
 113:/usr/include/c++/9.1.0/bits/basic_ios.h ****        *  This allows you to write constructs such as
 114:/usr/include/c++/9.1.0/bits/basic_ios.h ****        *  <code>if (!a_stream) ...</code> and <code>while (a_stream) ...</code>
 115:/usr/include/c++/9.1.0/bits/basic_ios.h ****       */
 116:/usr/include/c++/9.1.0/bits/basic_ios.h **** #if __cplusplus >= 201103L
 117:/usr/include/c++/9.1.0/bits/basic_ios.h ****       explicit operator bool() const
 118:/usr/include/c++/9.1.0/bits/basic_ios.h ****       { return !this->fail(); }
 119:/usr/include/c++/9.1.0/bits/basic_ios.h **** #else
 120:/usr/include/c++/9.1.0/bits/basic_ios.h ****       operator void*() const
GAS LISTING /tmp/ccK1lRdA.s 			page 33


 121:/usr/include/c++/9.1.0/bits/basic_ios.h ****       { return this->fail() ? 0 : const_cast<basic_ios*>(this); }
 122:/usr/include/c++/9.1.0/bits/basic_ios.h **** #endif
 123:/usr/include/c++/9.1.0/bits/basic_ios.h **** 
 124:/usr/include/c++/9.1.0/bits/basic_ios.h ****       bool
 125:/usr/include/c++/9.1.0/bits/basic_ios.h ****       operator!() const
 126:/usr/include/c++/9.1.0/bits/basic_ios.h ****       { return this->fail(); }
 127:/usr/include/c++/9.1.0/bits/basic_ios.h ****       //@}
 128:/usr/include/c++/9.1.0/bits/basic_ios.h **** 
 129:/usr/include/c++/9.1.0/bits/basic_ios.h ****       /**
 130:/usr/include/c++/9.1.0/bits/basic_ios.h ****        *  @brief  Returns the error state of the stream buffer.
 131:/usr/include/c++/9.1.0/bits/basic_ios.h ****        *  @return  A bit pattern (well, isn't everything?)
 132:/usr/include/c++/9.1.0/bits/basic_ios.h ****        *
 133:/usr/include/c++/9.1.0/bits/basic_ios.h ****        *  See std::ios_base::iostate for the possible bit values.  Most
 134:/usr/include/c++/9.1.0/bits/basic_ios.h ****        *  users will call one of the interpreting wrappers, e.g., good().
 135:/usr/include/c++/9.1.0/bits/basic_ios.h ****       */
 136:/usr/include/c++/9.1.0/bits/basic_ios.h ****       iostate
 137:/usr/include/c++/9.1.0/bits/basic_ios.h ****       rdstate() const
 138:/usr/include/c++/9.1.0/bits/basic_ios.h ****       { return _M_streambuf_state; }
 139:/usr/include/c++/9.1.0/bits/basic_ios.h **** 
 140:/usr/include/c++/9.1.0/bits/basic_ios.h ****       /**
 141:/usr/include/c++/9.1.0/bits/basic_ios.h ****        *  @brief  [Re]sets the error state.
 142:/usr/include/c++/9.1.0/bits/basic_ios.h ****        *  @param  __state  The new state flag(s) to set.
 143:/usr/include/c++/9.1.0/bits/basic_ios.h ****        *
 144:/usr/include/c++/9.1.0/bits/basic_ios.h ****        *  See std::ios_base::iostate for the possible bit values.  Most
 145:/usr/include/c++/9.1.0/bits/basic_ios.h ****        *  users will not need to pass an argument.
 146:/usr/include/c++/9.1.0/bits/basic_ios.h ****       */
 147:/usr/include/c++/9.1.0/bits/basic_ios.h ****       void
 148:/usr/include/c++/9.1.0/bits/basic_ios.h ****       clear(iostate __state = goodbit);
 149:/usr/include/c++/9.1.0/bits/basic_ios.h **** 
 150:/usr/include/c++/9.1.0/bits/basic_ios.h ****       /**
 151:/usr/include/c++/9.1.0/bits/basic_ios.h ****        *  @brief  Sets additional flags in the error state.
 152:/usr/include/c++/9.1.0/bits/basic_ios.h ****        *  @param  __state  The additional state flag(s) to set.
 153:/usr/include/c++/9.1.0/bits/basic_ios.h ****        *
 154:/usr/include/c++/9.1.0/bits/basic_ios.h ****        *  See std::ios_base::iostate for the possible bit values.
 155:/usr/include/c++/9.1.0/bits/basic_ios.h ****       */
 156:/usr/include/c++/9.1.0/bits/basic_ios.h ****       void
 157:/usr/include/c++/9.1.0/bits/basic_ios.h ****       setstate(iostate __state)
 158:/usr/include/c++/9.1.0/bits/basic_ios.h ****       { this->clear(this->rdstate() | __state); }
 159:/usr/include/c++/9.1.0/bits/basic_ios.h **** 
 160:/usr/include/c++/9.1.0/bits/basic_ios.h ****       // Flip the internal state on for the proper state bits, then
 161:/usr/include/c++/9.1.0/bits/basic_ios.h ****       // rethrows the propagated exception if bit also set in
 162:/usr/include/c++/9.1.0/bits/basic_ios.h ****       // exceptions().
 163:/usr/include/c++/9.1.0/bits/basic_ios.h ****       void
 164:/usr/include/c++/9.1.0/bits/basic_ios.h ****       _M_setstate(iostate __state)
 165:/usr/include/c++/9.1.0/bits/basic_ios.h ****       {
 166:/usr/include/c++/9.1.0/bits/basic_ios.h **** 	// 27.6.1.2.1 Common requirements.
 167:/usr/include/c++/9.1.0/bits/basic_ios.h **** 	// Turn this on without causing an ios::failure to be thrown.
 168:/usr/include/c++/9.1.0/bits/basic_ios.h **** 	_M_streambuf_state |= __state;
 169:/usr/include/c++/9.1.0/bits/basic_ios.h **** 	if (this->exceptions() & __state)
 170:/usr/include/c++/9.1.0/bits/basic_ios.h **** 	  __throw_exception_again;
 171:/usr/include/c++/9.1.0/bits/basic_ios.h ****       }
 172:/usr/include/c++/9.1.0/bits/basic_ios.h **** 
 173:/usr/include/c++/9.1.0/bits/basic_ios.h ****       /**
 174:/usr/include/c++/9.1.0/bits/basic_ios.h ****        *  @brief  Fast error checking.
 175:/usr/include/c++/9.1.0/bits/basic_ios.h ****        *  @return  True if no error flags are set.
 176:/usr/include/c++/9.1.0/bits/basic_ios.h ****        *
 177:/usr/include/c++/9.1.0/bits/basic_ios.h ****        *  A wrapper around rdstate.
GAS LISTING /tmp/ccK1lRdA.s 			page 34


 178:/usr/include/c++/9.1.0/bits/basic_ios.h ****       */
 179:/usr/include/c++/9.1.0/bits/basic_ios.h ****       bool
 180:/usr/include/c++/9.1.0/bits/basic_ios.h ****       good() const
 181:/usr/include/c++/9.1.0/bits/basic_ios.h ****       { return this->rdstate() == 0; }
 182:/usr/include/c++/9.1.0/bits/basic_ios.h **** 
 183:/usr/include/c++/9.1.0/bits/basic_ios.h ****       /**
 184:/usr/include/c++/9.1.0/bits/basic_ios.h ****        *  @brief  Fast error checking.
 185:/usr/include/c++/9.1.0/bits/basic_ios.h ****        *  @return  True if the eofbit is set.
 186:/usr/include/c++/9.1.0/bits/basic_ios.h ****        *
 187:/usr/include/c++/9.1.0/bits/basic_ios.h ****        *  Note that other iostate flags may also be set.
 188:/usr/include/c++/9.1.0/bits/basic_ios.h ****       */
 189:/usr/include/c++/9.1.0/bits/basic_ios.h ****       bool
 190:/usr/include/c++/9.1.0/bits/basic_ios.h ****       eof() const
 191:/usr/include/c++/9.1.0/bits/basic_ios.h ****       { return (this->rdstate() & eofbit) != 0; }
 192:/usr/include/c++/9.1.0/bits/basic_ios.h **** 
 193:/usr/include/c++/9.1.0/bits/basic_ios.h ****       /**
 194:/usr/include/c++/9.1.0/bits/basic_ios.h ****        *  @brief  Fast error checking.
 195:/usr/include/c++/9.1.0/bits/basic_ios.h ****        *  @return  True if either the badbit or the failbit is set.
 196:/usr/include/c++/9.1.0/bits/basic_ios.h ****        *
 197:/usr/include/c++/9.1.0/bits/basic_ios.h ****        *  Checking the badbit in fail() is historical practice.
 198:/usr/include/c++/9.1.0/bits/basic_ios.h ****        *  Note that other iostate flags may also be set.
 199:/usr/include/c++/9.1.0/bits/basic_ios.h ****       */
 200:/usr/include/c++/9.1.0/bits/basic_ios.h ****       bool
 201:/usr/include/c++/9.1.0/bits/basic_ios.h ****       fail() const
 202:/usr/include/c++/9.1.0/bits/basic_ios.h ****       { return (this->rdstate() & (badbit | failbit)) != 0; }
 203:/usr/include/c++/9.1.0/bits/basic_ios.h **** 
 204:/usr/include/c++/9.1.0/bits/basic_ios.h ****       /**
 205:/usr/include/c++/9.1.0/bits/basic_ios.h ****        *  @brief  Fast error checking.
 206:/usr/include/c++/9.1.0/bits/basic_ios.h ****        *  @return  True if the badbit is set.
 207:/usr/include/c++/9.1.0/bits/basic_ios.h ****        *
 208:/usr/include/c++/9.1.0/bits/basic_ios.h ****        *  Note that other iostate flags may also be set.
 209:/usr/include/c++/9.1.0/bits/basic_ios.h ****       */
 210:/usr/include/c++/9.1.0/bits/basic_ios.h ****       bool
 211:/usr/include/c++/9.1.0/bits/basic_ios.h ****       bad() const
 212:/usr/include/c++/9.1.0/bits/basic_ios.h ****       { return (this->rdstate() & badbit) != 0; }
 213:/usr/include/c++/9.1.0/bits/basic_ios.h **** 
 214:/usr/include/c++/9.1.0/bits/basic_ios.h ****       /**
 215:/usr/include/c++/9.1.0/bits/basic_ios.h ****        *  @brief  Throwing exceptions on errors.
 216:/usr/include/c++/9.1.0/bits/basic_ios.h ****        *  @return  The current exceptions mask.
 217:/usr/include/c++/9.1.0/bits/basic_ios.h ****        *
 218:/usr/include/c++/9.1.0/bits/basic_ios.h ****        *  This changes nothing in the stream.  See the one-argument version
 219:/usr/include/c++/9.1.0/bits/basic_ios.h ****        *  of exceptions(iostate) for the meaning of the return value.
 220:/usr/include/c++/9.1.0/bits/basic_ios.h ****       */
 221:/usr/include/c++/9.1.0/bits/basic_ios.h ****       iostate
 222:/usr/include/c++/9.1.0/bits/basic_ios.h ****       exceptions() const
 223:/usr/include/c++/9.1.0/bits/basic_ios.h ****       { return _M_exception; }
 224:/usr/include/c++/9.1.0/bits/basic_ios.h **** 
 225:/usr/include/c++/9.1.0/bits/basic_ios.h ****       /**
 226:/usr/include/c++/9.1.0/bits/basic_ios.h ****        *  @brief  Throwing exceptions on errors.
 227:/usr/include/c++/9.1.0/bits/basic_ios.h ****        *  @param  __except  The new exceptions mask.
 228:/usr/include/c++/9.1.0/bits/basic_ios.h ****        *
 229:/usr/include/c++/9.1.0/bits/basic_ios.h ****        *  By default, error flags are set silently.  You can set an
 230:/usr/include/c++/9.1.0/bits/basic_ios.h ****        *  exceptions mask for each stream; if a bit in the mask becomes set
 231:/usr/include/c++/9.1.0/bits/basic_ios.h ****        *  in the error flags, then an exception of type
 232:/usr/include/c++/9.1.0/bits/basic_ios.h ****        *  std::ios_base::failure is thrown.
 233:/usr/include/c++/9.1.0/bits/basic_ios.h ****        *
 234:/usr/include/c++/9.1.0/bits/basic_ios.h ****        *  If the error flag is already set when the exceptions mask is
GAS LISTING /tmp/ccK1lRdA.s 			page 35


 235:/usr/include/c++/9.1.0/bits/basic_ios.h ****        *  added, the exception is immediately thrown.  Try running the
 236:/usr/include/c++/9.1.0/bits/basic_ios.h ****        *  following under GCC 3.1 or later:
 237:/usr/include/c++/9.1.0/bits/basic_ios.h ****        *  @code
 238:/usr/include/c++/9.1.0/bits/basic_ios.h ****        *  #include <iostream>
 239:/usr/include/c++/9.1.0/bits/basic_ios.h ****        *  #include <fstream>
 240:/usr/include/c++/9.1.0/bits/basic_ios.h ****        *  #include <exception>
 241:/usr/include/c++/9.1.0/bits/basic_ios.h ****        *
 242:/usr/include/c++/9.1.0/bits/basic_ios.h ****        *  int main()
 243:/usr/include/c++/9.1.0/bits/basic_ios.h ****        *  {
 244:/usr/include/c++/9.1.0/bits/basic_ios.h ****        *      std::set_terminate (__gnu_cxx::__verbose_terminate_handler);
 245:/usr/include/c++/9.1.0/bits/basic_ios.h ****        *
 246:/usr/include/c++/9.1.0/bits/basic_ios.h ****        *      std::ifstream f ("/etc/motd");
 247:/usr/include/c++/9.1.0/bits/basic_ios.h ****        *
 248:/usr/include/c++/9.1.0/bits/basic_ios.h ****        *      std::cerr << "Setting badbit\n";
 249:/usr/include/c++/9.1.0/bits/basic_ios.h ****        *      f.setstate (std::ios_base::badbit);
 250:/usr/include/c++/9.1.0/bits/basic_ios.h ****        *
 251:/usr/include/c++/9.1.0/bits/basic_ios.h ****        *      std::cerr << "Setting exception mask\n";
 252:/usr/include/c++/9.1.0/bits/basic_ios.h ****        *      f.exceptions (std::ios_base::badbit);
 253:/usr/include/c++/9.1.0/bits/basic_ios.h ****        *  }
 254:/usr/include/c++/9.1.0/bits/basic_ios.h ****        *  @endcode
 255:/usr/include/c++/9.1.0/bits/basic_ios.h ****       */
 256:/usr/include/c++/9.1.0/bits/basic_ios.h ****       void
 257:/usr/include/c++/9.1.0/bits/basic_ios.h ****       exceptions(iostate __except)
 258:/usr/include/c++/9.1.0/bits/basic_ios.h ****       {
 259:/usr/include/c++/9.1.0/bits/basic_ios.h ****         _M_exception = __except;
 260:/usr/include/c++/9.1.0/bits/basic_ios.h ****         this->clear(_M_streambuf_state);
 261:/usr/include/c++/9.1.0/bits/basic_ios.h ****       }
 262:/usr/include/c++/9.1.0/bits/basic_ios.h **** 
 263:/usr/include/c++/9.1.0/bits/basic_ios.h ****       // Constructor/destructor:
 264:/usr/include/c++/9.1.0/bits/basic_ios.h ****       /**
 265:/usr/include/c++/9.1.0/bits/basic_ios.h ****        *  @brief  Constructor performs initialization.
 266:/usr/include/c++/9.1.0/bits/basic_ios.h ****        *
 267:/usr/include/c++/9.1.0/bits/basic_ios.h ****        *  The parameter is passed by derived streams.
 268:/usr/include/c++/9.1.0/bits/basic_ios.h ****       */
 269:/usr/include/c++/9.1.0/bits/basic_ios.h ****       explicit
 270:/usr/include/c++/9.1.0/bits/basic_ios.h ****       basic_ios(basic_streambuf<_CharT, _Traits>* __sb)
 271:/usr/include/c++/9.1.0/bits/basic_ios.h ****       : ios_base(), _M_tie(0), _M_fill(), _M_fill_init(false), _M_streambuf(0),
 272:/usr/include/c++/9.1.0/bits/basic_ios.h **** 	_M_ctype(0), _M_num_put(0), _M_num_get(0)
 273:/usr/include/c++/9.1.0/bits/basic_ios.h ****       { this->init(__sb); }
 274:/usr/include/c++/9.1.0/bits/basic_ios.h **** 
 275:/usr/include/c++/9.1.0/bits/basic_ios.h ****       /**
 276:/usr/include/c++/9.1.0/bits/basic_ios.h ****        *  @brief  Empty.
 277:/usr/include/c++/9.1.0/bits/basic_ios.h ****        *
 278:/usr/include/c++/9.1.0/bits/basic_ios.h ****        *  The destructor does nothing.  More specifically, it does not
 279:/usr/include/c++/9.1.0/bits/basic_ios.h ****        *  destroy the streambuf held by rdbuf().
 280:/usr/include/c++/9.1.0/bits/basic_ios.h ****       */
 281:/usr/include/c++/9.1.0/bits/basic_ios.h ****       virtual
 282:/usr/include/c++/9.1.0/bits/basic_ios.h ****       ~basic_ios() { }
 283:/usr/include/c++/9.1.0/bits/basic_ios.h **** 
 284:/usr/include/c++/9.1.0/bits/basic_ios.h ****       // Members:
 285:/usr/include/c++/9.1.0/bits/basic_ios.h ****       /**
 286:/usr/include/c++/9.1.0/bits/basic_ios.h ****        *  @brief  Fetches the current @e tied stream.
 287:/usr/include/c++/9.1.0/bits/basic_ios.h ****        *  @return  A pointer to the tied stream, or NULL if the stream is
 288:/usr/include/c++/9.1.0/bits/basic_ios.h ****        *           not tied.
 289:/usr/include/c++/9.1.0/bits/basic_ios.h ****        *
 290:/usr/include/c++/9.1.0/bits/basic_ios.h ****        *  A stream may be @e tied (or synchronized) to a second output
 291:/usr/include/c++/9.1.0/bits/basic_ios.h ****        *  stream.  When this stream performs any I/O, the tied stream is
GAS LISTING /tmp/ccK1lRdA.s 			page 36


 292:/usr/include/c++/9.1.0/bits/basic_ios.h ****        *  first flushed.  For example, @c std::cin is tied to @c std::cout.
 293:/usr/include/c++/9.1.0/bits/basic_ios.h ****       */
 294:/usr/include/c++/9.1.0/bits/basic_ios.h ****       basic_ostream<_CharT, _Traits>*
 295:/usr/include/c++/9.1.0/bits/basic_ios.h ****       tie() const
 296:/usr/include/c++/9.1.0/bits/basic_ios.h ****       { return _M_tie; }
 297:/usr/include/c++/9.1.0/bits/basic_ios.h **** 
 298:/usr/include/c++/9.1.0/bits/basic_ios.h ****       /**
 299:/usr/include/c++/9.1.0/bits/basic_ios.h ****        *  @brief  Ties this stream to an output stream.
 300:/usr/include/c++/9.1.0/bits/basic_ios.h ****        *  @param  __tiestr  The output stream.
 301:/usr/include/c++/9.1.0/bits/basic_ios.h ****        *  @return  The previously tied output stream, or NULL if the stream
 302:/usr/include/c++/9.1.0/bits/basic_ios.h ****        *           was not tied.
 303:/usr/include/c++/9.1.0/bits/basic_ios.h ****        *
 304:/usr/include/c++/9.1.0/bits/basic_ios.h ****        *  This sets up a new tie; see tie() for more.
 305:/usr/include/c++/9.1.0/bits/basic_ios.h ****       */
 306:/usr/include/c++/9.1.0/bits/basic_ios.h ****       basic_ostream<_CharT, _Traits>*
 307:/usr/include/c++/9.1.0/bits/basic_ios.h ****       tie(basic_ostream<_CharT, _Traits>* __tiestr)
 308:/usr/include/c++/9.1.0/bits/basic_ios.h ****       {
 309:/usr/include/c++/9.1.0/bits/basic_ios.h ****         basic_ostream<_CharT, _Traits>* __old = _M_tie;
 310:/usr/include/c++/9.1.0/bits/basic_ios.h ****         _M_tie = __tiestr;
 311:/usr/include/c++/9.1.0/bits/basic_ios.h ****         return __old;
 312:/usr/include/c++/9.1.0/bits/basic_ios.h ****       }
 313:/usr/include/c++/9.1.0/bits/basic_ios.h **** 
 314:/usr/include/c++/9.1.0/bits/basic_ios.h ****       /**
 315:/usr/include/c++/9.1.0/bits/basic_ios.h ****        *  @brief  Accessing the underlying buffer.
 316:/usr/include/c++/9.1.0/bits/basic_ios.h ****        *  @return  The current stream buffer.
 317:/usr/include/c++/9.1.0/bits/basic_ios.h ****        *
 318:/usr/include/c++/9.1.0/bits/basic_ios.h ****        *  This does not change the state of the stream.
 319:/usr/include/c++/9.1.0/bits/basic_ios.h ****       */
 320:/usr/include/c++/9.1.0/bits/basic_ios.h ****       basic_streambuf<_CharT, _Traits>*
 321:/usr/include/c++/9.1.0/bits/basic_ios.h ****       rdbuf() const
 322:/usr/include/c++/9.1.0/bits/basic_ios.h ****       { return _M_streambuf; }
 323:/usr/include/c++/9.1.0/bits/basic_ios.h **** 
 324:/usr/include/c++/9.1.0/bits/basic_ios.h ****       /**
 325:/usr/include/c++/9.1.0/bits/basic_ios.h ****        *  @brief  Changing the underlying buffer.
 326:/usr/include/c++/9.1.0/bits/basic_ios.h ****        *  @param  __sb  The new stream buffer.
 327:/usr/include/c++/9.1.0/bits/basic_ios.h ****        *  @return  The previous stream buffer.
 328:/usr/include/c++/9.1.0/bits/basic_ios.h ****        *
 329:/usr/include/c++/9.1.0/bits/basic_ios.h ****        *  Associates a new buffer with the current stream, and clears the
 330:/usr/include/c++/9.1.0/bits/basic_ios.h ****        *  error state.
 331:/usr/include/c++/9.1.0/bits/basic_ios.h ****        *
 332:/usr/include/c++/9.1.0/bits/basic_ios.h ****        *  Due to historical accidents which the LWG refuses to correct, the
 333:/usr/include/c++/9.1.0/bits/basic_ios.h ****        *  I/O library suffers from a design error:  this function is hidden
 334:/usr/include/c++/9.1.0/bits/basic_ios.h ****        *  in derived classes by overrides of the zero-argument @c rdbuf(),
 335:/usr/include/c++/9.1.0/bits/basic_ios.h ****        *  which is non-virtual for hysterical raisins.  As a result, you
 336:/usr/include/c++/9.1.0/bits/basic_ios.h ****        *  must use explicit qualifications to access this function via any
 337:/usr/include/c++/9.1.0/bits/basic_ios.h ****        *  derived class.  For example:
 338:/usr/include/c++/9.1.0/bits/basic_ios.h ****        *
 339:/usr/include/c++/9.1.0/bits/basic_ios.h ****        *  @code
 340:/usr/include/c++/9.1.0/bits/basic_ios.h ****        *  std::fstream     foo;         // or some other derived type
 341:/usr/include/c++/9.1.0/bits/basic_ios.h ****        *  std::streambuf*  p = .....;
 342:/usr/include/c++/9.1.0/bits/basic_ios.h ****        *
 343:/usr/include/c++/9.1.0/bits/basic_ios.h ****        *  foo.ios::rdbuf(p);            // ios == basic_ios<char>
 344:/usr/include/c++/9.1.0/bits/basic_ios.h ****        *  @endcode
 345:/usr/include/c++/9.1.0/bits/basic_ios.h ****       */
 346:/usr/include/c++/9.1.0/bits/basic_ios.h ****       basic_streambuf<_CharT, _Traits>*
 347:/usr/include/c++/9.1.0/bits/basic_ios.h ****       rdbuf(basic_streambuf<_CharT, _Traits>* __sb);
 348:/usr/include/c++/9.1.0/bits/basic_ios.h **** 
GAS LISTING /tmp/ccK1lRdA.s 			page 37


 349:/usr/include/c++/9.1.0/bits/basic_ios.h ****       /**
 350:/usr/include/c++/9.1.0/bits/basic_ios.h ****        *  @brief  Copies fields of __rhs into this.
 351:/usr/include/c++/9.1.0/bits/basic_ios.h ****        *  @param  __rhs  The source values for the copies.
 352:/usr/include/c++/9.1.0/bits/basic_ios.h ****        *  @return  Reference to this object.
 353:/usr/include/c++/9.1.0/bits/basic_ios.h ****        *
 354:/usr/include/c++/9.1.0/bits/basic_ios.h ****        *  All fields of __rhs are copied into this object except that rdbuf()
 355:/usr/include/c++/9.1.0/bits/basic_ios.h ****        *  and rdstate() remain unchanged.  All values in the pword and iword
 356:/usr/include/c++/9.1.0/bits/basic_ios.h ****        *  arrays are copied.  Before copying, each callback is invoked with
 357:/usr/include/c++/9.1.0/bits/basic_ios.h ****        *  erase_event.  After copying, each (new) callback is invoked with
 358:/usr/include/c++/9.1.0/bits/basic_ios.h ****        *  copyfmt_event.  The final step is to copy exceptions().
 359:/usr/include/c++/9.1.0/bits/basic_ios.h ****       */
 360:/usr/include/c++/9.1.0/bits/basic_ios.h ****       basic_ios&
 361:/usr/include/c++/9.1.0/bits/basic_ios.h ****       copyfmt(const basic_ios& __rhs);
 362:/usr/include/c++/9.1.0/bits/basic_ios.h **** 
 363:/usr/include/c++/9.1.0/bits/basic_ios.h ****       /**
 364:/usr/include/c++/9.1.0/bits/basic_ios.h ****        *  @brief  Retrieves the @a empty character.
 365:/usr/include/c++/9.1.0/bits/basic_ios.h ****        *  @return  The current fill character.
 366:/usr/include/c++/9.1.0/bits/basic_ios.h ****        *
 367:/usr/include/c++/9.1.0/bits/basic_ios.h ****        *  It defaults to a space (' ') in the current locale.
 368:/usr/include/c++/9.1.0/bits/basic_ios.h ****       */
 369:/usr/include/c++/9.1.0/bits/basic_ios.h ****       char_type
 370:/usr/include/c++/9.1.0/bits/basic_ios.h ****       fill() const
 371:/usr/include/c++/9.1.0/bits/basic_ios.h ****       {
 372:/usr/include/c++/9.1.0/bits/basic_ios.h **** 	if (!_M_fill_init)
 373:/usr/include/c++/9.1.0/bits/basic_ios.h **** 	  {
 374:/usr/include/c++/9.1.0/bits/basic_ios.h **** 	    _M_fill = this->widen(' ');
 375:/usr/include/c++/9.1.0/bits/basic_ios.h **** 	    _M_fill_init = true;
 376:/usr/include/c++/9.1.0/bits/basic_ios.h **** 	  }
 377:/usr/include/c++/9.1.0/bits/basic_ios.h **** 	return _M_fill;
 378:/usr/include/c++/9.1.0/bits/basic_ios.h ****       }
 379:/usr/include/c++/9.1.0/bits/basic_ios.h **** 
 380:/usr/include/c++/9.1.0/bits/basic_ios.h ****       /**
 381:/usr/include/c++/9.1.0/bits/basic_ios.h ****        *  @brief  Sets a new @a empty character.
 382:/usr/include/c++/9.1.0/bits/basic_ios.h ****        *  @param  __ch  The new character.
 383:/usr/include/c++/9.1.0/bits/basic_ios.h ****        *  @return  The previous fill character.
 384:/usr/include/c++/9.1.0/bits/basic_ios.h ****        *
 385:/usr/include/c++/9.1.0/bits/basic_ios.h ****        *  The fill character is used to fill out space when P+ characters
 386:/usr/include/c++/9.1.0/bits/basic_ios.h ****        *  have been requested (e.g., via setw), Q characters are actually
 387:/usr/include/c++/9.1.0/bits/basic_ios.h ****        *  used, and Q<P.  It defaults to a space (' ') in the current locale.
 388:/usr/include/c++/9.1.0/bits/basic_ios.h ****       */
 389:/usr/include/c++/9.1.0/bits/basic_ios.h ****       char_type
 390:/usr/include/c++/9.1.0/bits/basic_ios.h ****       fill(char_type __ch)
 391:/usr/include/c++/9.1.0/bits/basic_ios.h ****       {
 392:/usr/include/c++/9.1.0/bits/basic_ios.h **** 	char_type __old = this->fill();
 393:/usr/include/c++/9.1.0/bits/basic_ios.h **** 	_M_fill = __ch;
 394:/usr/include/c++/9.1.0/bits/basic_ios.h **** 	return __old;
 395:/usr/include/c++/9.1.0/bits/basic_ios.h ****       }
 396:/usr/include/c++/9.1.0/bits/basic_ios.h **** 
 397:/usr/include/c++/9.1.0/bits/basic_ios.h ****       // Locales:
 398:/usr/include/c++/9.1.0/bits/basic_ios.h ****       /**
 399:/usr/include/c++/9.1.0/bits/basic_ios.h ****        *  @brief  Moves to a new locale.
 400:/usr/include/c++/9.1.0/bits/basic_ios.h ****        *  @param  __loc  The new locale.
 401:/usr/include/c++/9.1.0/bits/basic_ios.h ****        *  @return  The previous locale.
 402:/usr/include/c++/9.1.0/bits/basic_ios.h ****        *
 403:/usr/include/c++/9.1.0/bits/basic_ios.h ****        *  Calls @c ios_base::imbue(loc), and if a stream buffer is associated
 404:/usr/include/c++/9.1.0/bits/basic_ios.h ****        *  with this stream, calls that buffer's @c pubimbue(loc).
 405:/usr/include/c++/9.1.0/bits/basic_ios.h ****        *
GAS LISTING /tmp/ccK1lRdA.s 			page 38


 406:/usr/include/c++/9.1.0/bits/basic_ios.h ****        *  Additional l10n notes are at
 407:/usr/include/c++/9.1.0/bits/basic_ios.h ****        *  http://gcc.gnu.org/onlinedocs/libstdc++/manual/localization.html
 408:/usr/include/c++/9.1.0/bits/basic_ios.h ****       */
 409:/usr/include/c++/9.1.0/bits/basic_ios.h ****       locale
 410:/usr/include/c++/9.1.0/bits/basic_ios.h ****       imbue(const locale& __loc);
 411:/usr/include/c++/9.1.0/bits/basic_ios.h **** 
 412:/usr/include/c++/9.1.0/bits/basic_ios.h ****       /**
 413:/usr/include/c++/9.1.0/bits/basic_ios.h ****        *  @brief  Squeezes characters.
 414:/usr/include/c++/9.1.0/bits/basic_ios.h ****        *  @param  __c  The character to narrow.
 415:/usr/include/c++/9.1.0/bits/basic_ios.h ****        *  @param  __dfault  The character to narrow.
 416:/usr/include/c++/9.1.0/bits/basic_ios.h ****        *  @return  The narrowed character.
 417:/usr/include/c++/9.1.0/bits/basic_ios.h ****        *
 418:/usr/include/c++/9.1.0/bits/basic_ios.h ****        *  Maps a character of @c char_type to a character of @c char,
 419:/usr/include/c++/9.1.0/bits/basic_ios.h ****        *  if possible.
 420:/usr/include/c++/9.1.0/bits/basic_ios.h ****        *
 421:/usr/include/c++/9.1.0/bits/basic_ios.h ****        *  Returns the result of
 422:/usr/include/c++/9.1.0/bits/basic_ios.h ****        *  @code
 423:/usr/include/c++/9.1.0/bits/basic_ios.h ****        *    std::use_facet<ctype<char_type> >(getloc()).narrow(c,dfault)
 424:/usr/include/c++/9.1.0/bits/basic_ios.h ****        *  @endcode
 425:/usr/include/c++/9.1.0/bits/basic_ios.h ****        *
 426:/usr/include/c++/9.1.0/bits/basic_ios.h ****        *  Additional l10n notes are at
 427:/usr/include/c++/9.1.0/bits/basic_ios.h ****        *  http://gcc.gnu.org/onlinedocs/libstdc++/manual/localization.html
 428:/usr/include/c++/9.1.0/bits/basic_ios.h ****       */
 429:/usr/include/c++/9.1.0/bits/basic_ios.h ****       char
 430:/usr/include/c++/9.1.0/bits/basic_ios.h ****       narrow(char_type __c, char __dfault) const
 431:/usr/include/c++/9.1.0/bits/basic_ios.h ****       { return __check_facet(_M_ctype).narrow(__c, __dfault); }
 432:/usr/include/c++/9.1.0/bits/basic_ios.h **** 
 433:/usr/include/c++/9.1.0/bits/basic_ios.h ****       /**
 434:/usr/include/c++/9.1.0/bits/basic_ios.h ****        *  @brief  Widens characters.
 435:/usr/include/c++/9.1.0/bits/basic_ios.h ****        *  @param  __c  The character to widen.
 436:/usr/include/c++/9.1.0/bits/basic_ios.h ****        *  @return  The widened character.
 437:/usr/include/c++/9.1.0/bits/basic_ios.h ****        *
 438:/usr/include/c++/9.1.0/bits/basic_ios.h ****        *  Maps a character of @c char to a character of @c char_type.
 439:/usr/include/c++/9.1.0/bits/basic_ios.h ****        *
 440:/usr/include/c++/9.1.0/bits/basic_ios.h ****        *  Returns the result of
 441:/usr/include/c++/9.1.0/bits/basic_ios.h ****        *  @code
 442:/usr/include/c++/9.1.0/bits/basic_ios.h ****        *    std::use_facet<ctype<char_type> >(getloc()).widen(c)
 443:/usr/include/c++/9.1.0/bits/basic_ios.h ****        *  @endcode
 444:/usr/include/c++/9.1.0/bits/basic_ios.h ****        *
 445:/usr/include/c++/9.1.0/bits/basic_ios.h ****        *  Additional l10n notes are at
 446:/usr/include/c++/9.1.0/bits/basic_ios.h ****        *  http://gcc.gnu.org/onlinedocs/libstdc++/manual/localization.html
 447:/usr/include/c++/9.1.0/bits/basic_ios.h ****       */
 448:/usr/include/c++/9.1.0/bits/basic_ios.h ****       char_type
 449:/usr/include/c++/9.1.0/bits/basic_ios.h ****       widen(char __c) const
 236              		.loc 5 449 7 is_stmt 1 view .LVU56
 237              	.LBB424:
 450:/usr/include/c++/9.1.0/bits/basic_ios.h ****       { return __check_facet(_M_ctype).widen(__c); }
 238              		.loc 5 450 30 is_stmt 0 view .LVU57
 239 0115 4C8BA1F0 		movq	240(%rcx), %r12
 239      000000
 240              	.LVL31:
 241              	.LBB425:
 242              	.LBI425:
  47:/usr/include/c++/9.1.0/bits/basic_ios.h ****     {
 243              		.loc 5 47 5 is_stmt 1 view .LVU58
 244              	.LBB426:
  49:/usr/include/c++/9.1.0/bits/basic_ios.h **** 	__throw_bad_cast();
GAS LISTING /tmp/ccK1lRdA.s 			page 39


 245              		.loc 5 49 7 is_stmt 0 view .LVU59
 246 011c 4D85E4   		testq	%r12, %r12
 247 011f 742D     		je	.L20
 248              	.LVL32:
  49:/usr/include/c++/9.1.0/bits/basic_ios.h **** 	__throw_bad_cast();
 249              		.loc 5 49 7 view .LVU60
 250              	.LBE426:
 251              	.LBE425:
 252              	.LBB428:
 253              	.LBI428:
 254              		.file 6 "/usr/include/c++/9.1.0/bits/locale_facets.h"
   1:/usr/include/c++/9.1.0/bits/locale_facets.h **** // Locale support -*- C++ -*-
   2:/usr/include/c++/9.1.0/bits/locale_facets.h **** 
   3:/usr/include/c++/9.1.0/bits/locale_facets.h **** // Copyright (C) 1997-2019 Free Software Foundation, Inc.
   4:/usr/include/c++/9.1.0/bits/locale_facets.h **** //
   5:/usr/include/c++/9.1.0/bits/locale_facets.h **** // This file is part of the GNU ISO C++ Library.  This library is free
   6:/usr/include/c++/9.1.0/bits/locale_facets.h **** // software; you can redistribute it and/or modify it under the
   7:/usr/include/c++/9.1.0/bits/locale_facets.h **** // terms of the GNU General Public License as published by the
   8:/usr/include/c++/9.1.0/bits/locale_facets.h **** // Free Software Foundation; either version 3, or (at your option)
   9:/usr/include/c++/9.1.0/bits/locale_facets.h **** // any later version.
  10:/usr/include/c++/9.1.0/bits/locale_facets.h **** 
  11:/usr/include/c++/9.1.0/bits/locale_facets.h **** // This library is distributed in the hope that it will be useful,
  12:/usr/include/c++/9.1.0/bits/locale_facets.h **** // but WITHOUT ANY WARRANTY; without even the implied warranty of
  13:/usr/include/c++/9.1.0/bits/locale_facets.h **** // MERCHANTABILITY or FITNESS FOR A PARTICULAR PURPOSE.  See the
  14:/usr/include/c++/9.1.0/bits/locale_facets.h **** // GNU General Public License for more details.
  15:/usr/include/c++/9.1.0/bits/locale_facets.h **** 
  16:/usr/include/c++/9.1.0/bits/locale_facets.h **** // Under Section 7 of GPL version 3, you are granted additional
  17:/usr/include/c++/9.1.0/bits/locale_facets.h **** // permissions described in the GCC Runtime Library Exception, version
  18:/usr/include/c++/9.1.0/bits/locale_facets.h **** // 3.1, as published by the Free Software Foundation.
  19:/usr/include/c++/9.1.0/bits/locale_facets.h **** 
  20:/usr/include/c++/9.1.0/bits/locale_facets.h **** // You should have received a copy of the GNU General Public License and
  21:/usr/include/c++/9.1.0/bits/locale_facets.h **** // a copy of the GCC Runtime Library Exception along with this program;
  22:/usr/include/c++/9.1.0/bits/locale_facets.h **** // see the files COPYING3 and COPYING.RUNTIME respectively.  If not, see
  23:/usr/include/c++/9.1.0/bits/locale_facets.h **** // <http://www.gnu.org/licenses/>.
  24:/usr/include/c++/9.1.0/bits/locale_facets.h **** 
  25:/usr/include/c++/9.1.0/bits/locale_facets.h **** /** @file bits/locale_facets.h
  26:/usr/include/c++/9.1.0/bits/locale_facets.h ****  *  This is an internal header file, included by other library headers.
  27:/usr/include/c++/9.1.0/bits/locale_facets.h ****  *  Do not attempt to use it directly. @headername{locale}
  28:/usr/include/c++/9.1.0/bits/locale_facets.h ****  */
  29:/usr/include/c++/9.1.0/bits/locale_facets.h **** 
  30:/usr/include/c++/9.1.0/bits/locale_facets.h **** //
  31:/usr/include/c++/9.1.0/bits/locale_facets.h **** // ISO C++ 14882: 22.1  Locales
  32:/usr/include/c++/9.1.0/bits/locale_facets.h **** //
  33:/usr/include/c++/9.1.0/bits/locale_facets.h **** 
  34:/usr/include/c++/9.1.0/bits/locale_facets.h **** #ifndef _LOCALE_FACETS_H
  35:/usr/include/c++/9.1.0/bits/locale_facets.h **** #define _LOCALE_FACETS_H 1
  36:/usr/include/c++/9.1.0/bits/locale_facets.h **** 
  37:/usr/include/c++/9.1.0/bits/locale_facets.h **** #pragma GCC system_header
  38:/usr/include/c++/9.1.0/bits/locale_facets.h **** 
  39:/usr/include/c++/9.1.0/bits/locale_facets.h **** #include <cwctype>	// For wctype_t
  40:/usr/include/c++/9.1.0/bits/locale_facets.h **** #include <cctype>
  41:/usr/include/c++/9.1.0/bits/locale_facets.h **** #include <bits/ctype_base.h>
  42:/usr/include/c++/9.1.0/bits/locale_facets.h **** #include <iosfwd>
  43:/usr/include/c++/9.1.0/bits/locale_facets.h **** #include <bits/ios_base.h>  // For ios_base, ios_base::iostate
  44:/usr/include/c++/9.1.0/bits/locale_facets.h **** #include <streambuf>
  45:/usr/include/c++/9.1.0/bits/locale_facets.h **** #include <bits/cpp_type_traits.h>
  46:/usr/include/c++/9.1.0/bits/locale_facets.h **** #include <ext/type_traits.h>
GAS LISTING /tmp/ccK1lRdA.s 			page 40


  47:/usr/include/c++/9.1.0/bits/locale_facets.h **** #include <ext/numeric_traits.h>
  48:/usr/include/c++/9.1.0/bits/locale_facets.h **** #include <bits/streambuf_iterator.h>
  49:/usr/include/c++/9.1.0/bits/locale_facets.h **** 
  50:/usr/include/c++/9.1.0/bits/locale_facets.h **** namespace std _GLIBCXX_VISIBILITY(default)
  51:/usr/include/c++/9.1.0/bits/locale_facets.h **** {
  52:/usr/include/c++/9.1.0/bits/locale_facets.h **** _GLIBCXX_BEGIN_NAMESPACE_VERSION
  53:/usr/include/c++/9.1.0/bits/locale_facets.h **** 
  54:/usr/include/c++/9.1.0/bits/locale_facets.h ****   // NB: Don't instantiate required wchar_t facets if no wchar_t support.
  55:/usr/include/c++/9.1.0/bits/locale_facets.h **** #ifdef _GLIBCXX_USE_WCHAR_T
  56:/usr/include/c++/9.1.0/bits/locale_facets.h **** # define  _GLIBCXX_NUM_FACETS 28
  57:/usr/include/c++/9.1.0/bits/locale_facets.h **** # define  _GLIBCXX_NUM_CXX11_FACETS 16
  58:/usr/include/c++/9.1.0/bits/locale_facets.h **** #else
  59:/usr/include/c++/9.1.0/bits/locale_facets.h **** # define  _GLIBCXX_NUM_FACETS 14
  60:/usr/include/c++/9.1.0/bits/locale_facets.h **** # define  _GLIBCXX_NUM_CXX11_FACETS 8
  61:/usr/include/c++/9.1.0/bits/locale_facets.h **** #endif
  62:/usr/include/c++/9.1.0/bits/locale_facets.h **** #ifdef _GLIBCXX_USE_CHAR8_T
  63:/usr/include/c++/9.1.0/bits/locale_facets.h **** # define _GLIBCXX_NUM_UNICODE_FACETS 4
  64:/usr/include/c++/9.1.0/bits/locale_facets.h **** #else
  65:/usr/include/c++/9.1.0/bits/locale_facets.h **** # define _GLIBCXX_NUM_UNICODE_FACETS 2
  66:/usr/include/c++/9.1.0/bits/locale_facets.h **** #endif
  67:/usr/include/c++/9.1.0/bits/locale_facets.h **** 
  68:/usr/include/c++/9.1.0/bits/locale_facets.h ****   // Convert string to numeric value of type _Tp and store results.
  69:/usr/include/c++/9.1.0/bits/locale_facets.h ****   // NB: This is specialized for all required types, there is no
  70:/usr/include/c++/9.1.0/bits/locale_facets.h ****   // generic definition.
  71:/usr/include/c++/9.1.0/bits/locale_facets.h ****   template<typename _Tp>
  72:/usr/include/c++/9.1.0/bits/locale_facets.h ****     void
  73:/usr/include/c++/9.1.0/bits/locale_facets.h ****     __convert_to_v(const char*, _Tp&, ios_base::iostate&,
  74:/usr/include/c++/9.1.0/bits/locale_facets.h **** 		   const __c_locale&) throw();
  75:/usr/include/c++/9.1.0/bits/locale_facets.h **** 
  76:/usr/include/c++/9.1.0/bits/locale_facets.h ****   // Explicit specializations for required types.
  77:/usr/include/c++/9.1.0/bits/locale_facets.h ****   template<>
  78:/usr/include/c++/9.1.0/bits/locale_facets.h ****     void
  79:/usr/include/c++/9.1.0/bits/locale_facets.h ****     __convert_to_v(const char*, float&, ios_base::iostate&,
  80:/usr/include/c++/9.1.0/bits/locale_facets.h **** 		   const __c_locale&) throw();
  81:/usr/include/c++/9.1.0/bits/locale_facets.h **** 
  82:/usr/include/c++/9.1.0/bits/locale_facets.h ****   template<>
  83:/usr/include/c++/9.1.0/bits/locale_facets.h ****     void
  84:/usr/include/c++/9.1.0/bits/locale_facets.h ****     __convert_to_v(const char*, double&, ios_base::iostate&,
  85:/usr/include/c++/9.1.0/bits/locale_facets.h **** 		   const __c_locale&) throw();
  86:/usr/include/c++/9.1.0/bits/locale_facets.h **** 
  87:/usr/include/c++/9.1.0/bits/locale_facets.h ****   template<>
  88:/usr/include/c++/9.1.0/bits/locale_facets.h ****     void
  89:/usr/include/c++/9.1.0/bits/locale_facets.h ****     __convert_to_v(const char*, long double&, ios_base::iostate&,
  90:/usr/include/c++/9.1.0/bits/locale_facets.h **** 		   const __c_locale&) throw();
  91:/usr/include/c++/9.1.0/bits/locale_facets.h **** 
  92:/usr/include/c++/9.1.0/bits/locale_facets.h ****   // NB: __pad is a struct, rather than a function, so it can be
  93:/usr/include/c++/9.1.0/bits/locale_facets.h ****   // partially-specialized.
  94:/usr/include/c++/9.1.0/bits/locale_facets.h ****   template<typename _CharT, typename _Traits>
  95:/usr/include/c++/9.1.0/bits/locale_facets.h ****     struct __pad
  96:/usr/include/c++/9.1.0/bits/locale_facets.h ****     {
  97:/usr/include/c++/9.1.0/bits/locale_facets.h ****       static void
  98:/usr/include/c++/9.1.0/bits/locale_facets.h ****       _S_pad(ios_base& __io, _CharT __fill, _CharT* __news,
  99:/usr/include/c++/9.1.0/bits/locale_facets.h **** 	     const _CharT* __olds, streamsize __newlen, streamsize __oldlen);
 100:/usr/include/c++/9.1.0/bits/locale_facets.h ****     };
 101:/usr/include/c++/9.1.0/bits/locale_facets.h **** 
 102:/usr/include/c++/9.1.0/bits/locale_facets.h ****   // Used by both numeric and monetary facets.
 103:/usr/include/c++/9.1.0/bits/locale_facets.h ****   // Inserts "group separator" characters into an array of characters.
GAS LISTING /tmp/ccK1lRdA.s 			page 41


 104:/usr/include/c++/9.1.0/bits/locale_facets.h ****   // It's recursive, one iteration per group.  It moves the characters
 105:/usr/include/c++/9.1.0/bits/locale_facets.h ****   // in the buffer this way: "xxxx12345" -> "12,345xxx".  Call this
 106:/usr/include/c++/9.1.0/bits/locale_facets.h ****   // only with __gsize != 0.
 107:/usr/include/c++/9.1.0/bits/locale_facets.h ****   template<typename _CharT>
 108:/usr/include/c++/9.1.0/bits/locale_facets.h ****     _CharT*
 109:/usr/include/c++/9.1.0/bits/locale_facets.h ****     __add_grouping(_CharT* __s, _CharT __sep,
 110:/usr/include/c++/9.1.0/bits/locale_facets.h **** 		   const char* __gbeg, size_t __gsize,
 111:/usr/include/c++/9.1.0/bits/locale_facets.h **** 		   const _CharT* __first, const _CharT* __last);
 112:/usr/include/c++/9.1.0/bits/locale_facets.h **** 
 113:/usr/include/c++/9.1.0/bits/locale_facets.h ****   // This template permits specializing facet output code for
 114:/usr/include/c++/9.1.0/bits/locale_facets.h ****   // ostreambuf_iterator.  For ostreambuf_iterator, sputn is
 115:/usr/include/c++/9.1.0/bits/locale_facets.h ****   // significantly more efficient than incrementing iterators.
 116:/usr/include/c++/9.1.0/bits/locale_facets.h ****   template<typename _CharT>
 117:/usr/include/c++/9.1.0/bits/locale_facets.h ****     inline
 118:/usr/include/c++/9.1.0/bits/locale_facets.h ****     ostreambuf_iterator<_CharT>
 119:/usr/include/c++/9.1.0/bits/locale_facets.h ****     __write(ostreambuf_iterator<_CharT> __s, const _CharT* __ws, int __len)
 120:/usr/include/c++/9.1.0/bits/locale_facets.h ****     {
 121:/usr/include/c++/9.1.0/bits/locale_facets.h ****       __s._M_put(__ws, __len);
 122:/usr/include/c++/9.1.0/bits/locale_facets.h ****       return __s;
 123:/usr/include/c++/9.1.0/bits/locale_facets.h ****     }
 124:/usr/include/c++/9.1.0/bits/locale_facets.h **** 
 125:/usr/include/c++/9.1.0/bits/locale_facets.h ****   // This is the unspecialized form of the template.
 126:/usr/include/c++/9.1.0/bits/locale_facets.h ****   template<typename _CharT, typename _OutIter>
 127:/usr/include/c++/9.1.0/bits/locale_facets.h ****     inline
 128:/usr/include/c++/9.1.0/bits/locale_facets.h ****     _OutIter
 129:/usr/include/c++/9.1.0/bits/locale_facets.h ****     __write(_OutIter __s, const _CharT* __ws, int __len)
 130:/usr/include/c++/9.1.0/bits/locale_facets.h ****     {
 131:/usr/include/c++/9.1.0/bits/locale_facets.h ****       for (int __j = 0; __j < __len; __j++, ++__s)
 132:/usr/include/c++/9.1.0/bits/locale_facets.h **** 	*__s = __ws[__j];
 133:/usr/include/c++/9.1.0/bits/locale_facets.h ****       return __s;
 134:/usr/include/c++/9.1.0/bits/locale_facets.h ****     }
 135:/usr/include/c++/9.1.0/bits/locale_facets.h **** 
 136:/usr/include/c++/9.1.0/bits/locale_facets.h **** 
 137:/usr/include/c++/9.1.0/bits/locale_facets.h ****   // 22.2.1.1  Template class ctype
 138:/usr/include/c++/9.1.0/bits/locale_facets.h ****   // Include host and configuration specific ctype enums for ctype_base.
 139:/usr/include/c++/9.1.0/bits/locale_facets.h **** 
 140:/usr/include/c++/9.1.0/bits/locale_facets.h ****   /**
 141:/usr/include/c++/9.1.0/bits/locale_facets.h ****    *  @brief  Common base for ctype facet
 142:/usr/include/c++/9.1.0/bits/locale_facets.h ****    *
 143:/usr/include/c++/9.1.0/bits/locale_facets.h ****    *  This template class provides implementations of the public functions
 144:/usr/include/c++/9.1.0/bits/locale_facets.h ****    *  that forward to the protected virtual functions.
 145:/usr/include/c++/9.1.0/bits/locale_facets.h ****    *
 146:/usr/include/c++/9.1.0/bits/locale_facets.h ****    *  This template also provides abstract stubs for the protected virtual
 147:/usr/include/c++/9.1.0/bits/locale_facets.h ****    *  functions.
 148:/usr/include/c++/9.1.0/bits/locale_facets.h ****   */
 149:/usr/include/c++/9.1.0/bits/locale_facets.h ****   template<typename _CharT>
 150:/usr/include/c++/9.1.0/bits/locale_facets.h ****     class __ctype_abstract_base : public locale::facet, public ctype_base
 151:/usr/include/c++/9.1.0/bits/locale_facets.h ****     {
 152:/usr/include/c++/9.1.0/bits/locale_facets.h ****     public:
 153:/usr/include/c++/9.1.0/bits/locale_facets.h ****       // Types:
 154:/usr/include/c++/9.1.0/bits/locale_facets.h ****       /// Typedef for the template parameter
 155:/usr/include/c++/9.1.0/bits/locale_facets.h ****       typedef _CharT char_type;
 156:/usr/include/c++/9.1.0/bits/locale_facets.h **** 
 157:/usr/include/c++/9.1.0/bits/locale_facets.h ****       /**
 158:/usr/include/c++/9.1.0/bits/locale_facets.h ****        *  @brief  Test char_type classification.
 159:/usr/include/c++/9.1.0/bits/locale_facets.h ****        *
 160:/usr/include/c++/9.1.0/bits/locale_facets.h ****        *  This function finds a mask M for @a __c and compares it to
GAS LISTING /tmp/ccK1lRdA.s 			page 42


 161:/usr/include/c++/9.1.0/bits/locale_facets.h ****        *  mask @a __m.  It does so by returning the value of
 162:/usr/include/c++/9.1.0/bits/locale_facets.h ****        *  ctype<char_type>::do_is().
 163:/usr/include/c++/9.1.0/bits/locale_facets.h ****        *
 164:/usr/include/c++/9.1.0/bits/locale_facets.h ****        *  @param __c  The char_type to compare the mask of.
 165:/usr/include/c++/9.1.0/bits/locale_facets.h ****        *  @param __m  The mask to compare against.
 166:/usr/include/c++/9.1.0/bits/locale_facets.h ****        *  @return  (M & __m) != 0.
 167:/usr/include/c++/9.1.0/bits/locale_facets.h ****       */
 168:/usr/include/c++/9.1.0/bits/locale_facets.h ****       bool
 169:/usr/include/c++/9.1.0/bits/locale_facets.h ****       is(mask __m, char_type __c) const
 170:/usr/include/c++/9.1.0/bits/locale_facets.h ****       { return this->do_is(__m, __c); }
 171:/usr/include/c++/9.1.0/bits/locale_facets.h **** 
 172:/usr/include/c++/9.1.0/bits/locale_facets.h ****       /**
 173:/usr/include/c++/9.1.0/bits/locale_facets.h ****        *  @brief  Return a mask array.
 174:/usr/include/c++/9.1.0/bits/locale_facets.h ****        *
 175:/usr/include/c++/9.1.0/bits/locale_facets.h ****        *  This function finds the mask for each char_type in the range [lo,hi)
 176:/usr/include/c++/9.1.0/bits/locale_facets.h ****        *  and successively writes it to vec.  vec must have as many elements
 177:/usr/include/c++/9.1.0/bits/locale_facets.h ****        *  as the char array.  It does so by returning the value of
 178:/usr/include/c++/9.1.0/bits/locale_facets.h ****        *  ctype<char_type>::do_is().
 179:/usr/include/c++/9.1.0/bits/locale_facets.h ****        *
 180:/usr/include/c++/9.1.0/bits/locale_facets.h ****        *  @param __lo  Pointer to start of range.
 181:/usr/include/c++/9.1.0/bits/locale_facets.h ****        *  @param __hi  Pointer to end of range.
 182:/usr/include/c++/9.1.0/bits/locale_facets.h ****        *  @param __vec  Pointer to an array of mask storage.
 183:/usr/include/c++/9.1.0/bits/locale_facets.h ****        *  @return  @a __hi.
 184:/usr/include/c++/9.1.0/bits/locale_facets.h ****       */
 185:/usr/include/c++/9.1.0/bits/locale_facets.h ****       const char_type*
 186:/usr/include/c++/9.1.0/bits/locale_facets.h ****       is(const char_type *__lo, const char_type *__hi, mask *__vec) const
 187:/usr/include/c++/9.1.0/bits/locale_facets.h ****       { return this->do_is(__lo, __hi, __vec); }
 188:/usr/include/c++/9.1.0/bits/locale_facets.h **** 
 189:/usr/include/c++/9.1.0/bits/locale_facets.h ****       /**
 190:/usr/include/c++/9.1.0/bits/locale_facets.h ****        *  @brief  Find char_type matching a mask
 191:/usr/include/c++/9.1.0/bits/locale_facets.h ****        *
 192:/usr/include/c++/9.1.0/bits/locale_facets.h ****        *  This function searches for and returns the first char_type c in
 193:/usr/include/c++/9.1.0/bits/locale_facets.h ****        *  [lo,hi) for which is(m,c) is true.  It does so by returning
 194:/usr/include/c++/9.1.0/bits/locale_facets.h ****        *  ctype<char_type>::do_scan_is().
 195:/usr/include/c++/9.1.0/bits/locale_facets.h ****        *
 196:/usr/include/c++/9.1.0/bits/locale_facets.h ****        *  @param __m  The mask to compare against.
 197:/usr/include/c++/9.1.0/bits/locale_facets.h ****        *  @param __lo  Pointer to start of range.
 198:/usr/include/c++/9.1.0/bits/locale_facets.h ****        *  @param __hi  Pointer to end of range.
 199:/usr/include/c++/9.1.0/bits/locale_facets.h ****        *  @return  Pointer to matching char_type if found, else @a __hi.
 200:/usr/include/c++/9.1.0/bits/locale_facets.h ****       */
 201:/usr/include/c++/9.1.0/bits/locale_facets.h ****       const char_type*
 202:/usr/include/c++/9.1.0/bits/locale_facets.h ****       scan_is(mask __m, const char_type* __lo, const char_type* __hi) const
 203:/usr/include/c++/9.1.0/bits/locale_facets.h ****       { return this->do_scan_is(__m, __lo, __hi); }
 204:/usr/include/c++/9.1.0/bits/locale_facets.h **** 
 205:/usr/include/c++/9.1.0/bits/locale_facets.h ****       /**
 206:/usr/include/c++/9.1.0/bits/locale_facets.h ****        *  @brief  Find char_type not matching a mask
 207:/usr/include/c++/9.1.0/bits/locale_facets.h ****        *
 208:/usr/include/c++/9.1.0/bits/locale_facets.h ****        *  This function searches for and returns the first char_type c in
 209:/usr/include/c++/9.1.0/bits/locale_facets.h ****        *  [lo,hi) for which is(m,c) is false.  It does so by returning
 210:/usr/include/c++/9.1.0/bits/locale_facets.h ****        *  ctype<char_type>::do_scan_not().
 211:/usr/include/c++/9.1.0/bits/locale_facets.h ****        *
 212:/usr/include/c++/9.1.0/bits/locale_facets.h ****        *  @param __m  The mask to compare against.
 213:/usr/include/c++/9.1.0/bits/locale_facets.h ****        *  @param __lo  Pointer to first char in range.
 214:/usr/include/c++/9.1.0/bits/locale_facets.h ****        *  @param __hi  Pointer to end of range.
 215:/usr/include/c++/9.1.0/bits/locale_facets.h ****        *  @return  Pointer to non-matching char if found, else @a __hi.
 216:/usr/include/c++/9.1.0/bits/locale_facets.h ****       */
 217:/usr/include/c++/9.1.0/bits/locale_facets.h ****       const char_type*
GAS LISTING /tmp/ccK1lRdA.s 			page 43


 218:/usr/include/c++/9.1.0/bits/locale_facets.h ****       scan_not(mask __m, const char_type* __lo, const char_type* __hi) const
 219:/usr/include/c++/9.1.0/bits/locale_facets.h ****       { return this->do_scan_not(__m, __lo, __hi); }
 220:/usr/include/c++/9.1.0/bits/locale_facets.h **** 
 221:/usr/include/c++/9.1.0/bits/locale_facets.h ****       /**
 222:/usr/include/c++/9.1.0/bits/locale_facets.h ****        *  @brief  Convert to uppercase.
 223:/usr/include/c++/9.1.0/bits/locale_facets.h ****        *
 224:/usr/include/c++/9.1.0/bits/locale_facets.h ****        *  This function converts the argument to uppercase if possible.
 225:/usr/include/c++/9.1.0/bits/locale_facets.h ****        *  If not possible (for example, '2'), returns the argument.  It does
 226:/usr/include/c++/9.1.0/bits/locale_facets.h ****        *  so by returning ctype<char_type>::do_toupper().
 227:/usr/include/c++/9.1.0/bits/locale_facets.h ****        *
 228:/usr/include/c++/9.1.0/bits/locale_facets.h ****        *  @param __c  The char_type to convert.
 229:/usr/include/c++/9.1.0/bits/locale_facets.h ****        *  @return  The uppercase char_type if convertible, else @a __c.
 230:/usr/include/c++/9.1.0/bits/locale_facets.h ****       */
 231:/usr/include/c++/9.1.0/bits/locale_facets.h ****       char_type
 232:/usr/include/c++/9.1.0/bits/locale_facets.h ****       toupper(char_type __c) const
 233:/usr/include/c++/9.1.0/bits/locale_facets.h ****       { return this->do_toupper(__c); }
 234:/usr/include/c++/9.1.0/bits/locale_facets.h **** 
 235:/usr/include/c++/9.1.0/bits/locale_facets.h ****       /**
 236:/usr/include/c++/9.1.0/bits/locale_facets.h ****        *  @brief  Convert array to uppercase.
 237:/usr/include/c++/9.1.0/bits/locale_facets.h ****        *
 238:/usr/include/c++/9.1.0/bits/locale_facets.h ****        *  This function converts each char_type in the range [lo,hi) to
 239:/usr/include/c++/9.1.0/bits/locale_facets.h ****        *  uppercase if possible.  Other elements remain untouched.  It does so
 240:/usr/include/c++/9.1.0/bits/locale_facets.h ****        *  by returning ctype<char_type>:: do_toupper(lo, hi).
 241:/usr/include/c++/9.1.0/bits/locale_facets.h ****        *
 242:/usr/include/c++/9.1.0/bits/locale_facets.h ****        *  @param __lo  Pointer to start of range.
 243:/usr/include/c++/9.1.0/bits/locale_facets.h ****        *  @param __hi  Pointer to end of range.
 244:/usr/include/c++/9.1.0/bits/locale_facets.h ****        *  @return  @a __hi.
 245:/usr/include/c++/9.1.0/bits/locale_facets.h ****       */
 246:/usr/include/c++/9.1.0/bits/locale_facets.h ****       const char_type*
 247:/usr/include/c++/9.1.0/bits/locale_facets.h ****       toupper(char_type *__lo, const char_type* __hi) const
 248:/usr/include/c++/9.1.0/bits/locale_facets.h ****       { return this->do_toupper(__lo, __hi); }
 249:/usr/include/c++/9.1.0/bits/locale_facets.h **** 
 250:/usr/include/c++/9.1.0/bits/locale_facets.h ****       /**
 251:/usr/include/c++/9.1.0/bits/locale_facets.h ****        *  @brief  Convert to lowercase.
 252:/usr/include/c++/9.1.0/bits/locale_facets.h ****        *
 253:/usr/include/c++/9.1.0/bits/locale_facets.h ****        *  This function converts the argument to lowercase if possible.  If
 254:/usr/include/c++/9.1.0/bits/locale_facets.h ****        *  not possible (for example, '2'), returns the argument.  It does so
 255:/usr/include/c++/9.1.0/bits/locale_facets.h ****        *  by returning ctype<char_type>::do_tolower(c).
 256:/usr/include/c++/9.1.0/bits/locale_facets.h ****        *
 257:/usr/include/c++/9.1.0/bits/locale_facets.h ****        *  @param __c  The char_type to convert.
 258:/usr/include/c++/9.1.0/bits/locale_facets.h ****        *  @return  The lowercase char_type if convertible, else @a __c.
 259:/usr/include/c++/9.1.0/bits/locale_facets.h ****       */
 260:/usr/include/c++/9.1.0/bits/locale_facets.h ****       char_type
 261:/usr/include/c++/9.1.0/bits/locale_facets.h ****       tolower(char_type __c) const
 262:/usr/include/c++/9.1.0/bits/locale_facets.h ****       { return this->do_tolower(__c); }
 263:/usr/include/c++/9.1.0/bits/locale_facets.h **** 
 264:/usr/include/c++/9.1.0/bits/locale_facets.h ****       /**
 265:/usr/include/c++/9.1.0/bits/locale_facets.h ****        *  @brief  Convert array to lowercase.
 266:/usr/include/c++/9.1.0/bits/locale_facets.h ****        *
 267:/usr/include/c++/9.1.0/bits/locale_facets.h ****        *  This function converts each char_type in the range [__lo,__hi) to
 268:/usr/include/c++/9.1.0/bits/locale_facets.h ****        *  lowercase if possible.  Other elements remain untouched.  It does so
 269:/usr/include/c++/9.1.0/bits/locale_facets.h ****        *  by returning ctype<char_type>:: do_tolower(__lo, __hi).
 270:/usr/include/c++/9.1.0/bits/locale_facets.h ****        *
 271:/usr/include/c++/9.1.0/bits/locale_facets.h ****        *  @param __lo  Pointer to start of range.
 272:/usr/include/c++/9.1.0/bits/locale_facets.h ****        *  @param __hi  Pointer to end of range.
 273:/usr/include/c++/9.1.0/bits/locale_facets.h ****        *  @return  @a __hi.
 274:/usr/include/c++/9.1.0/bits/locale_facets.h ****       */
GAS LISTING /tmp/ccK1lRdA.s 			page 44


 275:/usr/include/c++/9.1.0/bits/locale_facets.h ****       const char_type*
 276:/usr/include/c++/9.1.0/bits/locale_facets.h ****       tolower(char_type* __lo, const char_type* __hi) const
 277:/usr/include/c++/9.1.0/bits/locale_facets.h ****       { return this->do_tolower(__lo, __hi); }
 278:/usr/include/c++/9.1.0/bits/locale_facets.h **** 
 279:/usr/include/c++/9.1.0/bits/locale_facets.h ****       /**
 280:/usr/include/c++/9.1.0/bits/locale_facets.h ****        *  @brief  Widen char to char_type
 281:/usr/include/c++/9.1.0/bits/locale_facets.h ****        *
 282:/usr/include/c++/9.1.0/bits/locale_facets.h ****        *  This function converts the char argument to char_type using the
 283:/usr/include/c++/9.1.0/bits/locale_facets.h ****        *  simplest reasonable transformation.  It does so by returning
 284:/usr/include/c++/9.1.0/bits/locale_facets.h ****        *  ctype<char_type>::do_widen(c).
 285:/usr/include/c++/9.1.0/bits/locale_facets.h ****        *
 286:/usr/include/c++/9.1.0/bits/locale_facets.h ****        *  Note: this is not what you want for codepage conversions.  See
 287:/usr/include/c++/9.1.0/bits/locale_facets.h ****        *  codecvt for that.
 288:/usr/include/c++/9.1.0/bits/locale_facets.h ****        *
 289:/usr/include/c++/9.1.0/bits/locale_facets.h ****        *  @param __c  The char to convert.
 290:/usr/include/c++/9.1.0/bits/locale_facets.h ****        *  @return  The converted char_type.
 291:/usr/include/c++/9.1.0/bits/locale_facets.h ****       */
 292:/usr/include/c++/9.1.0/bits/locale_facets.h ****       char_type
 293:/usr/include/c++/9.1.0/bits/locale_facets.h ****       widen(char __c) const
 294:/usr/include/c++/9.1.0/bits/locale_facets.h ****       { return this->do_widen(__c); }
 295:/usr/include/c++/9.1.0/bits/locale_facets.h **** 
 296:/usr/include/c++/9.1.0/bits/locale_facets.h ****       /**
 297:/usr/include/c++/9.1.0/bits/locale_facets.h ****        *  @brief  Widen array to char_type
 298:/usr/include/c++/9.1.0/bits/locale_facets.h ****        *
 299:/usr/include/c++/9.1.0/bits/locale_facets.h ****        *  This function converts each char in the input to char_type using the
 300:/usr/include/c++/9.1.0/bits/locale_facets.h ****        *  simplest reasonable transformation.  It does so by returning
 301:/usr/include/c++/9.1.0/bits/locale_facets.h ****        *  ctype<char_type>::do_widen(c).
 302:/usr/include/c++/9.1.0/bits/locale_facets.h ****        *
 303:/usr/include/c++/9.1.0/bits/locale_facets.h ****        *  Note: this is not what you want for codepage conversions.  See
 304:/usr/include/c++/9.1.0/bits/locale_facets.h ****        *  codecvt for that.
 305:/usr/include/c++/9.1.0/bits/locale_facets.h ****        *
 306:/usr/include/c++/9.1.0/bits/locale_facets.h ****        *  @param __lo  Pointer to start of range.
 307:/usr/include/c++/9.1.0/bits/locale_facets.h ****        *  @param __hi  Pointer to end of range.
 308:/usr/include/c++/9.1.0/bits/locale_facets.h ****        *  @param __to  Pointer to the destination array.
 309:/usr/include/c++/9.1.0/bits/locale_facets.h ****        *  @return  @a __hi.
 310:/usr/include/c++/9.1.0/bits/locale_facets.h ****       */
 311:/usr/include/c++/9.1.0/bits/locale_facets.h ****       const char*
 312:/usr/include/c++/9.1.0/bits/locale_facets.h ****       widen(const char* __lo, const char* __hi, char_type* __to) const
 313:/usr/include/c++/9.1.0/bits/locale_facets.h ****       { return this->do_widen(__lo, __hi, __to); }
 314:/usr/include/c++/9.1.0/bits/locale_facets.h **** 
 315:/usr/include/c++/9.1.0/bits/locale_facets.h ****       /**
 316:/usr/include/c++/9.1.0/bits/locale_facets.h ****        *  @brief  Narrow char_type to char
 317:/usr/include/c++/9.1.0/bits/locale_facets.h ****        *
 318:/usr/include/c++/9.1.0/bits/locale_facets.h ****        *  This function converts the char_type to char using the simplest
 319:/usr/include/c++/9.1.0/bits/locale_facets.h ****        *  reasonable transformation.  If the conversion fails, dfault is
 320:/usr/include/c++/9.1.0/bits/locale_facets.h ****        *  returned instead.  It does so by returning
 321:/usr/include/c++/9.1.0/bits/locale_facets.h ****        *  ctype<char_type>::do_narrow(__c).
 322:/usr/include/c++/9.1.0/bits/locale_facets.h ****        *
 323:/usr/include/c++/9.1.0/bits/locale_facets.h ****        *  Note: this is not what you want for codepage conversions.  See
 324:/usr/include/c++/9.1.0/bits/locale_facets.h ****        *  codecvt for that.
 325:/usr/include/c++/9.1.0/bits/locale_facets.h ****        *
 326:/usr/include/c++/9.1.0/bits/locale_facets.h ****        *  @param __c  The char_type to convert.
 327:/usr/include/c++/9.1.0/bits/locale_facets.h ****        *  @param __dfault  Char to return if conversion fails.
 328:/usr/include/c++/9.1.0/bits/locale_facets.h ****        *  @return  The converted char.
 329:/usr/include/c++/9.1.0/bits/locale_facets.h ****       */
 330:/usr/include/c++/9.1.0/bits/locale_facets.h ****       char
 331:/usr/include/c++/9.1.0/bits/locale_facets.h ****       narrow(char_type __c, char __dfault) const
GAS LISTING /tmp/ccK1lRdA.s 			page 45


 332:/usr/include/c++/9.1.0/bits/locale_facets.h ****       { return this->do_narrow(__c, __dfault); }
 333:/usr/include/c++/9.1.0/bits/locale_facets.h **** 
 334:/usr/include/c++/9.1.0/bits/locale_facets.h ****       /**
 335:/usr/include/c++/9.1.0/bits/locale_facets.h ****        *  @brief  Narrow array to char array
 336:/usr/include/c++/9.1.0/bits/locale_facets.h ****        *
 337:/usr/include/c++/9.1.0/bits/locale_facets.h ****        *  This function converts each char_type in the input to char using the
 338:/usr/include/c++/9.1.0/bits/locale_facets.h ****        *  simplest reasonable transformation and writes the results to the
 339:/usr/include/c++/9.1.0/bits/locale_facets.h ****        *  destination array.  For any char_type in the input that cannot be
 340:/usr/include/c++/9.1.0/bits/locale_facets.h ****        *  converted, @a dfault is used instead.  It does so by returning
 341:/usr/include/c++/9.1.0/bits/locale_facets.h ****        *  ctype<char_type>::do_narrow(__lo, __hi, __dfault, __to).
 342:/usr/include/c++/9.1.0/bits/locale_facets.h ****        *
 343:/usr/include/c++/9.1.0/bits/locale_facets.h ****        *  Note: this is not what you want for codepage conversions.  See
 344:/usr/include/c++/9.1.0/bits/locale_facets.h ****        *  codecvt for that.
 345:/usr/include/c++/9.1.0/bits/locale_facets.h ****        *
 346:/usr/include/c++/9.1.0/bits/locale_facets.h ****        *  @param __lo  Pointer to start of range.
 347:/usr/include/c++/9.1.0/bits/locale_facets.h ****        *  @param __hi  Pointer to end of range.
 348:/usr/include/c++/9.1.0/bits/locale_facets.h ****        *  @param __dfault  Char to use if conversion fails.
 349:/usr/include/c++/9.1.0/bits/locale_facets.h ****        *  @param __to  Pointer to the destination array.
 350:/usr/include/c++/9.1.0/bits/locale_facets.h ****        *  @return  @a __hi.
 351:/usr/include/c++/9.1.0/bits/locale_facets.h ****       */
 352:/usr/include/c++/9.1.0/bits/locale_facets.h ****       const char_type*
 353:/usr/include/c++/9.1.0/bits/locale_facets.h ****       narrow(const char_type* __lo, const char_type* __hi,
 354:/usr/include/c++/9.1.0/bits/locale_facets.h **** 	      char __dfault, char* __to) const
 355:/usr/include/c++/9.1.0/bits/locale_facets.h ****       { return this->do_narrow(__lo, __hi, __dfault, __to); }
 356:/usr/include/c++/9.1.0/bits/locale_facets.h **** 
 357:/usr/include/c++/9.1.0/bits/locale_facets.h ****     protected:
 358:/usr/include/c++/9.1.0/bits/locale_facets.h ****       explicit
 359:/usr/include/c++/9.1.0/bits/locale_facets.h ****       __ctype_abstract_base(size_t __refs = 0): facet(__refs) { }
 360:/usr/include/c++/9.1.0/bits/locale_facets.h **** 
 361:/usr/include/c++/9.1.0/bits/locale_facets.h ****       virtual
 362:/usr/include/c++/9.1.0/bits/locale_facets.h ****       ~__ctype_abstract_base() { }
 363:/usr/include/c++/9.1.0/bits/locale_facets.h **** 
 364:/usr/include/c++/9.1.0/bits/locale_facets.h ****       /**
 365:/usr/include/c++/9.1.0/bits/locale_facets.h ****        *  @brief  Test char_type classification.
 366:/usr/include/c++/9.1.0/bits/locale_facets.h ****        *
 367:/usr/include/c++/9.1.0/bits/locale_facets.h ****        *  This function finds a mask M for @a c and compares it to mask @a m.
 368:/usr/include/c++/9.1.0/bits/locale_facets.h ****        *
 369:/usr/include/c++/9.1.0/bits/locale_facets.h ****        *  do_is() is a hook for a derived facet to change the behavior of
 370:/usr/include/c++/9.1.0/bits/locale_facets.h ****        *  classifying.  do_is() must always return the same result for the
 371:/usr/include/c++/9.1.0/bits/locale_facets.h ****        *  same input.
 372:/usr/include/c++/9.1.0/bits/locale_facets.h ****        *
 373:/usr/include/c++/9.1.0/bits/locale_facets.h ****        *  @param __c  The char_type to find the mask of.
 374:/usr/include/c++/9.1.0/bits/locale_facets.h ****        *  @param __m  The mask to compare against.
 375:/usr/include/c++/9.1.0/bits/locale_facets.h ****        *  @return  (M & __m) != 0.
 376:/usr/include/c++/9.1.0/bits/locale_facets.h ****       */
 377:/usr/include/c++/9.1.0/bits/locale_facets.h ****       virtual bool
 378:/usr/include/c++/9.1.0/bits/locale_facets.h ****       do_is(mask __m, char_type __c) const = 0;
 379:/usr/include/c++/9.1.0/bits/locale_facets.h **** 
 380:/usr/include/c++/9.1.0/bits/locale_facets.h ****       /**
 381:/usr/include/c++/9.1.0/bits/locale_facets.h ****        *  @brief  Return a mask array.
 382:/usr/include/c++/9.1.0/bits/locale_facets.h ****        *
 383:/usr/include/c++/9.1.0/bits/locale_facets.h ****        *  This function finds the mask for each char_type in the range [lo,hi)
 384:/usr/include/c++/9.1.0/bits/locale_facets.h ****        *  and successively writes it to vec.  vec must have as many elements
 385:/usr/include/c++/9.1.0/bits/locale_facets.h ****        *  as the input.
 386:/usr/include/c++/9.1.0/bits/locale_facets.h ****        *
 387:/usr/include/c++/9.1.0/bits/locale_facets.h ****        *  do_is() is a hook for a derived facet to change the behavior of
 388:/usr/include/c++/9.1.0/bits/locale_facets.h ****        *  classifying.  do_is() must always return the same result for the
GAS LISTING /tmp/ccK1lRdA.s 			page 46


 389:/usr/include/c++/9.1.0/bits/locale_facets.h ****        *  same input.
 390:/usr/include/c++/9.1.0/bits/locale_facets.h ****        *
 391:/usr/include/c++/9.1.0/bits/locale_facets.h ****        *  @param __lo  Pointer to start of range.
 392:/usr/include/c++/9.1.0/bits/locale_facets.h ****        *  @param __hi  Pointer to end of range.
 393:/usr/include/c++/9.1.0/bits/locale_facets.h ****        *  @param __vec  Pointer to an array of mask storage.
 394:/usr/include/c++/9.1.0/bits/locale_facets.h ****        *  @return  @a __hi.
 395:/usr/include/c++/9.1.0/bits/locale_facets.h ****       */
 396:/usr/include/c++/9.1.0/bits/locale_facets.h ****       virtual const char_type*
 397:/usr/include/c++/9.1.0/bits/locale_facets.h ****       do_is(const char_type* __lo, const char_type* __hi,
 398:/usr/include/c++/9.1.0/bits/locale_facets.h **** 	    mask* __vec) const = 0;
 399:/usr/include/c++/9.1.0/bits/locale_facets.h **** 
 400:/usr/include/c++/9.1.0/bits/locale_facets.h ****       /**
 401:/usr/include/c++/9.1.0/bits/locale_facets.h ****        *  @brief  Find char_type matching mask
 402:/usr/include/c++/9.1.0/bits/locale_facets.h ****        *
 403:/usr/include/c++/9.1.0/bits/locale_facets.h ****        *  This function searches for and returns the first char_type c in
 404:/usr/include/c++/9.1.0/bits/locale_facets.h ****        *  [__lo,__hi) for which is(__m,c) is true.
 405:/usr/include/c++/9.1.0/bits/locale_facets.h ****        *
 406:/usr/include/c++/9.1.0/bits/locale_facets.h ****        *  do_scan_is() is a hook for a derived facet to change the behavior of
 407:/usr/include/c++/9.1.0/bits/locale_facets.h ****        *  match searching.  do_is() must always return the same result for the
 408:/usr/include/c++/9.1.0/bits/locale_facets.h ****        *  same input.
 409:/usr/include/c++/9.1.0/bits/locale_facets.h ****        *
 410:/usr/include/c++/9.1.0/bits/locale_facets.h ****        *  @param __m  The mask to compare against.
 411:/usr/include/c++/9.1.0/bits/locale_facets.h ****        *  @param __lo  Pointer to start of range.
 412:/usr/include/c++/9.1.0/bits/locale_facets.h ****        *  @param __hi  Pointer to end of range.
 413:/usr/include/c++/9.1.0/bits/locale_facets.h ****        *  @return  Pointer to a matching char_type if found, else @a __hi.
 414:/usr/include/c++/9.1.0/bits/locale_facets.h ****       */
 415:/usr/include/c++/9.1.0/bits/locale_facets.h ****       virtual const char_type*
 416:/usr/include/c++/9.1.0/bits/locale_facets.h ****       do_scan_is(mask __m, const char_type* __lo,
 417:/usr/include/c++/9.1.0/bits/locale_facets.h **** 		 const char_type* __hi) const = 0;
 418:/usr/include/c++/9.1.0/bits/locale_facets.h **** 
 419:/usr/include/c++/9.1.0/bits/locale_facets.h ****       /**
 420:/usr/include/c++/9.1.0/bits/locale_facets.h ****        *  @brief  Find char_type not matching mask
 421:/usr/include/c++/9.1.0/bits/locale_facets.h ****        *
 422:/usr/include/c++/9.1.0/bits/locale_facets.h ****        *  This function searches for and returns a pointer to the first
 423:/usr/include/c++/9.1.0/bits/locale_facets.h ****        *  char_type c of [lo,hi) for which is(m,c) is false.
 424:/usr/include/c++/9.1.0/bits/locale_facets.h ****        *
 425:/usr/include/c++/9.1.0/bits/locale_facets.h ****        *  do_scan_is() is a hook for a derived facet to change the behavior of
 426:/usr/include/c++/9.1.0/bits/locale_facets.h ****        *  match searching.  do_is() must always return the same result for the
 427:/usr/include/c++/9.1.0/bits/locale_facets.h ****        *  same input.
 428:/usr/include/c++/9.1.0/bits/locale_facets.h ****        *
 429:/usr/include/c++/9.1.0/bits/locale_facets.h ****        *  @param __m  The mask to compare against.
 430:/usr/include/c++/9.1.0/bits/locale_facets.h ****        *  @param __lo  Pointer to start of range.
 431:/usr/include/c++/9.1.0/bits/locale_facets.h ****        *  @param __hi  Pointer to end of range.
 432:/usr/include/c++/9.1.0/bits/locale_facets.h ****        *  @return  Pointer to a non-matching char_type if found, else @a __hi.
 433:/usr/include/c++/9.1.0/bits/locale_facets.h ****       */
 434:/usr/include/c++/9.1.0/bits/locale_facets.h ****       virtual const char_type*
 435:/usr/include/c++/9.1.0/bits/locale_facets.h ****       do_scan_not(mask __m, const char_type* __lo,
 436:/usr/include/c++/9.1.0/bits/locale_facets.h **** 		  const char_type* __hi) const = 0;
 437:/usr/include/c++/9.1.0/bits/locale_facets.h **** 
 438:/usr/include/c++/9.1.0/bits/locale_facets.h ****       /**
 439:/usr/include/c++/9.1.0/bits/locale_facets.h ****        *  @brief  Convert to uppercase.
 440:/usr/include/c++/9.1.0/bits/locale_facets.h ****        *
 441:/usr/include/c++/9.1.0/bits/locale_facets.h ****        *  This virtual function converts the char_type argument to uppercase
 442:/usr/include/c++/9.1.0/bits/locale_facets.h ****        *  if possible.  If not possible (for example, '2'), returns the
 443:/usr/include/c++/9.1.0/bits/locale_facets.h ****        *  argument.
 444:/usr/include/c++/9.1.0/bits/locale_facets.h ****        *
 445:/usr/include/c++/9.1.0/bits/locale_facets.h ****        *  do_toupper() is a hook for a derived facet to change the behavior of
GAS LISTING /tmp/ccK1lRdA.s 			page 47


 446:/usr/include/c++/9.1.0/bits/locale_facets.h ****        *  uppercasing.  do_toupper() must always return the same result for
 447:/usr/include/c++/9.1.0/bits/locale_facets.h ****        *  the same input.
 448:/usr/include/c++/9.1.0/bits/locale_facets.h ****        *
 449:/usr/include/c++/9.1.0/bits/locale_facets.h ****        *  @param __c  The char_type to convert.
 450:/usr/include/c++/9.1.0/bits/locale_facets.h ****        *  @return  The uppercase char_type if convertible, else @a __c.
 451:/usr/include/c++/9.1.0/bits/locale_facets.h ****       */
 452:/usr/include/c++/9.1.0/bits/locale_facets.h ****       virtual char_type
 453:/usr/include/c++/9.1.0/bits/locale_facets.h ****       do_toupper(char_type __c) const = 0;
 454:/usr/include/c++/9.1.0/bits/locale_facets.h **** 
 455:/usr/include/c++/9.1.0/bits/locale_facets.h ****       /**
 456:/usr/include/c++/9.1.0/bits/locale_facets.h ****        *  @brief  Convert array to uppercase.
 457:/usr/include/c++/9.1.0/bits/locale_facets.h ****        *
 458:/usr/include/c++/9.1.0/bits/locale_facets.h ****        *  This virtual function converts each char_type in the range [__lo,__hi)
 459:/usr/include/c++/9.1.0/bits/locale_facets.h ****        *  to uppercase if possible.  Other elements remain untouched.
 460:/usr/include/c++/9.1.0/bits/locale_facets.h ****        *
 461:/usr/include/c++/9.1.0/bits/locale_facets.h ****        *  do_toupper() is a hook for a derived facet to change the behavior of
 462:/usr/include/c++/9.1.0/bits/locale_facets.h ****        *  uppercasing.  do_toupper() must always return the same result for
 463:/usr/include/c++/9.1.0/bits/locale_facets.h ****        *  the same input.
 464:/usr/include/c++/9.1.0/bits/locale_facets.h ****        *
 465:/usr/include/c++/9.1.0/bits/locale_facets.h ****        *  @param __lo  Pointer to start of range.
 466:/usr/include/c++/9.1.0/bits/locale_facets.h ****        *  @param __hi  Pointer to end of range.
 467:/usr/include/c++/9.1.0/bits/locale_facets.h ****        *  @return  @a __hi.
 468:/usr/include/c++/9.1.0/bits/locale_facets.h ****       */
 469:/usr/include/c++/9.1.0/bits/locale_facets.h ****       virtual const char_type*
 470:/usr/include/c++/9.1.0/bits/locale_facets.h ****       do_toupper(char_type* __lo, const char_type* __hi) const = 0;
 471:/usr/include/c++/9.1.0/bits/locale_facets.h **** 
 472:/usr/include/c++/9.1.0/bits/locale_facets.h ****       /**
 473:/usr/include/c++/9.1.0/bits/locale_facets.h ****        *  @brief  Convert to lowercase.
 474:/usr/include/c++/9.1.0/bits/locale_facets.h ****        *
 475:/usr/include/c++/9.1.0/bits/locale_facets.h ****        *  This virtual function converts the argument to lowercase if
 476:/usr/include/c++/9.1.0/bits/locale_facets.h ****        *  possible.  If not possible (for example, '2'), returns the argument.
 477:/usr/include/c++/9.1.0/bits/locale_facets.h ****        *
 478:/usr/include/c++/9.1.0/bits/locale_facets.h ****        *  do_tolower() is a hook for a derived facet to change the behavior of
 479:/usr/include/c++/9.1.0/bits/locale_facets.h ****        *  lowercasing.  do_tolower() must always return the same result for
 480:/usr/include/c++/9.1.0/bits/locale_facets.h ****        *  the same input.
 481:/usr/include/c++/9.1.0/bits/locale_facets.h ****        *
 482:/usr/include/c++/9.1.0/bits/locale_facets.h ****        *  @param __c  The char_type to convert.
 483:/usr/include/c++/9.1.0/bits/locale_facets.h ****        *  @return  The lowercase char_type if convertible, else @a __c.
 484:/usr/include/c++/9.1.0/bits/locale_facets.h ****       */
 485:/usr/include/c++/9.1.0/bits/locale_facets.h ****       virtual char_type
 486:/usr/include/c++/9.1.0/bits/locale_facets.h ****       do_tolower(char_type __c) const = 0;
 487:/usr/include/c++/9.1.0/bits/locale_facets.h **** 
 488:/usr/include/c++/9.1.0/bits/locale_facets.h ****       /**
 489:/usr/include/c++/9.1.0/bits/locale_facets.h ****        *  @brief  Convert array to lowercase.
 490:/usr/include/c++/9.1.0/bits/locale_facets.h ****        *
 491:/usr/include/c++/9.1.0/bits/locale_facets.h ****        *  This virtual function converts each char_type in the range [__lo,__hi)
 492:/usr/include/c++/9.1.0/bits/locale_facets.h ****        *  to lowercase if possible.  Other elements remain untouched.
 493:/usr/include/c++/9.1.0/bits/locale_facets.h ****        *
 494:/usr/include/c++/9.1.0/bits/locale_facets.h ****        *  do_tolower() is a hook for a derived facet to change the behavior of
 495:/usr/include/c++/9.1.0/bits/locale_facets.h ****        *  lowercasing.  do_tolower() must always return the same result for
 496:/usr/include/c++/9.1.0/bits/locale_facets.h ****        *  the same input.
 497:/usr/include/c++/9.1.0/bits/locale_facets.h ****        *
 498:/usr/include/c++/9.1.0/bits/locale_facets.h ****        *  @param __lo  Pointer to start of range.
 499:/usr/include/c++/9.1.0/bits/locale_facets.h ****        *  @param __hi  Pointer to end of range.
 500:/usr/include/c++/9.1.0/bits/locale_facets.h ****        *  @return  @a __hi.
 501:/usr/include/c++/9.1.0/bits/locale_facets.h ****       */
 502:/usr/include/c++/9.1.0/bits/locale_facets.h ****       virtual const char_type*
GAS LISTING /tmp/ccK1lRdA.s 			page 48


 503:/usr/include/c++/9.1.0/bits/locale_facets.h ****       do_tolower(char_type* __lo, const char_type* __hi) const = 0;
 504:/usr/include/c++/9.1.0/bits/locale_facets.h **** 
 505:/usr/include/c++/9.1.0/bits/locale_facets.h ****       /**
 506:/usr/include/c++/9.1.0/bits/locale_facets.h ****        *  @brief  Widen char
 507:/usr/include/c++/9.1.0/bits/locale_facets.h ****        *
 508:/usr/include/c++/9.1.0/bits/locale_facets.h ****        *  This virtual function converts the char to char_type using the
 509:/usr/include/c++/9.1.0/bits/locale_facets.h ****        *  simplest reasonable transformation.
 510:/usr/include/c++/9.1.0/bits/locale_facets.h ****        *
 511:/usr/include/c++/9.1.0/bits/locale_facets.h ****        *  do_widen() is a hook for a derived facet to change the behavior of
 512:/usr/include/c++/9.1.0/bits/locale_facets.h ****        *  widening.  do_widen() must always return the same result for the
 513:/usr/include/c++/9.1.0/bits/locale_facets.h ****        *  same input.
 514:/usr/include/c++/9.1.0/bits/locale_facets.h ****        *
 515:/usr/include/c++/9.1.0/bits/locale_facets.h ****        *  Note: this is not what you want for codepage conversions.  See
 516:/usr/include/c++/9.1.0/bits/locale_facets.h ****        *  codecvt for that.
 517:/usr/include/c++/9.1.0/bits/locale_facets.h ****        *
 518:/usr/include/c++/9.1.0/bits/locale_facets.h ****        *  @param __c  The char to convert.
 519:/usr/include/c++/9.1.0/bits/locale_facets.h ****        *  @return  The converted char_type
 520:/usr/include/c++/9.1.0/bits/locale_facets.h ****       */
 521:/usr/include/c++/9.1.0/bits/locale_facets.h ****       virtual char_type
 522:/usr/include/c++/9.1.0/bits/locale_facets.h ****       do_widen(char __c) const = 0;
 523:/usr/include/c++/9.1.0/bits/locale_facets.h **** 
 524:/usr/include/c++/9.1.0/bits/locale_facets.h ****       /**
 525:/usr/include/c++/9.1.0/bits/locale_facets.h ****        *  @brief  Widen char array
 526:/usr/include/c++/9.1.0/bits/locale_facets.h ****        *
 527:/usr/include/c++/9.1.0/bits/locale_facets.h ****        *  This function converts each char in the input to char_type using the
 528:/usr/include/c++/9.1.0/bits/locale_facets.h ****        *  simplest reasonable transformation.
 529:/usr/include/c++/9.1.0/bits/locale_facets.h ****        *
 530:/usr/include/c++/9.1.0/bits/locale_facets.h ****        *  do_widen() is a hook for a derived facet to change the behavior of
 531:/usr/include/c++/9.1.0/bits/locale_facets.h ****        *  widening.  do_widen() must always return the same result for the
 532:/usr/include/c++/9.1.0/bits/locale_facets.h ****        *  same input.
 533:/usr/include/c++/9.1.0/bits/locale_facets.h ****        *
 534:/usr/include/c++/9.1.0/bits/locale_facets.h ****        *  Note: this is not what you want for codepage conversions.  See
 535:/usr/include/c++/9.1.0/bits/locale_facets.h ****        *  codecvt for that.
 536:/usr/include/c++/9.1.0/bits/locale_facets.h ****        *
 537:/usr/include/c++/9.1.0/bits/locale_facets.h ****        *  @param __lo  Pointer to start range.
 538:/usr/include/c++/9.1.0/bits/locale_facets.h ****        *  @param __hi  Pointer to end of range.
 539:/usr/include/c++/9.1.0/bits/locale_facets.h ****        *  @param __to  Pointer to the destination array.
 540:/usr/include/c++/9.1.0/bits/locale_facets.h ****        *  @return  @a __hi.
 541:/usr/include/c++/9.1.0/bits/locale_facets.h ****       */
 542:/usr/include/c++/9.1.0/bits/locale_facets.h ****       virtual const char*
 543:/usr/include/c++/9.1.0/bits/locale_facets.h ****       do_widen(const char* __lo, const char* __hi, char_type* __to) const = 0;
 544:/usr/include/c++/9.1.0/bits/locale_facets.h **** 
 545:/usr/include/c++/9.1.0/bits/locale_facets.h ****       /**
 546:/usr/include/c++/9.1.0/bits/locale_facets.h ****        *  @brief  Narrow char_type to char
 547:/usr/include/c++/9.1.0/bits/locale_facets.h ****        *
 548:/usr/include/c++/9.1.0/bits/locale_facets.h ****        *  This virtual function converts the argument to char using the
 549:/usr/include/c++/9.1.0/bits/locale_facets.h ****        *  simplest reasonable transformation.  If the conversion fails, dfault
 550:/usr/include/c++/9.1.0/bits/locale_facets.h ****        *  is returned instead.
 551:/usr/include/c++/9.1.0/bits/locale_facets.h ****        *
 552:/usr/include/c++/9.1.0/bits/locale_facets.h ****        *  do_narrow() is a hook for a derived facet to change the behavior of
 553:/usr/include/c++/9.1.0/bits/locale_facets.h ****        *  narrowing.  do_narrow() must always return the same result for the
 554:/usr/include/c++/9.1.0/bits/locale_facets.h ****        *  same input.
 555:/usr/include/c++/9.1.0/bits/locale_facets.h ****        *
 556:/usr/include/c++/9.1.0/bits/locale_facets.h ****        *  Note: this is not what you want for codepage conversions.  See
 557:/usr/include/c++/9.1.0/bits/locale_facets.h ****        *  codecvt for that.
 558:/usr/include/c++/9.1.0/bits/locale_facets.h ****        *
 559:/usr/include/c++/9.1.0/bits/locale_facets.h ****        *  @param __c  The char_type to convert.
GAS LISTING /tmp/ccK1lRdA.s 			page 49


 560:/usr/include/c++/9.1.0/bits/locale_facets.h ****        *  @param __dfault  Char to return if conversion fails.
 561:/usr/include/c++/9.1.0/bits/locale_facets.h ****        *  @return  The converted char.
 562:/usr/include/c++/9.1.0/bits/locale_facets.h ****       */
 563:/usr/include/c++/9.1.0/bits/locale_facets.h ****       virtual char
 564:/usr/include/c++/9.1.0/bits/locale_facets.h ****       do_narrow(char_type __c, char __dfault) const = 0;
 565:/usr/include/c++/9.1.0/bits/locale_facets.h **** 
 566:/usr/include/c++/9.1.0/bits/locale_facets.h ****       /**
 567:/usr/include/c++/9.1.0/bits/locale_facets.h ****        *  @brief  Narrow char_type array to char
 568:/usr/include/c++/9.1.0/bits/locale_facets.h ****        *
 569:/usr/include/c++/9.1.0/bits/locale_facets.h ****        *  This virtual function converts each char_type in the range
 570:/usr/include/c++/9.1.0/bits/locale_facets.h ****        *  [__lo,__hi) to char using the simplest reasonable
 571:/usr/include/c++/9.1.0/bits/locale_facets.h ****        *  transformation and writes the results to the destination
 572:/usr/include/c++/9.1.0/bits/locale_facets.h ****        *  array.  For any element in the input that cannot be
 573:/usr/include/c++/9.1.0/bits/locale_facets.h ****        *  converted, @a __dfault is used instead.
 574:/usr/include/c++/9.1.0/bits/locale_facets.h ****        *
 575:/usr/include/c++/9.1.0/bits/locale_facets.h ****        *  do_narrow() is a hook for a derived facet to change the behavior of
 576:/usr/include/c++/9.1.0/bits/locale_facets.h ****        *  narrowing.  do_narrow() must always return the same result for the
 577:/usr/include/c++/9.1.0/bits/locale_facets.h ****        *  same input.
 578:/usr/include/c++/9.1.0/bits/locale_facets.h ****        *
 579:/usr/include/c++/9.1.0/bits/locale_facets.h ****        *  Note: this is not what you want for codepage conversions.  See
 580:/usr/include/c++/9.1.0/bits/locale_facets.h ****        *  codecvt for that.
 581:/usr/include/c++/9.1.0/bits/locale_facets.h ****        *
 582:/usr/include/c++/9.1.0/bits/locale_facets.h ****        *  @param __lo  Pointer to start of range.
 583:/usr/include/c++/9.1.0/bits/locale_facets.h ****        *  @param __hi  Pointer to end of range.
 584:/usr/include/c++/9.1.0/bits/locale_facets.h ****        *  @param __dfault  Char to use if conversion fails.
 585:/usr/include/c++/9.1.0/bits/locale_facets.h ****        *  @param __to  Pointer to the destination array.
 586:/usr/include/c++/9.1.0/bits/locale_facets.h ****        *  @return  @a __hi.
 587:/usr/include/c++/9.1.0/bits/locale_facets.h ****       */
 588:/usr/include/c++/9.1.0/bits/locale_facets.h ****       virtual const char_type*
 589:/usr/include/c++/9.1.0/bits/locale_facets.h ****       do_narrow(const char_type* __lo, const char_type* __hi,
 590:/usr/include/c++/9.1.0/bits/locale_facets.h **** 		char __dfault, char* __to) const = 0;
 591:/usr/include/c++/9.1.0/bits/locale_facets.h ****     };
 592:/usr/include/c++/9.1.0/bits/locale_facets.h **** 
 593:/usr/include/c++/9.1.0/bits/locale_facets.h ****   /**
 594:/usr/include/c++/9.1.0/bits/locale_facets.h ****    *  @brief  Primary class template ctype facet.
 595:/usr/include/c++/9.1.0/bits/locale_facets.h ****    *  @ingroup locales
 596:/usr/include/c++/9.1.0/bits/locale_facets.h ****    *
 597:/usr/include/c++/9.1.0/bits/locale_facets.h ****    *  This template class defines classification and conversion functions for
 598:/usr/include/c++/9.1.0/bits/locale_facets.h ****    *  character sets.  It wraps cctype functionality.  Ctype gets used by
 599:/usr/include/c++/9.1.0/bits/locale_facets.h ****    *  streams for many I/O operations.
 600:/usr/include/c++/9.1.0/bits/locale_facets.h ****    *
 601:/usr/include/c++/9.1.0/bits/locale_facets.h ****    *  This template provides the protected virtual functions the developer
 602:/usr/include/c++/9.1.0/bits/locale_facets.h ****    *  will have to replace in a derived class or specialization to make a
 603:/usr/include/c++/9.1.0/bits/locale_facets.h ****    *  working facet.  The public functions that access them are defined in
 604:/usr/include/c++/9.1.0/bits/locale_facets.h ****    *  __ctype_abstract_base, to allow for implementation flexibility.  See
 605:/usr/include/c++/9.1.0/bits/locale_facets.h ****    *  ctype<wchar_t> for an example.  The functions are documented in
 606:/usr/include/c++/9.1.0/bits/locale_facets.h ****    *  __ctype_abstract_base.
 607:/usr/include/c++/9.1.0/bits/locale_facets.h ****    *
 608:/usr/include/c++/9.1.0/bits/locale_facets.h ****    *  Note: implementations are provided for all the protected virtual
 609:/usr/include/c++/9.1.0/bits/locale_facets.h ****    *  functions, but will likely not be useful.
 610:/usr/include/c++/9.1.0/bits/locale_facets.h ****   */
 611:/usr/include/c++/9.1.0/bits/locale_facets.h ****   template<typename _CharT>
 612:/usr/include/c++/9.1.0/bits/locale_facets.h ****     class ctype : public __ctype_abstract_base<_CharT>
 613:/usr/include/c++/9.1.0/bits/locale_facets.h ****     {
 614:/usr/include/c++/9.1.0/bits/locale_facets.h ****     public:
 615:/usr/include/c++/9.1.0/bits/locale_facets.h ****       // Types:
 616:/usr/include/c++/9.1.0/bits/locale_facets.h ****       typedef _CharT			char_type;
GAS LISTING /tmp/ccK1lRdA.s 			page 50


 617:/usr/include/c++/9.1.0/bits/locale_facets.h ****       typedef typename __ctype_abstract_base<_CharT>::mask mask;
 618:/usr/include/c++/9.1.0/bits/locale_facets.h **** 
 619:/usr/include/c++/9.1.0/bits/locale_facets.h ****       /// The facet id for ctype<char_type>
 620:/usr/include/c++/9.1.0/bits/locale_facets.h ****       static locale::id			id;
 621:/usr/include/c++/9.1.0/bits/locale_facets.h **** 
 622:/usr/include/c++/9.1.0/bits/locale_facets.h ****       explicit
 623:/usr/include/c++/9.1.0/bits/locale_facets.h ****       ctype(size_t __refs = 0) : __ctype_abstract_base<_CharT>(__refs) { }
 624:/usr/include/c++/9.1.0/bits/locale_facets.h **** 
 625:/usr/include/c++/9.1.0/bits/locale_facets.h ****    protected:
 626:/usr/include/c++/9.1.0/bits/locale_facets.h ****       virtual
 627:/usr/include/c++/9.1.0/bits/locale_facets.h ****       ~ctype();
 628:/usr/include/c++/9.1.0/bits/locale_facets.h **** 
 629:/usr/include/c++/9.1.0/bits/locale_facets.h ****       virtual bool
 630:/usr/include/c++/9.1.0/bits/locale_facets.h ****       do_is(mask __m, char_type __c) const;
 631:/usr/include/c++/9.1.0/bits/locale_facets.h **** 
 632:/usr/include/c++/9.1.0/bits/locale_facets.h ****       virtual const char_type*
 633:/usr/include/c++/9.1.0/bits/locale_facets.h ****       do_is(const char_type* __lo, const char_type* __hi, mask* __vec) const;
 634:/usr/include/c++/9.1.0/bits/locale_facets.h **** 
 635:/usr/include/c++/9.1.0/bits/locale_facets.h ****       virtual const char_type*
 636:/usr/include/c++/9.1.0/bits/locale_facets.h ****       do_scan_is(mask __m, const char_type* __lo, const char_type* __hi) const;
 637:/usr/include/c++/9.1.0/bits/locale_facets.h **** 
 638:/usr/include/c++/9.1.0/bits/locale_facets.h ****       virtual const char_type*
 639:/usr/include/c++/9.1.0/bits/locale_facets.h ****       do_scan_not(mask __m, const char_type* __lo,
 640:/usr/include/c++/9.1.0/bits/locale_facets.h **** 		  const char_type* __hi) const;
 641:/usr/include/c++/9.1.0/bits/locale_facets.h **** 
 642:/usr/include/c++/9.1.0/bits/locale_facets.h ****       virtual char_type
 643:/usr/include/c++/9.1.0/bits/locale_facets.h ****       do_toupper(char_type __c) const;
 644:/usr/include/c++/9.1.0/bits/locale_facets.h **** 
 645:/usr/include/c++/9.1.0/bits/locale_facets.h ****       virtual const char_type*
 646:/usr/include/c++/9.1.0/bits/locale_facets.h ****       do_toupper(char_type* __lo, const char_type* __hi) const;
 647:/usr/include/c++/9.1.0/bits/locale_facets.h **** 
 648:/usr/include/c++/9.1.0/bits/locale_facets.h ****       virtual char_type
 649:/usr/include/c++/9.1.0/bits/locale_facets.h ****       do_tolower(char_type __c) const;
 650:/usr/include/c++/9.1.0/bits/locale_facets.h **** 
 651:/usr/include/c++/9.1.0/bits/locale_facets.h ****       virtual const char_type*
 652:/usr/include/c++/9.1.0/bits/locale_facets.h ****       do_tolower(char_type* __lo, const char_type* __hi) const;
 653:/usr/include/c++/9.1.0/bits/locale_facets.h **** 
 654:/usr/include/c++/9.1.0/bits/locale_facets.h ****       virtual char_type
 655:/usr/include/c++/9.1.0/bits/locale_facets.h ****       do_widen(char __c) const;
 656:/usr/include/c++/9.1.0/bits/locale_facets.h **** 
 657:/usr/include/c++/9.1.0/bits/locale_facets.h ****       virtual const char*
 658:/usr/include/c++/9.1.0/bits/locale_facets.h ****       do_widen(const char* __lo, const char* __hi, char_type* __dest) const;
 659:/usr/include/c++/9.1.0/bits/locale_facets.h **** 
 660:/usr/include/c++/9.1.0/bits/locale_facets.h ****       virtual char
 661:/usr/include/c++/9.1.0/bits/locale_facets.h ****       do_narrow(char_type, char __dfault) const;
 662:/usr/include/c++/9.1.0/bits/locale_facets.h **** 
 663:/usr/include/c++/9.1.0/bits/locale_facets.h ****       virtual const char_type*
 664:/usr/include/c++/9.1.0/bits/locale_facets.h ****       do_narrow(const char_type* __lo, const char_type* __hi,
 665:/usr/include/c++/9.1.0/bits/locale_facets.h **** 		char __dfault, char* __to) const;
 666:/usr/include/c++/9.1.0/bits/locale_facets.h ****     };
 667:/usr/include/c++/9.1.0/bits/locale_facets.h **** 
 668:/usr/include/c++/9.1.0/bits/locale_facets.h ****   template<typename _CharT>
 669:/usr/include/c++/9.1.0/bits/locale_facets.h ****     locale::id ctype<_CharT>::id;
 670:/usr/include/c++/9.1.0/bits/locale_facets.h **** 
 671:/usr/include/c++/9.1.0/bits/locale_facets.h ****   /**
 672:/usr/include/c++/9.1.0/bits/locale_facets.h ****    *  @brief  The ctype<char> specialization.
 673:/usr/include/c++/9.1.0/bits/locale_facets.h ****    *  @ingroup locales
GAS LISTING /tmp/ccK1lRdA.s 			page 51


 674:/usr/include/c++/9.1.0/bits/locale_facets.h ****    *
 675:/usr/include/c++/9.1.0/bits/locale_facets.h ****    *  This class defines classification and conversion functions for
 676:/usr/include/c++/9.1.0/bits/locale_facets.h ****    *  the char type.  It gets used by char streams for many I/O
 677:/usr/include/c++/9.1.0/bits/locale_facets.h ****    *  operations.  The char specialization provides a number of
 678:/usr/include/c++/9.1.0/bits/locale_facets.h ****    *  optimizations as well.
 679:/usr/include/c++/9.1.0/bits/locale_facets.h ****   */
 680:/usr/include/c++/9.1.0/bits/locale_facets.h ****   template<>
 681:/usr/include/c++/9.1.0/bits/locale_facets.h ****     class ctype<char> : public locale::facet, public ctype_base
 682:/usr/include/c++/9.1.0/bits/locale_facets.h ****     {
 683:/usr/include/c++/9.1.0/bits/locale_facets.h ****     public:
 684:/usr/include/c++/9.1.0/bits/locale_facets.h ****       // Types:
 685:/usr/include/c++/9.1.0/bits/locale_facets.h ****       /// Typedef for the template parameter char.
 686:/usr/include/c++/9.1.0/bits/locale_facets.h ****       typedef char		char_type;
 687:/usr/include/c++/9.1.0/bits/locale_facets.h **** 
 688:/usr/include/c++/9.1.0/bits/locale_facets.h ****     protected:
 689:/usr/include/c++/9.1.0/bits/locale_facets.h ****       // Data Members:
 690:/usr/include/c++/9.1.0/bits/locale_facets.h ****       __c_locale		_M_c_locale_ctype;
 691:/usr/include/c++/9.1.0/bits/locale_facets.h ****       bool			_M_del;
 692:/usr/include/c++/9.1.0/bits/locale_facets.h ****       __to_type			_M_toupper;
 693:/usr/include/c++/9.1.0/bits/locale_facets.h ****       __to_type			_M_tolower;
 694:/usr/include/c++/9.1.0/bits/locale_facets.h ****       const mask*		_M_table;
 695:/usr/include/c++/9.1.0/bits/locale_facets.h ****       mutable char		_M_widen_ok;
 696:/usr/include/c++/9.1.0/bits/locale_facets.h ****       mutable char		_M_widen[1 + static_cast<unsigned char>(-1)];
 697:/usr/include/c++/9.1.0/bits/locale_facets.h ****       mutable char		_M_narrow[1 + static_cast<unsigned char>(-1)];
 698:/usr/include/c++/9.1.0/bits/locale_facets.h ****       mutable char		_M_narrow_ok;	// 0 uninitialized, 1 init,
 699:/usr/include/c++/9.1.0/bits/locale_facets.h **** 						// 2 memcpy can't be used
 700:/usr/include/c++/9.1.0/bits/locale_facets.h **** 
 701:/usr/include/c++/9.1.0/bits/locale_facets.h ****     public:
 702:/usr/include/c++/9.1.0/bits/locale_facets.h ****       /// The facet id for ctype<char>
 703:/usr/include/c++/9.1.0/bits/locale_facets.h ****       static locale::id        id;
 704:/usr/include/c++/9.1.0/bits/locale_facets.h ****       /// The size of the mask table.  It is SCHAR_MAX + 1.
 705:/usr/include/c++/9.1.0/bits/locale_facets.h ****       static const size_t      table_size = 1 + static_cast<unsigned char>(-1);
 706:/usr/include/c++/9.1.0/bits/locale_facets.h **** 
 707:/usr/include/c++/9.1.0/bits/locale_facets.h ****       /**
 708:/usr/include/c++/9.1.0/bits/locale_facets.h ****        *  @brief  Constructor performs initialization.
 709:/usr/include/c++/9.1.0/bits/locale_facets.h ****        *
 710:/usr/include/c++/9.1.0/bits/locale_facets.h ****        *  This is the constructor provided by the standard.
 711:/usr/include/c++/9.1.0/bits/locale_facets.h ****        *
 712:/usr/include/c++/9.1.0/bits/locale_facets.h ****        *  @param __table If non-zero, table is used as the per-char mask.
 713:/usr/include/c++/9.1.0/bits/locale_facets.h ****        *               Else classic_table() is used.
 714:/usr/include/c++/9.1.0/bits/locale_facets.h ****        *  @param __del   If true, passes ownership of table to this facet.
 715:/usr/include/c++/9.1.0/bits/locale_facets.h ****        *  @param __refs  Passed to the base facet class.
 716:/usr/include/c++/9.1.0/bits/locale_facets.h ****       */
 717:/usr/include/c++/9.1.0/bits/locale_facets.h ****       explicit
 718:/usr/include/c++/9.1.0/bits/locale_facets.h ****       ctype(const mask* __table = 0, bool __del = false, size_t __refs = 0);
 719:/usr/include/c++/9.1.0/bits/locale_facets.h **** 
 720:/usr/include/c++/9.1.0/bits/locale_facets.h ****       /**
 721:/usr/include/c++/9.1.0/bits/locale_facets.h ****        *  @brief  Constructor performs static initialization.
 722:/usr/include/c++/9.1.0/bits/locale_facets.h ****        *
 723:/usr/include/c++/9.1.0/bits/locale_facets.h ****        *  This constructor is used to construct the initial C locale facet.
 724:/usr/include/c++/9.1.0/bits/locale_facets.h ****        *
 725:/usr/include/c++/9.1.0/bits/locale_facets.h ****        *  @param __cloc  Handle to C locale data.
 726:/usr/include/c++/9.1.0/bits/locale_facets.h ****        *  @param __table If non-zero, table is used as the per-char mask.
 727:/usr/include/c++/9.1.0/bits/locale_facets.h ****        *  @param __del   If true, passes ownership of table to this facet.
 728:/usr/include/c++/9.1.0/bits/locale_facets.h ****        *  @param __refs  Passed to the base facet class.
 729:/usr/include/c++/9.1.0/bits/locale_facets.h ****       */
 730:/usr/include/c++/9.1.0/bits/locale_facets.h ****       explicit
GAS LISTING /tmp/ccK1lRdA.s 			page 52


 731:/usr/include/c++/9.1.0/bits/locale_facets.h ****       ctype(__c_locale __cloc, const mask* __table = 0, bool __del = false,
 732:/usr/include/c++/9.1.0/bits/locale_facets.h **** 	    size_t __refs = 0);
 733:/usr/include/c++/9.1.0/bits/locale_facets.h **** 
 734:/usr/include/c++/9.1.0/bits/locale_facets.h ****       /**
 735:/usr/include/c++/9.1.0/bits/locale_facets.h ****        *  @brief  Test char classification.
 736:/usr/include/c++/9.1.0/bits/locale_facets.h ****        *
 737:/usr/include/c++/9.1.0/bits/locale_facets.h ****        *  This function compares the mask table[c] to @a __m.
 738:/usr/include/c++/9.1.0/bits/locale_facets.h ****        *
 739:/usr/include/c++/9.1.0/bits/locale_facets.h ****        *  @param __c  The char to compare the mask of.
 740:/usr/include/c++/9.1.0/bits/locale_facets.h ****        *  @param __m  The mask to compare against.
 741:/usr/include/c++/9.1.0/bits/locale_facets.h ****        *  @return  True if __m & table[__c] is true, false otherwise.
 742:/usr/include/c++/9.1.0/bits/locale_facets.h ****       */
 743:/usr/include/c++/9.1.0/bits/locale_facets.h ****       inline bool
 744:/usr/include/c++/9.1.0/bits/locale_facets.h ****       is(mask __m, char __c) const;
 745:/usr/include/c++/9.1.0/bits/locale_facets.h **** 
 746:/usr/include/c++/9.1.0/bits/locale_facets.h ****       /**
 747:/usr/include/c++/9.1.0/bits/locale_facets.h ****        *  @brief  Return a mask array.
 748:/usr/include/c++/9.1.0/bits/locale_facets.h ****        *
 749:/usr/include/c++/9.1.0/bits/locale_facets.h ****        *  This function finds the mask for each char in the range [lo, hi) and
 750:/usr/include/c++/9.1.0/bits/locale_facets.h ****        *  successively writes it to vec.  vec must have as many elements as
 751:/usr/include/c++/9.1.0/bits/locale_facets.h ****        *  the char array.
 752:/usr/include/c++/9.1.0/bits/locale_facets.h ****        *
 753:/usr/include/c++/9.1.0/bits/locale_facets.h ****        *  @param __lo  Pointer to start of range.
 754:/usr/include/c++/9.1.0/bits/locale_facets.h ****        *  @param __hi  Pointer to end of range.
 755:/usr/include/c++/9.1.0/bits/locale_facets.h ****        *  @param __vec  Pointer to an array of mask storage.
 756:/usr/include/c++/9.1.0/bits/locale_facets.h ****        *  @return  @a __hi.
 757:/usr/include/c++/9.1.0/bits/locale_facets.h ****       */
 758:/usr/include/c++/9.1.0/bits/locale_facets.h ****       inline const char*
 759:/usr/include/c++/9.1.0/bits/locale_facets.h ****       is(const char* __lo, const char* __hi, mask* __vec) const;
 760:/usr/include/c++/9.1.0/bits/locale_facets.h **** 
 761:/usr/include/c++/9.1.0/bits/locale_facets.h ****       /**
 762:/usr/include/c++/9.1.0/bits/locale_facets.h ****        *  @brief  Find char matching a mask
 763:/usr/include/c++/9.1.0/bits/locale_facets.h ****        *
 764:/usr/include/c++/9.1.0/bits/locale_facets.h ****        *  This function searches for and returns the first char in [lo,hi) for
 765:/usr/include/c++/9.1.0/bits/locale_facets.h ****        *  which is(m,char) is true.
 766:/usr/include/c++/9.1.0/bits/locale_facets.h ****        *
 767:/usr/include/c++/9.1.0/bits/locale_facets.h ****        *  @param __m  The mask to compare against.
 768:/usr/include/c++/9.1.0/bits/locale_facets.h ****        *  @param __lo  Pointer to start of range.
 769:/usr/include/c++/9.1.0/bits/locale_facets.h ****        *  @param __hi  Pointer to end of range.
 770:/usr/include/c++/9.1.0/bits/locale_facets.h ****        *  @return  Pointer to a matching char if found, else @a __hi.
 771:/usr/include/c++/9.1.0/bits/locale_facets.h ****       */
 772:/usr/include/c++/9.1.0/bits/locale_facets.h ****       inline const char*
 773:/usr/include/c++/9.1.0/bits/locale_facets.h ****       scan_is(mask __m, const char* __lo, const char* __hi) const;
 774:/usr/include/c++/9.1.0/bits/locale_facets.h **** 
 775:/usr/include/c++/9.1.0/bits/locale_facets.h ****       /**
 776:/usr/include/c++/9.1.0/bits/locale_facets.h ****        *  @brief  Find char not matching a mask
 777:/usr/include/c++/9.1.0/bits/locale_facets.h ****        *
 778:/usr/include/c++/9.1.0/bits/locale_facets.h ****        *  This function searches for and returns a pointer to the first char
 779:/usr/include/c++/9.1.0/bits/locale_facets.h ****        *  in [__lo,__hi) for which is(m,char) is false.
 780:/usr/include/c++/9.1.0/bits/locale_facets.h ****        *
 781:/usr/include/c++/9.1.0/bits/locale_facets.h ****        *  @param __m  The mask to compare against.
 782:/usr/include/c++/9.1.0/bits/locale_facets.h ****        *  @param __lo  Pointer to start of range.
 783:/usr/include/c++/9.1.0/bits/locale_facets.h ****        *  @param __hi  Pointer to end of range.
 784:/usr/include/c++/9.1.0/bits/locale_facets.h ****        *  @return  Pointer to a non-matching char if found, else @a __hi.
 785:/usr/include/c++/9.1.0/bits/locale_facets.h ****       */
 786:/usr/include/c++/9.1.0/bits/locale_facets.h ****       inline const char*
 787:/usr/include/c++/9.1.0/bits/locale_facets.h ****       scan_not(mask __m, const char* __lo, const char* __hi) const;
GAS LISTING /tmp/ccK1lRdA.s 			page 53


 788:/usr/include/c++/9.1.0/bits/locale_facets.h **** 
 789:/usr/include/c++/9.1.0/bits/locale_facets.h ****       /**
 790:/usr/include/c++/9.1.0/bits/locale_facets.h ****        *  @brief  Convert to uppercase.
 791:/usr/include/c++/9.1.0/bits/locale_facets.h ****        *
 792:/usr/include/c++/9.1.0/bits/locale_facets.h ****        *  This function converts the char argument to uppercase if possible.
 793:/usr/include/c++/9.1.0/bits/locale_facets.h ****        *  If not possible (for example, '2'), returns the argument.
 794:/usr/include/c++/9.1.0/bits/locale_facets.h ****        *
 795:/usr/include/c++/9.1.0/bits/locale_facets.h ****        *  toupper() acts as if it returns ctype<char>::do_toupper(c).
 796:/usr/include/c++/9.1.0/bits/locale_facets.h ****        *  do_toupper() must always return the same result for the same input.
 797:/usr/include/c++/9.1.0/bits/locale_facets.h ****        *
 798:/usr/include/c++/9.1.0/bits/locale_facets.h ****        *  @param __c  The char to convert.
 799:/usr/include/c++/9.1.0/bits/locale_facets.h ****        *  @return  The uppercase char if convertible, else @a __c.
 800:/usr/include/c++/9.1.0/bits/locale_facets.h ****       */
 801:/usr/include/c++/9.1.0/bits/locale_facets.h ****       char_type
 802:/usr/include/c++/9.1.0/bits/locale_facets.h ****       toupper(char_type __c) const
 803:/usr/include/c++/9.1.0/bits/locale_facets.h ****       { return this->do_toupper(__c); }
 804:/usr/include/c++/9.1.0/bits/locale_facets.h **** 
 805:/usr/include/c++/9.1.0/bits/locale_facets.h ****       /**
 806:/usr/include/c++/9.1.0/bits/locale_facets.h ****        *  @brief  Convert array to uppercase.
 807:/usr/include/c++/9.1.0/bits/locale_facets.h ****        *
 808:/usr/include/c++/9.1.0/bits/locale_facets.h ****        *  This function converts each char in the range [__lo,__hi) to uppercase
 809:/usr/include/c++/9.1.0/bits/locale_facets.h ****        *  if possible.  Other chars remain untouched.
 810:/usr/include/c++/9.1.0/bits/locale_facets.h ****        *
 811:/usr/include/c++/9.1.0/bits/locale_facets.h ****        *  toupper() acts as if it returns ctype<char>:: do_toupper(__lo, __hi).
 812:/usr/include/c++/9.1.0/bits/locale_facets.h ****        *  do_toupper() must always return the same result for the same input.
 813:/usr/include/c++/9.1.0/bits/locale_facets.h ****        *
 814:/usr/include/c++/9.1.0/bits/locale_facets.h ****        *  @param __lo  Pointer to first char in range.
 815:/usr/include/c++/9.1.0/bits/locale_facets.h ****        *  @param __hi  Pointer to end of range.
 816:/usr/include/c++/9.1.0/bits/locale_facets.h ****        *  @return  @a __hi.
 817:/usr/include/c++/9.1.0/bits/locale_facets.h ****       */
 818:/usr/include/c++/9.1.0/bits/locale_facets.h ****       const char_type*
 819:/usr/include/c++/9.1.0/bits/locale_facets.h ****       toupper(char_type *__lo, const char_type* __hi) const
 820:/usr/include/c++/9.1.0/bits/locale_facets.h ****       { return this->do_toupper(__lo, __hi); }
 821:/usr/include/c++/9.1.0/bits/locale_facets.h **** 
 822:/usr/include/c++/9.1.0/bits/locale_facets.h ****       /**
 823:/usr/include/c++/9.1.0/bits/locale_facets.h ****        *  @brief  Convert to lowercase.
 824:/usr/include/c++/9.1.0/bits/locale_facets.h ****        *
 825:/usr/include/c++/9.1.0/bits/locale_facets.h ****        *  This function converts the char argument to lowercase if possible.
 826:/usr/include/c++/9.1.0/bits/locale_facets.h ****        *  If not possible (for example, '2'), returns the argument.
 827:/usr/include/c++/9.1.0/bits/locale_facets.h ****        *
 828:/usr/include/c++/9.1.0/bits/locale_facets.h ****        *  tolower() acts as if it returns ctype<char>::do_tolower(__c).
 829:/usr/include/c++/9.1.0/bits/locale_facets.h ****        *  do_tolower() must always return the same result for the same input.
 830:/usr/include/c++/9.1.0/bits/locale_facets.h ****        *
 831:/usr/include/c++/9.1.0/bits/locale_facets.h ****        *  @param __c  The char to convert.
 832:/usr/include/c++/9.1.0/bits/locale_facets.h ****        *  @return  The lowercase char if convertible, else @a __c.
 833:/usr/include/c++/9.1.0/bits/locale_facets.h ****       */
 834:/usr/include/c++/9.1.0/bits/locale_facets.h ****       char_type
 835:/usr/include/c++/9.1.0/bits/locale_facets.h ****       tolower(char_type __c) const
 836:/usr/include/c++/9.1.0/bits/locale_facets.h ****       { return this->do_tolower(__c); }
 837:/usr/include/c++/9.1.0/bits/locale_facets.h **** 
 838:/usr/include/c++/9.1.0/bits/locale_facets.h ****       /**
 839:/usr/include/c++/9.1.0/bits/locale_facets.h ****        *  @brief  Convert array to lowercase.
 840:/usr/include/c++/9.1.0/bits/locale_facets.h ****        *
 841:/usr/include/c++/9.1.0/bits/locale_facets.h ****        *  This function converts each char in the range [lo,hi) to lowercase
 842:/usr/include/c++/9.1.0/bits/locale_facets.h ****        *  if possible.  Other chars remain untouched.
 843:/usr/include/c++/9.1.0/bits/locale_facets.h ****        *
 844:/usr/include/c++/9.1.0/bits/locale_facets.h ****        *  tolower() acts as if it returns ctype<char>:: do_tolower(__lo, __hi).
GAS LISTING /tmp/ccK1lRdA.s 			page 54


 845:/usr/include/c++/9.1.0/bits/locale_facets.h ****        *  do_tolower() must always return the same result for the same input.
 846:/usr/include/c++/9.1.0/bits/locale_facets.h ****        *
 847:/usr/include/c++/9.1.0/bits/locale_facets.h ****        *  @param __lo  Pointer to first char in range.
 848:/usr/include/c++/9.1.0/bits/locale_facets.h ****        *  @param __hi  Pointer to end of range.
 849:/usr/include/c++/9.1.0/bits/locale_facets.h ****        *  @return  @a __hi.
 850:/usr/include/c++/9.1.0/bits/locale_facets.h ****       */
 851:/usr/include/c++/9.1.0/bits/locale_facets.h ****       const char_type*
 852:/usr/include/c++/9.1.0/bits/locale_facets.h ****       tolower(char_type* __lo, const char_type* __hi) const
 853:/usr/include/c++/9.1.0/bits/locale_facets.h ****       { return this->do_tolower(__lo, __hi); }
 854:/usr/include/c++/9.1.0/bits/locale_facets.h **** 
 855:/usr/include/c++/9.1.0/bits/locale_facets.h ****       /**
 856:/usr/include/c++/9.1.0/bits/locale_facets.h ****        *  @brief  Widen char
 857:/usr/include/c++/9.1.0/bits/locale_facets.h ****        *
 858:/usr/include/c++/9.1.0/bits/locale_facets.h ****        *  This function converts the char to char_type using the simplest
 859:/usr/include/c++/9.1.0/bits/locale_facets.h ****        *  reasonable transformation.  For an underived ctype<char> facet, the
 860:/usr/include/c++/9.1.0/bits/locale_facets.h ****        *  argument will be returned unchanged.
 861:/usr/include/c++/9.1.0/bits/locale_facets.h ****        *
 862:/usr/include/c++/9.1.0/bits/locale_facets.h ****        *  This function works as if it returns ctype<char>::do_widen(c).
 863:/usr/include/c++/9.1.0/bits/locale_facets.h ****        *  do_widen() must always return the same result for the same input.
 864:/usr/include/c++/9.1.0/bits/locale_facets.h ****        *
 865:/usr/include/c++/9.1.0/bits/locale_facets.h ****        *  Note: this is not what you want for codepage conversions.  See
 866:/usr/include/c++/9.1.0/bits/locale_facets.h ****        *  codecvt for that.
 867:/usr/include/c++/9.1.0/bits/locale_facets.h ****        *
 868:/usr/include/c++/9.1.0/bits/locale_facets.h ****        *  @param __c  The char to convert.
 869:/usr/include/c++/9.1.0/bits/locale_facets.h ****        *  @return  The converted character.
 870:/usr/include/c++/9.1.0/bits/locale_facets.h ****       */
 871:/usr/include/c++/9.1.0/bits/locale_facets.h ****       char_type
 872:/usr/include/c++/9.1.0/bits/locale_facets.h ****       widen(char __c) const
 255              		.loc 6 872 7 is_stmt 1 view .LVU61
 256              	.LBB429:
 873:/usr/include/c++/9.1.0/bits/locale_facets.h ****       {
 874:/usr/include/c++/9.1.0/bits/locale_facets.h **** 	if (_M_widen_ok)
 257              		.loc 6 874 2 view .LVU62
 258 0121 41807C24 		cmpb	$0, 56(%r12)
 258      3800
 259 0127 742A     		je	.L16
 875:/usr/include/c++/9.1.0/bits/locale_facets.h **** 	  return _M_widen[static_cast<unsigned char>(__c)];
 260              		.loc 6 875 4 view .LVU63
 261              		.loc 6 875 51 is_stmt 0 view .LVU64
 262 0129 410FB674 		movzbl	67(%r12), %esi
 262      2443
 263              	.LVL33:
 264              	.L17:
 265              		.loc 6 875 51 view .LVU65
 266              	.LBE429:
 267              	.LBE428:
 268              	.LBE424:
 269              	.LBE423:
 270              		.loc 3 600 19 view .LVU66
 271 012f 400FBEF6 		movsbl	%sil, %esi
 272 0133 4889DF   		movq	%rbx, %rdi
 273 0136 E8000000 		call	_ZNSo3putEc@PLT
 273      00
 274              	.LVL34:
 275 013b 4889C7   		movq	%rax, %rdi
 276              	.LVL35:
 277              	.LBB434:
GAS LISTING /tmp/ccK1lRdA.s 			page 55


 278              	.LBI434:
 601:/usr/include/c++/9.1.0/ostream **** 
 602:/usr/include/c++/9.1.0/ostream ****   /**
 603:/usr/include/c++/9.1.0/ostream ****    *  @brief  Write a null character into the output sequence.
 604:/usr/include/c++/9.1.0/ostream ****    *
 605:/usr/include/c++/9.1.0/ostream ****    *  <em>Null character</em> is @c CharT() by definition.  For CharT
 606:/usr/include/c++/9.1.0/ostream ****    *  of @c char, this correctly writes the ASCII @c NUL character
 607:/usr/include/c++/9.1.0/ostream ****    *  string terminator.
 608:/usr/include/c++/9.1.0/ostream ****   */
 609:/usr/include/c++/9.1.0/ostream ****   template<typename _CharT, typename _Traits>
 610:/usr/include/c++/9.1.0/ostream ****     inline basic_ostream<_CharT, _Traits>&
 611:/usr/include/c++/9.1.0/ostream ****     ends(basic_ostream<_CharT, _Traits>& __os)
 612:/usr/include/c++/9.1.0/ostream ****     { return __os.put(_CharT()); }
 613:/usr/include/c++/9.1.0/ostream **** 
 614:/usr/include/c++/9.1.0/ostream ****   /**
 615:/usr/include/c++/9.1.0/ostream ****    *  @brief  Flushes the output stream.
 616:/usr/include/c++/9.1.0/ostream ****    *
 617:/usr/include/c++/9.1.0/ostream ****    *  This manipulator simply calls the stream's @c flush() member function.
 618:/usr/include/c++/9.1.0/ostream ****   */
 619:/usr/include/c++/9.1.0/ostream ****   template<typename _CharT, typename _Traits>
 620:/usr/include/c++/9.1.0/ostream ****     inline basic_ostream<_CharT, _Traits>&
 621:/usr/include/c++/9.1.0/ostream ****     flush(basic_ostream<_CharT, _Traits>& __os)
 279              		.loc 3 621 5 is_stmt 1 view .LVU67
 280              	.LBB435:
 622:/usr/include/c++/9.1.0/ostream ****     { return __os.flush(); }
 281              		.loc 3 622 25 is_stmt 0 view .LVU68
 282 013e E8000000 		call	_ZNSo5flushEv@PLT
 282      00
 283              	.LVL36:
 284              		.loc 3 622 25 view .LVU69
 285              	.LBE435:
 286              	.LBE434:
 287              	.LBE422:
 288              	.LBE421:
 289              	.LBE420:
 314:Src/main.cpp  ****     {
 290              		.loc 1 314 5 is_stmt 1 view .LVU70
 291 0143 4080FD1B 		cmpb	$27, %bpl
 292 0147 7425     		je	.L21
 293              	.L14:
 319:Src/main.cpp  **** 
 294              		.loc 1 319 1 is_stmt 0 view .LVU71
 295 0149 5B       		popq	%rbx
 296              		.cfi_remember_state
 297              		.cfi_def_cfa_offset 24
 298 014a 5D       		popq	%rbp
 299              		.cfi_def_cfa_offset 16
 300 014b 415C     		popq	%r12
 301              		.cfi_def_cfa_offset 8
 302 014d C3       		ret
 303              	.LVL37:
 304              	.L20:
 305              		.cfi_restore_state
 306              	.LBB439:
 307              	.LBB438:
 308              	.LBB437:
 309              	.LBB436:
GAS LISTING /tmp/ccK1lRdA.s 			page 56


 310              	.LBB433:
 311              	.LBB431:
 312              	.LBB427:
  50:/usr/include/c++/9.1.0/bits/basic_ios.h ****       return *__f;
 313              		.loc 5 50 18 view .LVU72
 314 014e E8000000 		call	_ZSt16__throw_bad_castv@PLT
 314      00
 315              	.LVL38:
 316              	.L16:
  50:/usr/include/c++/9.1.0/bits/basic_ios.h ****       return *__f;
 317              		.loc 5 50 18 view .LVU73
 318              	.LBE427:
 319              	.LBE431:
 320              	.LBB432:
 321              	.LBB430:
 876:/usr/include/c++/9.1.0/bits/locale_facets.h **** 	this->_M_widen_init();
 322              		.loc 6 876 2 is_stmt 1 view .LVU74
 323              		.loc 6 876 21 is_stmt 0 view .LVU75
 324 0153 4C89E7   		movq	%r12, %rdi
 325 0156 E8000000 		call	_ZNKSt5ctypeIcE13_M_widen_initEv@PLT
 325      00
 326              	.LVL39:
 877:/usr/include/c++/9.1.0/bits/locale_facets.h **** 	return this->do_widen(__c);
 327              		.loc 6 877 2 is_stmt 1 view .LVU76
 328              		.loc 6 877 27 is_stmt 0 view .LVU77
 329 015b 498B0424 		movq	(%r12), %rax
 330              		.loc 6 877 23 view .LVU78
 331 015f BE0A0000 		movl	$10, %esi
 331      00
 332 0164 4C89E7   		movq	%r12, %rdi
 333 0167 FF5030   		call	*48(%rax)
 334              	.LVL40:
 335 016a 89C6     		movl	%eax, %esi
 336              		.loc 6 877 27 view .LVU79
 337 016c EBC1     		jmp	.L17
 338              	.LVL41:
 339              	.L21:
 340              		.loc 6 877 27 view .LVU80
 341              	.LBE430:
 342              	.LBE432:
 343              	.LBE433:
 344              	.LBE436:
 345              	.LBE437:
 346              	.LBE438:
 347              	.LBE439:
 316:Src/main.cpp  **** 		terminated = true;
 348              		.loc 1 316 6 is_stmt 1 view .LVU81
 349              	.LBB440:
 350              	.LBI440:
 565:/usr/include/c++/9.1.0/ostream ****     {
 351              		.loc 3 565 5 view .LVU82
 565:/usr/include/c++/9.1.0/ostream ****     {
 352              		.loc 3 565 5 is_stmt 0 view .LVU83
 353              	.LBE440:
 354              		.loc 4 335 2 is_stmt 1 view .LVU84
 355              	.LBB442:
 356              	.LBB441:
GAS LISTING /tmp/ccK1lRdA.s 			page 57


 570:/usr/include/c++/9.1.0/ostream **** 			 static_cast<streamsize>(_Traits::length(__s)));
 357              		.loc 3 570 18 is_stmt 0 view .LVU85
 358 016e BA040000 		movl	$4, %edx
 358      00
 359 0173 488D3500 		leaq	.LC2(%rip), %rsi
 359      000000
 360 017a 488D3D00 		leaq	_ZSt4cout(%rip), %rdi
 360      000000
 361 0181 E8000000 		call	_ZSt16__ostream_insertIcSt11char_traitsIcEERSt13basic_ostreamIT_T0_ES6_PKS3_l@PLT
 361      00
 362              	.LVL42:
 570:/usr/include/c++/9.1.0/ostream **** 			 static_cast<streamsize>(_Traits::length(__s)));
 363              		.loc 3 570 18 view .LVU86
 364              	.LBE441:
 365              	.LBE442:
 317:Src/main.cpp  ****     }
 366              		.loc 1 317 3 is_stmt 1 view .LVU87
 317:Src/main.cpp  ****     }
 367              		.loc 1 317 14 is_stmt 0 view .LVU88
 368 0186 C6050000 		movb	$1, terminated(%rip)
 368      000001
 319:Src/main.cpp  **** 
 369              		.loc 1 319 1 view .LVU89
 370 018d EBBA     		jmp	.L14
 371              		.cfi_endproc
 372              	.LFE2486:
 374              		.globl	_Z12calculateWayv
 376              	_Z12calculateWayv:
 377              	.LFB2470:
  55:Src/main.cpp  **** 
 378              		.loc 1 55 1 is_stmt 1 view -0
 379              		.cfi_startproc
  57:Src/main.cpp  **** 
 380              		.loc 1 57 1 is_stmt 0 view .LVU91
 381 018f C3       		ret
 382              		.cfi_endproc
 383              	.LFE2470:
 385              		.globl	_Z10createVectPK8obstaclehf
 387              	_Z10createVectPK8obstaclehf:
 388              	.LVL43:
 389              	.LFB2471:
  69:Src/main.cpp  **** 	struct vect ret;
 390              		.loc 1 69 1 is_stmt 1 view -0
 391              		.cfi_startproc
  69:Src/main.cpp  **** 	struct vect ret;
 392              		.loc 1 69 1 is_stmt 0 view .LVU93
 393 0190 55       		pushq	%rbp
 394              		.cfi_def_cfa_offset 16
 395              		.cfi_offset 6, -16
 396 0191 53       		pushq	%rbx
 397              		.cfi_def_cfa_offset 24
 398              		.cfi_offset 3, -24
 399 0192 4883EC18 		subq	$24, %rsp
 400              		.cfi_def_cfa_offset 48
 401 0196 F30F1144 		movss	%xmm0, 12(%rsp)
 401      240C
  70:Src/main.cpp  **** 	ret.c  = (getCoordsOfCorner(obst, corner));
GAS LISTING /tmp/ccK1lRdA.s 			page 58


 402              		.loc 1 70 2 is_stmt 1 view .LVU94
  71:Src/main.cpp  **** 	ret.dx = QUAD_CHECK_SIDE;
 403              		.loc 1 71 2 view .LVU95
  71:Src/main.cpp  **** 	ret.dx = QUAD_CHECK_SIDE;
 404              		.loc 1 71 29 is_stmt 0 view .LVU96
 405 019c 400FB6F6 		movzbl	%sil, %esi
  71:Src/main.cpp  **** 	ret.dx = QUAD_CHECK_SIDE;
 406              		.loc 1 71 29 view .LVU97
 407 01a0 E8000000 		call	_Z17getCoordsOfCornerPK8obstacleh@PLT
 407      00
 408              	.LVL44:
  71:Src/main.cpp  **** 	ret.dx = QUAD_CHECK_SIDE;
 409              		.loc 1 71 29 view .LVU98
 410 01a5 4889C5   		movq	%rax, %rbp
 411              	.LVL45:
  72:Src/main.cpp  **** 	ret.dy = ret.dx * tan(angle / 180 * PI);
 412              		.loc 1 72 2 is_stmt 1 view .LVU99
  72:Src/main.cpp  **** 	ret.dy = ret.dx * tan(angle / 180 * PI);
 413              		.loc 1 72 9 is_stmt 0 view .LVU100
 414 01a8 488B0500 		movq	QUAD_CHECK_SIDE(%rip), %rax
 414      000000
 415 01af 4885C0   		testq	%rax, %rax
 416 01b2 7860     		js	.L24
 417 01b4 660FEFC0 		pxor	%xmm0, %xmm0
 418 01b8 F3480F2A 		cvtsi2ssq	%rax, %xmm0
 418      C0
 419              	.L25:
 420 01bd 660F7EC3 		movd	%xmm0, %ebx
  73:Src/main.cpp  **** 
 421              		.loc 1 73 2 is_stmt 1 view .LVU101
  73:Src/main.cpp  **** 
 422              		.loc 1 73 15 is_stmt 0 view .LVU102
 423 01c1 660FEFD2 		pxor	%xmm2, %xmm2
 424 01c5 F30F5AD0 		cvtss2sd	%xmm0, %xmm2
 425 01c9 F20F1114 		movsd	%xmm2, (%rsp)
 425      24
  73:Src/main.cpp  **** 
 426              		.loc 1 73 30 view .LVU103
 427 01ce F30F1044 		movss	12(%rsp), %xmm0
 427      240C
 428 01d4 F30F5E05 		divss	.LC3(%rip), %xmm0
 428      00000000 
 429 01dc F30F5AC0 		cvtss2sd	%xmm0, %xmm0
  73:Src/main.cpp  **** 
 430              		.loc 1 73 23 view .LVU104
 431 01e0 F20F5905 		mulsd	.LC4(%rip), %xmm0
 431      00000000 
 432 01e8 E8000000 		call	tan@PLT
 432      00
 433              	.LVL46:
  73:Src/main.cpp  **** 
 434              		.loc 1 73 18 view .LVU105
 435 01ed F20F5904 		mulsd	(%rsp), %xmm0
 435      24
  73:Src/main.cpp  **** 
 436              		.loc 1 73 9 view .LVU106
 437 01f2 660FEFDB 		pxor	%xmm3, %xmm3
GAS LISTING /tmp/ccK1lRdA.s 			page 59


 438 01f6 F20F5AD8 		cvtsd2ss	%xmm0, %xmm3
 439 01fa 660F7ED8 		movd	%xmm3, %eax
 440 01fe 48C1E020 		salq	$32, %rax
 441 0202 4809C3   		orq	%rax, %rbx
  80:Src/main.cpp  **** }
 442              		.loc 1 80 2 is_stmt 1 view .LVU107
  81:Src/main.cpp  **** 
 443              		.loc 1 81 1 is_stmt 0 view .LVU108
 444 0205 4889E8   		movq	%rbp, %rax
 445 0208 66480F6E 		movq	%rbx, %xmm0
 445      C3
 446 020d 4883C418 		addq	$24, %rsp
 447              		.cfi_remember_state
 448              		.cfi_def_cfa_offset 24
 449 0211 5B       		popq	%rbx
 450              		.cfi_def_cfa_offset 16
 451 0212 5D       		popq	%rbp
 452              		.cfi_def_cfa_offset 8
  81:Src/main.cpp  **** 
 453              		.loc 1 81 1 view .LVU109
 454 0213 C3       		ret
 455              	.L24:
 456              		.cfi_restore_state
  72:Src/main.cpp  **** 	ret.dy = ret.dx * tan(angle / 180 * PI);
 457              		.loc 1 72 9 view .LVU110
 458 0214 4889C2   		movq	%rax, %rdx
 459 0217 48D1EA   		shrq	%rdx
 460 021a 83E001   		andl	$1, %eax
 461 021d 4809C2   		orq	%rax, %rdx
 462 0220 660FEFC0 		pxor	%xmm0, %xmm0
 463 0224 F3480F2A 		cvtsi2ssq	%rdx, %xmm0
 463      C2
 464 0229 F30F58C0 		addss	%xmm0, %xmm0
 465 022d EB8E     		jmp	.L25
 466              		.cfi_endproc
 467              	.LFE2471:
 469              		.section	.rodata.str1.1
 470              	.LC5:
 471 000e 496E6372 		.string	"Increacing radius\n"
 471      65616369 
 471      6E672072 
 471      61646975 
 471      730A00
 472              	.LC6:
 473 0021 53697A65 		.string	"Size: "
 473      3A2000
 474              		.text
 475              		.globl	_Z10getDataSetPK8obstacleh
 477              	_Z10getDataSetPK8obstacleh:
 478              	.LVL47:
 479              	.LFB2475:
  84:Src/main.cpp  **** 	struct graphPoint *p = getPoint(obst, corner);
 480              		.loc 1 84 1 is_stmt 1 view -0
 481              		.cfi_startproc
  84:Src/main.cpp  **** 	struct graphPoint *p = getPoint(obst, corner);
 482              		.loc 1 84 1 is_stmt 0 view .LVU112
 483 022f 4157     		pushq	%r15
GAS LISTING /tmp/ccK1lRdA.s 			page 60


 484              		.cfi_def_cfa_offset 16
 485              		.cfi_offset 15, -16
 486 0231 4156     		pushq	%r14
 487              		.cfi_def_cfa_offset 24
 488              		.cfi_offset 14, -24
 489 0233 4155     		pushq	%r13
 490              		.cfi_def_cfa_offset 32
 491              		.cfi_offset 13, -32
 492 0235 4154     		pushq	%r12
 493              		.cfi_def_cfa_offset 40
 494              		.cfi_offset 12, -40
 495 0237 55       		pushq	%rbp
 496              		.cfi_def_cfa_offset 48
 497              		.cfi_offset 6, -48
 498 0238 53       		pushq	%rbx
 499              		.cfi_def_cfa_offset 56
 500              		.cfi_offset 3, -56
 501 0239 4883EC08 		subq	$8, %rsp
 502              		.cfi_def_cfa_offset 64
 503 023d 4989FC   		movq	%rdi, %r12
  85:Src/main.cpp  **** 	size_t size = 0;
 504              		.loc 1 85 2 is_stmt 1 view .LVU113
  85:Src/main.cpp  **** 	size_t size = 0;
 505              		.loc 1 85 33 is_stmt 0 view .LVU114
 506 0240 400FB6EE 		movzbl	%sil, %ebp
 507 0244 89EE     		movl	%ebp, %esi
  85:Src/main.cpp  **** 	size_t size = 0;
 508              		.loc 1 85 33 view .LVU115
 509 0246 E8000000 		call	_Z8getPointPK8obstacleh@PLT
 509      00
 510              	.LVL48:
  86:Src/main.cpp  **** 	while (size < 2) {
 511              		.loc 1 86 2 is_stmt 1 view .LVU116
  86:Src/main.cpp  **** 	while (size < 2) {
 512              		.loc 1 86 9 is_stmt 0 view .LVU117
 513 024b 41BD0000 		movl	$0, %r13d
 513      0000
 514 0251 E9AE0000 		jmp	.L28
 514      00
 515              	.LVL49:
 516              	.L33:
 517              	.LBB474:
 518              	.LBB475:
  89:Src/main.cpp  **** 		{
 519              		.loc 1 89 3 discriminator 2 view .LVU118
 520 0256 4883C301 		addq	$1, %rbx
 521              	.LVL50:
 522              	.L38:
  89:Src/main.cpp  **** 		{
 523              		.loc 1 89 23 discriminator 1 view .LVU119
 524 025a 48391D00 		cmpq	%rbx, numOfObstacles(%rip)
 524      000000
 525 0261 0F869700 		jbe	.L30
 525      0000
 526              	.LBB476:
  91:Src/main.cpp  **** 			if(obstacles[i].c->x + obstacles[i].a >= c->x - QUAD_CHECK_SIDE / 2
 527              		.loc 1 91 4 is_stmt 1 view .LVU120
GAS LISTING /tmp/ccK1lRdA.s 			page 61


  91:Src/main.cpp  **** 			if(obstacles[i].c->x + obstacles[i].a >= c->x - QUAD_CHECK_SIDE / 2
 528              		.loc 1 91 40 is_stmt 0 view .LVU121
 529 0267 89EE     		movl	%ebp, %esi
 530 0269 4C89E7   		movq	%r12, %rdi
 531 026c E8000000 		call	_Z17getCoordsOfCornerPK8obstacleh@PLT
 531      00
 532              	.LVL51:
  92:Src/main.cpp  **** 			&& obstacles[i].c->x <= c->x + obstacles[i].a + QUAD_CHECK_SIDE / 2
 533              		.loc 1 92 4 is_stmt 1 view .LVU122
  92:Src/main.cpp  **** 			&& obstacles[i].c->x <= c->x + obstacles[i].a + QUAD_CHECK_SIDE / 2
 534              		.loc 1 92 18 is_stmt 0 view .LVU123
 535 0271 488D145B 		leaq	(%rbx,%rbx,2), %rdx
 536 0275 48C1E204 		salq	$4, %rdx
 537 0279 48031500 		addq	obstacles(%rip), %rdx
 537      000000
  92:Src/main.cpp  **** 			&& obstacles[i].c->x <= c->x + obstacles[i].a + QUAD_CHECK_SIDE / 2
 538              		.loc 1 92 20 view .LVU124
 539 0280 488B0A   		movq	(%rdx), %rcx
  92:Src/main.cpp  **** 			&& obstacles[i].c->x <= c->x + obstacles[i].a + QUAD_CHECK_SIDE / 2
 540              		.loc 1 92 23 view .LVU125
 541 0283 F30F1019 		movss	(%rcx), %xmm3
  92:Src/main.cpp  **** 			&& obstacles[i].c->x <= c->x + obstacles[i].a + QUAD_CHECK_SIDE / 2
 542              		.loc 1 92 40 view .LVU126
 543 0287 F30F1052 		movss	40(%rdx), %xmm2
 543      28
  92:Src/main.cpp  **** 			&& obstacles[i].c->x <= c->x + obstacles[i].a + QUAD_CHECK_SIDE / 2
 544              		.loc 1 92 25 view .LVU127
 545 028c 0F28EB   		movaps	%xmm3, %xmm5
 546 028f F30F58EA 		addss	%xmm2, %xmm5
  92:Src/main.cpp  **** 			&& obstacles[i].c->x <= c->x + obstacles[i].a + QUAD_CHECK_SIDE / 2
 547              		.loc 1 92 48 view .LVU128
 548 0293 F30F1008 		movss	(%rax), %xmm1
  92:Src/main.cpp  **** 			&& obstacles[i].c->x <= c->x + obstacles[i].a + QUAD_CHECK_SIDE / 2
 549              		.loc 1 92 68 view .LVU129
 550 0297 488B1500 		movq	QUAD_CHECK_SIDE(%rip), %rdx
 550      000000
 551 029e 48D1EA   		shrq	%rdx
  92:Src/main.cpp  **** 			&& obstacles[i].c->x <= c->x + obstacles[i].a + QUAD_CHECK_SIDE / 2
 552              		.loc 1 92 50 view .LVU130
 553 02a1 660FEFC0 		pxor	%xmm0, %xmm0
 554 02a5 F3480F2A 		cvtsi2ssq	%rdx, %xmm0
 554      C2
 555 02aa 0F28E1   		movaps	%xmm1, %xmm4
 556 02ad F30F5CE0 		subss	%xmm0, %xmm4
  92:Src/main.cpp  **** 			&& obstacles[i].c->x <= c->x + obstacles[i].a + QUAD_CHECK_SIDE / 2
 557              		.loc 1 92 4 view .LVU131
 558 02b1 0F2FEC   		comiss	%xmm4, %xmm5
 559 02b4 72A0     		jb	.L33
  93:Src/main.cpp  **** 			&& obstacles[i].c->y + obstacles[i].a >= c->y - QUAD_CHECK_SIDE / 2
 560              		.loc 1 93 33 view .LVU132
 561 02b6 F30F58CA 		addss	%xmm2, %xmm1
  93:Src/main.cpp  **** 			&& obstacles[i].c->y + obstacles[i].a >= c->y - QUAD_CHECK_SIDE / 2
 562              		.loc 1 93 50 view .LVU133
 563 02ba F30F58C8 		addss	%xmm0, %xmm1
  93:Src/main.cpp  **** 			&& obstacles[i].c->y + obstacles[i].a >= c->y - QUAD_CHECK_SIDE / 2
 564              		.loc 1 93 4 view .LVU134
 565 02be 0F2FCB   		comiss	%xmm3, %xmm1
GAS LISTING /tmp/ccK1lRdA.s 			page 62


 566 02c1 7293     		jb	.L33
  94:Src/main.cpp  **** 			&& obstacles[i].c->y <= c->y + obstacles[i].a + QUAD_CHECK_SIDE / 2)
 567              		.loc 1 94 23 view .LVU135
 568 02c3 F30F1049 		movss	4(%rcx), %xmm1
 568      04
  94:Src/main.cpp  **** 			&& obstacles[i].c->y <= c->y + obstacles[i].a + QUAD_CHECK_SIDE / 2)
 569              		.loc 1 94 25 view .LVU136
 570 02c8 0F28EA   		movaps	%xmm2, %xmm5
 571 02cb F30F58E9 		addss	%xmm1, %xmm5
  94:Src/main.cpp  **** 			&& obstacles[i].c->y <= c->y + obstacles[i].a + QUAD_CHECK_SIDE / 2)
 572              		.loc 1 94 48 view .LVU137
 573 02cf F30F1058 		movss	4(%rax), %xmm3
 573      04
  94:Src/main.cpp  **** 			&& obstacles[i].c->y <= c->y + obstacles[i].a + QUAD_CHECK_SIDE / 2)
 574              		.loc 1 94 50 view .LVU138
 575 02d4 0F28E3   		movaps	%xmm3, %xmm4
 576 02d7 F30F5CE0 		subss	%xmm0, %xmm4
  94:Src/main.cpp  **** 			&& obstacles[i].c->y <= c->y + obstacles[i].a + QUAD_CHECK_SIDE / 2)
 577              		.loc 1 94 4 view .LVU139
 578 02db 0F2FEC   		comiss	%xmm4, %xmm5
 579 02de 0F8272FF 		jb	.L33
 579      FFFF
  95:Src/main.cpp  **** 				size++;
 580              		.loc 1 95 33 view .LVU140
 581 02e4 F30F58D3 		addss	%xmm3, %xmm2
  95:Src/main.cpp  **** 				size++;
 582              		.loc 1 95 50 view .LVU141
 583 02e8 F30F58C2 		addss	%xmm2, %xmm0
  95:Src/main.cpp  **** 				size++;
 584              		.loc 1 95 4 view .LVU142
 585 02ec 0F2FC1   		comiss	%xmm1, %xmm0
 586 02ef 0F8261FF 		jb	.L33
 586      FFFF
  96:Src/main.cpp  **** 		}
 587              		.loc 1 96 5 is_stmt 1 view .LVU143
  96:Src/main.cpp  **** 		}
 588              		.loc 1 96 9 is_stmt 0 view .LVU144
 589 02f5 4983C501 		addq	$1, %r13
 590              	.LVL52:
  96:Src/main.cpp  **** 		}
 591              		.loc 1 96 9 view .LVU145
 592 02f9 E958FFFF 		jmp	.L33
 592      FF
 593              	.LVL53:
 594              	.L30:
  96:Src/main.cpp  **** 		}
 595              		.loc 1 96 9 view .LVU146
 596              	.LBE476:
 597              	.LBE475:
  98:Src/main.cpp  **** 		{
 598              		.loc 1 98 3 is_stmt 1 view .LVU147
 599 02fe 4983FD01 		cmpq	$1, %r13
 600 0302 7616     		jbe	.L61
 601              	.LVL54:
 602              	.L28:
  98:Src/main.cpp  **** 		{
 603              		.loc 1 98 3 is_stmt 0 view .LVU148
GAS LISTING /tmp/ccK1lRdA.s 			page 63


 604              	.LBE474:
  87:Src/main.cpp  **** 		size = 0;
 605              		.loc 1 87 2 is_stmt 1 view .LVU149
  87:Src/main.cpp  **** 		size = 0;
 606              		.loc 1 87 14 is_stmt 0 view .LVU150
 607 0304 4983FD01 		cmpq	$1, %r13
 608 0308 7732     		ja	.L29
 609              	.LBB481:
 610              	.LBB477:
  89:Src/main.cpp  **** 		{
 611              		.loc 1 89 14 view .LVU151
 612 030a BB000000 		movl	$0, %ebx
 612      00
 613              	.LBE477:
  88:Src/main.cpp  **** 		for(size_t i = 0; i < numOfObstacles; i++)
 614              		.loc 1 88 8 view .LVU152
 615 030f 41BD0000 		movl	$0, %r13d
 615      0000
 616              	.LVL55:
  88:Src/main.cpp  **** 		for(size_t i = 0; i < numOfObstacles; i++)
 617              		.loc 1 88 8 view .LVU153
 618 0315 E940FFFF 		jmp	.L38
 618      FF
 619              	.LVL56:
 620              	.L61:
 100:Src/main.cpp  **** 			QUAD_CHECK_SIDE += 40;
 621              		.loc 1 100 4 is_stmt 1 view .LVU154
 622              	.LBB478:
 623              	.LBI478:
 565:/usr/include/c++/9.1.0/ostream ****     {
 624              		.loc 3 565 5 view .LVU155
 565:/usr/include/c++/9.1.0/ostream ****     {
 625              		.loc 3 565 5 is_stmt 0 view .LVU156
 626              	.LBE478:
 627              	.LBE481:
 628              		.loc 4 335 2 is_stmt 1 view .LVU157
 629              	.LBB482:
 630              	.LBB480:
 631              	.LBB479:
 570:/usr/include/c++/9.1.0/ostream **** 			 static_cast<streamsize>(_Traits::length(__s)));
 632              		.loc 3 570 18 is_stmt 0 view .LVU158
 633 031a BA120000 		movl	$18, %edx
 633      00
 634 031f 488D3500 		leaq	.LC5(%rip), %rsi
 634      000000
 635 0326 488D3D00 		leaq	_ZSt4cout(%rip), %rdi
 635      000000
 636 032d E8000000 		call	_ZSt16__ostream_insertIcSt11char_traitsIcEERSt13basic_ostreamIT_T0_ES6_PKS3_l@PLT
 636      00
 637              	.LVL57:
 570:/usr/include/c++/9.1.0/ostream **** 			 static_cast<streamsize>(_Traits::length(__s)));
 638              		.loc 3 570 18 view .LVU159
 639              	.LBE479:
 640              	.LBE480:
 101:Src/main.cpp  **** 		}
 641              		.loc 1 101 4 is_stmt 1 view .LVU160
 101:Src/main.cpp  **** 		}
GAS LISTING /tmp/ccK1lRdA.s 			page 64


 642              		.loc 1 101 20 is_stmt 0 view .LVU161
 643 0332 48830500 		addq	$40, QUAD_CHECK_SIDE(%rip)
 643      00000028 
 644 033a EBC8     		jmp	.L28
 645              	.LVL58:
 646              	.L29:
 101:Src/main.cpp  **** 		}
 647              		.loc 1 101 20 view .LVU162
 648              	.LBE482:
 104:Src/main.cpp  **** 	size_t iter = 0;
 649              		.loc 1 104 2 is_stmt 1 view .LVU163
 650              	.LBB483:
 651              	.LBI483:
 565:/usr/include/c++/9.1.0/ostream ****     {
 652              		.loc 3 565 5 view .LVU164
 565:/usr/include/c++/9.1.0/ostream ****     {
 653              		.loc 3 565 5 is_stmt 0 view .LVU165
 654              	.LBE483:
 655              		.loc 4 335 2 is_stmt 1 view .LVU166
 656              	.LBB485:
 657              	.LBB484:
 570:/usr/include/c++/9.1.0/ostream **** 			 static_cast<streamsize>(_Traits::length(__s)));
 658              		.loc 3 570 18 is_stmt 0 view .LVU167
 659 033c BA060000 		movl	$6, %edx
 659      00
 660 0341 488D3500 		leaq	.LC6(%rip), %rsi
 660      000000
 661 0348 488D3D00 		leaq	_ZSt4cout(%rip), %rdi
 661      000000
 662 034f E8000000 		call	_ZSt16__ostream_insertIcSt11char_traitsIcEERSt13basic_ostreamIT_T0_ES6_PKS3_l@PLT
 662      00
 663              	.LVL59:
 570:/usr/include/c++/9.1.0/ostream **** 			 static_cast<streamsize>(_Traits::length(__s)));
 664              		.loc 3 570 18 view .LVU168
 665              	.LBE484:
 666              	.LBE485:
 667              	.LBB486:
 668              	.LBI486:
 170:/usr/include/c++/9.1.0/ostream ****       { return _M_insert(__n); }
 669              		.loc 3 170 7 is_stmt 1 view .LVU169
 670              	.LBB487:
 171:/usr/include/c++/9.1.0/ostream **** 
 671              		.loc 3 171 29 is_stmt 0 view .LVU170
 672 0354 4C89EE   		movq	%r13, %rsi
 673 0357 488D3D00 		leaq	_ZSt4cout(%rip), %rdi
 673      000000
 674 035e E8000000 		call	_ZNSo9_M_insertImEERSoT_@PLT
 674      00
 675              	.LVL60:
 676 0363 4889C3   		movq	%rax, %rbx
 677              	.LVL61:
 171:/usr/include/c++/9.1.0/ostream **** 
 678              		.loc 3 171 29 view .LVU171
 679              	.LBE487:
 680              	.LBE486:
 681              	.LBB488:
 682              	.LBI488:
GAS LISTING /tmp/ccK1lRdA.s 			page 65


 108:/usr/include/c++/9.1.0/ostream ****       {
 683              		.loc 3 108 7 is_stmt 1 view .LVU172
 684              	.LBB489:
 685              	.LBI489:
 599:/usr/include/c++/9.1.0/ostream ****     { return flush(__os.put(__os.widen('\n'))); }
 686              		.loc 3 599 5 view .LVU173
 687              	.LBB490:
 600:/usr/include/c++/9.1.0/ostream **** 
 688              		.loc 3 600 19 is_stmt 0 view .LVU174
 689 0366 488B00   		movq	(%rax), %rax
 690              	.LVL62:
 600:/usr/include/c++/9.1.0/ostream **** 
 691              		.loc 3 600 19 view .LVU175
 692 0369 4889DF   		movq	%rbx, %rdi
 693 036c 480378E8 		addq	-24(%rax), %rdi
 694              	.LVL63:
 695              	.LBB491:
 696              	.LBI491:
 449:/usr/include/c++/9.1.0/bits/basic_ios.h ****       { return __check_facet(_M_ctype).widen(__c); }
 697              		.loc 5 449 7 is_stmt 1 view .LVU176
 698              	.LBB492:
 699              		.loc 5 450 30 is_stmt 0 view .LVU177
 700 0370 4C8BB7F0 		movq	240(%rdi), %r14
 700      000000
 701              	.LVL64:
 702              	.LBB493:
 703              	.LBI493:
  47:/usr/include/c++/9.1.0/bits/basic_ios.h ****     {
 704              		.loc 5 47 5 is_stmt 1 view .LVU178
 705              	.LBB494:
  49:/usr/include/c++/9.1.0/bits/basic_ios.h **** 	__throw_bad_cast();
 706              		.loc 5 49 7 is_stmt 0 view .LVU179
 707 0377 4D85F6   		testq	%r14, %r14
 708 037a 743C     		je	.L62
 709              	.LVL65:
  49:/usr/include/c++/9.1.0/bits/basic_ios.h **** 	__throw_bad_cast();
 710              		.loc 5 49 7 view .LVU180
 711              	.LBE494:
 712              	.LBE493:
 713              	.LBB496:
 714              	.LBI496:
 872:/usr/include/c++/9.1.0/bits/locale_facets.h ****       {
 715              		.loc 6 872 7 is_stmt 1 view .LVU181
 716              	.LBB497:
 874:/usr/include/c++/9.1.0/bits/locale_facets.h **** 	  return _M_widen[static_cast<unsigned char>(__c)];
 717              		.loc 6 874 2 view .LVU182
 718 037c 41807E38 		cmpb	$0, 56(%r14)
 718      00
 719 0381 743A     		je	.L41
 875:/usr/include/c++/9.1.0/bits/locale_facets.h **** 	this->_M_widen_init();
 720              		.loc 6 875 4 view .LVU183
 875:/usr/include/c++/9.1.0/bits/locale_facets.h **** 	this->_M_widen_init();
 721              		.loc 6 875 51 is_stmt 0 view .LVU184
 722 0383 410FB646 		movzbl	67(%r14), %eax
 722      43
 723              	.LVL66:
 724              	.L42:
GAS LISTING /tmp/ccK1lRdA.s 			page 66


 875:/usr/include/c++/9.1.0/bits/locale_facets.h **** 	this->_M_widen_init();
 725              		.loc 6 875 51 view .LVU185
 726              	.LBE497:
 727              	.LBE496:
 728              	.LBE492:
 729              	.LBE491:
 600:/usr/include/c++/9.1.0/ostream **** 
 730              		.loc 3 600 19 view .LVU186
 731 0388 0FBEF0   		movsbl	%al, %esi
 732 038b 4889DF   		movq	%rbx, %rdi
 733 038e E8000000 		call	_ZNSo3putEc@PLT
 733      00
 734              	.LVL67:
 735 0393 4889C7   		movq	%rax, %rdi
 736              	.LVL68:
 737              	.LBB502:
 738              	.LBI502:
 621:/usr/include/c++/9.1.0/ostream ****     { return __os.flush(); }
 739              		.loc 3 621 5 is_stmt 1 view .LVU187
 740              	.LBB503:
 741              		.loc 3 622 25 is_stmt 0 view .LVU188
 742 0396 E8000000 		call	_ZNSo5flushEv@PLT
 742      00
 743              	.LVL69:
 744              		.loc 3 622 25 view .LVU189
 745              	.LBE503:
 746              	.LBE502:
 747              	.LBE490:
 748              	.LBE489:
 749              	.LBE488:
 105:Src/main.cpp  **** 	struct obstacle **obsts = (struct obstacle**)malloc(sizeof(struct obstacle*) * size);
 750              		.loc 1 105 2 is_stmt 1 view .LVU190
 106:Src/main.cpp  **** 	for(size_t i = 0; i < numOfObstacles; i++)
 751              		.loc 1 106 2 view .LVU191
 106:Src/main.cpp  **** 	for(size_t i = 0; i < numOfObstacles; i++)
 752              		.loc 1 106 53 is_stmt 0 view .LVU192
 753 039b 4A8D3CED 		leaq	0(,%r13,8), %rdi
 753      00000000 
 754 03a3 E8000000 		call	malloc@PLT
 754      00
 755              	.LVL70:
 756 03a8 4989C6   		movq	%rax, %r14
 757              	.LVL71:
 107:Src/main.cpp  **** 	{
 758              		.loc 1 107 2 is_stmt 1 view .LVU193
 759              	.LBB507:
 107:Src/main.cpp  **** 	{
 760              		.loc 1 107 13 is_stmt 0 view .LVU194
 761 03ab BB000000 		movl	$0, %ebx
 761      00
 762              	.LBE507:
 105:Src/main.cpp  **** 	struct obstacle **obsts = (struct obstacle**)malloc(sizeof(struct obstacle*) * size);
 763              		.loc 1 105 9 view .LVU195
 764 03b0 41BF0000 		movl	$0, %r15d
 764      0000
 765 03b6 EB21     		jmp	.L51
 766              	.LVL72:
GAS LISTING /tmp/ccK1lRdA.s 			page 67


 767              	.L62:
 768              	.LBB509:
 769              	.LBB506:
 770              	.LBB505:
 771              	.LBB504:
 772              	.LBB501:
 773              	.LBB499:
 774              	.LBB495:
  50:/usr/include/c++/9.1.0/bits/basic_ios.h ****       return *__f;
 775              		.loc 5 50 18 view .LVU196
 776 03b8 E8000000 		call	_ZSt16__throw_bad_castv@PLT
 776      00
 777              	.LVL73:
 778              	.L41:
  50:/usr/include/c++/9.1.0/bits/basic_ios.h ****       return *__f;
 779              		.loc 5 50 18 view .LVU197
 780              	.LBE495:
 781              	.LBE499:
 782              	.LBB500:
 783              	.LBB498:
 876:/usr/include/c++/9.1.0/bits/locale_facets.h **** 	return this->do_widen(__c);
 784              		.loc 6 876 2 is_stmt 1 view .LVU198
 876:/usr/include/c++/9.1.0/bits/locale_facets.h **** 	return this->do_widen(__c);
 785              		.loc 6 876 21 is_stmt 0 view .LVU199
 786 03bd 4C89F7   		movq	%r14, %rdi
 787              	.LVL74:
 876:/usr/include/c++/9.1.0/bits/locale_facets.h **** 	return this->do_widen(__c);
 788              		.loc 6 876 21 view .LVU200
 789 03c0 E8000000 		call	_ZNKSt5ctypeIcE13_M_widen_initEv@PLT
 789      00
 790              	.LVL75:
 791              		.loc 6 877 2 is_stmt 1 view .LVU201
 792              		.loc 6 877 27 is_stmt 0 view .LVU202
 793 03c5 498B06   		movq	(%r14), %rax
 794              		.loc 6 877 23 view .LVU203
 795 03c8 BE0A0000 		movl	$10, %esi
 795      00
 796 03cd 4C89F7   		movq	%r14, %rdi
 797 03d0 FF5030   		call	*48(%rax)
 798              	.LVL76:
 799              		.loc 6 877 27 view .LVU204
 800 03d3 EBB3     		jmp	.L42
 801              	.LVL77:
 802              	.L46:
 803              		.loc 6 877 27 view .LVU205
 804              	.LBE498:
 805              	.LBE500:
 806              	.LBE501:
 807              	.LBE504:
 808              	.LBE505:
 809              	.LBE506:
 810              	.LBE509:
 811              	.LBB510:
 107:Src/main.cpp  **** 	{
 812              		.loc 1 107 2 discriminator 2 view .LVU206
 813 03d5 4883C301 		addq	$1, %rbx
 814              	.LVL78:
GAS LISTING /tmp/ccK1lRdA.s 			page 68


 815              	.L51:
 107:Src/main.cpp  **** 	{
 816              		.loc 1 107 22 discriminator 1 view .LVU207
 817 03d9 48391D00 		cmpq	%rbx, numOfObstacles(%rip)
 817      000000
 818 03e0 0F869B00 		jbe	.L43
 818      0000
 819              	.LBB508:
 109:Src/main.cpp  **** 		if(obstacles[i].c->x + obstacles[i].a >= c->x - QUAD_CHECK_SIDE / 2
 820              		.loc 1 109 3 is_stmt 1 view .LVU208
 109:Src/main.cpp  **** 		if(obstacles[i].c->x + obstacles[i].a >= c->x - QUAD_CHECK_SIDE / 2
 821              		.loc 1 109 39 is_stmt 0 view .LVU209
 822 03e6 89EE     		movl	%ebp, %esi
 823 03e8 4C89E7   		movq	%r12, %rdi
 824 03eb E8000000 		call	_Z17getCoordsOfCornerPK8obstacleh@PLT
 824      00
 825              	.LVL79:
 110:Src/main.cpp  **** 		&& obstacles[i].c->x <= c->x + obstacles[i].a + QUAD_CHECK_SIDE / 2
 826              		.loc 1 110 3 is_stmt 1 view .LVU210
 110:Src/main.cpp  **** 		&& obstacles[i].c->x <= c->x + obstacles[i].a + QUAD_CHECK_SIDE / 2
 827              		.loc 1 110 17 is_stmt 0 view .LVU211
 828 03f0 488D0C5B 		leaq	(%rbx,%rbx,2), %rcx
 829 03f4 48C1E104 		salq	$4, %rcx
 830 03f8 48030D00 		addq	obstacles(%rip), %rcx
 830      000000
 110:Src/main.cpp  **** 		&& obstacles[i].c->x <= c->x + obstacles[i].a + QUAD_CHECK_SIDE / 2
 831              		.loc 1 110 19 view .LVU212
 832 03ff 488B31   		movq	(%rcx), %rsi
 110:Src/main.cpp  **** 		&& obstacles[i].c->x <= c->x + obstacles[i].a + QUAD_CHECK_SIDE / 2
 833              		.loc 1 110 22 view .LVU213
 834 0402 F30F101E 		movss	(%rsi), %xmm3
 110:Src/main.cpp  **** 		&& obstacles[i].c->x <= c->x + obstacles[i].a + QUAD_CHECK_SIDE / 2
 835              		.loc 1 110 39 view .LVU214
 836 0406 F30F1051 		movss	40(%rcx), %xmm2
 836      28
 110:Src/main.cpp  **** 		&& obstacles[i].c->x <= c->x + obstacles[i].a + QUAD_CHECK_SIDE / 2
 837              		.loc 1 110 24 view .LVU215
 838 040b 0F28EB   		movaps	%xmm3, %xmm5
 839 040e F30F58EA 		addss	%xmm2, %xmm5
 110:Src/main.cpp  **** 		&& obstacles[i].c->x <= c->x + obstacles[i].a + QUAD_CHECK_SIDE / 2
 840              		.loc 1 110 47 view .LVU216
 841 0412 F30F1008 		movss	(%rax), %xmm1
 110:Src/main.cpp  **** 		&& obstacles[i].c->x <= c->x + obstacles[i].a + QUAD_CHECK_SIDE / 2
 842              		.loc 1 110 67 view .LVU217
 843 0416 488B1500 		movq	QUAD_CHECK_SIDE(%rip), %rdx
 843      000000
 844 041d 48D1EA   		shrq	%rdx
 110:Src/main.cpp  **** 		&& obstacles[i].c->x <= c->x + obstacles[i].a + QUAD_CHECK_SIDE / 2
 845              		.loc 1 110 49 view .LVU218
 846 0420 660FEFC0 		pxor	%xmm0, %xmm0
 847 0424 F3480F2A 		cvtsi2ssq	%rdx, %xmm0
 847      C2
 848 0429 0F28E1   		movaps	%xmm1, %xmm4
 849 042c F30F5CE0 		subss	%xmm0, %xmm4
 110:Src/main.cpp  **** 		&& obstacles[i].c->x <= c->x + obstacles[i].a + QUAD_CHECK_SIDE / 2
 850              		.loc 1 110 3 view .LVU219
 851 0430 0F2FEC   		comiss	%xmm4, %xmm5
GAS LISTING /tmp/ccK1lRdA.s 			page 69


 852 0433 72A0     		jb	.L46
 111:Src/main.cpp  **** 		&& obstacles[i].c->y + obstacles[i].a >= c->y - QUAD_CHECK_SIDE / 2
 853              		.loc 1 111 32 view .LVU220
 854 0435 F30F58CA 		addss	%xmm2, %xmm1
 111:Src/main.cpp  **** 		&& obstacles[i].c->y + obstacles[i].a >= c->y - QUAD_CHECK_SIDE / 2
 855              		.loc 1 111 49 view .LVU221
 856 0439 F30F58C8 		addss	%xmm0, %xmm1
 111:Src/main.cpp  **** 		&& obstacles[i].c->y + obstacles[i].a >= c->y - QUAD_CHECK_SIDE / 2
 857              		.loc 1 111 3 view .LVU222
 858 043d 0F2FCB   		comiss	%xmm3, %xmm1
 859 0440 7293     		jb	.L46
 112:Src/main.cpp  **** 		&& obstacles[i].c->y <= c->y + obstacles[i].a + QUAD_CHECK_SIDE / 2)
 860              		.loc 1 112 22 view .LVU223
 861 0442 F30F104E 		movss	4(%rsi), %xmm1
 861      04
 112:Src/main.cpp  **** 		&& obstacles[i].c->y <= c->y + obstacles[i].a + QUAD_CHECK_SIDE / 2)
 862              		.loc 1 112 24 view .LVU224
 863 0447 0F28EA   		movaps	%xmm2, %xmm5
 864 044a F30F58E9 		addss	%xmm1, %xmm5
 112:Src/main.cpp  **** 		&& obstacles[i].c->y <= c->y + obstacles[i].a + QUAD_CHECK_SIDE / 2)
 865              		.loc 1 112 47 view .LVU225
 866 044e F30F1058 		movss	4(%rax), %xmm3
 866      04
 112:Src/main.cpp  **** 		&& obstacles[i].c->y <= c->y + obstacles[i].a + QUAD_CHECK_SIDE / 2)
 867              		.loc 1 112 49 view .LVU226
 868 0453 0F28E3   		movaps	%xmm3, %xmm4
 869 0456 F30F5CE0 		subss	%xmm0, %xmm4
 112:Src/main.cpp  **** 		&& obstacles[i].c->y <= c->y + obstacles[i].a + QUAD_CHECK_SIDE / 2)
 870              		.loc 1 112 3 view .LVU227
 871 045a 0F2FEC   		comiss	%xmm4, %xmm5
 872 045d 0F8272FF 		jb	.L46
 872      FFFF
 113:Src/main.cpp  **** 			obsts[iter++] = &(obstacles[i]);
 873              		.loc 1 113 32 view .LVU228
 874 0463 F30F58D3 		addss	%xmm3, %xmm2
 113:Src/main.cpp  **** 			obsts[iter++] = &(obstacles[i]);
 875              		.loc 1 113 49 view .LVU229
 876 0467 F30F58C2 		addss	%xmm2, %xmm0
 113:Src/main.cpp  **** 			obsts[iter++] = &(obstacles[i]);
 877              		.loc 1 113 3 view .LVU230
 878 046b 0F2FC1   		comiss	%xmm1, %xmm0
 879 046e 0F8261FF 		jb	.L46
 879      FFFF
 114:Src/main.cpp  **** 	}
 880              		.loc 1 114 4 is_stmt 1 view .LVU231
 881              	.LVL80:
 114:Src/main.cpp  **** 	}
 882              		.loc 1 114 18 is_stmt 0 view .LVU232
 883 0474 4B890CFE 		movq	%rcx, (%r14,%r15,8)
 114:Src/main.cpp  **** 	}
 884              		.loc 1 114 14 view .LVU233
 885 0478 4D8D7F01 		leaq	1(%r15), %r15
 886              	.LVL81:
 114:Src/main.cpp  **** 	}
 887              		.loc 1 114 14 view .LVU234
 888 047c E954FFFF 		jmp	.L46
 888      FF
GAS LISTING /tmp/ccK1lRdA.s 			page 70


 889              	.LVL82:
 890              	.L43:
 114:Src/main.cpp  **** 	}
 891              		.loc 1 114 14 view .LVU235
 892              	.LBE508:
 893              	.LBE510:
 116:Src/main.cpp  **** 	ret->items = *obsts;
 894              		.loc 1 116 2 is_stmt 1 view .LVU236
 116:Src/main.cpp  **** 	ret->items = *obsts;
 895              		.loc 1 116 43 is_stmt 0 view .LVU237
 896 0481 BF100000 		movl	$16, %edi
 896      00
 897 0486 E8000000 		call	malloc@PLT
 897      00
 898              	.LVL83:
 117:Src/main.cpp  **** 	ret->size = size;
 899              		.loc 1 117 2 is_stmt 1 view .LVU238
 117:Src/main.cpp  **** 	ret->size = size;
 900              		.loc 1 117 15 is_stmt 0 view .LVU239
 901 048b 498B16   		movq	(%r14), %rdx
 117:Src/main.cpp  **** 	ret->size = size;
 902              		.loc 1 117 13 view .LVU240
 903 048e 488910   		movq	%rdx, (%rax)
 118:Src/main.cpp  **** 	return ret;
 904              		.loc 1 118 2 is_stmt 1 view .LVU241
 118:Src/main.cpp  **** 	return ret;
 905              		.loc 1 118 12 is_stmt 0 view .LVU242
 906 0491 4C896808 		movq	%r13, 8(%rax)
 119:Src/main.cpp  **** }
 907              		.loc 1 119 2 is_stmt 1 view .LVU243
 120:Src/main.cpp  **** 
 908              		.loc 1 120 1 is_stmt 0 view .LVU244
 909 0495 4883C408 		addq	$8, %rsp
 910              		.cfi_def_cfa_offset 56
 911 0499 5B       		popq	%rbx
 912              		.cfi_def_cfa_offset 48
 913              	.LVL84:
 120:Src/main.cpp  **** 
 914              		.loc 1 120 1 view .LVU245
 915 049a 5D       		popq	%rbp
 916              		.cfi_def_cfa_offset 40
 917              	.LVL85:
 120:Src/main.cpp  **** 
 918              		.loc 1 120 1 view .LVU246
 919 049b 415C     		popq	%r12
 920              		.cfi_def_cfa_offset 32
 921              	.LVL86:
 120:Src/main.cpp  **** 
 922              		.loc 1 120 1 view .LVU247
 923 049d 415D     		popq	%r13
 924              		.cfi_def_cfa_offset 24
 925              	.LVL87:
 120:Src/main.cpp  **** 
 926              		.loc 1 120 1 view .LVU248
 927 049f 415E     		popq	%r14
 928              		.cfi_def_cfa_offset 16
 929              	.LVL88:
GAS LISTING /tmp/ccK1lRdA.s 			page 71


 120:Src/main.cpp  **** 
 930              		.loc 1 120 1 view .LVU249
 931 04a1 415F     		popq	%r15
 932              		.cfi_def_cfa_offset 8
 933              	.LVL89:
 120:Src/main.cpp  **** 
 934              		.loc 1 120 1 view .LVU250
 935 04a3 C3       		ret
 936              		.cfi_endproc
 937              	.LFE2475:
 939              		.globl	_Z16hasIntersectionsPK5arrayPK4vect
 941              	_Z16hasIntersectionsPK5arrayPK4vect:
 942              	.LVL90:
 943              	.LFB2476:
 124:Src/main.cpp  **** 	for(size_t i = 0; i < dataset->size; i++)
 944              		.loc 1 124 1 is_stmt 1 view -0
 945              		.cfi_startproc
 124:Src/main.cpp  **** 	for(size_t i = 0; i < dataset->size; i++)
 946              		.loc 1 124 1 is_stmt 0 view .LVU252
 947 04a4 4154     		pushq	%r12
 948              		.cfi_def_cfa_offset 16
 949              		.cfi_offset 12, -16
 950 04a6 55       		pushq	%rbp
 951              		.cfi_def_cfa_offset 24
 952              		.cfi_offset 6, -24
 953 04a7 53       		pushq	%rbx
 954              		.cfi_def_cfa_offset 32
 955              		.cfi_offset 3, -32
 956 04a8 4889FD   		movq	%rdi, %rbp
 957 04ab 4989F4   		movq	%rsi, %r12
 125:Src/main.cpp  **** 	{
 958              		.loc 1 125 2 is_stmt 1 view .LVU253
 959              	.LVL91:
 960              	.LBB511:
 125:Src/main.cpp  **** 	{
 961              		.loc 1 125 13 is_stmt 0 view .LVU254
 962 04ae BB000000 		movl	$0, %ebx
 962      00
 963              	.LVL92:
 964              	.L65:
 125:Src/main.cpp  **** 	{
 965              		.loc 1 125 22 discriminator 1 view .LVU255
 966 04b3 48395D08 		cmpq	%rbx, 8(%rbp)
 967 04b7 761E     		jbe	.L66
 127:Src/main.cpp  **** 			return true;
 968              		.loc 1 127 3 is_stmt 1 view .LVU256
 127:Src/main.cpp  **** 			return true;
 969              		.loc 1 127 59 is_stmt 0 view .LVU257
 970 04b9 488D3C5B 		leaq	(%rbx,%rbx,2), %rdi
 971 04bd 48C1E704 		salq	$4, %rdi
 127:Src/main.cpp  **** 			return true;
 972              		.loc 1 127 21 view .LVU258
 973 04c1 48037D00 		addq	0(%rbp), %rdi
 974 04c5 4C89E6   		movq	%r12, %rsi
 975 04c8 E8000000 		call	_Z15hasIntersectionPK8obstaclePK4vect@PLT
 975      00
 976              	.LVL93:
GAS LISTING /tmp/ccK1lRdA.s 			page 72


 127:Src/main.cpp  **** 			return true;
 977              		.loc 1 127 3 view .LVU259
 978 04cd 84C0     		testb	%al, %al
 979 04cf 750B     		jne	.L63
 125:Src/main.cpp  **** 	{
 980              		.loc 1 125 2 discriminator 2 view .LVU260
 981 04d1 4883C301 		addq	$1, %rbx
 982              	.LVL94:
 125:Src/main.cpp  **** 	{
 983              		.loc 1 125 2 discriminator 2 view .LVU261
 984 04d5 EBDC     		jmp	.L65
 985              	.L66:
 125:Src/main.cpp  **** 	{
 986              		.loc 1 125 2 discriminator 2 view .LVU262
 987              	.LBE511:
 130:Src/main.cpp  **** }
 988              		.loc 1 130 9 view .LVU263
 989 04d7 B8000000 		movl	$0, %eax
 989      00
 990              	.L63:
 131:Src/main.cpp  **** 
 991              		.loc 1 131 1 view .LVU264
 992 04dc 5B       		popq	%rbx
 993              		.cfi_def_cfa_offset 24
 994              	.LVL95:
 131:Src/main.cpp  **** 
 995              		.loc 1 131 1 view .LVU265
 996 04dd 5D       		popq	%rbp
 997              		.cfi_def_cfa_offset 16
 998              	.LVL96:
 131:Src/main.cpp  **** 
 999              		.loc 1 131 1 view .LVU266
 1000 04de 415C     		popq	%r12
 1001              		.cfi_def_cfa_offset 8
 1002              	.LVL97:
 131:Src/main.cpp  **** 
 1003              		.loc 1 131 1 view .LVU267
 1004 04e0 C3       		ret
 1005              		.cfi_endproc
 1006              	.LFE2476:
 1008              		.globl	_Z16hasIntersectionsPK4vect
 1010              	_Z16hasIntersectionsPK4vect:
 1011              	.LVL98:
 1012              	.LFB2477:
 134:Src/main.cpp  **** 	for(size_t i = 0; i < numOfObstacles; i++)
 1013              		.loc 1 134 1 is_stmt 1 view -0
 1014              		.cfi_startproc
 134:Src/main.cpp  **** 	for(size_t i = 0; i < numOfObstacles; i++)
 1015              		.loc 1 134 1 is_stmt 0 view .LVU269
 1016 04e1 55       		pushq	%rbp
 1017              		.cfi_def_cfa_offset 16
 1018              		.cfi_offset 6, -16
 1019 04e2 53       		pushq	%rbx
 1020              		.cfi_def_cfa_offset 24
 1021              		.cfi_offset 3, -24
 1022 04e3 4883EC08 		subq	$8, %rsp
 1023              		.cfi_def_cfa_offset 32
GAS LISTING /tmp/ccK1lRdA.s 			page 73


 1024 04e7 4889FD   		movq	%rdi, %rbp
 135:Src/main.cpp  **** 	{
 1025              		.loc 1 135 2 is_stmt 1 view .LVU270
 1026              	.LVL99:
 1027              	.LBB512:
 135:Src/main.cpp  **** 	{
 1028              		.loc 1 135 13 is_stmt 0 view .LVU271
 1029 04ea BB000000 		movl	$0, %ebx
 1029      00
 1030              	.LVL100:
 1031              	.L70:
 135:Src/main.cpp  **** 	{
 1032              		.loc 1 135 22 discriminator 1 view .LVU272
 1033 04ef 48391D00 		cmpq	%rbx, numOfObstacles(%rip)
 1033      000000
 1034 04f6 7621     		jbe	.L71
 137:Src/main.cpp  **** 			return true;
 1035              		.loc 1 137 3 is_stmt 1 view .LVU273
 137:Src/main.cpp  **** 			return true;
 1036              		.loc 1 137 34 is_stmt 0 view .LVU274
 1037 04f8 488D3C5B 		leaq	(%rbx,%rbx,2), %rdi
 1038 04fc 48C1E704 		salq	$4, %rdi
 137:Src/main.cpp  **** 			return true;
 1039              		.loc 1 137 22 view .LVU275
 1040 0500 48033D00 		addq	obstacles(%rip), %rdi
 1040      000000
 137:Src/main.cpp  **** 			return true;
 1041              		.loc 1 137 21 view .LVU276
 1042 0507 4889EE   		movq	%rbp, %rsi
 1043 050a E8000000 		call	_Z15hasIntersectionPK8obstaclePK4vect@PLT
 1043      00
 1044              	.LVL101:
 137:Src/main.cpp  **** 			return true;
 1045              		.loc 1 137 3 view .LVU277
 1046 050f 84C0     		testb	%al, %al
 1047 0511 750B     		jne	.L68
 135:Src/main.cpp  **** 	{
 1048              		.loc 1 135 2 discriminator 2 view .LVU278
 1049 0513 4883C301 		addq	$1, %rbx
 1050              	.LVL102:
 135:Src/main.cpp  **** 	{
 1051              		.loc 1 135 2 discriminator 2 view .LVU279
 1052 0517 EBD6     		jmp	.L70
 1053              	.L71:
 135:Src/main.cpp  **** 	{
 1054              		.loc 1 135 2 discriminator 2 view .LVU280
 1055              	.LBE512:
 140:Src/main.cpp  **** }
 1056              		.loc 1 140 9 view .LVU281
 1057 0519 B8000000 		movl	$0, %eax
 1057      00
 1058              	.L68:
 141:Src/main.cpp  **** 
 1059              		.loc 1 141 1 view .LVU282
 1060 051e 4883C408 		addq	$8, %rsp
 1061              		.cfi_def_cfa_offset 24
 1062 0522 5B       		popq	%rbx
GAS LISTING /tmp/ccK1lRdA.s 			page 74


 1063              		.cfi_def_cfa_offset 16
 1064              	.LVL103:
 141:Src/main.cpp  **** 
 1065              		.loc 1 141 1 view .LVU283
 1066 0523 5D       		popq	%rbp
 1067              		.cfi_def_cfa_offset 8
 1068              	.LVL104:
 141:Src/main.cpp  **** 
 1069              		.loc 1 141 1 view .LVU284
 1070 0524 C3       		ret
 1071              		.cfi_endproc
 1072              	.LFE2477:
 1074              		.globl	_Z15getIntersectionPK5arrayPK4vect
 1076              	_Z15getIntersectionPK5arrayPK4vect:
 1077              	.LVL105:
 1078              	.LFB2478:
 144:Src/main.cpp  **** 	struct obstacle *o = NULL;
 1079              		.loc 1 144 1 is_stmt 1 view -0
 1080              		.cfi_startproc
 144:Src/main.cpp  **** 	struct obstacle *o = NULL;
 1081              		.loc 1 144 1 is_stmt 0 view .LVU286
 1082 0525 4155     		pushq	%r13
 1083              		.cfi_def_cfa_offset 16
 1084              		.cfi_offset 13, -16
 1085 0527 4154     		pushq	%r12
 1086              		.cfi_def_cfa_offset 24
 1087              		.cfi_offset 12, -24
 1088 0529 55       		pushq	%rbp
 1089              		.cfi_def_cfa_offset 32
 1090              		.cfi_offset 6, -32
 1091 052a 53       		pushq	%rbx
 1092              		.cfi_def_cfa_offset 40
 1093              		.cfi_offset 3, -40
 1094 052b 4883EC08 		subq	$8, %rsp
 1095              		.cfi_def_cfa_offset 48
 1096 052f 4889FD   		movq	%rdi, %rbp
 1097 0532 4989F4   		movq	%rsi, %r12
 145:Src/main.cpp  **** 	for(size_t i = 0; i < dataset->size; i++)
 1098              		.loc 1 145 2 is_stmt 1 view .LVU287
 1099              	.LVL106:
 146:Src/main.cpp  **** 	{
 1100              		.loc 1 146 2 view .LVU288
 1101              	.LBB513:
 146:Src/main.cpp  **** 	{
 1102              		.loc 1 146 13 is_stmt 0 view .LVU289
 1103 0535 BB000000 		movl	$0, %ebx
 1103      00
 1104              	.LVL107:
 1105              	.L76:
 146:Src/main.cpp  **** 	{
 1106              		.loc 1 146 22 discriminator 1 view .LVU290
 1107 053a 48395D08 		cmpq	%rbx, 8(%rbp)
 1108 053e 762A     		jbe	.L79
 148:Src/main.cpp  **** 		{
 1109              		.loc 1 148 3 is_stmt 1 view .LVU291
 148:Src/main.cpp  **** 		{
 1110              		.loc 1 148 59 is_stmt 0 view .LVU292
GAS LISTING /tmp/ccK1lRdA.s 			page 75


 1111 0540 488D3C5B 		leaq	(%rbx,%rbx,2), %rdi
 1112 0544 48C1E704 		salq	$4, %rdi
 1113 0548 4989FD   		movq	%rdi, %r13
 148:Src/main.cpp  **** 		{
 1114              		.loc 1 148 21 view .LVU293
 1115 054b 48037D00 		addq	0(%rbp), %rdi
 1116 054f 4C89E6   		movq	%r12, %rsi
 1117 0552 E8000000 		call	_Z15hasIntersectionPK8obstaclePK4vect@PLT
 1117      00
 1118              	.LVL108:
 148:Src/main.cpp  **** 		{
 1119              		.loc 1 148 3 view .LVU294
 1120 0557 84C0     		testb	%al, %al
 1121 0559 7506     		jne	.L81
 146:Src/main.cpp  **** 	{
 1122              		.loc 1 146 2 discriminator 2 view .LVU295
 1123 055b 4883C301 		addq	$1, %rbx
 1124              	.LVL109:
 146:Src/main.cpp  **** 	{
 1125              		.loc 1 146 2 discriminator 2 view .LVU296
 1126 055f EBD9     		jmp	.L76
 1127              	.L81:
 150:Src/main.cpp  **** 			break;
 1128              		.loc 1 150 4 is_stmt 1 view .LVU297
 150:Src/main.cpp  **** 			break;
 1129              		.loc 1 150 6 is_stmt 0 view .LVU298
 1130 0561 4C89EF   		movq	%r13, %rdi
 1131 0564 48037D00 		addq	0(%rbp), %rdi
 1132              	.LVL110:
 151:Src/main.cpp  **** 		}
 1133              		.loc 1 151 4 is_stmt 1 view .LVU299
 1134 0568 EB05     		jmp	.L74
 1135              	.LVL111:
 1136              	.L79:
 151:Src/main.cpp  **** 		}
 1137              		.loc 1 151 4 is_stmt 0 view .LVU300
 1138              	.LBE513:
 145:Src/main.cpp  **** 	for(size_t i = 0; i < dataset->size; i++)
 1139              		.loc 1 145 19 view .LVU301
 1140 056a BF000000 		movl	$0, %edi
 1140      00
 1141              	.LVL112:
 1142              	.L74:
 154:Src/main.cpp  **** 		return {-1, -1};
 1143              		.loc 1 154 2 is_stmt 1 view .LVU302
 1144 056f 4885FF   		testq	%rdi, %rdi
 1145 0572 7422     		je	.L77
 155:Src/main.cpp  **** 
 1146              		.loc 1 155 3 view .LVU303
 155:Src/main.cpp  **** 
 1147              		.loc 1 155 17 is_stmt 0 view .LVU304
 1148 0574 48BA0000 		movabsq	$-4647714815446351872, %rdx
 1148      00000000 
 1148      80BF
 1149 057e B8000080 		movl	$3212836864, %eax
 1149      BF
 1150 0583 4809D0   		orq	%rdx, %rax
GAS LISTING /tmp/ccK1lRdA.s 			page 76


 1151 0586 66480F6E 		movq	%rax, %xmm0
 1151      C0
 1152              	.LVL113:
 1153              	.L78:
 158:Src/main.cpp  **** 
 1154              		.loc 1 158 1 view .LVU305
 1155 058b 4883C408 		addq	$8, %rsp
 1156              		.cfi_remember_state
 1157              		.cfi_def_cfa_offset 40
 1158 058f 5B       		popq	%rbx
 1159              		.cfi_def_cfa_offset 32
 1160              	.LVL114:
 158:Src/main.cpp  **** 
 1161              		.loc 1 158 1 view .LVU306
 1162 0590 5D       		popq	%rbp
 1163              		.cfi_def_cfa_offset 24
 1164              	.LVL115:
 158:Src/main.cpp  **** 
 1165              		.loc 1 158 1 view .LVU307
 1166 0591 415C     		popq	%r12
 1167              		.cfi_def_cfa_offset 16
 1168              	.LVL116:
 158:Src/main.cpp  **** 
 1169              		.loc 1 158 1 view .LVU308
 1170 0593 415D     		popq	%r13
 1171              		.cfi_def_cfa_offset 8
 1172 0595 C3       		ret
 1173              	.LVL117:
 1174              	.L77:
 1175              		.cfi_restore_state
 157:Src/main.cpp  **** }
 1176              		.loc 1 157 2 is_stmt 1 view .LVU309
 157:Src/main.cpp  **** }
 1177              		.loc 1 157 29 is_stmt 0 view .LVU310
 1178 0596 4C89E6   		movq	%r12, %rsi
 1179 0599 E8000000 		call	_Z15getIntersectionPK8obstaclePK4vect@PLT
 1179      00
 1180              	.LVL118:
 157:Src/main.cpp  **** }
 1181              		.loc 1 157 29 view .LVU311
 1182 059e EBEB     		jmp	.L78
 1183              		.cfi_endproc
 1184              	.LFE2478:
 1186              		.section	.rodata.str1.1
 1187              	.LC10:
 1188 0028 57617463 		.string	"Watching for vect "
 1188      68696E67 
 1188      20666F72 
 1188      20766563 
 1188      742000
 1189              	.LC11:
 1190 003b 3A00     		.string	":"
 1191              	.LC12:
 1192 003d 3B206400 		.string	"; d"
 1193              	.LC13:
 1194 0041 3A6400   		.string	":d"
 1195              		.section	.rodata.str1.8,"aMS",@progbits,1
GAS LISTING /tmp/ccK1lRdA.s 			page 77


 1196              		.align 8
 1197              	.LC14:
 1198 0000 23232357 		.string	"###Watching for intersection, obst: "
 1198      61746368 
 1198      696E6720 
 1198      666F7220 
 1198      696E7465 
 1199              		.section	.rodata.str1.1
 1200              	.LC15:
 1201 0044 09092323 		.string	"\t\t###"
 1201      2300
 1202              	.LC16:
 1203 004a 23232323 		.string	"####Found intersection: "
 1203      466F756E 
 1203      6420696E 
 1203      74657273 
 1203      65637469 
 1204              	.LC17:
 1205 0063 20776974 		.string	" with len "
 1205      68206C65 
 1205      6E2000
 1206              	.LC18:
 1207 006e 09090923 		.string	"\t\t\t####"
 1207      23232300 
 1208              		.text
 1209              		.globl	_Z14getIntersectedPK5arrayPK4vect
 1211              	_Z14getIntersectedPK5arrayPK4vect:
 1212              	.LVL119:
 1213              	.LFB2479:
 162:Src/main.cpp  **** 	struct obstacle *o = NULL;
 1214              		.loc 1 162 1 is_stmt 1 view -0
 1215              		.cfi_startproc
 162:Src/main.cpp  **** 	struct obstacle *o = NULL;
 1216              		.loc 1 162 1 is_stmt 0 view .LVU313
 1217 05a0 4157     		pushq	%r15
 1218              		.cfi_def_cfa_offset 16
 1219              		.cfi_offset 15, -16
 1220 05a2 4156     		pushq	%r14
 1221              		.cfi_def_cfa_offset 24
 1222              		.cfi_offset 14, -24
 1223 05a4 4155     		pushq	%r13
 1224              		.cfi_def_cfa_offset 32
 1225              		.cfi_offset 13, -32
 1226 05a6 4154     		pushq	%r12
 1227              		.cfi_def_cfa_offset 40
 1228              		.cfi_offset 12, -40
 1229 05a8 55       		pushq	%rbp
 1230              		.cfi_def_cfa_offset 48
 1231              		.cfi_offset 6, -48
 1232 05a9 53       		pushq	%rbx
 1233              		.cfi_def_cfa_offset 56
 1234              		.cfi_offset 3, -56
 1235 05aa 4883EC28 		subq	$40, %rsp
 1236              		.cfi_def_cfa_offset 96
 1237 05ae 4989FD   		movq	%rdi, %r13
 1238 05b1 4989F4   		movq	%rsi, %r12
 162:Src/main.cpp  **** 	struct obstacle *o = NULL;
GAS LISTING /tmp/ccK1lRdA.s 			page 78


 1239              		.loc 1 162 1 view .LVU314
 1240 05b4 64488B04 		movq	%fs:40, %rax
 1240      25280000 
 1240      00
 1241 05bd 48894424 		movq	%rax, 24(%rsp)
 1241      18
 1242 05c2 31C0     		xorl	%eax, %eax
 163:Src/main.cpp  **** 	struct coords	inter;
 1243              		.loc 1 163 2 is_stmt 1 view .LVU315
 1244              	.LVL120:
 164:Src/main.cpp  **** 	COORDS_DATATYPE l = INF;
 1245              		.loc 1 164 2 view .LVU316
 165:Src/main.cpp  **** 	cout << "Watching for vect " << v->c->x << ":" << v->c->y << "; d" << v->dx << ":d" << v->dy << en
 1246              		.loc 1 165 2 view .LVU317
 165:Src/main.cpp  **** 	cout << "Watching for vect " << v->c->x << ":" << v->c->y << "; d" << v->dx << ":d" << v->dy << en
 1247              		.loc 1 165 18 is_stmt 0 view .LVU318
 1248 05c4 F30F1005 		movss	.LC8(%rip), %xmm0
 1248      00000000 
 1249 05cc F30F5E05 		divss	.LC9(%rip), %xmm0
 1249      00000000 
 1250 05d4 F30F1144 		movss	%xmm0, 12(%rsp)
 1250      240C
 1251              	.LVL121:
 166:Src/main.cpp  **** 	for(size_t i = 0; i < dataset->size; i++)
 1252              		.loc 1 166 2 is_stmt 1 view .LVU319
 1253              	.LBB586:
 1254              	.LBI586:
 565:/usr/include/c++/9.1.0/ostream ****     {
 1255              		.loc 3 565 5 view .LVU320
 565:/usr/include/c++/9.1.0/ostream ****     {
 1256              		.loc 3 565 5 is_stmt 0 view .LVU321
 1257              	.LBE586:
 1258              		.loc 4 335 2 is_stmt 1 view .LVU322
 1259              	.LBB588:
 1260              	.LBB587:
 570:/usr/include/c++/9.1.0/ostream **** 			 static_cast<streamsize>(_Traits::length(__s)));
 1261              		.loc 3 570 18 is_stmt 0 view .LVU323
 1262 05da BA120000 		movl	$18, %edx
 1262      00
 1263 05df 488D3500 		leaq	.LC10(%rip), %rsi
 1263      000000
 1264              	.LVL122:
 570:/usr/include/c++/9.1.0/ostream **** 			 static_cast<streamsize>(_Traits::length(__s)));
 1265              		.loc 3 570 18 view .LVU324
 1266 05e6 488D3D00 		leaq	_ZSt4cout(%rip), %rdi
 1266      000000
 1267              	.LVL123:
 570:/usr/include/c++/9.1.0/ostream **** 			 static_cast<streamsize>(_Traits::length(__s)));
 1268              		.loc 3 570 18 view .LVU325
 1269 05ed E8000000 		call	_ZSt16__ostream_insertIcSt11char_traitsIcEERSt13basic_ostreamIT_T0_ES6_PKS3_l@PLT
 1269      00
 1270              	.LVL124:
 570:/usr/include/c++/9.1.0/ostream **** 			 static_cast<streamsize>(_Traits::length(__s)));
 1271              		.loc 3 570 18 view .LVU326
 1272              	.LBE587:
 1273              	.LBE588:
 166:Src/main.cpp  **** 	for(size_t i = 0; i < dataset->size; i++)
GAS LISTING /tmp/ccK1lRdA.s 			page 79


 1274              		.loc 1 166 37 view .LVU327
 1275 05f2 498B0424 		movq	(%r12), %rax
 1276              	.LVL125:
 1277              	.LBB589:
 1278              	.LBI589:
 224:/usr/include/c++/9.1.0/ostream ****       {
 1279              		.loc 3 224 7 is_stmt 1 view .LVU328
 1280              	.LBB590:
 228:/usr/include/c++/9.1.0/ostream ****       }
 1281              		.loc 3 228 43 is_stmt 0 view .LVU329
 1282 05f6 660FEFC0 		pxor	%xmm0, %xmm0
 1283 05fa F30F5A00 		cvtss2sd	(%rax), %xmm0
 1284 05fe 488D3D00 		leaq	_ZSt4cout(%rip), %rdi
 1284      000000
 1285 0605 E8000000 		call	_ZNSo9_M_insertIdEERSoT_@PLT
 1285      00
 1286              	.LVL126:
 228:/usr/include/c++/9.1.0/ostream ****       }
 1287              		.loc 3 228 43 view .LVU330
 1288 060a 4889C3   		movq	%rax, %rbx
 1289              	.LVL127:
 228:/usr/include/c++/9.1.0/ostream ****       }
 1290              		.loc 3 228 43 view .LVU331
 1291              	.LBE590:
 1292              	.LBE589:
 1293              	.LBB591:
 1294              	.LBI591:
 565:/usr/include/c++/9.1.0/ostream ****     {
 1295              		.loc 3 565 5 is_stmt 1 view .LVU332
 565:/usr/include/c++/9.1.0/ostream ****     {
 1296              		.loc 3 565 5 is_stmt 0 view .LVU333
 1297              	.LBE591:
 1298              		.loc 4 335 2 is_stmt 1 view .LVU334
 1299              	.LBB593:
 1300              	.LBB592:
 570:/usr/include/c++/9.1.0/ostream **** 			 static_cast<streamsize>(_Traits::length(__s)));
 1301              		.loc 3 570 18 is_stmt 0 view .LVU335
 1302 060d BA010000 		movl	$1, %edx
 1302      00
 1303 0612 488D3500 		leaq	.LC11(%rip), %rsi
 1303      000000
 1304 0619 4889C7   		movq	%rax, %rdi
 1305 061c E8000000 		call	_ZSt16__ostream_insertIcSt11char_traitsIcEERSt13basic_ostreamIT_T0_ES6_PKS3_l@PLT
 1305      00
 1306              	.LVL128:
 570:/usr/include/c++/9.1.0/ostream **** 			 static_cast<streamsize>(_Traits::length(__s)));
 1307              		.loc 3 570 18 view .LVU336
 1308              	.LBE592:
 1309              	.LBE593:
 166:Src/main.cpp  **** 	for(size_t i = 0; i < dataset->size; i++)
 1310              		.loc 1 166 55 view .LVU337
 1311 0621 498B0424 		movq	(%r12), %rax
 1312              	.LVL129:
 1313              	.LBB594:
 1314              	.LBI594:
 224:/usr/include/c++/9.1.0/ostream ****       {
 1315              		.loc 3 224 7 is_stmt 1 view .LVU338
GAS LISTING /tmp/ccK1lRdA.s 			page 80


 1316              	.LBB595:
 228:/usr/include/c++/9.1.0/ostream ****       }
 1317              		.loc 3 228 43 is_stmt 0 view .LVU339
 1318 0625 660FEFC0 		pxor	%xmm0, %xmm0
 1319 0629 F30F5A40 		cvtss2sd	4(%rax), %xmm0
 1319      04
 1320 062e 4889DF   		movq	%rbx, %rdi
 1321 0631 E8000000 		call	_ZNSo9_M_insertIdEERSoT_@PLT
 1321      00
 1322              	.LVL130:
 228:/usr/include/c++/9.1.0/ostream ****       }
 1323              		.loc 3 228 43 view .LVU340
 1324 0636 4889C3   		movq	%rax, %rbx
 1325              	.LVL131:
 228:/usr/include/c++/9.1.0/ostream ****       }
 1326              		.loc 3 228 43 view .LVU341
 1327              	.LBE595:
 1328              	.LBE594:
 1329              	.LBB596:
 1330              	.LBI596:
 565:/usr/include/c++/9.1.0/ostream ****     {
 1331              		.loc 3 565 5 is_stmt 1 view .LVU342
 565:/usr/include/c++/9.1.0/ostream ****     {
 1332              		.loc 3 565 5 is_stmt 0 view .LVU343
 1333              	.LBE596:
 1334              		.loc 4 335 2 is_stmt 1 view .LVU344
 1335              	.LBB598:
 1336              	.LBB597:
 570:/usr/include/c++/9.1.0/ostream **** 			 static_cast<streamsize>(_Traits::length(__s)));
 1337              		.loc 3 570 18 is_stmt 0 view .LVU345
 1338 0639 BA030000 		movl	$3, %edx
 1338      00
 1339 063e 488D3500 		leaq	.LC12(%rip), %rsi
 1339      000000
 1340 0645 4889C7   		movq	%rax, %rdi
 1341 0648 E8000000 		call	_ZSt16__ostream_insertIcSt11char_traitsIcEERSt13basic_ostreamIT_T0_ES6_PKS3_l@PLT
 1341      00
 1342              	.LVL132:
 570:/usr/include/c++/9.1.0/ostream **** 			 static_cast<streamsize>(_Traits::length(__s)));
 1343              		.loc 3 570 18 view .LVU346
 1344              	.LBE597:
 1345              	.LBE598:
 1346              	.LBB599:
 1347              	.LBI599:
 224:/usr/include/c++/9.1.0/ostream ****       {
 1348              		.loc 3 224 7 is_stmt 1 view .LVU347
 1349              	.LBB600:
 228:/usr/include/c++/9.1.0/ostream ****       }
 1350              		.loc 3 228 43 is_stmt 0 view .LVU348
 1351 064d 660FEFC0 		pxor	%xmm0, %xmm0
 1352 0651 F3410F5A 		cvtss2sd	8(%r12), %xmm0
 1352      442408
 1353 0658 4889DF   		movq	%rbx, %rdi
 1354 065b E8000000 		call	_ZNSo9_M_insertIdEERSoT_@PLT
 1354      00
 1355              	.LVL133:
 228:/usr/include/c++/9.1.0/ostream ****       }
GAS LISTING /tmp/ccK1lRdA.s 			page 81


 1356              		.loc 3 228 43 view .LVU349
 1357 0660 4889C3   		movq	%rax, %rbx
 1358              	.LVL134:
 228:/usr/include/c++/9.1.0/ostream ****       }
 1359              		.loc 3 228 43 view .LVU350
 1360              	.LBE600:
 1361              	.LBE599:
 1362              	.LBB601:
 1363              	.LBI601:
 565:/usr/include/c++/9.1.0/ostream ****     {
 1364              		.loc 3 565 5 is_stmt 1 view .LVU351
 565:/usr/include/c++/9.1.0/ostream ****     {
 1365              		.loc 3 565 5 is_stmt 0 view .LVU352
 1366              	.LBE601:
 1367              		.loc 4 335 2 is_stmt 1 view .LVU353
 1368              	.LBB603:
 1369              	.LBB602:
 570:/usr/include/c++/9.1.0/ostream **** 			 static_cast<streamsize>(_Traits::length(__s)));
 1370              		.loc 3 570 18 is_stmt 0 view .LVU354
 1371 0663 BA020000 		movl	$2, %edx
 1371      00
 1372 0668 488D3500 		leaq	.LC13(%rip), %rsi
 1372      000000
 1373 066f 4889C7   		movq	%rax, %rdi
 1374 0672 E8000000 		call	_ZSt16__ostream_insertIcSt11char_traitsIcEERSt13basic_ostreamIT_T0_ES6_PKS3_l@PLT
 1374      00
 1375              	.LVL135:
 570:/usr/include/c++/9.1.0/ostream **** 			 static_cast<streamsize>(_Traits::length(__s)));
 1376              		.loc 3 570 18 view .LVU355
 1377              	.LBE602:
 1378              	.LBE603:
 1379              	.LBB604:
 1380              	.LBI604:
 224:/usr/include/c++/9.1.0/ostream ****       {
 1381              		.loc 3 224 7 is_stmt 1 view .LVU356
 1382              	.LBB605:
 228:/usr/include/c++/9.1.0/ostream ****       }
 1383              		.loc 3 228 43 is_stmt 0 view .LVU357
 1384 0677 660FEFC0 		pxor	%xmm0, %xmm0
 1385 067b F3410F5A 		cvtss2sd	12(%r12), %xmm0
 1385      44240C
 1386 0682 4889DF   		movq	%rbx, %rdi
 1387 0685 E8000000 		call	_ZNSo9_M_insertIdEERSoT_@PLT
 1387      00
 1388              	.LVL136:
 228:/usr/include/c++/9.1.0/ostream ****       }
 1389              		.loc 3 228 43 view .LVU358
 1390 068a 4889C3   		movq	%rax, %rbx
 1391              	.LVL137:
 228:/usr/include/c++/9.1.0/ostream ****       }
 1392              		.loc 3 228 43 view .LVU359
 1393              	.LBE605:
 1394              	.LBE604:
 1395              	.LBB606:
 1396              	.LBI606:
 108:/usr/include/c++/9.1.0/ostream ****       {
 1397              		.loc 3 108 7 is_stmt 1 view .LVU360
GAS LISTING /tmp/ccK1lRdA.s 			page 82


 1398              	.LBB607:
 1399              	.LBI607:
 599:/usr/include/c++/9.1.0/ostream ****     { return flush(__os.put(__os.widen('\n'))); }
 1400              		.loc 3 599 5 view .LVU361
 1401              	.LBB608:
 600:/usr/include/c++/9.1.0/ostream **** 
 1402              		.loc 3 600 19 is_stmt 0 view .LVU362
 1403 068d 488B00   		movq	(%rax), %rax
 1404              	.LVL138:
 600:/usr/include/c++/9.1.0/ostream **** 
 1405              		.loc 3 600 19 view .LVU363
 1406 0690 4889DA   		movq	%rbx, %rdx
 1407 0693 480350E8 		addq	-24(%rax), %rdx
 1408              	.LVL139:
 1409              	.LBB609:
 1410              	.LBI609:
 449:/usr/include/c++/9.1.0/bits/basic_ios.h ****       { return __check_facet(_M_ctype).widen(__c); }
 1411              		.loc 5 449 7 is_stmt 1 view .LVU364
 1412              	.LBB610:
 1413              		.loc 5 450 30 is_stmt 0 view .LVU365
 1414 0697 488BAAF0 		movq	240(%rdx), %rbp
 1414      000000
 1415              	.LVL140:
 1416              	.LBB611:
 1417              	.LBI611:
  47:/usr/include/c++/9.1.0/bits/basic_ios.h ****     {
 1418              		.loc 5 47 5 is_stmt 1 view .LVU366
 1419              	.LBB612:
  49:/usr/include/c++/9.1.0/bits/basic_ios.h **** 	__throw_bad_cast();
 1420              		.loc 5 49 7 is_stmt 0 view .LVU367
 1421 069e 4885ED   		testq	%rbp, %rbp
 1422 06a1 742E     		je	.L103
 1423              	.LVL141:
  49:/usr/include/c++/9.1.0/bits/basic_ios.h **** 	__throw_bad_cast();
 1424              		.loc 5 49 7 view .LVU368
 1425              	.LBE612:
 1426              	.LBE611:
 1427              	.LBB614:
 1428              	.LBI614:
 872:/usr/include/c++/9.1.0/bits/locale_facets.h ****       {
 1429              		.loc 6 872 7 is_stmt 1 view .LVU369
 1430              	.LBB615:
 874:/usr/include/c++/9.1.0/bits/locale_facets.h **** 	  return _M_widen[static_cast<unsigned char>(__c)];
 1431              		.loc 6 874 2 view .LVU370
 1432 06a3 807D3800 		cmpb	$0, 56(%rbp)
 1433 06a7 742D     		je	.L84
 875:/usr/include/c++/9.1.0/bits/locale_facets.h **** 	this->_M_widen_init();
 1434              		.loc 6 875 4 view .LVU371
 875:/usr/include/c++/9.1.0/bits/locale_facets.h **** 	this->_M_widen_init();
 1435              		.loc 6 875 51 is_stmt 0 view .LVU372
 1436 06a9 0FB67543 		movzbl	67(%rbp), %esi
 1437              	.LVL142:
 1438              	.L85:
 875:/usr/include/c++/9.1.0/bits/locale_facets.h **** 	this->_M_widen_init();
 1439              		.loc 6 875 51 view .LVU373
 1440              	.LBE615:
 1441              	.LBE614:
GAS LISTING /tmp/ccK1lRdA.s 			page 83


 1442              	.LBE610:
 1443              	.LBE609:
 600:/usr/include/c++/9.1.0/ostream **** 
 1444              		.loc 3 600 19 view .LVU374
 1445 06ad 400FBEF6 		movsbl	%sil, %esi
 1446 06b1 4889DF   		movq	%rbx, %rdi
 1447 06b4 E8000000 		call	_ZNSo3putEc@PLT
 1447      00
 1448              	.LVL143:
 1449 06b9 4889C7   		movq	%rax, %rdi
 1450              	.LVL144:
 1451              	.LBB620:
 1452              	.LBI620:
 621:/usr/include/c++/9.1.0/ostream ****     { return __os.flush(); }
 1453              		.loc 3 621 5 is_stmt 1 view .LVU375
 1454              	.LBB621:
 1455              		.loc 3 622 25 is_stmt 0 view .LVU376
 1456 06bc E8000000 		call	_ZNSo5flushEv@PLT
 1456      00
 1457              	.LVL145:
 1458              		.loc 3 622 25 view .LVU377
 1459              	.LBE621:
 1460              	.LBE620:
 1461              	.LBE608:
 1462              	.LBE607:
 1463              	.LBE606:
 1464              	.LBB625:
 167:Src/main.cpp  **** 	{
 1465              		.loc 1 167 13 view .LVU378
 1466 06c1 BD000000 		movl	$0, %ebp
 1466      00
 1467              	.LBE625:
 163:Src/main.cpp  **** 	struct coords	inter;
 1468              		.loc 1 163 19 view .LVU379
 1469 06c6 41BE0000 		movl	$0, %r14d
 1469      0000
 1470              	.LBB698:
 1471              	.LBB624:
 1472              	.LBB623:
 600:/usr/include/c++/9.1.0/ostream **** 
 1473              		.loc 3 600 46 view .LVU380
 1474 06cc E98A0000 		jmp	.L97
 1474      00
 1475              	.LVL146:
 1476              	.L103:
 1477              	.LBB622:
 1478              	.LBB619:
 1479              	.LBB617:
 1480              	.LBB613:
  50:/usr/include/c++/9.1.0/bits/basic_ios.h ****       return *__f;
 1481              		.loc 5 50 18 view .LVU381
 1482 06d1 E8000000 		call	_ZSt16__throw_bad_castv@PLT
 1482      00
 1483              	.LVL147:
 1484              	.L84:
  50:/usr/include/c++/9.1.0/bits/basic_ios.h ****       return *__f;
 1485              		.loc 5 50 18 view .LVU382
GAS LISTING /tmp/ccK1lRdA.s 			page 84


 1486              	.LBE613:
 1487              	.LBE617:
 1488              	.LBB618:
 1489              	.LBB616:
 876:/usr/include/c++/9.1.0/bits/locale_facets.h **** 	return this->do_widen(__c);
 1490              		.loc 6 876 2 is_stmt 1 view .LVU383
 876:/usr/include/c++/9.1.0/bits/locale_facets.h **** 	return this->do_widen(__c);
 1491              		.loc 6 876 21 is_stmt 0 view .LVU384
 1492 06d6 4889EF   		movq	%rbp, %rdi
 1493 06d9 E8000000 		call	_ZNKSt5ctypeIcE13_M_widen_initEv@PLT
 1493      00
 1494              	.LVL148:
 1495              		.loc 6 877 2 is_stmt 1 view .LVU385
 1496              		.loc 6 877 27 is_stmt 0 view .LVU386
 1497 06de 488B4500 		movq	0(%rbp), %rax
 1498              		.loc 6 877 23 view .LVU387
 1499 06e2 BE0A0000 		movl	$10, %esi
 1499      00
 1500 06e7 4889EF   		movq	%rbp, %rdi
 1501 06ea FF5030   		call	*48(%rax)
 1502              	.LVL149:
 1503 06ed 89C6     		movl	%eax, %esi
 1504              		.loc 6 877 27 view .LVU388
 1505 06ef EBBC     		jmp	.L85
 1506              	.LVL150:
 1507              	.L104:
 1508              		.loc 6 877 27 view .LVU389
 1509              	.LBE616:
 1510              	.LBE618:
 1511              	.LBE619:
 1512              	.LBE622:
 1513              	.LBE623:
 1514              	.LBE624:
 1515              	.LBE698:
 1516              	.LBB699:
 1517              	.LBB626:
 1518              	.LBB627:
 1519              	.LBB628:
 1520              	.LBB629:
 1521              	.LBB630:
 1522              	.LBB631:
 1523              	.LBB632:
 1524              	.LBB633:
  50:/usr/include/c++/9.1.0/bits/basic_ios.h ****       return *__f;
 1525              		.loc 5 50 18 view .LVU390
 1526 06f1 E8000000 		call	_ZSt16__throw_bad_castv@PLT
 1526      00
 1527              	.LVL151:
 1528              	.L88:
  50:/usr/include/c++/9.1.0/bits/basic_ios.h ****       return *__f;
 1529              		.loc 5 50 18 view .LVU391
 1530              	.LBE633:
 1531              	.LBE632:
 1532              	.LBB635:
 1533              	.LBB636:
 876:/usr/include/c++/9.1.0/bits/locale_facets.h **** 	return this->do_widen(__c);
 1534              		.loc 6 876 2 is_stmt 1 view .LVU392
GAS LISTING /tmp/ccK1lRdA.s 			page 85


 876:/usr/include/c++/9.1.0/bits/locale_facets.h **** 	return this->do_widen(__c);
 1535              		.loc 6 876 21 is_stmt 0 view .LVU393
 1536 06f6 4C89FF   		movq	%r15, %rdi
 1537 06f9 E8000000 		call	_ZNKSt5ctypeIcE13_M_widen_initEv@PLT
 1537      00
 1538              	.LVL152:
 1539              		.loc 6 877 2 is_stmt 1 view .LVU394
 1540              		.loc 6 877 27 is_stmt 0 view .LVU395
 1541 06fe 498B07   		movq	(%r15), %rax
 1542              		.loc 6 877 23 view .LVU396
 1543 0701 BE0A0000 		movl	$10, %esi
 1543      00
 1544 0706 4C89FF   		movq	%r15, %rdi
 1545 0709 FF5030   		call	*48(%rax)
 1546              	.LVL153:
 1547 070c 89C6     		movl	%eax, %esi
 1548              		.loc 6 877 27 view .LVU397
 1549 070e E9B90000 		jmp	.L89
 1549      00
 1550              	.LVL154:
 1551              	.L105:
 1552              		.loc 6 877 27 view .LVU398
 1553              	.LBE636:
 1554              	.LBE635:
 1555              	.LBE631:
 1556              	.LBE630:
 1557              	.LBE629:
 1558              	.LBE628:
 1559              	.LBE627:
 1560              	.LBB646:
 1561              	.LBB647:
 1562              	.LBB648:
 1563              	.LBB649:
 1564              	.LBB650:
 1565              	.LBB651:
 1566              	.LBB652:
  50:/usr/include/c++/9.1.0/bits/basic_ios.h ****       return *__f;
 1567              		.loc 5 50 18 view .LVU399
 1568 0713 E8000000 		call	_ZSt16__throw_bad_castv@PLT
 1568      00
 1569              	.LVL155:
 1570              	.L95:
  50:/usr/include/c++/9.1.0/bits/basic_ios.h ****       return *__f;
 1571              		.loc 5 50 18 view .LVU400
 1572              	.LBE652:
 1573              	.LBE651:
 1574              	.LBB654:
 1575              	.LBB655:
 876:/usr/include/c++/9.1.0/bits/locale_facets.h **** 	return this->do_widen(__c);
 1576              		.loc 6 876 2 is_stmt 1 view .LVU401
 876:/usr/include/c++/9.1.0/bits/locale_facets.h **** 	return this->do_widen(__c);
 1577              		.loc 6 876 21 is_stmt 0 view .LVU402
 1578 0718 4C89FF   		movq	%r15, %rdi
 1579 071b E8000000 		call	_ZNKSt5ctypeIcE13_M_widen_initEv@PLT
 1579      00
 1580              	.LVL156:
 1581              		.loc 6 877 2 is_stmt 1 view .LVU403
GAS LISTING /tmp/ccK1lRdA.s 			page 86


 1582              		.loc 6 877 27 is_stmt 0 view .LVU404
 1583 0720 498B07   		movq	(%r15), %rax
 1584              		.loc 6 877 23 view .LVU405
 1585 0723 BE0A0000 		movl	$10, %esi
 1585      00
 1586 0728 4C89FF   		movq	%r15, %rdi
 1587 072b FF5030   		call	*48(%rax)
 1588              	.LVL157:
 1589 072e 89C6     		movl	%eax, %esi
 1590              	.L96:
 1591              	.LVL158:
 1592              		.loc 6 877 23 view .LVU406
 1593              	.LBE655:
 1594              	.LBE654:
 1595              	.LBE650:
 1596              	.LBE649:
 600:/usr/include/c++/9.1.0/ostream **** 
 1597              		.loc 3 600 19 view .LVU407
 1598 0730 400FBEF6 		movsbl	%sil, %esi
 1599 0734 4C89F7   		movq	%r14, %rdi
 1600 0737 E8000000 		call	_ZNSo3putEc@PLT
 1600      00
 1601              	.LVL159:
 1602 073c 4889C7   		movq	%rax, %rdi
 1603              	.LVL160:
 1604              	.LBB660:
 1605              	.LBI660:
 621:/usr/include/c++/9.1.0/ostream ****     { return __os.flush(); }
 1606              		.loc 3 621 5 is_stmt 1 view .LVU408
 1607              	.LBB661:
 1608              		.loc 3 622 25 is_stmt 0 view .LVU409
 1609 073f E8000000 		call	_ZNSo5flushEv@PLT
 1609      00
 1610              	.LVL161:
 1611              		.loc 3 622 25 view .LVU410
 1612              	.LBE661:
 1613              	.LBE660:
 1614              	.LBE648:
 1615              	.LBE647:
 1616              	.LBE646:
 175:Src/main.cpp  **** 			l = _l;
 1617              		.loc 1 175 4 is_stmt 1 view .LVU411
 175:Src/main.cpp  **** 			l = _l;
 1618              		.loc 1 175 6 is_stmt 0 view .LVU412
 1619 0744 49035D00 		addq	0(%r13), %rbx
 1620 0748 4989DE   		movq	%rbx, %r14
 1621              	.LVL162:
 176:Src/main.cpp  **** 		}
 1622              		.loc 1 176 4 is_stmt 1 view .LVU413
 176:Src/main.cpp  **** 		}
 1623              		.loc 1 176 6 is_stmt 0 view .LVU414
 1624 074b F30F105C 		movss	8(%rsp), %xmm3
 1624      2408
 1625 0751 F30F115C 		movss	%xmm3, 12(%rsp)
 1625      240C
 1626              	.LVL163:
 1627              	.L90:
GAS LISTING /tmp/ccK1lRdA.s 			page 87


 176:Src/main.cpp  **** 		}
 1628              		.loc 1 176 6 view .LVU415
 1629              	.LBE626:
 167:Src/main.cpp  **** 	{
 1630              		.loc 1 167 2 discriminator 2 view .LVU416
 1631 0757 4883C501 		addq	$1, %rbp
 1632              	.LVL164:
 1633              	.L97:
 167:Src/main.cpp  **** 	{
 1634              		.loc 1 167 22 discriminator 1 view .LVU417
 1635 075b 49396D08 		cmpq	%rbp, 8(%r13)
 1636 075f 0F86AE01 		jbe	.L82
 1636      0000
 1637              	.LBB691:
 169:Src/main.cpp  **** 		inter = getIntersection(&((struct obstacle*)dataset->items)[i], v);
 1638              		.loc 1 169 3 is_stmt 1 view .LVU418
 1639              	.LVL165:
 1640              	.LBB665:
 1641              	.LBI665:
 565:/usr/include/c++/9.1.0/ostream ****     {
 1642              		.loc 3 565 5 view .LVU419
 565:/usr/include/c++/9.1.0/ostream ****     {
 1643              		.loc 3 565 5 is_stmt 0 view .LVU420
 1644              	.LBE665:
 1645              	.LBE691:
 1646              	.LBE699:
 1647              		.loc 4 335 2 is_stmt 1 view .LVU421
 1648              	.LBB700:
 1649              	.LBB692:
 1650              	.LBB667:
 1651              	.LBB666:
 570:/usr/include/c++/9.1.0/ostream **** 			 static_cast<streamsize>(_Traits::length(__s)));
 1652              		.loc 3 570 18 is_stmt 0 view .LVU422
 1653 0765 BA240000 		movl	$36, %edx
 1653      00
 1654 076a 488D3500 		leaq	.LC14(%rip), %rsi
 1654      000000
 1655 0771 488D3D00 		leaq	_ZSt4cout(%rip), %rdi
 1655      000000
 1656 0778 E8000000 		call	_ZSt16__ostream_insertIcSt11char_traitsIcEERSt13basic_ostreamIT_T0_ES6_PKS3_l@PLT
 1656      00
 1657              	.LVL166:
 570:/usr/include/c++/9.1.0/ostream **** 			 static_cast<streamsize>(_Traits::length(__s)));
 1658              		.loc 3 570 18 view .LVU423
 1659              	.LBE666:
 1660              	.LBE667:
 169:Src/main.cpp  **** 		inter = getIntersection(&((struct obstacle*)dataset->items)[i], v);
 1661              		.loc 1 169 63 view .LVU424
 1662 077d 89EE     		movl	%ebp, %esi
 1663 077f 488D3D00 		leaq	_ZSt4cout(%rip), %rdi
 1663      000000
 1664 0786 E8000000 		call	_ZNSolsEi@PLT
 1664      00
 1665              	.LVL167:
 1666 078b 4889C3   		movq	%rax, %rbx
 1667              	.LVL168:
 1668              	.LBB668:
GAS LISTING /tmp/ccK1lRdA.s 			page 88


 1669              	.LBI668:
 565:/usr/include/c++/9.1.0/ostream ****     {
 1670              		.loc 3 565 5 is_stmt 1 view .LVU425
 565:/usr/include/c++/9.1.0/ostream ****     {
 1671              		.loc 3 565 5 is_stmt 0 view .LVU426
 1672              	.LBE668:
 1673              	.LBE692:
 1674              	.LBE700:
 1675              		.loc 4 335 2 is_stmt 1 view .LVU427
 1676              	.LBB701:
 1677              	.LBB693:
 1678              	.LBB670:
 1679              	.LBB669:
 570:/usr/include/c++/9.1.0/ostream **** 			 static_cast<streamsize>(_Traits::length(__s)));
 1680              		.loc 3 570 18 is_stmt 0 view .LVU428
 1681 078e BA050000 		movl	$5, %edx
 1681      00
 1682 0793 488D3500 		leaq	.LC15(%rip), %rsi
 1682      000000
 1683 079a 4889C7   		movq	%rax, %rdi
 1684 079d E8000000 		call	_ZSt16__ostream_insertIcSt11char_traitsIcEERSt13basic_ostreamIT_T0_ES6_PKS3_l@PLT
 1684      00
 1685              	.LVL169:
 570:/usr/include/c++/9.1.0/ostream **** 			 static_cast<streamsize>(_Traits::length(__s)));
 1686              		.loc 3 570 18 view .LVU429
 1687              	.LBE669:
 1688              	.LBE670:
 1689              	.LBB671:
 1690              	.LBI627:
 108:/usr/include/c++/9.1.0/ostream ****       {
 1691              		.loc 3 108 7 is_stmt 1 view .LVU430
 1692              	.LBB645:
 1693              	.LBI628:
 599:/usr/include/c++/9.1.0/ostream ****     { return flush(__os.put(__os.widen('\n'))); }
 1694              		.loc 3 599 5 view .LVU431
 1695              	.LBB644:
 600:/usr/include/c++/9.1.0/ostream **** 
 1696              		.loc 3 600 19 is_stmt 0 view .LVU432
 1697 07a2 488B03   		movq	(%rbx), %rax
 1698 07a5 4889D9   		movq	%rbx, %rcx
 1699 07a8 480348E8 		addq	-24(%rax), %rcx
 1700              	.LVL170:
 1701              	.LBB641:
 1702              	.LBI630:
 449:/usr/include/c++/9.1.0/bits/basic_ios.h ****       { return __check_facet(_M_ctype).widen(__c); }
 1703              		.loc 5 449 7 is_stmt 1 view .LVU433
 1704              	.LBB640:
 1705              		.loc 5 450 30 is_stmt 0 view .LVU434
 1706 07ac 4C8BB9F0 		movq	240(%rcx), %r15
 1706      000000
 1707              	.LVL171:
 1708              	.LBB638:
 1709              	.LBI632:
  47:/usr/include/c++/9.1.0/bits/basic_ios.h ****     {
 1710              		.loc 5 47 5 is_stmt 1 view .LVU435
 1711              	.LBB634:
  49:/usr/include/c++/9.1.0/bits/basic_ios.h **** 	__throw_bad_cast();
GAS LISTING /tmp/ccK1lRdA.s 			page 89


 1712              		.loc 5 49 7 is_stmt 0 view .LVU436
 1713 07b3 4D85FF   		testq	%r15, %r15
 1714 07b6 0F8435FF 		je	.L104
 1714      FFFF
 1715              	.LVL172:
  49:/usr/include/c++/9.1.0/bits/basic_ios.h **** 	__throw_bad_cast();
 1716              		.loc 5 49 7 view .LVU437
 1717              	.LBE634:
 1718              	.LBE638:
 1719              	.LBB639:
 1720              	.LBI635:
 872:/usr/include/c++/9.1.0/bits/locale_facets.h ****       {
 1721              		.loc 6 872 7 is_stmt 1 view .LVU438
 1722              	.LBB637:
 874:/usr/include/c++/9.1.0/bits/locale_facets.h **** 	  return _M_widen[static_cast<unsigned char>(__c)];
 1723              		.loc 6 874 2 view .LVU439
 1724 07bc 41807F38 		cmpb	$0, 56(%r15)
 1724      00
 1725 07c1 0F842FFF 		je	.L88
 1725      FFFF
 875:/usr/include/c++/9.1.0/bits/locale_facets.h **** 	this->_M_widen_init();
 1726              		.loc 6 875 4 view .LVU440
 875:/usr/include/c++/9.1.0/bits/locale_facets.h **** 	this->_M_widen_init();
 1727              		.loc 6 875 51 is_stmt 0 view .LVU441
 1728 07c7 410FB677 		movzbl	67(%r15), %esi
 1728      43
 1729              	.LVL173:
 1730              	.L89:
 875:/usr/include/c++/9.1.0/bits/locale_facets.h **** 	this->_M_widen_init();
 1731              		.loc 6 875 51 view .LVU442
 1732              	.LBE637:
 1733              	.LBE639:
 1734              	.LBE640:
 1735              	.LBE641:
 600:/usr/include/c++/9.1.0/ostream **** 
 1736              		.loc 3 600 19 view .LVU443
 1737 07cc 400FBEF6 		movsbl	%sil, %esi
 1738 07d0 4889DF   		movq	%rbx, %rdi
 1739 07d3 E8000000 		call	_ZNSo3putEc@PLT
 1739      00
 1740              	.LVL174:
 1741 07d8 4889C7   		movq	%rax, %rdi
 1742              	.LVL175:
 1743              	.LBB642:
 1744              	.LBI642:
 621:/usr/include/c++/9.1.0/ostream ****     { return __os.flush(); }
 1745              		.loc 3 621 5 is_stmt 1 view .LVU444
 1746              	.LBB643:
 1747              		.loc 3 622 25 is_stmt 0 view .LVU445
 1748 07db E8000000 		call	_ZNSo5flushEv@PLT
 1748      00
 1749              	.LVL176:
 1750              		.loc 3 622 25 view .LVU446
 1751              	.LBE643:
 1752              	.LBE642:
 1753              	.LBE644:
 1754              	.LBE645:
GAS LISTING /tmp/ccK1lRdA.s 			page 90


 1755              	.LBE671:
 170:Src/main.cpp  **** 		COORDS_DATATYPE _l = getLen(v->c, &inter);
 1756              		.loc 1 170 3 is_stmt 1 view .LVU447
 170:Src/main.cpp  **** 		COORDS_DATATYPE _l = getLen(v->c, &inter);
 1757              		.loc 1 170 64 is_stmt 0 view .LVU448
 1758 07e0 488D5C6D 		leaq	0(%rbp,%rbp,2), %rbx
 1758      00
 1759 07e5 48C1E304 		salq	$4, %rbx
 170:Src/main.cpp  **** 		COORDS_DATATYPE _l = getLen(v->c, &inter);
 1760              		.loc 1 170 68 view .LVU449
 1761 07e9 4889DF   		movq	%rbx, %rdi
 1762 07ec 49037D00 		addq	0(%r13), %rdi
 1763 07f0 4C89E6   		movq	%r12, %rsi
 1764 07f3 E8000000 		call	_Z15getIntersectionPK8obstaclePK4vect@PLT
 1764      00
 1765              	.LVL177:
 1766 07f8 660FD644 		movq	%xmm0, 16(%rsp)
 1766      2410
 171:Src/main.cpp  **** 		if(inter.x != -1 && inter.y != -1 && _l < l)
 1767              		.loc 1 171 3 is_stmt 1 view .LVU450
 171:Src/main.cpp  **** 		if(inter.x != -1 && inter.y != -1 && _l < l)
 1768              		.loc 1 171 34 is_stmt 0 view .LVU451
 1769 07fe 498B3C24 		movq	(%r12), %rdi
 171:Src/main.cpp  **** 		if(inter.x != -1 && inter.y != -1 && _l < l)
 1770              		.loc 1 171 30 view .LVU452
 1771 0802 488D7424 		leaq	16(%rsp), %rsi
 1771      10
 1772 0807 E8000000 		call	_Z6getLenPK6coordsS1_@PLT
 1772      00
 1773              	.LVL178:
 1774 080c F30F1144 		movss	%xmm0, 8(%rsp)
 1774      2408
 1775              	.LVL179:
 172:Src/main.cpp  **** 		{
 1776              		.loc 1 172 3 is_stmt 1 view .LVU453
 172:Src/main.cpp  **** 		{
 1777              		.loc 1 172 12 is_stmt 0 view .LVU454
 1778 0812 F30F1044 		movss	16(%rsp), %xmm0
 1778      2410
 1779              	.LVL180:
 172:Src/main.cpp  **** 		{
 1780              		.loc 1 172 3 view .LVU455
 1781 0818 0F2E0500 		ucomiss	.LC7(%rip), %xmm0
 1781      000000
 1782 081f 7A06     		jp	.L99
 1783 0821 0F8430FF 		je	.L90
 1783      FFFF
 1784              	.L99:
 172:Src/main.cpp  **** 		{
 1785              		.loc 1 172 29 discriminator 1 view .LVU456
 1786 0827 F30F1044 		movss	20(%rsp), %xmm0
 1786      2414
 172:Src/main.cpp  **** 		{
 1787              		.loc 1 172 20 discriminator 1 view .LVU457
 1788 082d 0F2E0500 		ucomiss	.LC7(%rip), %xmm0
 1788      000000
 1789 0834 7A06     		jp	.L100
GAS LISTING /tmp/ccK1lRdA.s 			page 91


 1790 0836 0F841BFF 		je	.L90
 1790      FFFF
 1791              	.L100:
 172:Src/main.cpp  **** 		{
 1792              		.loc 1 172 37 discriminator 2 view .LVU458
 1793 083c F30F104C 		movss	12(%rsp), %xmm1
 1793      240C
 1794 0842 0F2F4C24 		comiss	8(%rsp), %xmm1
 1794      08
 1795 0847 0F860AFF 		jbe	.L90
 1795      FFFF
 174:Src/main.cpp  **** 			o = &((struct obstacle*)dataset->items)[i];
 1796              		.loc 1 174 4 is_stmt 1 view .LVU459
 1797              	.LVL181:
 1798              	.LBB672:
 1799              	.LBI672:
 565:/usr/include/c++/9.1.0/ostream ****     {
 1800              		.loc 3 565 5 view .LVU460
 565:/usr/include/c++/9.1.0/ostream ****     {
 1801              		.loc 3 565 5 is_stmt 0 view .LVU461
 1802              	.LBE672:
 1803              	.LBE693:
 1804              	.LBE701:
 1805              		.loc 4 335 2 is_stmt 1 view .LVU462
 1806              	.LBB702:
 1807              	.LBB694:
 1808              	.LBB674:
 1809              	.LBB673:
 570:/usr/include/c++/9.1.0/ostream **** 			 static_cast<streamsize>(_Traits::length(__s)));
 1810              		.loc 3 570 18 is_stmt 0 view .LVU463
 1811 084d BA180000 		movl	$24, %edx
 1811      00
 1812 0852 488D3500 		leaq	.LC16(%rip), %rsi
 1812      000000
 1813 0859 488D3D00 		leaq	_ZSt4cout(%rip), %rdi
 1813      000000
 1814 0860 E8000000 		call	_ZSt16__ostream_insertIcSt11char_traitsIcEERSt13basic_ostreamIT_T0_ES6_PKS3_l@PLT
 1814      00
 1815              	.LVL182:
 570:/usr/include/c++/9.1.0/ostream **** 			 static_cast<streamsize>(_Traits::length(__s)));
 1816              		.loc 3 570 18 view .LVU464
 1817              	.LBE673:
 1818              	.LBE674:
 1819              	.LBB675:
 1820              	.LBI675:
 224:/usr/include/c++/9.1.0/ostream ****       {
 1821              		.loc 3 224 7 is_stmt 1 view .LVU465
 1822              	.LBB676:
 228:/usr/include/c++/9.1.0/ostream ****       }
 1823              		.loc 3 228 43 is_stmt 0 view .LVU466
 1824 0865 660FEFC0 		pxor	%xmm0, %xmm0
 1825 0869 F30F5A44 		cvtss2sd	16(%rsp), %xmm0
 1825      2410
 1826 086f 488D3D00 		leaq	_ZSt4cout(%rip), %rdi
 1826      000000
 1827 0876 E8000000 		call	_ZNSo9_M_insertIdEERSoT_@PLT
 1827      00
GAS LISTING /tmp/ccK1lRdA.s 			page 92


 1828              	.LVL183:
 228:/usr/include/c++/9.1.0/ostream ****       }
 1829              		.loc 3 228 43 view .LVU467
 1830 087b 4989C6   		movq	%rax, %r14
 1831              	.LVL184:
 228:/usr/include/c++/9.1.0/ostream ****       }
 1832              		.loc 3 228 43 view .LVU468
 1833              	.LBE676:
 1834              	.LBE675:
 1835              	.LBB677:
 1836              	.LBI677:
 565:/usr/include/c++/9.1.0/ostream ****     {
 1837              		.loc 3 565 5 is_stmt 1 view .LVU469
 565:/usr/include/c++/9.1.0/ostream ****     {
 1838              		.loc 3 565 5 is_stmt 0 view .LVU470
 1839              	.LBE677:
 1840              	.LBE694:
 1841              	.LBE702:
 1842              		.loc 4 335 2 is_stmt 1 view .LVU471
 1843              	.LBB703:
 1844              	.LBB695:
 1845              	.LBB679:
 1846              	.LBB678:
 570:/usr/include/c++/9.1.0/ostream **** 			 static_cast<streamsize>(_Traits::length(__s)));
 1847              		.loc 3 570 18 is_stmt 0 view .LVU472
 1848 087e BA010000 		movl	$1, %edx
 1848      00
 1849 0883 488D3500 		leaq	.LC11(%rip), %rsi
 1849      000000
 1850 088a 4889C7   		movq	%rax, %rdi
 1851 088d E8000000 		call	_ZSt16__ostream_insertIcSt11char_traitsIcEERSt13basic_ostreamIT_T0_ES6_PKS3_l@PLT
 1851      00
 1852              	.LVL185:
 570:/usr/include/c++/9.1.0/ostream **** 			 static_cast<streamsize>(_Traits::length(__s)));
 1853              		.loc 3 570 18 view .LVU473
 1854              	.LBE678:
 1855              	.LBE679:
 1856              	.LBB680:
 1857              	.LBI680:
 224:/usr/include/c++/9.1.0/ostream ****       {
 1858              		.loc 3 224 7 is_stmt 1 view .LVU474
 1859              	.LBB681:
 228:/usr/include/c++/9.1.0/ostream ****       }
 1860              		.loc 3 228 43 is_stmt 0 view .LVU475
 1861 0892 660FEFC0 		pxor	%xmm0, %xmm0
 1862 0896 F30F5A44 		cvtss2sd	20(%rsp), %xmm0
 1862      2414
 1863 089c 4C89F7   		movq	%r14, %rdi
 1864 089f E8000000 		call	_ZNSo9_M_insertIdEERSoT_@PLT
 1864      00
 1865              	.LVL186:
 228:/usr/include/c++/9.1.0/ostream ****       }
 1866              		.loc 3 228 43 view .LVU476
 1867 08a4 4989C6   		movq	%rax, %r14
 1868              	.LVL187:
 228:/usr/include/c++/9.1.0/ostream ****       }
 1869              		.loc 3 228 43 view .LVU477
GAS LISTING /tmp/ccK1lRdA.s 			page 93


 1870              	.LBE681:
 1871              	.LBE680:
 1872              	.LBB682:
 1873              	.LBI682:
 565:/usr/include/c++/9.1.0/ostream ****     {
 1874              		.loc 3 565 5 is_stmt 1 view .LVU478
 565:/usr/include/c++/9.1.0/ostream ****     {
 1875              		.loc 3 565 5 is_stmt 0 view .LVU479
 1876              	.LBE682:
 1877              	.LBE695:
 1878              	.LBE703:
 1879              		.loc 4 335 2 is_stmt 1 view .LVU480
 1880              	.LBB704:
 1881              	.LBB696:
 1882              	.LBB684:
 1883              	.LBB683:
 570:/usr/include/c++/9.1.0/ostream **** 			 static_cast<streamsize>(_Traits::length(__s)));
 1884              		.loc 3 570 18 is_stmt 0 view .LVU481
 1885 08a7 BA0A0000 		movl	$10, %edx
 1885      00
 1886 08ac 488D3500 		leaq	.LC17(%rip), %rsi
 1886      000000
 1887 08b3 4889C7   		movq	%rax, %rdi
 1888 08b6 E8000000 		call	_ZSt16__ostream_insertIcSt11char_traitsIcEERSt13basic_ostreamIT_T0_ES6_PKS3_l@PLT
 1888      00
 1889              	.LVL188:
 570:/usr/include/c++/9.1.0/ostream **** 			 static_cast<streamsize>(_Traits::length(__s)));
 1890              		.loc 3 570 18 view .LVU482
 1891              	.LBE683:
 1892              	.LBE684:
 1893              	.LBB685:
 1894              	.LBI685:
 224:/usr/include/c++/9.1.0/ostream ****       {
 1895              		.loc 3 224 7 is_stmt 1 view .LVU483
 1896              	.LBB686:
 228:/usr/include/c++/9.1.0/ostream ****       }
 1897              		.loc 3 228 43 is_stmt 0 view .LVU484
 1898 08bb 660FEFC0 		pxor	%xmm0, %xmm0
 1899 08bf F30F5A44 		cvtss2sd	8(%rsp), %xmm0
 1899      2408
 1900 08c5 4C89F7   		movq	%r14, %rdi
 1901 08c8 E8000000 		call	_ZNSo9_M_insertIdEERSoT_@PLT
 1901      00
 1902              	.LVL189:
 1903 08cd 4989C6   		movq	%rax, %r14
 1904              	.LVL190:
 228:/usr/include/c++/9.1.0/ostream ****       }
 1905              		.loc 3 228 43 view .LVU485
 1906              	.LBE686:
 1907              	.LBE685:
 1908              	.LBB687:
 1909              	.LBI687:
 565:/usr/include/c++/9.1.0/ostream ****     {
 1910              		.loc 3 565 5 is_stmt 1 view .LVU486
 565:/usr/include/c++/9.1.0/ostream ****     {
 1911              		.loc 3 565 5 is_stmt 0 view .LVU487
 1912              	.LBE687:
GAS LISTING /tmp/ccK1lRdA.s 			page 94


 1913              	.LBE696:
 1914              	.LBE704:
 1915              		.loc 4 335 2 is_stmt 1 view .LVU488
 1916              	.LBB705:
 1917              	.LBB697:
 1918              	.LBB689:
 1919              	.LBB688:
 570:/usr/include/c++/9.1.0/ostream **** 			 static_cast<streamsize>(_Traits::length(__s)));
 1920              		.loc 3 570 18 is_stmt 0 view .LVU489
 1921 08d0 BA070000 		movl	$7, %edx
 1921      00
 1922 08d5 488D3500 		leaq	.LC18(%rip), %rsi
 1922      000000
 1923 08dc 4889C7   		movq	%rax, %rdi
 1924 08df E8000000 		call	_ZSt16__ostream_insertIcSt11char_traitsIcEERSt13basic_ostreamIT_T0_ES6_PKS3_l@PLT
 1924      00
 1925              	.LVL191:
 570:/usr/include/c++/9.1.0/ostream **** 			 static_cast<streamsize>(_Traits::length(__s)));
 1926              		.loc 3 570 18 view .LVU490
 1927              	.LBE688:
 1928              	.LBE689:
 1929              	.LBB690:
 1930              	.LBI646:
 108:/usr/include/c++/9.1.0/ostream ****       {
 1931              		.loc 3 108 7 is_stmt 1 view .LVU491
 1932              	.LBB664:
 1933              	.LBI647:
 599:/usr/include/c++/9.1.0/ostream ****     { return flush(__os.put(__os.widen('\n'))); }
 1934              		.loc 3 599 5 view .LVU492
 1935              	.LBB663:
 600:/usr/include/c++/9.1.0/ostream **** 
 1936              		.loc 3 600 19 is_stmt 0 view .LVU493
 1937 08e4 498B06   		movq	(%r14), %rax
 1938 08e7 4C89F1   		movq	%r14, %rcx
 1939 08ea 480348E8 		addq	-24(%rax), %rcx
 1940              	.LVL192:
 1941              	.LBB662:
 1942              	.LBI649:
 449:/usr/include/c++/9.1.0/bits/basic_ios.h ****       { return __check_facet(_M_ctype).widen(__c); }
 1943              		.loc 5 449 7 is_stmt 1 view .LVU494
 1944              	.LBB659:
 1945              		.loc 5 450 30 is_stmt 0 view .LVU495
 1946 08ee 4C8BB9F0 		movq	240(%rcx), %r15
 1946      000000
 1947              	.LVL193:
 1948              	.LBB657:
 1949              	.LBI651:
  47:/usr/include/c++/9.1.0/bits/basic_ios.h ****     {
 1950              		.loc 5 47 5 is_stmt 1 view .LVU496
 1951              	.LBB653:
  49:/usr/include/c++/9.1.0/bits/basic_ios.h **** 	__throw_bad_cast();
 1952              		.loc 5 49 7 is_stmt 0 view .LVU497
 1953 08f5 4D85FF   		testq	%r15, %r15
 1954 08f8 0F8415FE 		je	.L105
 1954      FFFF
 1955              	.LVL194:
  49:/usr/include/c++/9.1.0/bits/basic_ios.h **** 	__throw_bad_cast();
GAS LISTING /tmp/ccK1lRdA.s 			page 95


 1956              		.loc 5 49 7 view .LVU498
 1957              	.LBE653:
 1958              	.LBE657:
 1959              	.LBB658:
 1960              	.LBI654:
 872:/usr/include/c++/9.1.0/bits/locale_facets.h ****       {
 1961              		.loc 6 872 7 is_stmt 1 view .LVU499
 1962              	.LBB656:
 874:/usr/include/c++/9.1.0/bits/locale_facets.h **** 	  return _M_widen[static_cast<unsigned char>(__c)];
 1963              		.loc 6 874 2 view .LVU500
 1964 08fe 41807F38 		cmpb	$0, 56(%r15)
 1964      00
 1965 0903 0F840FFE 		je	.L95
 1965      FFFF
 875:/usr/include/c++/9.1.0/bits/locale_facets.h **** 	this->_M_widen_init();
 1966              		.loc 6 875 4 view .LVU501
 875:/usr/include/c++/9.1.0/bits/locale_facets.h **** 	this->_M_widen_init();
 1967              		.loc 6 875 51 is_stmt 0 view .LVU502
 1968 0909 410FB677 		movzbl	67(%r15), %esi
 1968      43
 1969 090e E91DFEFF 		jmp	.L96
 1969      FF
 1970              	.LVL195:
 1971              	.L82:
 875:/usr/include/c++/9.1.0/bits/locale_facets.h **** 	this->_M_widen_init();
 1972              		.loc 6 875 51 view .LVU503
 1973              	.LBE656:
 1974              	.LBE658:
 1975              	.LBE659:
 1976              	.LBE662:
 1977              	.LBE663:
 1978              	.LBE664:
 1979              	.LBE690:
 1980              	.LBE697:
 1981              	.LBE705:
 180:Src/main.cpp  **** 
 1982              		.loc 1 180 1 view .LVU504
 1983 0913 488B4424 		movq	24(%rsp), %rax
 1983      18
 1984 0918 64483304 		xorq	%fs:40, %rax
 1984      25280000 
 1984      00
 1985 0921 7512     		jne	.L106
 1986 0923 4C89F0   		movq	%r14, %rax
 1987 0926 4883C428 		addq	$40, %rsp
 1988              		.cfi_remember_state
 1989              		.cfi_def_cfa_offset 56
 1990 092a 5B       		popq	%rbx
 1991              		.cfi_def_cfa_offset 48
 1992 092b 5D       		popq	%rbp
 1993              		.cfi_def_cfa_offset 40
 1994              	.LVL196:
 180:Src/main.cpp  **** 
 1995              		.loc 1 180 1 view .LVU505
 1996 092c 415C     		popq	%r12
 1997              		.cfi_def_cfa_offset 32
 1998              	.LVL197:
GAS LISTING /tmp/ccK1lRdA.s 			page 96


 180:Src/main.cpp  **** 
 1999              		.loc 1 180 1 view .LVU506
 2000 092e 415D     		popq	%r13
 2001              		.cfi_def_cfa_offset 24
 2002              	.LVL198:
 180:Src/main.cpp  **** 
 2003              		.loc 1 180 1 view .LVU507
 2004 0930 415E     		popq	%r14
 2005              		.cfi_def_cfa_offset 16
 2006              	.LVL199:
 180:Src/main.cpp  **** 
 2007              		.loc 1 180 1 view .LVU508
 2008 0932 415F     		popq	%r15
 2009              		.cfi_def_cfa_offset 8
 2010 0934 C3       		ret
 2011              	.LVL200:
 2012              	.L106:
 2013              		.cfi_restore_state
 180:Src/main.cpp  **** 
 2014              		.loc 1 180 1 view .LVU509
 2015 0935 E8000000 		call	__stack_chk_fail@PLT
 2015      00
 2016              	.LVL201:
 2017              		.cfi_endproc
 2018              	.LFE2479:
 2020              		.section	.rodata.str1.1
 2021              	.LC19:
 2022 0076 57617463 		.string	"Watching corner "
 2022      68696E67 
 2022      20636F72 
 2022      6E657220 
 2022      00
 2023              	.LC20:
 2024 0087 206F6620 		.string	" of obstacle "
 2024      6F627374 
 2024      61636C65 
 2024      2000
 2025              	.LC21:
 2026 0095 2D3E466F 		.string	"->Found intersection"
 2026      756E6420 
 2026      696E7465 
 2026      72736563 
 2026      74696F6E 
 2027              	.LC23:
 2028 00aa 2D2D2D3E 		.string	"--->Adding edge from o_"
 2028      41646469 
 2028      6E672065 
 2028      64676520 
 2028      66726F6D 
 2029              	.LC24:
 2030 00c2 20746F20 		.string	" to o_"
 2030      6F5F00
 2031              	.LC25:
 2032 00c9 09090909 		.string	"\t\t\t\t<---"
 2032      3C2D2D2D 
 2032      00
 2033              	.LC26:
GAS LISTING /tmp/ccK1lRdA.s 			page 97


 2034 00d2 57697468 		.string	"With coords: "
 2034      20636F6F 
 2034      7264733A 
 2034      2000
 2035              	.LC27:
 2036 00e0 202D3E20 		.string	" -> "
 2036      00
 2037              		.text
 2038              		.globl	_Z14initObstCornerPK8obstacleh
 2040              	_Z14initObstCornerPK8obstacleh:
 2041              	.LVL202:
 2042              	.LFB2480:
 183:Src/main.cpp  **** 	cout << "Watching corner " << (int)corner << " of obstacle " << obst << endl;
 2043              		.loc 1 183 1 is_stmt 1 view -0
 2044              		.cfi_startproc
 183:Src/main.cpp  **** 	cout << "Watching corner " << (int)corner << " of obstacle " << obst << endl;
 2045              		.loc 1 183 1 is_stmt 0 view .LVU511
 2046 093a 4157     		pushq	%r15
 2047              		.cfi_def_cfa_offset 16
 2048              		.cfi_offset 15, -16
 2049 093c 4156     		pushq	%r14
 2050              		.cfi_def_cfa_offset 24
 2051              		.cfi_offset 14, -24
 2052 093e 4155     		pushq	%r13
 2053              		.cfi_def_cfa_offset 32
 2054              		.cfi_offset 13, -32
 2055 0940 4154     		pushq	%r12
 2056              		.cfi_def_cfa_offset 40
 2057              		.cfi_offset 12, -40
 2058 0942 55       		pushq	%rbp
 2059              		.cfi_def_cfa_offset 48
 2060              		.cfi_offset 6, -48
 2061 0943 53       		pushq	%rbx
 2062              		.cfi_def_cfa_offset 56
 2063              		.cfi_offset 3, -56
 2064 0944 4883EC58 		subq	$88, %rsp
 2065              		.cfi_def_cfa_offset 144
 2066 0948 4989FE   		movq	%rdi, %r14
 2067 094b 48897C24 		movq	%rdi, 16(%rsp)
 2067      10
 2068 0950 89F3     		movl	%esi, %ebx
 183:Src/main.cpp  **** 	cout << "Watching corner " << (int)corner << " of obstacle " << obst << endl;
 2069              		.loc 1 183 1 view .LVU512
 2070 0952 64488B04 		movq	%fs:40, %rax
 2070      25280000 
 2070      00
 2071 095b 48894424 		movq	%rax, 72(%rsp)
 2071      48
 2072 0960 31C0     		xorl	%eax, %eax
 184:Src/main.cpp  **** 	struct graphPoint *point = getPoint(obst, corner);
 2073              		.loc 1 184 2 is_stmt 1 view .LVU513
 2074              	.LVL203:
 2075              	.LBB805:
 2076              	.LBI805:
 565:/usr/include/c++/9.1.0/ostream ****     {
 2077              		.loc 3 565 5 view .LVU514
 565:/usr/include/c++/9.1.0/ostream ****     {
GAS LISTING /tmp/ccK1lRdA.s 			page 98


 2078              		.loc 3 565 5 is_stmt 0 view .LVU515
 2079              	.LBE805:
 2080              		.loc 4 335 2 is_stmt 1 view .LVU516
 2081              	.LBB807:
 2082              	.LBB806:
 570:/usr/include/c++/9.1.0/ostream **** 			 static_cast<streamsize>(_Traits::length(__s)));
 2083              		.loc 3 570 18 is_stmt 0 view .LVU517
 2084 0962 BA100000 		movl	$16, %edx
 2084      00
 2085 0967 488D3500 		leaq	.LC19(%rip), %rsi
 2085      000000
 2086              	.LVL204:
 570:/usr/include/c++/9.1.0/ostream **** 			 static_cast<streamsize>(_Traits::length(__s)));
 2087              		.loc 3 570 18 view .LVU518
 2088 096e 488D3D00 		leaq	_ZSt4cout(%rip), %rdi
 2088      000000
 2089              	.LVL205:
 570:/usr/include/c++/9.1.0/ostream **** 			 static_cast<streamsize>(_Traits::length(__s)));
 2090              		.loc 3 570 18 view .LVU519
 2091 0975 E8000000 		call	_ZSt16__ostream_insertIcSt11char_traitsIcEERSt13basic_ostreamIT_T0_ES6_PKS3_l@PLT
 2091      00
 2092              	.LVL206:
 570:/usr/include/c++/9.1.0/ostream **** 			 static_cast<streamsize>(_Traits::length(__s)));
 2093              		.loc 3 570 18 view .LVU520
 2094              	.LBE806:
 2095              	.LBE807:
 184:Src/main.cpp  **** 	struct graphPoint *point = getPoint(obst, corner);
 2096              		.loc 1 184 47 view .LVU521
 2097 097a 0FB6C3   		movzbl	%bl, %eax
 2098 097d 8944241C 		movl	%eax, 28(%rsp)
 2099 0981 89C6     		movl	%eax, %esi
 2100 0983 488D3D00 		leaq	_ZSt4cout(%rip), %rdi
 2100      000000
 2101 098a E8000000 		call	_ZNSolsEi@PLT
 2101      00
 2102              	.LVL207:
 2103 098f 4889C3   		movq	%rax, %rbx
 2104              	.LVL208:
 2105              	.LBB808:
 2106              	.LBI808:
 565:/usr/include/c++/9.1.0/ostream ****     {
 2107              		.loc 3 565 5 is_stmt 1 view .LVU522
 565:/usr/include/c++/9.1.0/ostream ****     {
 2108              		.loc 3 565 5 is_stmt 0 view .LVU523
 2109              	.LBE808:
 2110              		.loc 4 335 2 is_stmt 1 view .LVU524
 2111              	.LBB810:
 2112              	.LBB809:
 570:/usr/include/c++/9.1.0/ostream **** 			 static_cast<streamsize>(_Traits::length(__s)));
 2113              		.loc 3 570 18 is_stmt 0 view .LVU525
 2114 0992 BA0D0000 		movl	$13, %edx
 2114      00
 2115 0997 488D3500 		leaq	.LC20(%rip), %rsi
 2115      000000
 2116 099e 4889C7   		movq	%rax, %rdi
 2117 09a1 E8000000 		call	_ZSt16__ostream_insertIcSt11char_traitsIcEERSt13basic_ostreamIT_T0_ES6_PKS3_l@PLT
 2117      00
GAS LISTING /tmp/ccK1lRdA.s 			page 99


 2118              	.LVL209:
 570:/usr/include/c++/9.1.0/ostream **** 			 static_cast<streamsize>(_Traits::length(__s)));
 2119              		.loc 3 570 18 view .LVU526
 2120              	.LBE809:
 2121              	.LBE810:
 2122              	.LBB811:
 2123              	.LBI811:
 245:/usr/include/c++/9.1.0/ostream ****       { return _M_insert(__p); }
 2124              		.loc 3 245 7 is_stmt 1 view .LVU527
 2125              	.LBB812:
 246:/usr/include/c++/9.1.0/ostream **** 
 2126              		.loc 3 246 29 is_stmt 0 view .LVU528
 2127 09a6 4C89F6   		movq	%r14, %rsi
 2128 09a9 4889DF   		movq	%rbx, %rdi
 2129 09ac E8000000 		call	_ZNSo9_M_insertIPKvEERSoT_@PLT
 2129      00
 2130              	.LVL210:
 2131 09b1 4889C3   		movq	%rax, %rbx
 2132              	.LVL211:
 246:/usr/include/c++/9.1.0/ostream **** 
 2133              		.loc 3 246 29 view .LVU529
 2134              	.LBE812:
 2135              	.LBE811:
 2136              	.LBB813:
 2137              	.LBI813:
 108:/usr/include/c++/9.1.0/ostream ****       {
 2138              		.loc 3 108 7 is_stmt 1 view .LVU530
 2139              	.LBB814:
 2140              	.LBI814:
 599:/usr/include/c++/9.1.0/ostream ****     { return flush(__os.put(__os.widen('\n'))); }
 2141              		.loc 3 599 5 view .LVU531
 2142              	.LBB815:
 600:/usr/include/c++/9.1.0/ostream **** 
 2143              		.loc 3 600 19 is_stmt 0 view .LVU532
 2144 09b4 488B00   		movq	(%rax), %rax
 2145              	.LVL212:
 600:/usr/include/c++/9.1.0/ostream **** 
 2146              		.loc 3 600 19 view .LVU533
 2147 09b7 4889D9   		movq	%rbx, %rcx
 2148 09ba 480348E8 		addq	-24(%rax), %rcx
 2149              	.LVL213:
 2150              	.LBB816:
 2151              	.LBI816:
 449:/usr/include/c++/9.1.0/bits/basic_ios.h ****       { return __check_facet(_M_ctype).widen(__c); }
 2152              		.loc 5 449 7 is_stmt 1 view .LVU534
 2153              	.LBB817:
 2154              		.loc 5 450 30 is_stmt 0 view .LVU535
 2155 09be 488BA9F0 		movq	240(%rcx), %rbp
 2155      000000
 2156              	.LVL214:
 2157              	.LBB818:
 2158              	.LBI818:
  47:/usr/include/c++/9.1.0/bits/basic_ios.h ****     {
 2159              		.loc 5 47 5 is_stmt 1 view .LVU536
 2160              	.LBB819:
  49:/usr/include/c++/9.1.0/bits/basic_ios.h **** 	__throw_bad_cast();
 2161              		.loc 5 49 7 is_stmt 0 view .LVU537
GAS LISTING /tmp/ccK1lRdA.s 			page 100


 2162 09c5 4885ED   		testq	%rbp, %rbp
 2163 09c8 746B     		je	.L129
 2164              	.LVL215:
  49:/usr/include/c++/9.1.0/bits/basic_ios.h **** 	__throw_bad_cast();
 2165              		.loc 5 49 7 view .LVU538
 2166              	.LBE819:
 2167              	.LBE818:
 2168              	.LBB821:
 2169              	.LBI821:
 872:/usr/include/c++/9.1.0/bits/locale_facets.h ****       {
 2170              		.loc 6 872 7 is_stmt 1 view .LVU539
 2171              	.LBB822:
 874:/usr/include/c++/9.1.0/bits/locale_facets.h **** 	  return _M_widen[static_cast<unsigned char>(__c)];
 2172              		.loc 6 874 2 view .LVU540
 2173 09ca 807D3800 		cmpb	$0, 56(%rbp)
 2174 09ce 746A     		je	.L109
 875:/usr/include/c++/9.1.0/bits/locale_facets.h **** 	this->_M_widen_init();
 2175              		.loc 6 875 4 view .LVU541
 875:/usr/include/c++/9.1.0/bits/locale_facets.h **** 	this->_M_widen_init();
 2176              		.loc 6 875 51 is_stmt 0 view .LVU542
 2177 09d0 0FB64543 		movzbl	67(%rbp), %eax
 2178              	.LVL216:
 2179              	.L110:
 875:/usr/include/c++/9.1.0/bits/locale_facets.h **** 	this->_M_widen_init();
 2180              		.loc 6 875 51 view .LVU543
 2181              	.LBE822:
 2182              	.LBE821:
 2183              	.LBE817:
 2184              	.LBE816:
 600:/usr/include/c++/9.1.0/ostream **** 
 2185              		.loc 3 600 19 view .LVU544
 2186 09d4 0FBEF0   		movsbl	%al, %esi
 2187 09d7 4889DF   		movq	%rbx, %rdi
 2188 09da E8000000 		call	_ZNSo3putEc@PLT
 2188      00
 2189              	.LVL217:
 2190 09df 4889C7   		movq	%rax, %rdi
 2191              	.LVL218:
 2192              	.LBB827:
 2193              	.LBI827:
 621:/usr/include/c++/9.1.0/ostream ****     { return __os.flush(); }
 2194              		.loc 3 621 5 is_stmt 1 view .LVU545
 2195              	.LBB828:
 2196              		.loc 3 622 25 is_stmt 0 view .LVU546
 2197 09e2 E8000000 		call	_ZNSo5flushEv@PLT
 2197      00
 2198              	.LVL219:
 2199              		.loc 3 622 25 view .LVU547
 2200              	.LBE828:
 2201              	.LBE827:
 2202              	.LBE815:
 2203              	.LBE814:
 2204              	.LBE813:
 185:Src/main.cpp  **** 	struct array *obsts = getDataSet(obst, corner);
 2205              		.loc 1 185 2 is_stmt 1 view .LVU548
 185:Src/main.cpp  **** 	struct array *obsts = getDataSet(obst, corner);
 2206              		.loc 1 185 37 is_stmt 0 view .LVU549
GAS LISTING /tmp/ccK1lRdA.s 			page 101


 2207 09e7 448B7424 		movl	28(%rsp), %r14d
 2207      1C
 2208              	.LVL220:
 185:Src/main.cpp  **** 	struct array *obsts = getDataSet(obst, corner);
 2209              		.loc 1 185 37 view .LVU550
 2210 09ec 4489F6   		movl	%r14d, %esi
 2211 09ef 488B5C24 		movq	16(%rsp), %rbx
 2211      10
 2212 09f4 4889DF   		movq	%rbx, %rdi
 2213 09f7 E8000000 		call	_Z8getPointPK8obstacleh@PLT
 2213      00
 2214              	.LVL221:
 2215 09fc 48894424 		movq	%rax, 40(%rsp)
 2215      28
 2216              	.LVL222:
 186:Src/main.cpp  **** 	struct vect v;
 2217              		.loc 1 186 2 is_stmt 1 view .LVU551
 186:Src/main.cpp  **** 	struct vect v;
 2218              		.loc 1 186 34 is_stmt 0 view .LVU552
 2219 0a01 4489F6   		movl	%r14d, %esi
 2220 0a04 4889DF   		movq	%rbx, %rdi
 2221 0a07 E8000000 		call	_Z10getDataSetPK8obstacleh
 2221      00
 2222              	.LVL223:
 186:Src/main.cpp  **** 	struct vect v;
 2223              		.loc 1 186 34 view .LVU553
 2224 0a0c 48894424 		movq	%rax, 8(%rsp)
 2224      08
 2225              	.LVL224:
 187:Src/main.cpp  **** 	for(uint8_t i = 0; i < VECTORS_PER_CHECK; i++)
 2226              		.loc 1 187 2 is_stmt 1 view .LVU554
 187:Src/main.cpp  **** 	for(uint8_t i = 0; i < VECTORS_PER_CHECK; i++)
 2227              		.loc 1 187 14 is_stmt 0 view .LVU555
 2228 0a11 48C74424 		movq	$0, 48(%rsp)
 2228      30000000 
 2228      00
 2229 0a1a C7442438 		movl	$0x00000000, 56(%rsp)
 2229      00000000 
 2230 0a22 C744243C 		movl	$0x00000000, 60(%rsp)
 2230      00000000 
 188:Src/main.cpp  **** 	{
 2231              		.loc 1 188 2 is_stmt 1 view .LVU556
 2232              	.LVL225:
 2233              	.LBB832:
 188:Src/main.cpp  **** 	{
 2234              		.loc 1 188 14 is_stmt 0 view .LVU557
 2235 0a2a 41BE0000 		movl	$0, %r14d
 2235      0000
 2236 0a30 E97A0300 		jmp	.L126
 2236      00
 2237              	.LVL226:
 2238              	.L129:
 188:Src/main.cpp  **** 	{
 2239              		.loc 1 188 14 view .LVU558
 2240              	.LBE832:
 2241              	.LBB991:
 2242              	.LBB831:
GAS LISTING /tmp/ccK1lRdA.s 			page 102


 2243              	.LBB830:
 2244              	.LBB829:
 2245              	.LBB826:
 2246              	.LBB824:
 2247              	.LBB820:
  50:/usr/include/c++/9.1.0/bits/basic_ios.h ****       return *__f;
 2248              		.loc 5 50 18 view .LVU559
 2249 0a35 E8000000 		call	_ZSt16__throw_bad_castv@PLT
 2249      00
 2250              	.LVL227:
 2251              	.L109:
  50:/usr/include/c++/9.1.0/bits/basic_ios.h ****       return *__f;
 2252              		.loc 5 50 18 view .LVU560
 2253              	.LBE820:
 2254              	.LBE824:
 2255              	.LBB825:
 2256              	.LBB823:
 876:/usr/include/c++/9.1.0/bits/locale_facets.h **** 	return this->do_widen(__c);
 2257              		.loc 6 876 2 is_stmt 1 view .LVU561
 876:/usr/include/c++/9.1.0/bits/locale_facets.h **** 	return this->do_widen(__c);
 2258              		.loc 6 876 21 is_stmt 0 view .LVU562
 2259 0a3a 4889EF   		movq	%rbp, %rdi
 2260 0a3d E8000000 		call	_ZNKSt5ctypeIcE13_M_widen_initEv@PLT
 2260      00
 2261              	.LVL228:
 2262              		.loc 6 877 2 is_stmt 1 view .LVU563
 2263              		.loc 6 877 27 is_stmt 0 view .LVU564
 2264 0a42 488B4500 		movq	0(%rbp), %rax
 2265              		.loc 6 877 23 view .LVU565
 2266 0a46 BE0A0000 		movl	$10, %esi
 2266      00
 2267 0a4b 4889EF   		movq	%rbp, %rdi
 2268 0a4e FF5030   		call	*48(%rax)
 2269              	.LVL229:
 2270              		.loc 6 877 27 view .LVU566
 2271 0a51 EB81     		jmp	.L110
 2272              	.LVL230:
 2273              	.L131:
 2274              		.loc 6 877 27 view .LVU567
 2275              	.LBE823:
 2276              	.LBE825:
 2277              	.LBE826:
 2278              	.LBE829:
 2279              	.LBE830:
 2280              	.LBE831:
 2281              	.LBE991:
 2282              	.LBB992:
 2283              	.LBB833:
 2284              	.LBB834:
 2285              	.LBB835:
 2286              	.LBB836:
 2287              	.LBB837:
 2288              	.LBB838:
 2289              	.LBB839:
 2290              	.LBB840:
 2291              	.LBB841:
 2292              	.LBB842:
GAS LISTING /tmp/ccK1lRdA.s 			page 103


 2293              	.LBB843:
  50:/usr/include/c++/9.1.0/bits/basic_ios.h ****       return *__f;
 2294              		.loc 5 50 18 view .LVU568
 2295 0a53 E8000000 		call	_ZSt16__throw_bad_castv@PLT
 2295      00
 2296              	.LVL231:
 2297              	.L114:
  50:/usr/include/c++/9.1.0/bits/basic_ios.h ****       return *__f;
 2298              		.loc 5 50 18 view .LVU569
 2299              	.LBE843:
 2300              	.LBE842:
 2301              	.LBB845:
 2302              	.LBB846:
 876:/usr/include/c++/9.1.0/bits/locale_facets.h **** 	return this->do_widen(__c);
 2303              		.loc 6 876 2 is_stmt 1 view .LVU570
 876:/usr/include/c++/9.1.0/bits/locale_facets.h **** 	return this->do_widen(__c);
 2304              		.loc 6 876 21 is_stmt 0 view .LVU571
 2305 0a58 4889DF   		movq	%rbx, %rdi
 2306 0a5b E8000000 		call	_ZNKSt5ctypeIcE13_M_widen_initEv@PLT
 2306      00
 2307              	.LVL232:
 2308              		.loc 6 877 2 is_stmt 1 view .LVU572
 2309              		.loc 6 877 27 is_stmt 0 view .LVU573
 2310 0a60 488B03   		movq	(%rbx), %rax
 2311              		.loc 6 877 23 view .LVU574
 2312 0a63 BE0A0000 		movl	$10, %esi
 2312      00
 2313 0a68 4889DF   		movq	%rbx, %rdi
 2314 0a6b FF5030   		call	*48(%rax)
 2315              	.LVL233:
 2316 0a6e 89C6     		movl	%eax, %esi
 2317              		.loc 6 877 27 view .LVU575
 2318 0a70 EB65     		jmp	.L115
 2319              	.LVL234:
 2320              	.L116:
 2321              		.loc 6 877 27 view .LVU576
 2322              	.LBE846:
 2323              	.LBE845:
 2324              	.LBE841:
 2325              	.LBE840:
 2326              	.LBE839:
 2327              	.LBE838:
 2328              	.LBE837:
 203:Src/main.cpp  **** 				{
 2329              		.loc 1 203 50 discriminator 3 view .LVU577
 2330 0a72 488D7424 		leaq	48(%rsp), %rsi
 2330      30
 2331 0a77 488B7C24 		movq	8(%rsp), %rdi
 2331      08
 2332 0a7c E8000000 		call	_Z14getIntersectedPK5arrayPK4vect
 2332      00
 2333              	.LVL235:
 203:Src/main.cpp  **** 				{
 2334              		.loc 1 203 33 discriminator 3 view .LVU578
 2335 0a81 4885C0   		testq	%rax, %rax
 2336 0a84 0F84D300 		je	.L130
 2336      0000
GAS LISTING /tmp/ccK1lRdA.s 			page 104


 2337              	.LVL236:
 2338              	.L117:
 197:Src/main.cpp  **** 			{
 2339              		.loc 1 197 4 discriminator 2 view .LVU579
 2340 0a8a 83C501   		addl	$1, %ebp
 2341              	.LVL237:
 2342              	.L125:
 197:Src/main.cpp  **** 			{
 2343              		.loc 1 197 25 discriminator 1 view .LVU580
 2344 0a8d 4080FD03 		cmpb	$3, %bpl
 2345 0a91 0F871403 		ja	.L112
 2345      0000
 199:Src/main.cpp  **** 				c = getCoordsOfCorner(o, h);
 2346              		.loc 1 199 5 is_stmt 1 view .LVU581
 2347              	.LVL238:
 2348              	.LBB856:
 2349              	.LBI856:
 565:/usr/include/c++/9.1.0/ostream ****     {
 2350              		.loc 3 565 5 view .LVU582
 565:/usr/include/c++/9.1.0/ostream ****     {
 2351              		.loc 3 565 5 is_stmt 0 view .LVU583
 2352              	.LBE856:
 2353              	.LBE836:
 2354              	.LBE835:
 2355              	.LBE834:
 2356              	.LBE833:
 2357              	.LBE992:
 2358              		.loc 4 335 2 is_stmt 1 view .LVU584
 2359              	.LBB993:
 2360              	.LBB980:
 2361              	.LBB969:
 2362              	.LBB958:
 2363              	.LBB947:
 2364              	.LBB858:
 2365              	.LBB857:
 570:/usr/include/c++/9.1.0/ostream **** 			 static_cast<streamsize>(_Traits::length(__s)));
 2366              		.loc 3 570 18 is_stmt 0 view .LVU585
 2367 0a97 BA140000 		movl	$20, %edx
 2367      00
 2368 0a9c 488D3500 		leaq	.LC21(%rip), %rsi
 2368      000000
 2369 0aa3 488D3D00 		leaq	_ZSt4cout(%rip), %rdi
 2369      000000
 2370 0aaa E8000000 		call	_ZSt16__ostream_insertIcSt11char_traitsIcEERSt13basic_ostreamIT_T0_ES6_PKS3_l@PLT
 2370      00
 2371              	.LVL239:
 570:/usr/include/c++/9.1.0/ostream **** 			 static_cast<streamsize>(_Traits::length(__s)));
 2372              		.loc 3 570 18 view .LVU586
 2373              	.LBE857:
 2374              	.LBE858:
 2375              	.LBB859:
 2376              	.LBI837:
 108:/usr/include/c++/9.1.0/ostream ****       {
 2377              		.loc 3 108 7 is_stmt 1 view .LVU587
 2378              	.LBB855:
 2379              	.LBI838:
 599:/usr/include/c++/9.1.0/ostream ****     { return flush(__os.put(__os.widen('\n'))); }
GAS LISTING /tmp/ccK1lRdA.s 			page 105


 2380              		.loc 3 599 5 view .LVU588
 2381              	.LBB854:
 600:/usr/include/c++/9.1.0/ostream **** 
 2382              		.loc 3 600 19 is_stmt 0 view .LVU589
 2383 0aaf 488D0500 		leaq	_ZSt4cout(%rip), %rax
 2383      000000
 2384 0ab6 488B1500 		movq	_ZSt4cout(%rip), %rdx
 2384      000000
 2385 0abd 480342E8 		addq	-24(%rdx), %rax
 2386              	.LVL240:
 2387              	.LBB851:
 2388              	.LBI840:
 449:/usr/include/c++/9.1.0/bits/basic_ios.h ****       { return __check_facet(_M_ctype).widen(__c); }
 2389              		.loc 5 449 7 is_stmt 1 view .LVU590
 2390              	.LBB850:
 2391              		.loc 5 450 30 is_stmt 0 view .LVU591
 2392 0ac1 488B98F0 		movq	240(%rax), %rbx
 2392      000000
 2393              	.LVL241:
 2394              	.LBB848:
 2395              	.LBI842:
  47:/usr/include/c++/9.1.0/bits/basic_ios.h ****     {
 2396              		.loc 5 47 5 is_stmt 1 view .LVU592
 2397              	.LBB844:
  49:/usr/include/c++/9.1.0/bits/basic_ios.h **** 	__throw_bad_cast();
 2398              		.loc 5 49 7 is_stmt 0 view .LVU593
 2399 0ac8 4885DB   		testq	%rbx, %rbx
 2400 0acb 7486     		je	.L131
 2401              	.LVL242:
  49:/usr/include/c++/9.1.0/bits/basic_ios.h **** 	__throw_bad_cast();
 2402              		.loc 5 49 7 view .LVU594
 2403              	.LBE844:
 2404              	.LBE848:
 2405              	.LBB849:
 2406              	.LBI845:
 872:/usr/include/c++/9.1.0/bits/locale_facets.h ****       {
 2407              		.loc 6 872 7 is_stmt 1 view .LVU595
 2408              	.LBB847:
 874:/usr/include/c++/9.1.0/bits/locale_facets.h **** 	  return _M_widen[static_cast<unsigned char>(__c)];
 2409              		.loc 6 874 2 view .LVU596
 2410 0acd 807B3800 		cmpb	$0, 56(%rbx)
 2411 0ad1 7485     		je	.L114
 875:/usr/include/c++/9.1.0/bits/locale_facets.h **** 	this->_M_widen_init();
 2412              		.loc 6 875 4 view .LVU597
 875:/usr/include/c++/9.1.0/bits/locale_facets.h **** 	this->_M_widen_init();
 2413              		.loc 6 875 51 is_stmt 0 view .LVU598
 2414 0ad3 0FB67343 		movzbl	67(%rbx), %esi
 2415              	.LVL243:
 2416              	.L115:
 875:/usr/include/c++/9.1.0/bits/locale_facets.h **** 	this->_M_widen_init();
 2417              		.loc 6 875 51 view .LVU599
 2418              	.LBE847:
 2419              	.LBE849:
 2420              	.LBE850:
 2421              	.LBE851:
 600:/usr/include/c++/9.1.0/ostream **** 
 2422              		.loc 3 600 19 view .LVU600
GAS LISTING /tmp/ccK1lRdA.s 			page 106


 2423 0ad7 400FBEF6 		movsbl	%sil, %esi
 2424 0adb 488D3D00 		leaq	_ZSt4cout(%rip), %rdi
 2424      000000
 2425 0ae2 E8000000 		call	_ZNSo3putEc@PLT
 2425      00
 2426              	.LVL244:
 2427 0ae7 4889C7   		movq	%rax, %rdi
 2428              	.LVL245:
 2429              	.LBB852:
 2430              	.LBI852:
 621:/usr/include/c++/9.1.0/ostream ****     { return __os.flush(); }
 2431              		.loc 3 621 5 is_stmt 1 view .LVU601
 2432              	.LBB853:
 2433              		.loc 3 622 25 is_stmt 0 view .LVU602
 2434 0aea E8000000 		call	_ZNSo5flushEv@PLT
 2434      00
 2435              	.LVL246:
 2436              		.loc 3 622 25 view .LVU603
 2437              	.LBE853:
 2438              	.LBE852:
 2439              	.LBE854:
 2440              	.LBE855:
 2441              	.LBE859:
 200:Src/main.cpp  **** 				v.dx = abs(c->x - v.c->x);
 2442              		.loc 1 200 5 is_stmt 1 view .LVU604
 200:Src/main.cpp  **** 				v.dx = abs(c->x - v.c->x);
 2443              		.loc 1 200 26 is_stmt 0 view .LVU605
 2444 0aef 440FB6ED 		movzbl	%bpl, %r13d
 2445 0af3 4489EE   		movl	%r13d, %esi
 2446 0af6 4C89E7   		movq	%r12, %rdi
 2447 0af9 E8000000 		call	_Z17getCoordsOfCornerPK8obstacleh@PLT
 2447      00
 2448              	.LVL247:
 2449 0afe 4889C3   		movq	%rax, %rbx
 2450              	.LVL248:
 201:Src/main.cpp  **** 				v.dy = abs(c->y - v.c->y);
 2451              		.loc 1 201 5 is_stmt 1 view .LVU606
 201:Src/main.cpp  **** 				v.dy = abs(c->y - v.c->y);
 2452              		.loc 1 201 19 is_stmt 0 view .LVU607
 2453 0b01 F30F1000 		movss	(%rax), %xmm0
 201:Src/main.cpp  **** 				v.dy = abs(c->y - v.c->y);
 2454              		.loc 1 201 25 view .LVU608
 2455 0b05 488B4424 		movq	48(%rsp), %rax
 2455      30
 2456              	.LVL249:
 201:Src/main.cpp  **** 				v.dy = abs(c->y - v.c->y);
 2457              		.loc 1 201 15 view .LVU609
 2458 0b0a F30F5C00 		subss	(%rax), %xmm0
 2459              	.LVL250:
 2460              	.LBB860:
 2461              	.LBI860:
 2462              		.file 7 "/usr/include/c++/9.1.0/bits/std_abs.h"
   1:/usr/include/c++/9.1.0/bits/std_abs.h **** // -*- C++ -*- C library enhancements header.
   2:/usr/include/c++/9.1.0/bits/std_abs.h **** 
   3:/usr/include/c++/9.1.0/bits/std_abs.h **** // Copyright (C) 2016-2019 Free Software Foundation, Inc.
   4:/usr/include/c++/9.1.0/bits/std_abs.h **** //
   5:/usr/include/c++/9.1.0/bits/std_abs.h **** // This file is part of the GNU ISO C++ Library.  This library is free
GAS LISTING /tmp/ccK1lRdA.s 			page 107


   6:/usr/include/c++/9.1.0/bits/std_abs.h **** // software; you can redistribute it and/or modify it under the
   7:/usr/include/c++/9.1.0/bits/std_abs.h **** // terms of the GNU General Public License as published by the
   8:/usr/include/c++/9.1.0/bits/std_abs.h **** // Free Software Foundation; either version 3, or (at your option)
   9:/usr/include/c++/9.1.0/bits/std_abs.h **** // any later version.
  10:/usr/include/c++/9.1.0/bits/std_abs.h **** 
  11:/usr/include/c++/9.1.0/bits/std_abs.h **** // This library is distributed in the hope that it will be useful,
  12:/usr/include/c++/9.1.0/bits/std_abs.h **** // but WITHOUT ANY WARRANTY; without even the implied warranty of
  13:/usr/include/c++/9.1.0/bits/std_abs.h **** // MERCHANTABILITY or FITNESS FOR A PARTICULAR PURPOSE.  See the
  14:/usr/include/c++/9.1.0/bits/std_abs.h **** // GNU General Public License for more details.
  15:/usr/include/c++/9.1.0/bits/std_abs.h **** 
  16:/usr/include/c++/9.1.0/bits/std_abs.h **** // Under Section 7 of GPL version 3, you are granted additional
  17:/usr/include/c++/9.1.0/bits/std_abs.h **** // permissions described in the GCC Runtime Library Exception, version
  18:/usr/include/c++/9.1.0/bits/std_abs.h **** // 3.1, as published by the Free Software Foundation.
  19:/usr/include/c++/9.1.0/bits/std_abs.h **** 
  20:/usr/include/c++/9.1.0/bits/std_abs.h **** // You should have received a copy of the GNU General Public License and
  21:/usr/include/c++/9.1.0/bits/std_abs.h **** // a copy of the GCC Runtime Library Exception along with this program;
  22:/usr/include/c++/9.1.0/bits/std_abs.h **** // see the files COPYING3 and COPYING.RUNTIME respectively.  If not, see
  23:/usr/include/c++/9.1.0/bits/std_abs.h **** // <http://www.gnu.org/licenses/>.
  24:/usr/include/c++/9.1.0/bits/std_abs.h **** 
  25:/usr/include/c++/9.1.0/bits/std_abs.h **** /** @file include/bits/std_abs.h
  26:/usr/include/c++/9.1.0/bits/std_abs.h ****  *  This is an internal header file, included by other library headers.
  27:/usr/include/c++/9.1.0/bits/std_abs.h ****  *  Do not attempt to use it directly. @headername{cmath, cstdlib}
  28:/usr/include/c++/9.1.0/bits/std_abs.h ****  */
  29:/usr/include/c++/9.1.0/bits/std_abs.h **** 
  30:/usr/include/c++/9.1.0/bits/std_abs.h **** #ifndef _GLIBCXX_BITS_STD_ABS_H
  31:/usr/include/c++/9.1.0/bits/std_abs.h **** #define _GLIBCXX_BITS_STD_ABS_H
  32:/usr/include/c++/9.1.0/bits/std_abs.h **** 
  33:/usr/include/c++/9.1.0/bits/std_abs.h **** #pragma GCC system_header
  34:/usr/include/c++/9.1.0/bits/std_abs.h **** 
  35:/usr/include/c++/9.1.0/bits/std_abs.h **** #include <bits/c++config.h>
  36:/usr/include/c++/9.1.0/bits/std_abs.h **** 
  37:/usr/include/c++/9.1.0/bits/std_abs.h **** #define _GLIBCXX_INCLUDE_NEXT_C_HEADERS
  38:/usr/include/c++/9.1.0/bits/std_abs.h **** #include_next <stdlib.h>
  39:/usr/include/c++/9.1.0/bits/std_abs.h **** #ifdef __CORRECT_ISO_CPP_MATH_H_PROTO
  40:/usr/include/c++/9.1.0/bits/std_abs.h **** # include_next <math.h>
  41:/usr/include/c++/9.1.0/bits/std_abs.h **** #endif
  42:/usr/include/c++/9.1.0/bits/std_abs.h **** #undef _GLIBCXX_INCLUDE_NEXT_C_HEADERS
  43:/usr/include/c++/9.1.0/bits/std_abs.h **** 
  44:/usr/include/c++/9.1.0/bits/std_abs.h **** #undef abs
  45:/usr/include/c++/9.1.0/bits/std_abs.h **** 
  46:/usr/include/c++/9.1.0/bits/std_abs.h **** extern "C++"
  47:/usr/include/c++/9.1.0/bits/std_abs.h **** {
  48:/usr/include/c++/9.1.0/bits/std_abs.h **** namespace std _GLIBCXX_VISIBILITY(default)
  49:/usr/include/c++/9.1.0/bits/std_abs.h **** {
  50:/usr/include/c++/9.1.0/bits/std_abs.h **** _GLIBCXX_BEGIN_NAMESPACE_VERSION
  51:/usr/include/c++/9.1.0/bits/std_abs.h **** 
  52:/usr/include/c++/9.1.0/bits/std_abs.h ****   using ::abs;
  53:/usr/include/c++/9.1.0/bits/std_abs.h **** 
  54:/usr/include/c++/9.1.0/bits/std_abs.h **** #ifndef __CORRECT_ISO_CPP_STDLIB_H_PROTO
  55:/usr/include/c++/9.1.0/bits/std_abs.h ****   inline long
  56:/usr/include/c++/9.1.0/bits/std_abs.h ****   abs(long __i) { return __builtin_labs(__i); }
  57:/usr/include/c++/9.1.0/bits/std_abs.h **** #endif
  58:/usr/include/c++/9.1.0/bits/std_abs.h **** 
  59:/usr/include/c++/9.1.0/bits/std_abs.h **** #ifdef _GLIBCXX_USE_LONG_LONG
  60:/usr/include/c++/9.1.0/bits/std_abs.h ****   inline long long
  61:/usr/include/c++/9.1.0/bits/std_abs.h ****   abs(long long __x) { return __builtin_llabs (__x); }
  62:/usr/include/c++/9.1.0/bits/std_abs.h **** #endif
GAS LISTING /tmp/ccK1lRdA.s 			page 108


  63:/usr/include/c++/9.1.0/bits/std_abs.h **** 
  64:/usr/include/c++/9.1.0/bits/std_abs.h **** // _GLIBCXX_RESOLVE_LIB_DEFECTS
  65:/usr/include/c++/9.1.0/bits/std_abs.h **** // 2192. Validity and return type of std::abs(0u) is unclear
  66:/usr/include/c++/9.1.0/bits/std_abs.h **** // 2294. <cstdlib> should declare abs(double)
  67:/usr/include/c++/9.1.0/bits/std_abs.h **** // 2735. std::abs(short), std::abs(signed char) and others should return int
  68:/usr/include/c++/9.1.0/bits/std_abs.h **** 
  69:/usr/include/c++/9.1.0/bits/std_abs.h **** #ifndef __CORRECT_ISO_CPP_MATH_H_PROTO
  70:/usr/include/c++/9.1.0/bits/std_abs.h ****   inline _GLIBCXX_CONSTEXPR double
  71:/usr/include/c++/9.1.0/bits/std_abs.h ****   abs(double __x)
  72:/usr/include/c++/9.1.0/bits/std_abs.h ****   { return __builtin_fabs(__x); }
  73:/usr/include/c++/9.1.0/bits/std_abs.h **** 
  74:/usr/include/c++/9.1.0/bits/std_abs.h ****   inline _GLIBCXX_CONSTEXPR float
  75:/usr/include/c++/9.1.0/bits/std_abs.h ****   abs(float __x)
 2463              		.loc 7 75 3 is_stmt 1 view .LVU610
 2464              	.LBB861:
  76:/usr/include/c++/9.1.0/bits/std_abs.h ****   { return __builtin_fabsf(__x); }
 2465              		.loc 7 76 5 view .LVU611
 2466              		.loc 7 76 31 is_stmt 0 view .LVU612
 2467 0b0e F30F1015 		movss	.LC22(%rip), %xmm2
 2467      00000000 
 2468 0b16 0F54C2   		andps	%xmm2, %xmm0
 2469              	.LVL251:
 2470              		.loc 7 76 31 view .LVU613
 2471              	.LBE861:
 2472              	.LBE860:
 201:Src/main.cpp  **** 				v.dy = abs(c->y - v.c->y);
 2473              		.loc 1 201 10 view .LVU614
 2474 0b19 F30F1144 		movss	%xmm0, 56(%rsp)
 2474      2438
 202:Src/main.cpp  **** 				if((v.dx != 0 || v.dy != 0) && getIntersected(obsts, &v) == NULL)
 2475              		.loc 1 202 5 is_stmt 1 view .LVU615
 202:Src/main.cpp  **** 				if((v.dx != 0 || v.dy != 0) && getIntersected(obsts, &v) == NULL)
 2476              		.loc 1 202 19 is_stmt 0 view .LVU616
 2477 0b1f F30F104B 		movss	4(%rbx), %xmm1
 2477      04
 202:Src/main.cpp  **** 				if((v.dx != 0 || v.dy != 0) && getIntersected(obsts, &v) == NULL)
 2478              		.loc 1 202 15 view .LVU617
 2479 0b24 F30F5C48 		subss	4(%rax), %xmm1
 2479      04
 2480              	.LVL252:
 2481              	.LBB862:
 2482              	.LBI862:
  75:/usr/include/c++/9.1.0/bits/std_abs.h ****   { return __builtin_fabsf(__x); }
 2483              		.loc 7 75 3 is_stmt 1 view .LVU618
 2484              	.LBB863:
 2485              		.loc 7 76 5 view .LVU619
 2486              		.loc 7 76 31 is_stmt 0 view .LVU620
 2487 0b29 0F54CA   		andps	%xmm2, %xmm1
 2488              	.LVL253:
 2489              		.loc 7 76 31 view .LVU621
 2490              	.LBE863:
 2491              	.LBE862:
 202:Src/main.cpp  **** 				if((v.dx != 0 || v.dy != 0) && getIntersected(obsts, &v) == NULL)
 2492              		.loc 1 202 10 view .LVU622
 2493 0b2c F30F114C 		movss	%xmm1, 60(%rsp)
 2493      243C
 203:Src/main.cpp  **** 				{
GAS LISTING /tmp/ccK1lRdA.s 			page 109


 2494              		.loc 1 203 5 is_stmt 1 view .LVU623
 203:Src/main.cpp  **** 				{
 2495              		.loc 1 203 33 is_stmt 0 view .LVU624
 2496 0b32 0F2E0500 		ucomiss	.LC9(%rip), %xmm0
 2496      000000
 2497 0b39 0F8A33FF 		jp	.L116
 2497      FFFF
 203:Src/main.cpp  **** 				{
 2498              		.loc 1 203 33 view .LVU625
 2499 0b3f 0F852DFF 		jne	.L116
 2499      FFFF
 203:Src/main.cpp  **** 				{
 2500              		.loc 1 203 19 discriminator 2 view .LVU626
 2501 0b45 0F2E0D00 		ucomiss	.LC9(%rip), %xmm1
 2501      000000
 2502 0b4c 0F8A20FF 		jp	.L116
 2502      FFFF
 2503 0b52 0F8432FF 		je	.L117
 2503      FFFF
 2504 0b58 E915FFFF 		jmp	.L116
 2504      FF
 2505              	.L130:
 205:Src/main.cpp  **** 						 << "With coords: " << v.c->x << ":" << v.c->y << " -> " << c->x << ":" << c->y << endl;
 2506              		.loc 1 205 6 is_stmt 1 view .LVU627
 2507              	.LVL254:
 2508              	.LBB864:
 2509              	.LBI864:
 565:/usr/include/c++/9.1.0/ostream ****     {
 2510              		.loc 3 565 5 view .LVU628
 565:/usr/include/c++/9.1.0/ostream ****     {
 2511              		.loc 3 565 5 is_stmt 0 view .LVU629
 2512              	.LBE864:
 2513              	.LBE947:
 2514              	.LBE958:
 2515              	.LBE969:
 2516              	.LBE980:
 2517              	.LBE993:
 2518              		.loc 4 335 2 is_stmt 1 view .LVU630
 2519              	.LBB994:
 2520              	.LBB981:
 2521              	.LBB970:
 2522              	.LBB959:
 2523              	.LBB948:
 2524              	.LBB866:
 2525              	.LBB865:
 570:/usr/include/c++/9.1.0/ostream **** 			 static_cast<streamsize>(_Traits::length(__s)));
 2526              		.loc 3 570 18 is_stmt 0 view .LVU631
 2527 0b5d BA170000 		movl	$23, %edx
 2527      00
 2528 0b62 488D3500 		leaq	.LC23(%rip), %rsi
 2528      000000
 2529 0b69 488D3D00 		leaq	_ZSt4cout(%rip), %rdi
 2529      000000
 2530 0b70 E8000000 		call	_ZSt16__ostream_insertIcSt11char_traitsIcEERSt13basic_ostreamIT_T0_ES6_PKS3_l@PLT
 2530      00
 2531              	.LVL255:
 570:/usr/include/c++/9.1.0/ostream **** 			 static_cast<streamsize>(_Traits::length(__s)));
GAS LISTING /tmp/ccK1lRdA.s 			page 110


 2532              		.loc 3 570 18 view .LVU632
 2533              	.LBE865:
 2534              	.LBE866:
 205:Src/main.cpp  **** 						 << "With coords: " << v.c->x << ":" << v.c->y << " -> " << c->x << ":" << c->y << endl;
 2535              		.loc 1 205 49 view .LVU633
 2536 0b75 488B4424 		movq	16(%rsp), %rax
 2536      10
 2537 0b7a 488B00   		movq	(%rax), %rax
 2538              	.LVL256:
 2539              	.LBB867:
 2540              	.LBI867:
 224:/usr/include/c++/9.1.0/ostream ****       {
 2541              		.loc 3 224 7 is_stmt 1 view .LVU634
 2542              	.LBB868:
 228:/usr/include/c++/9.1.0/ostream ****       }
 2543              		.loc 3 228 43 is_stmt 0 view .LVU635
 2544 0b7d 660FEFC0 		pxor	%xmm0, %xmm0
 2545 0b81 F30F5A00 		cvtss2sd	(%rax), %xmm0
 2546 0b85 488D3D00 		leaq	_ZSt4cout(%rip), %rdi
 2546      000000
 2547 0b8c E8000000 		call	_ZNSo9_M_insertIdEERSoT_@PLT
 2547      00
 2548              	.LVL257:
 228:/usr/include/c++/9.1.0/ostream ****       }
 2549              		.loc 3 228 43 view .LVU636
 2550 0b91 4989C7   		movq	%rax, %r15
 2551              	.LVL258:
 228:/usr/include/c++/9.1.0/ostream ****       }
 2552              		.loc 3 228 43 view .LVU637
 2553              	.LBE868:
 2554              	.LBE867:
 2555              	.LBB869:
 2556              	.LBI869:
 565:/usr/include/c++/9.1.0/ostream ****     {
 2557              		.loc 3 565 5 is_stmt 1 view .LVU638
 565:/usr/include/c++/9.1.0/ostream ****     {
 2558              		.loc 3 565 5 is_stmt 0 view .LVU639
 2559              	.LBE869:
 2560              	.LBE948:
 2561              	.LBE959:
 2562              	.LBE970:
 2563              	.LBE981:
 2564              	.LBE994:
 2565              		.loc 4 335 2 is_stmt 1 view .LVU640
 2566              	.LBB995:
 2567              	.LBB982:
 2568              	.LBB971:
 2569              	.LBB960:
 2570              	.LBB949:
 2571              	.LBB871:
 2572              	.LBB870:
 570:/usr/include/c++/9.1.0/ostream **** 			 static_cast<streamsize>(_Traits::length(__s)));
 2573              		.loc 3 570 18 is_stmt 0 view .LVU641
 2574 0b94 BA010000 		movl	$1, %edx
 2574      00
 2575 0b99 488D3500 		leaq	.LC11(%rip), %rsi
 2575      000000
GAS LISTING /tmp/ccK1lRdA.s 			page 111


 2576 0ba0 4889C7   		movq	%rax, %rdi
 2577 0ba3 E8000000 		call	_ZSt16__ostream_insertIcSt11char_traitsIcEERSt13basic_ostreamIT_T0_ES6_PKS3_l@PLT
 2577      00
 2578              	.LVL259:
 570:/usr/include/c++/9.1.0/ostream **** 			 static_cast<streamsize>(_Traits::length(__s)));
 2579              		.loc 3 570 18 view .LVU642
 2580              	.LBE870:
 2581              	.LBE871:
 205:Src/main.cpp  **** 						 << "With coords: " << v.c->x << ":" << v.c->y << " -> " << c->x << ":" << c->y << endl;
 2582              		.loc 1 205 70 view .LVU643
 2583 0ba8 488B4424 		movq	16(%rsp), %rax
 2583      10
 2584 0bad 488B00   		movq	(%rax), %rax
 2585              	.LVL260:
 2586              	.LBB872:
 2587              	.LBI872:
 224:/usr/include/c++/9.1.0/ostream ****       {
 2588              		.loc 3 224 7 is_stmt 1 view .LVU644
 2589              	.LBB873:
 228:/usr/include/c++/9.1.0/ostream ****       }
 2590              		.loc 3 228 43 is_stmt 0 view .LVU645
 2591 0bb0 660FEFC0 		pxor	%xmm0, %xmm0
 2592 0bb4 F30F5A40 		cvtss2sd	4(%rax), %xmm0
 2592      04
 2593 0bb9 4C89FF   		movq	%r15, %rdi
 2594 0bbc E8000000 		call	_ZNSo9_M_insertIdEERSoT_@PLT
 2594      00
 2595              	.LVL261:
 228:/usr/include/c++/9.1.0/ostream ****       }
 2596              		.loc 3 228 43 view .LVU646
 2597 0bc1 4989C7   		movq	%rax, %r15
 2598              	.LVL262:
 228:/usr/include/c++/9.1.0/ostream ****       }
 2599              		.loc 3 228 43 view .LVU647
 2600              	.LBE873:
 2601              	.LBE872:
 2602              	.LBB874:
 2603              	.LBI874:
 565:/usr/include/c++/9.1.0/ostream ****     {
 2604              		.loc 3 565 5 is_stmt 1 view .LVU648
 565:/usr/include/c++/9.1.0/ostream ****     {
 2605              		.loc 3 565 5 is_stmt 0 view .LVU649
 2606              	.LBE874:
 2607              	.LBE949:
 2608              	.LBE960:
 2609              	.LBE971:
 2610              	.LBE982:
 2611              	.LBE995:
 2612              		.loc 4 335 2 is_stmt 1 view .LVU650
 2613              	.LBB996:
 2614              	.LBB983:
 2615              	.LBB972:
 2616              	.LBB961:
 2617              	.LBB950:
 2618              	.LBB876:
 2619              	.LBB875:
 570:/usr/include/c++/9.1.0/ostream **** 			 static_cast<streamsize>(_Traits::length(__s)));
GAS LISTING /tmp/ccK1lRdA.s 			page 112


 2620              		.loc 3 570 18 is_stmt 0 view .LVU651
 2621 0bc4 BA060000 		movl	$6, %edx
 2621      00
 2622 0bc9 488D3500 		leaq	.LC24(%rip), %rsi
 2622      000000
 2623 0bd0 4889C7   		movq	%rax, %rdi
 2624 0bd3 E8000000 		call	_ZSt16__ostream_insertIcSt11char_traitsIcEERSt13basic_ostreamIT_T0_ES6_PKS3_l@PLT
 2624      00
 2625              	.LVL263:
 570:/usr/include/c++/9.1.0/ostream **** 			 static_cast<streamsize>(_Traits::length(__s)));
 2626              		.loc 3 570 18 view .LVU652
 2627              	.LBE875:
 2628              	.LBE876:
 205:Src/main.cpp  **** 						 << "With coords: " << v.c->x << ":" << v.c->y << " -> " << c->x << ":" << c->y << endl;
 2629              		.loc 1 205 93 view .LVU653
 2630 0bd8 498B0424 		movq	(%r12), %rax
 2631              	.LVL264:
 2632              	.LBB877:
 2633              	.LBI877:
 224:/usr/include/c++/9.1.0/ostream ****       {
 2634              		.loc 3 224 7 is_stmt 1 view .LVU654
 2635              	.LBB878:
 228:/usr/include/c++/9.1.0/ostream ****       }
 2636              		.loc 3 228 43 is_stmt 0 view .LVU655
 2637 0bdc 660FEFC0 		pxor	%xmm0, %xmm0
 2638 0be0 F30F5A00 		cvtss2sd	(%rax), %xmm0
 2639 0be4 4C89FF   		movq	%r15, %rdi
 2640 0be7 E8000000 		call	_ZNSo9_M_insertIdEERSoT_@PLT
 2640      00
 2641              	.LVL265:
 228:/usr/include/c++/9.1.0/ostream ****       }
 2642              		.loc 3 228 43 view .LVU656
 2643 0bec 4989C7   		movq	%rax, %r15
 2644              	.LVL266:
 228:/usr/include/c++/9.1.0/ostream ****       }
 2645              		.loc 3 228 43 view .LVU657
 2646              	.LBE878:
 2647              	.LBE877:
 2648              	.LBB879:
 2649              	.LBI879:
 565:/usr/include/c++/9.1.0/ostream ****     {
 2650              		.loc 3 565 5 is_stmt 1 view .LVU658
 565:/usr/include/c++/9.1.0/ostream ****     {
 2651              		.loc 3 565 5 is_stmt 0 view .LVU659
 2652              	.LBE879:
 2653              	.LBE950:
 2654              	.LBE961:
 2655              	.LBE972:
 2656              	.LBE983:
 2657              	.LBE996:
 2658              		.loc 4 335 2 is_stmt 1 view .LVU660
 2659              	.LBB997:
 2660              	.LBB984:
 2661              	.LBB973:
 2662              	.LBB962:
 2663              	.LBB951:
 2664              	.LBB881:
GAS LISTING /tmp/ccK1lRdA.s 			page 113


 2665              	.LBB880:
 570:/usr/include/c++/9.1.0/ostream **** 			 static_cast<streamsize>(_Traits::length(__s)));
 2666              		.loc 3 570 18 is_stmt 0 view .LVU661
 2667 0bef BA010000 		movl	$1, %edx
 2667      00
 2668 0bf4 488D3500 		leaq	.LC11(%rip), %rsi
 2668      000000
 2669 0bfb 4889C7   		movq	%rax, %rdi
 2670 0bfe E8000000 		call	_ZSt16__ostream_insertIcSt11char_traitsIcEERSt13basic_ostreamIT_T0_ES6_PKS3_l@PLT
 2670      00
 2671              	.LVL267:
 570:/usr/include/c++/9.1.0/ostream **** 			 static_cast<streamsize>(_Traits::length(__s)));
 2672              		.loc 3 570 18 view .LVU662
 2673              	.LBE880:
 2674              	.LBE881:
 205:Src/main.cpp  **** 						 << "With coords: " << v.c->x << ":" << v.c->y << " -> " << c->x << ":" << c->y << endl;
 2675              		.loc 1 205 111 view .LVU663
 2676 0c03 498B0424 		movq	(%r12), %rax
 2677              	.LVL268:
 2678              	.LBB882:
 2679              	.LBI882:
 224:/usr/include/c++/9.1.0/ostream ****       {
 2680              		.loc 3 224 7 is_stmt 1 view .LVU664
 2681              	.LBB883:
 228:/usr/include/c++/9.1.0/ostream ****       }
 2682              		.loc 3 228 43 is_stmt 0 view .LVU665
 2683 0c07 660FEFC0 		pxor	%xmm0, %xmm0
 2684 0c0b F30F5A40 		cvtss2sd	4(%rax), %xmm0
 2684      04
 2685 0c10 4C89FF   		movq	%r15, %rdi
 2686 0c13 E8000000 		call	_ZNSo9_M_insertIdEERSoT_@PLT
 2686      00
 2687              	.LVL269:
 228:/usr/include/c++/9.1.0/ostream ****       }
 2688              		.loc 3 228 43 view .LVU666
 2689 0c18 4989C7   		movq	%rax, %r15
 2690              	.LVL270:
 228:/usr/include/c++/9.1.0/ostream ****       }
 2691              		.loc 3 228 43 view .LVU667
 2692 0c1b 48894424 		movq	%rax, 32(%rsp)
 2692      20
 2693              	.LVL271:
 228:/usr/include/c++/9.1.0/ostream ****       }
 2694              		.loc 3 228 43 view .LVU668
 2695              	.LBE883:
 2696              	.LBE882:
 2697              	.LBB884:
 2698              	.LBI884:
 565:/usr/include/c++/9.1.0/ostream ****     {
 2699              		.loc 3 565 5 is_stmt 1 view .LVU669
 565:/usr/include/c++/9.1.0/ostream ****     {
 2700              		.loc 3 565 5 is_stmt 0 view .LVU670
 2701              	.LBE884:
 2702              	.LBE951:
 2703              	.LBE962:
 2704              	.LBE973:
 2705              	.LBE984:
GAS LISTING /tmp/ccK1lRdA.s 			page 114


 2706              	.LBE997:
 2707              		.loc 4 335 2 is_stmt 1 view .LVU671
 2708              	.LBB998:
 2709              	.LBB985:
 2710              	.LBB974:
 2711              	.LBB963:
 2712              	.LBB952:
 2713              	.LBB886:
 2714              	.LBB885:
 570:/usr/include/c++/9.1.0/ostream **** 			 static_cast<streamsize>(_Traits::length(__s)));
 2715              		.loc 3 570 18 is_stmt 0 view .LVU672
 2716 0c20 BA080000 		movl	$8, %edx
 2716      00
 2717 0c25 488D3500 		leaq	.LC25(%rip), %rsi
 2717      000000
 2718 0c2c 4889C7   		movq	%rax, %rdi
 2719 0c2f E8000000 		call	_ZSt16__ostream_insertIcSt11char_traitsIcEERSt13basic_ostreamIT_T0_ES6_PKS3_l@PLT
 2719      00
 2720              	.LVL272:
 570:/usr/include/c++/9.1.0/ostream **** 			 static_cast<streamsize>(_Traits::length(__s)));
 2721              		.loc 3 570 18 view .LVU673
 2722              	.LBE885:
 2723              	.LBE886:
 2724              	.LBB887:
 2725              	.LBI887:
 108:/usr/include/c++/9.1.0/ostream ****       {
 2726              		.loc 3 108 7 is_stmt 1 view .LVU674
 2727              	.LBB888:
 2728              	.LBI888:
 599:/usr/include/c++/9.1.0/ostream ****     { return flush(__os.put(__os.widen('\n'))); }
 2729              		.loc 3 599 5 view .LVU675
 2730              	.LBB889:
 600:/usr/include/c++/9.1.0/ostream **** 
 2731              		.loc 3 600 19 is_stmt 0 view .LVU676
 2732 0c34 4C89F9   		movq	%r15, %rcx
 2733 0c37 498B07   		movq	(%r15), %rax
 2734 0c3a 480348E8 		addq	-24(%rax), %rcx
 2735              	.LVL273:
 2736              	.LBB890:
 2737              	.LBI890:
 449:/usr/include/c++/9.1.0/bits/basic_ios.h ****       { return __check_facet(_M_ctype).widen(__c); }
 2738              		.loc 5 449 7 is_stmt 1 view .LVU677
 2739              	.LBB891:
 2740              		.loc 5 450 30 is_stmt 0 view .LVU678
 2741 0c3e 4C8BB9F0 		movq	240(%rcx), %r15
 2741      000000
 2742              	.LVL274:
 2743              	.LBB892:
 2744              	.LBI892:
  47:/usr/include/c++/9.1.0/bits/basic_ios.h ****     {
 2745              		.loc 5 47 5 is_stmt 1 view .LVU679
 2746              	.LBB893:
  49:/usr/include/c++/9.1.0/bits/basic_ios.h **** 	__throw_bad_cast();
 2747              		.loc 5 49 7 is_stmt 0 view .LVU680
 2748 0c45 4D85FF   		testq	%r15, %r15
 2749 0c48 0F841C01 		je	.L132
 2749      0000
GAS LISTING /tmp/ccK1lRdA.s 			page 115


 2750              	.LVL275:
  49:/usr/include/c++/9.1.0/bits/basic_ios.h **** 	__throw_bad_cast();
 2751              		.loc 5 49 7 view .LVU681
 2752              	.LBE893:
 2753              	.LBE892:
 2754              	.LBB895:
 2755              	.LBI895:
 872:/usr/include/c++/9.1.0/bits/locale_facets.h ****       {
 2756              		.loc 6 872 7 is_stmt 1 view .LVU682
 2757              	.LBB896:
 874:/usr/include/c++/9.1.0/bits/locale_facets.h **** 	  return _M_widen[static_cast<unsigned char>(__c)];
 2758              		.loc 6 874 2 view .LVU683
 2759 0c4e 41807F38 		cmpb	$0, 56(%r15)
 2759      00
 2760 0c53 0F841601 		je	.L120
 2760      0000
 875:/usr/include/c++/9.1.0/bits/locale_facets.h **** 	this->_M_widen_init();
 2761              		.loc 6 875 4 view .LVU684
 875:/usr/include/c++/9.1.0/bits/locale_facets.h **** 	this->_M_widen_init();
 2762              		.loc 6 875 51 is_stmt 0 view .LVU685
 2763 0c59 410FB677 		movzbl	67(%r15), %esi
 2763      43
 2764              	.LVL276:
 2765              	.L121:
 875:/usr/include/c++/9.1.0/bits/locale_facets.h **** 	this->_M_widen_init();
 2766              		.loc 6 875 51 view .LVU686
 2767              	.LBE896:
 2768              	.LBE895:
 2769              	.LBE891:
 2770              	.LBE890:
 600:/usr/include/c++/9.1.0/ostream **** 
 2771              		.loc 3 600 19 view .LVU687
 2772 0c5e 400FBEF6 		movsbl	%sil, %esi
 2773 0c62 488B7C24 		movq	32(%rsp), %rdi
 2773      20
 2774 0c67 E8000000 		call	_ZNSo3putEc@PLT
 2774      00
 2775              	.LVL277:
 2776 0c6c 4889C7   		movq	%rax, %rdi
 2777              	.LVL278:
 2778              	.LBB901:
 2779              	.LBI901:
 621:/usr/include/c++/9.1.0/ostream ****     { return __os.flush(); }
 2780              		.loc 3 621 5 is_stmt 1 view .LVU688
 2781              	.LBB902:
 2782              		.loc 3 622 25 is_stmt 0 view .LVU689
 2783 0c6f E8000000 		call	_ZNSo5flushEv@PLT
 2783      00
 2784              	.LVL279:
 2785              		.loc 3 622 25 view .LVU690
 2786 0c74 4989C7   		movq	%rax, %r15
 2787              	.LVL280:
 2788              		.loc 3 622 25 view .LVU691
 2789              	.LBE902:
 2790              	.LBE901:
 2791              	.LBE889:
 2792              	.LBE888:
GAS LISTING /tmp/ccK1lRdA.s 			page 116


 2793              	.LBE887:
 2794              	.LBB906:
 2795              	.LBI906:
 565:/usr/include/c++/9.1.0/ostream ****     {
 2796              		.loc 3 565 5 is_stmt 1 view .LVU692
 565:/usr/include/c++/9.1.0/ostream ****     {
 2797              		.loc 3 565 5 is_stmt 0 view .LVU693
 2798              	.LBE906:
 2799              	.LBE952:
 2800              	.LBE963:
 2801              	.LBE974:
 2802              	.LBE985:
 2803              	.LBE998:
 2804              		.loc 4 335 2 is_stmt 1 view .LVU694
 2805              	.LBB999:
 2806              	.LBB986:
 2807              	.LBB975:
 2808              	.LBB964:
 2809              	.LBB953:
 2810              	.LBB908:
 2811              	.LBB907:
 570:/usr/include/c++/9.1.0/ostream **** 			 static_cast<streamsize>(_Traits::length(__s)));
 2812              		.loc 3 570 18 is_stmt 0 view .LVU695
 2813 0c77 BA0D0000 		movl	$13, %edx
 2813      00
 2814 0c7c 488D3500 		leaq	.LC26(%rip), %rsi
 2814      000000
 2815 0c83 4889C7   		movq	%rax, %rdi
 2816 0c86 E8000000 		call	_ZSt16__ostream_insertIcSt11char_traitsIcEERSt13basic_ostreamIT_T0_ES6_PKS3_l@PLT
 2816      00
 2817              	.LVL281:
 570:/usr/include/c++/9.1.0/ostream **** 			 static_cast<streamsize>(_Traits::length(__s)));
 2818              		.loc 3 570 18 view .LVU696
 2819              	.LBE907:
 2820              	.LBE908:
 2821              	.LBB909:
 2822              	.LBI909:
 224:/usr/include/c++/9.1.0/ostream ****       {
 2823              		.loc 3 224 7 is_stmt 1 view .LVU697
 2824              	.LBB910:
 228:/usr/include/c++/9.1.0/ostream ****       }
 2825              		.loc 3 228 43 is_stmt 0 view .LVU698
 2826 0c8b 488B4424 		movq	48(%rsp), %rax
 2826      30
 2827 0c90 660FEFC0 		pxor	%xmm0, %xmm0
 2828 0c94 F30F5A00 		cvtss2sd	(%rax), %xmm0
 2829 0c98 4C89FF   		movq	%r15, %rdi
 2830 0c9b E8000000 		call	_ZNSo9_M_insertIdEERSoT_@PLT
 2830      00
 2831              	.LVL282:
 228:/usr/include/c++/9.1.0/ostream ****       }
 2832              		.loc 3 228 43 view .LVU699
 2833 0ca0 4989C7   		movq	%rax, %r15
 2834              	.LVL283:
 228:/usr/include/c++/9.1.0/ostream ****       }
 2835              		.loc 3 228 43 view .LVU700
 2836              	.LBE910:
GAS LISTING /tmp/ccK1lRdA.s 			page 117


 2837              	.LBE909:
 2838              	.LBB911:
 2839              	.LBI911:
 565:/usr/include/c++/9.1.0/ostream ****     {
 2840              		.loc 3 565 5 is_stmt 1 view .LVU701
 565:/usr/include/c++/9.1.0/ostream ****     {
 2841              		.loc 3 565 5 is_stmt 0 view .LVU702
 2842              	.LBE911:
 2843              	.LBE953:
 2844              	.LBE964:
 2845              	.LBE975:
 2846              	.LBE986:
 2847              	.LBE999:
 2848              		.loc 4 335 2 is_stmt 1 view .LVU703
 2849              	.LBB1000:
 2850              	.LBB987:
 2851              	.LBB976:
 2852              	.LBB965:
 2853              	.LBB954:
 2854              	.LBB913:
 2855              	.LBB912:
 570:/usr/include/c++/9.1.0/ostream **** 			 static_cast<streamsize>(_Traits::length(__s)));
 2856              		.loc 3 570 18 is_stmt 0 view .LVU704
 2857 0ca3 BA010000 		movl	$1, %edx
 2857      00
 2858 0ca8 488D3500 		leaq	.LC11(%rip), %rsi
 2858      000000
 2859 0caf 4889C7   		movq	%rax, %rdi
 2860 0cb2 E8000000 		call	_ZSt16__ostream_insertIcSt11char_traitsIcEERSt13basic_ostreamIT_T0_ES6_PKS3_l@PLT
 2860      00
 2861              	.LVL284:
 570:/usr/include/c++/9.1.0/ostream **** 			 static_cast<streamsize>(_Traits::length(__s)));
 2862              		.loc 3 570 18 view .LVU705
 2863              	.LBE912:
 2864              	.LBE913:
 2865              	.LBB914:
 2866              	.LBI914:
 224:/usr/include/c++/9.1.0/ostream ****       {
 2867              		.loc 3 224 7 is_stmt 1 view .LVU706
 2868              	.LBB915:
 228:/usr/include/c++/9.1.0/ostream ****       }
 2869              		.loc 3 228 43 is_stmt 0 view .LVU707
 2870 0cb7 488B4424 		movq	48(%rsp), %rax
 2870      30
 2871 0cbc 660FEFC0 		pxor	%xmm0, %xmm0
 2872 0cc0 F30F5A40 		cvtss2sd	4(%rax), %xmm0
 2872      04
 2873 0cc5 4C89FF   		movq	%r15, %rdi
 2874 0cc8 E8000000 		call	_ZNSo9_M_insertIdEERSoT_@PLT
 2874      00
 2875              	.LVL285:
 228:/usr/include/c++/9.1.0/ostream ****       }
 2876              		.loc 3 228 43 view .LVU708
 2877 0ccd 4989C7   		movq	%rax, %r15
 2878              	.LVL286:
 228:/usr/include/c++/9.1.0/ostream ****       }
 2879              		.loc 3 228 43 view .LVU709
GAS LISTING /tmp/ccK1lRdA.s 			page 118


 2880              	.LBE915:
 2881              	.LBE914:
 2882              	.LBB916:
 2883              	.LBI916:
 565:/usr/include/c++/9.1.0/ostream ****     {
 2884              		.loc 3 565 5 is_stmt 1 view .LVU710
 565:/usr/include/c++/9.1.0/ostream ****     {
 2885              		.loc 3 565 5 is_stmt 0 view .LVU711
 2886              	.LBE916:
 2887              	.LBE954:
 2888              	.LBE965:
 2889              	.LBE976:
 2890              	.LBE987:
 2891              	.LBE1000:
 2892              		.loc 4 335 2 is_stmt 1 view .LVU712
 2893              	.LBB1001:
 2894              	.LBB988:
 2895              	.LBB977:
 2896              	.LBB966:
 2897              	.LBB955:
 2898              	.LBB918:
 2899              	.LBB917:
 570:/usr/include/c++/9.1.0/ostream **** 			 static_cast<streamsize>(_Traits::length(__s)));
 2900              		.loc 3 570 18 is_stmt 0 view .LVU713
 2901 0cd0 BA040000 		movl	$4, %edx
 2901      00
 2902 0cd5 488D3500 		leaq	.LC27(%rip), %rsi
 2902      000000
 2903 0cdc 4889C7   		movq	%rax, %rdi
 2904 0cdf E8000000 		call	_ZSt16__ostream_insertIcSt11char_traitsIcEERSt13basic_ostreamIT_T0_ES6_PKS3_l@PLT
 2904      00
 2905              	.LVL287:
 570:/usr/include/c++/9.1.0/ostream **** 			 static_cast<streamsize>(_Traits::length(__s)));
 2906              		.loc 3 570 18 view .LVU714
 2907              	.LBE917:
 2908              	.LBE918:
 2909              	.LBB919:
 2910              	.LBI919:
 224:/usr/include/c++/9.1.0/ostream ****       {
 2911              		.loc 3 224 7 is_stmt 1 view .LVU715
 2912              	.LBB920:
 228:/usr/include/c++/9.1.0/ostream ****       }
 2913              		.loc 3 228 43 is_stmt 0 view .LVU716
 2914 0ce4 660FEFC0 		pxor	%xmm0, %xmm0
 2915 0ce8 F30F5A03 		cvtss2sd	(%rbx), %xmm0
 2916 0cec 4C89FF   		movq	%r15, %rdi
 2917 0cef E8000000 		call	_ZNSo9_M_insertIdEERSoT_@PLT
 2917      00
 2918              	.LVL288:
 228:/usr/include/c++/9.1.0/ostream ****       }
 2919              		.loc 3 228 43 view .LVU717
 2920 0cf4 4989C7   		movq	%rax, %r15
 2921              	.LVL289:
 228:/usr/include/c++/9.1.0/ostream ****       }
 2922              		.loc 3 228 43 view .LVU718
 2923              	.LBE920:
 2924              	.LBE919:
GAS LISTING /tmp/ccK1lRdA.s 			page 119


 2925              	.LBB921:
 2926              	.LBI921:
 565:/usr/include/c++/9.1.0/ostream ****     {
 2927              		.loc 3 565 5 is_stmt 1 view .LVU719
 565:/usr/include/c++/9.1.0/ostream ****     {
 2928              		.loc 3 565 5 is_stmt 0 view .LVU720
 2929              	.LBE921:
 2930              	.LBE955:
 2931              	.LBE966:
 2932              	.LBE977:
 2933              	.LBE988:
 2934              	.LBE1001:
 2935              		.loc 4 335 2 is_stmt 1 view .LVU721
 2936              	.LBB1002:
 2937              	.LBB989:
 2938              	.LBB978:
 2939              	.LBB967:
 2940              	.LBB956:
 2941              	.LBB923:
 2942              	.LBB922:
 570:/usr/include/c++/9.1.0/ostream **** 			 static_cast<streamsize>(_Traits::length(__s)));
 2943              		.loc 3 570 18 is_stmt 0 view .LVU722
 2944 0cf7 BA010000 		movl	$1, %edx
 2944      00
 2945 0cfc 488D3500 		leaq	.LC11(%rip), %rsi
 2945      000000
 2946 0d03 4889C7   		movq	%rax, %rdi
 2947 0d06 E8000000 		call	_ZSt16__ostream_insertIcSt11char_traitsIcEERSt13basic_ostreamIT_T0_ES6_PKS3_l@PLT
 2947      00
 2948              	.LVL290:
 570:/usr/include/c++/9.1.0/ostream **** 			 static_cast<streamsize>(_Traits::length(__s)));
 2949              		.loc 3 570 18 view .LVU723
 2950              	.LBE922:
 2951              	.LBE923:
 2952              	.LBB924:
 2953              	.LBI924:
 224:/usr/include/c++/9.1.0/ostream ****       {
 2954              		.loc 3 224 7 is_stmt 1 view .LVU724
 2955              	.LBB925:
 228:/usr/include/c++/9.1.0/ostream ****       }
 2956              		.loc 3 228 43 is_stmt 0 view .LVU725
 2957 0d0b 660FEFC0 		pxor	%xmm0, %xmm0
 2958 0d0f F30F5A43 		cvtss2sd	4(%rbx), %xmm0
 2958      04
 2959 0d14 4C89FF   		movq	%r15, %rdi
 2960 0d17 E8000000 		call	_ZNSo9_M_insertIdEERSoT_@PLT
 2960      00
 2961              	.LVL291:
 228:/usr/include/c++/9.1.0/ostream ****       }
 2962              		.loc 3 228 43 view .LVU726
 2963 0d1c 4989C7   		movq	%rax, %r15
 2964              	.LVL292:
 228:/usr/include/c++/9.1.0/ostream ****       }
 2965              		.loc 3 228 43 view .LVU727
 2966              	.LBE925:
 2967              	.LBE924:
 2968              	.LBB926:
GAS LISTING /tmp/ccK1lRdA.s 			page 120


 2969              	.LBI926:
 108:/usr/include/c++/9.1.0/ostream ****       {
 2970              		.loc 3 108 7 is_stmt 1 view .LVU728
 2971              	.LBB927:
 2972              	.LBI927:
 599:/usr/include/c++/9.1.0/ostream ****     { return flush(__os.put(__os.widen('\n'))); }
 2973              		.loc 3 599 5 view .LVU729
 2974              	.LBB928:
 600:/usr/include/c++/9.1.0/ostream **** 
 2975              		.loc 3 600 19 is_stmt 0 view .LVU730
 2976 0d1f 488B00   		movq	(%rax), %rax
 2977              	.LVL293:
 600:/usr/include/c++/9.1.0/ostream **** 
 2978              		.loc 3 600 19 view .LVU731
 2979 0d22 4C89F9   		movq	%r15, %rcx
 2980 0d25 480348E8 		addq	-24(%rax), %rcx
 2981              	.LVL294:
 2982              	.LBB929:
 2983              	.LBI929:
 449:/usr/include/c++/9.1.0/bits/basic_ios.h ****       { return __check_facet(_M_ctype).widen(__c); }
 2984              		.loc 5 449 7 is_stmt 1 view .LVU732
 2985              	.LBB930:
 2986              		.loc 5 450 30 is_stmt 0 view .LVU733
 2987 0d29 488B99F0 		movq	240(%rcx), %rbx
 2987      000000
 2988              	.LVL295:
 2989              	.LBB931:
 2990              	.LBI931:
  47:/usr/include/c++/9.1.0/bits/basic_ios.h ****     {
 2991              		.loc 5 47 5 is_stmt 1 view .LVU734
 2992              	.LBB932:
  49:/usr/include/c++/9.1.0/bits/basic_ios.h **** 	__throw_bad_cast();
 2993              		.loc 5 49 7 is_stmt 0 view .LVU735
 2994 0d30 4885DB   		testq	%rbx, %rbx
 2995 0d33 7457     		je	.L133
 2996              	.LVL296:
  49:/usr/include/c++/9.1.0/bits/basic_ios.h **** 	__throw_bad_cast();
 2997              		.loc 5 49 7 view .LVU736
 2998              	.LBE932:
 2999              	.LBE931:
 3000              	.LBB934:
 3001              	.LBI934:
 872:/usr/include/c++/9.1.0/bits/locale_facets.h ****       {
 3002              		.loc 6 872 7 is_stmt 1 view .LVU737
 3003              	.LBB935:
 874:/usr/include/c++/9.1.0/bits/locale_facets.h **** 	  return _M_widen[static_cast<unsigned char>(__c)];
 3004              		.loc 6 874 2 view .LVU738
 3005 0d35 807B3800 		cmpb	$0, 56(%rbx)
 3006 0d39 7456     		je	.L123
 875:/usr/include/c++/9.1.0/bits/locale_facets.h **** 	this->_M_widen_init();
 3007              		.loc 6 875 4 view .LVU739
 875:/usr/include/c++/9.1.0/bits/locale_facets.h **** 	this->_M_widen_init();
 3008              		.loc 6 875 51 is_stmt 0 view .LVU740
 3009 0d3b 0FB67343 		movzbl	67(%rbx), %esi
 3010              	.LVL297:
 3011              	.L124:
 875:/usr/include/c++/9.1.0/bits/locale_facets.h **** 	this->_M_widen_init();
GAS LISTING /tmp/ccK1lRdA.s 			page 121


 3012              		.loc 6 875 51 view .LVU741
 3013              	.LBE935:
 3014              	.LBE934:
 3015              	.LBE930:
 3016              	.LBE929:
 600:/usr/include/c++/9.1.0/ostream **** 
 3017              		.loc 3 600 19 view .LVU742
 3018 0d3f 400FBEF6 		movsbl	%sil, %esi
 3019 0d43 4C89FF   		movq	%r15, %rdi
 3020 0d46 E8000000 		call	_ZNSo3putEc@PLT
 3020      00
 3021              	.LVL298:
 3022 0d4b 4889C7   		movq	%rax, %rdi
 3023              	.LVL299:
 3024              	.LBB940:
 3025              	.LBI940:
 621:/usr/include/c++/9.1.0/ostream ****     { return __os.flush(); }
 3026              		.loc 3 621 5 is_stmt 1 view .LVU743
 3027              	.LBB941:
 3028              		.loc 3 622 25 is_stmt 0 view .LVU744
 3029 0d4e E8000000 		call	_ZNSo5flushEv@PLT
 3029      00
 3030              	.LVL300:
 3031              		.loc 3 622 25 view .LVU745
 3032              	.LBE941:
 3033              	.LBE940:
 3034              	.LBE928:
 3035              	.LBE927:
 3036              	.LBE926:
 207:Src/main.cpp  **** 				}
 3037              		.loc 1 207 6 is_stmt 1 view .LVU746
 207:Src/main.cpp  **** 				}
 3038              		.loc 1 207 15 is_stmt 0 view .LVU747
 3039 0d53 4D63ED   		movslq	%r13d, %r13
 3040 0d56 4B8B74EC 		movq	8(%r12,%r13,8), %rsi
 3040      08
 3041 0d5b 488B7C24 		movq	40(%rsp), %rdi
 3041      28
 3042 0d60 E8000000 		call	_Z9addTargetP10graphPointS0_@PLT
 3042      00
 3043              	.LVL301:
 3044 0d65 E920FDFF 		jmp	.L117
 3044      FF
 3045              	.LVL302:
 3046              	.L132:
 3047              	.LBB945:
 3048              	.LBB905:
 3049              	.LBB904:
 3050              	.LBB903:
 3051              	.LBB900:
 3052              	.LBB898:
 3053              	.LBB894:
  50:/usr/include/c++/9.1.0/bits/basic_ios.h ****       return *__f;
 3054              		.loc 5 50 18 view .LVU748
 3055 0d6a E8000000 		call	_ZSt16__throw_bad_castv@PLT
 3055      00
 3056              	.LVL303:
GAS LISTING /tmp/ccK1lRdA.s 			page 122


 3057              	.L120:
  50:/usr/include/c++/9.1.0/bits/basic_ios.h ****       return *__f;
 3058              		.loc 5 50 18 view .LVU749
 3059              	.LBE894:
 3060              	.LBE898:
 3061              	.LBB899:
 3062              	.LBB897:
 876:/usr/include/c++/9.1.0/bits/locale_facets.h **** 	return this->do_widen(__c);
 3063              		.loc 6 876 2 is_stmt 1 view .LVU750
 876:/usr/include/c++/9.1.0/bits/locale_facets.h **** 	return this->do_widen(__c);
 3064              		.loc 6 876 21 is_stmt 0 view .LVU751
 3065 0d6f 4C89FF   		movq	%r15, %rdi
 3066 0d72 E8000000 		call	_ZNKSt5ctypeIcE13_M_widen_initEv@PLT
 3066      00
 3067              	.LVL304:
 3068              		.loc 6 877 2 is_stmt 1 view .LVU752
 3069              		.loc 6 877 27 is_stmt 0 view .LVU753
 3070 0d77 498B07   		movq	(%r15), %rax
 3071              		.loc 6 877 23 view .LVU754
 3072 0d7a BE0A0000 		movl	$10, %esi
 3072      00
 3073 0d7f 4C89FF   		movq	%r15, %rdi
 3074 0d82 FF5030   		call	*48(%rax)
 3075              	.LVL305:
 3076 0d85 89C6     		movl	%eax, %esi
 3077              		.loc 6 877 27 view .LVU755
 3078 0d87 E9D2FEFF 		jmp	.L121
 3078      FF
 3079              	.LVL306:
 3080              	.L133:
 3081              		.loc 6 877 27 view .LVU756
 3082              	.LBE897:
 3083              	.LBE899:
 3084              	.LBE900:
 3085              	.LBE903:
 3086              	.LBE904:
 3087              	.LBE905:
 3088              	.LBE945:
 3089              	.LBB946:
 3090              	.LBB944:
 3091              	.LBB943:
 3092              	.LBB942:
 3093              	.LBB939:
 3094              	.LBB937:
 3095              	.LBB933:
  50:/usr/include/c++/9.1.0/bits/basic_ios.h ****       return *__f;
 3096              		.loc 5 50 18 view .LVU757
 3097 0d8c E8000000 		call	_ZSt16__throw_bad_castv@PLT
 3097      00
 3098              	.LVL307:
 3099              	.L123:
  50:/usr/include/c++/9.1.0/bits/basic_ios.h ****       return *__f;
 3100              		.loc 5 50 18 view .LVU758
 3101              	.LBE933:
 3102              	.LBE937:
 3103              	.LBB938:
 3104              	.LBB936:
GAS LISTING /tmp/ccK1lRdA.s 			page 123


 876:/usr/include/c++/9.1.0/bits/locale_facets.h **** 	return this->do_widen(__c);
 3105              		.loc 6 876 2 is_stmt 1 view .LVU759
 876:/usr/include/c++/9.1.0/bits/locale_facets.h **** 	return this->do_widen(__c);
 3106              		.loc 6 876 21 is_stmt 0 view .LVU760
 3107 0d91 4889DF   		movq	%rbx, %rdi
 3108 0d94 E8000000 		call	_ZNKSt5ctypeIcE13_M_widen_initEv@PLT
 3108      00
 3109              	.LVL308:
 3110              		.loc 6 877 2 is_stmt 1 view .LVU761
 3111              		.loc 6 877 27 is_stmt 0 view .LVU762
 3112 0d99 488B03   		movq	(%rbx), %rax
 3113              		.loc 6 877 23 view .LVU763
 3114 0d9c BE0A0000 		movl	$10, %esi
 3114      00
 3115 0da1 4889DF   		movq	%rbx, %rdi
 3116 0da4 FF5030   		call	*48(%rax)
 3117              	.LVL309:
 3118 0da7 89C6     		movl	%eax, %esi
 3119              		.loc 6 877 27 view .LVU764
 3120 0da9 EB94     		jmp	.L124
 3121              	.LVL310:
 3122              	.L112:
 3123              		.loc 6 877 27 view .LVU765
 3124              	.LBE936:
 3125              	.LBE938:
 3126              	.LBE939:
 3127              	.LBE942:
 3128              	.LBE943:
 3129              	.LBE944:
 3130              	.LBE946:
 3131              	.LBE956:
 3132              	.LBE967:
 3133              	.LBE978:
 3134              	.LBE989:
 188:Src/main.cpp  **** 	{
 3135              		.loc 1 188 2 discriminator 2 view .LVU766
 3136 0dab 4183C601 		addl	$1, %r14d
 3137              	.LVL311:
 3138              	.L126:
 188:Src/main.cpp  **** 	{
 3139              		.loc 1 188 23 discriminator 1 view .LVU767
 3140 0daf 4180FE13 		cmpb	$19, %r14b
 3141 0db3 774B     		ja	.L111
 3142              	.LBB990:
 191:Src/main.cpp  **** 		// cout << "Watching vector " << (int)i << endl;
 3143              		.loc 1 191 3 is_stmt 1 view .LVU768
 191:Src/main.cpp  **** 		// cout << "Watching vector " << (int)i << endl;
 3144              		.loc 1 191 61 is_stmt 0 view .LVU769
 3145 0db5 410FB6C6 		movzbl	%r14b, %eax
 191:Src/main.cpp  **** 		// cout << "Watching vector " << (int)i << endl;
 3146              		.loc 1 191 59 view .LVU770
 3147 0db9 8D04C0   		leal	(%rax,%rax,8), %eax
 3148 0dbc 01C0     		addl	%eax, %eax
 191:Src/main.cpp  **** 		// cout << "Watching vector " << (int)i << endl;
 3149              		.loc 1 191 63 view .LVU771
 3150 0dbe 660FEFC0 		pxor	%xmm0, %xmm0
 3151 0dc2 F30F2AC0 		cvtsi2ssl	%eax, %xmm0
GAS LISTING /tmp/ccK1lRdA.s 			page 124


 3152 0dc6 8B74241C 		movl	28(%rsp), %esi
 3153 0dca 488B7C24 		movq	16(%rsp), %rdi
 3153      10
 3154 0dcf E8000000 		call	_Z10createVectPK8obstaclehf
 3154      00
 3155              	.LVL312:
 3156 0dd4 48894424 		movq	%rax, 48(%rsp)
 3156      30
 3157 0dd9 660FD644 		movq	%xmm0, 56(%rsp)
 3157      2438
 193:Src/main.cpp  **** 		if(o != NULL)
 3158              		.loc 1 193 3 is_stmt 1 view .LVU772
 193:Src/main.cpp  **** 		if(o != NULL)
 3159              		.loc 1 193 38 is_stmt 0 view .LVU773
 3160 0ddf 488D7424 		leaq	48(%rsp), %rsi
 3160      30
 3161 0de4 488B7C24 		movq	8(%rsp), %rdi
 3161      08
 3162 0de9 E8000000 		call	_Z14getIntersectedPK5arrayPK4vect
 3162      00
 3163              	.LVL313:
 3164 0dee 4989C4   		movq	%rax, %r12
 3165              	.LVL314:
 194:Src/main.cpp  **** 		{
 3166              		.loc 1 194 3 is_stmt 1 view .LVU774
 3167              	.LBB979:
 3168 0df1 4885C0   		testq	%rax, %rax
 3169 0df4 74B5     		je	.L112
 3170              	.LBB968:
 3171              	.LBB957:
 197:Src/main.cpp  **** 			{
 3172              		.loc 1 197 16 is_stmt 0 view .LVU775
 3173 0df6 BD000000 		movl	$0, %ebp
 3173      00
 3174 0dfb E98DFCFF 		jmp	.L125
 3174      FF
 3175              	.LVL315:
 3176              	.L111:
 197:Src/main.cpp  **** 			{
 3177              		.loc 1 197 16 view .LVU776
 3178              	.LBE957:
 3179              	.LBE968:
 3180              	.LBE979:
 3181              	.LBE990:
 3182              	.LBE1002:
 212:Src/main.cpp  **** }
 3183              		.loc 1 212 2 is_stmt 1 view .LVU777
 212:Src/main.cpp  **** }
 3184              		.loc 1 212 6 is_stmt 0 view .LVU778
 3185 0e00 488B7C24 		movq	8(%rsp), %rdi
 3185      08
 3186 0e05 E8000000 		call	free@PLT
 3186      00
 3187              	.LVL316:
 213:Src/main.cpp  **** 
 3188              		.loc 1 213 1 view .LVU779
 3189 0e0a 488B4424 		movq	72(%rsp), %rax
GAS LISTING /tmp/ccK1lRdA.s 			page 125


 3189      48
 3190 0e0f 64483304 		xorq	%fs:40, %rax
 3190      25280000 
 3190      00
 3191 0e18 750F     		jne	.L134
 3192 0e1a 4883C458 		addq	$88, %rsp
 3193              		.cfi_remember_state
 3194              		.cfi_def_cfa_offset 56
 3195 0e1e 5B       		popq	%rbx
 3196              		.cfi_def_cfa_offset 48
 3197 0e1f 5D       		popq	%rbp
 3198              		.cfi_def_cfa_offset 40
 3199 0e20 415C     		popq	%r12
 3200              		.cfi_def_cfa_offset 32
 3201 0e22 415D     		popq	%r13
 3202              		.cfi_def_cfa_offset 24
 3203 0e24 415E     		popq	%r14
 3204              		.cfi_def_cfa_offset 16
 3205              	.LVL317:
 213:Src/main.cpp  **** 
 3206              		.loc 1 213 1 view .LVU780
 3207 0e26 415F     		popq	%r15
 3208              		.cfi_def_cfa_offset 8
 3209 0e28 C3       		ret
 3210              	.LVL318:
 3211              	.L134:
 3212              		.cfi_restore_state
 213:Src/main.cpp  **** 
 3213              		.loc 1 213 1 view .LVU781
 3214 0e29 E8000000 		call	__stack_chk_fail@PLT
 3214      00
 3215              	.LVL319:
 3216              		.cfi_endproc
 3217              	.LFE2480:
 3219              		.globl	_Z8initObstPK8obstacle
 3221              	_Z8initObstPK8obstacle:
 3222              	.LVL320:
 3223              	.LFB2481:
 218:Src/main.cpp  **** 	for(uint8_t i = 0; i < 4; i++)
 3224              		.loc 1 218 1 is_stmt 1 view -0
 3225              		.cfi_startproc
 218:Src/main.cpp  **** 	for(uint8_t i = 0; i < 4; i++)
 3226              		.loc 1 218 1 is_stmt 0 view .LVU783
 3227 0e2e 55       		pushq	%rbp
 3228              		.cfi_def_cfa_offset 16
 3229              		.cfi_offset 6, -16
 3230 0e2f 53       		pushq	%rbx
 3231              		.cfi_def_cfa_offset 24
 3232              		.cfi_offset 3, -24
 3233 0e30 4883EC08 		subq	$8, %rsp
 3234              		.cfi_def_cfa_offset 32
 3235 0e34 4889FD   		movq	%rdi, %rbp
 219:Src/main.cpp  **** 		initObstCorner(obst, i);
 3236              		.loc 1 219 2 is_stmt 1 view .LVU784
 3237              	.LVL321:
 3238              	.LBB1003:
 219:Src/main.cpp  **** 		initObstCorner(obst, i);
GAS LISTING /tmp/ccK1lRdA.s 			page 126


 3239              		.loc 1 219 14 is_stmt 0 view .LVU785
 3240 0e37 BB000000 		movl	$0, %ebx
 3240      00
 3241 0e3c EB0E     		jmp	.L137
 3242              	.LVL322:
 3243              	.L139:
 220:Src/main.cpp  **** }
 3244              		.loc 1 220 3 is_stmt 1 discriminator 2 view .LVU786
 220:Src/main.cpp  **** }
 3245              		.loc 1 220 17 is_stmt 0 discriminator 2 view .LVU787
 3246 0e3e 0FB6F3   		movzbl	%bl, %esi
 3247 0e41 4889EF   		movq	%rbp, %rdi
 3248 0e44 E8000000 		call	_Z14initObstCornerPK8obstacleh
 3248      00
 3249              	.LVL323:
 219:Src/main.cpp  **** 		initObstCorner(obst, i);
 3250              		.loc 1 219 2 discriminator 2 view .LVU788
 3251 0e49 83C301   		addl	$1, %ebx
 3252              	.LVL324:
 3253              	.L137:
 219:Src/main.cpp  **** 		initObstCorner(obst, i);
 3254              		.loc 1 219 23 discriminator 3 view .LVU789
 3255 0e4c 80FB03   		cmpb	$3, %bl
 3256 0e4f 76ED     		jbe	.L139
 3257              	.LBE1003:
 221:Src/main.cpp  **** 
 3258              		.loc 1 221 1 view .LVU790
 3259 0e51 4883C408 		addq	$8, %rsp
 3260              		.cfi_def_cfa_offset 24
 3261 0e55 5B       		popq	%rbx
 3262              		.cfi_def_cfa_offset 16
 3263              	.LVL325:
 221:Src/main.cpp  **** 
 3264              		.loc 1 221 1 view .LVU791
 3265 0e56 5D       		popq	%rbp
 3266              		.cfi_def_cfa_offset 8
 3267              	.LVL326:
 221:Src/main.cpp  **** 
 3268              		.loc 1 221 1 view .LVU792
 3269 0e57 C3       		ret
 3270              		.cfi_endproc
 3271              	.LFE2481:
 3273              		.globl	_Z16getCoordsOfPointPK10graphPoint
 3275              	_Z16getCoordsOfPointPK10graphPoint:
 3276              	.LVL327:
 3277              	.LFB2482:
 238:Src/main.cpp  **** 	return p->c;
 3278              		.loc 1 238 1 is_stmt 1 view -0
 3279              		.cfi_startproc
 239:Src/main.cpp  **** 
 3280              		.loc 1 239 2 view .LVU794
 239:Src/main.cpp  **** 
 3281              		.loc 1 239 12 is_stmt 0 view .LVU795
 3282 0e58 F30F7E47 		movq	16(%rdi), %xmm0
 3282      10
 259:Src/main.cpp  **** 
 3283              		.loc 1 259 1 view .LVU796
GAS LISTING /tmp/ccK1lRdA.s 			page 127


 3284 0e5d C3       		ret
 3285              		.cfi_endproc
 3286              	.LFE2482:
 3288              		.section	.rodata.str1.1
 3289              	.LC28:
 3290 00e5 094C696E 		.string	"\tLine: "
 3290      653A2000 
 3291              	.LC29:
 3292 00ed 090900   		.string	"\t\t"
 3293              		.text
 3294              		.globl	_Z9drawEdgesPK10graphPoint
 3296              	_Z9drawEdgesPK10graphPoint:
 3297              	.LVL328:
 3298              	.LFB2483:
 264:Src/main.cpp  **** 	if(p == NULL || p->numOfTargets == 0)
 3299              		.loc 1 264 1 is_stmt 1 view -0
 3300              		.cfi_startproc
 265:Src/main.cpp  **** 		return;
 3301              		.loc 1 265 2 view .LVU798
 3302 0e5e 4885FF   		testq	%rdi, %rdi
 3303 0e61 0F841D02 		je	.L154
 3303      0000
 264:Src/main.cpp  **** 	if(p == NULL || p->numOfTargets == 0)
 3304              		.loc 1 264 1 is_stmt 0 discriminator 1 view .LVU799
 3305 0e67 4156     		pushq	%r14
 3306              		.cfi_def_cfa_offset 16
 3307              		.cfi_offset 14, -16
 3308 0e69 4155     		pushq	%r13
 3309              		.cfi_def_cfa_offset 24
 3310              		.cfi_offset 13, -24
 3311 0e6b 4154     		pushq	%r12
 3312              		.cfi_def_cfa_offset 32
 3313              		.cfi_offset 12, -32
 3314 0e6d 55       		pushq	%rbp
 3315              		.cfi_def_cfa_offset 40
 3316              		.cfi_offset 6, -40
 3317 0e6e 53       		pushq	%rbx
 3318              		.cfi_def_cfa_offset 48
 3319              		.cfi_offset 3, -48
 3320 0e6f 4883EC10 		subq	$16, %rsp
 3321              		.cfi_def_cfa_offset 64
 3322 0e73 4989FC   		movq	%rdi, %r12
 265:Src/main.cpp  **** 		return;
 3323              		.loc 1 265 15 discriminator 1 view .LVU800
 3324 0e76 48837F08 		cmpq	$0, 8(%rdi)
 3324      00
 3325 0e7b 0F84F601 		je	.L141
 3325      0000
 268:Src/main.cpp  **** 	start = getCoordsOfPoint(p);
 3326              		.loc 1 268 2 is_stmt 1 view .LVU801
 269:Src/main.cpp  **** 	for(size_t i = 0; i < p->numOfTargets; i++)
 3327              		.loc 1 269 2 view .LVU802
 269:Src/main.cpp  **** 	for(size_t i = 0; i < p->numOfTargets; i++)
 3328              		.loc 1 269 28 is_stmt 0 view .LVU803
 3329 0e81 E8000000 		call	_Z16getCoordsOfPointPK10graphPoint
 3329      00
 3330              	.LVL329:
GAS LISTING /tmp/ccK1lRdA.s 			page 128


 269:Src/main.cpp  **** 	for(size_t i = 0; i < p->numOfTargets; i++)
 3331              		.loc 1 269 28 view .LVU804
 3332 0e86 66490F7E 		movq	%xmm0, %r13
 3332      C5
 3333              	.LVL330:
 270:Src/main.cpp  **** 	{
 3334              		.loc 1 270 2 is_stmt 1 view .LVU805
 3335              	.LBB1047:
 270:Src/main.cpp  **** 	{
 3336              		.loc 1 270 13 is_stmt 0 view .LVU806
 3337 0e8b BD000000 		movl	$0, %ebp
 3337      00
 3338 0e90 EB57     		jmp	.L152
 3339              	.LVL331:
 3340              	.L157:
 3341              	.LBB1048:
 3342              	.LBB1049:
 3343              	.LBB1050:
 3344              	.LBB1051:
 3345              	.LBB1052:
 3346              	.LBB1053:
 3347              	.LBB1054:
  50:/usr/include/c++/9.1.0/bits/basic_ios.h ****       return *__f;
 3348              		.loc 5 50 18 view .LVU807
 3349 0e92 E8000000 		call	_ZSt16__throw_bad_castv@PLT
 3349      00
 3350              	.LVL332:
 3351              	.L147:
  50:/usr/include/c++/9.1.0/bits/basic_ios.h ****       return *__f;
 3352              		.loc 5 50 18 view .LVU808
 3353              	.LBE1054:
 3354              	.LBE1053:
 3355              	.LBB1056:
 3356              	.LBB1057:
 876:/usr/include/c++/9.1.0/bits/locale_facets.h **** 	return this->do_widen(__c);
 3357              		.loc 6 876 2 is_stmt 1 view .LVU809
 876:/usr/include/c++/9.1.0/bits/locale_facets.h **** 	return this->do_widen(__c);
 3358              		.loc 6 876 21 is_stmt 0 view .LVU810
 3359 0e97 4889DF   		movq	%rbx, %rdi
 3360 0e9a E8000000 		call	_ZNKSt5ctypeIcE13_M_widen_initEv@PLT
 3360      00
 3361              	.LVL333:
 3362              		.loc 6 877 2 is_stmt 1 view .LVU811
 3363              		.loc 6 877 27 is_stmt 0 view .LVU812
 3364 0e9f 488B03   		movq	(%rbx), %rax
 3365              		.loc 6 877 23 view .LVU813
 3366 0ea2 BE0A0000 		movl	$10, %esi
 3366      00
 3367 0ea7 4889DF   		movq	%rbx, %rdi
 3368 0eaa FF5030   		call	*48(%rax)
 3369              	.LVL334:
 3370 0ead 89C6     		movl	%eax, %esi
 3371              		.loc 6 877 27 view .LVU814
 3372 0eaf E9D60000 		jmp	.L148
 3372      00
 3373              	.LVL335:
 3374              	.L158:
GAS LISTING /tmp/ccK1lRdA.s 			page 129


 3375              		.loc 6 877 27 view .LVU815
 3376              	.LBE1057:
 3377              	.LBE1056:
 3378              	.LBE1052:
 3379              	.LBE1051:
 3380              	.LBE1050:
 3381              	.LBE1049:
 3382              	.LBE1048:
 3383              	.LBB1067:
 3384              	.LBB1068:
 3385              	.LBB1069:
 3386              	.LBB1070:
 3387              	.LBB1071:
 3388              	.LBB1072:
 3389              	.LBB1073:
  50:/usr/include/c++/9.1.0/bits/basic_ios.h ****       return *__f;
 3390              		.loc 5 50 18 view .LVU816
 3391 0eb4 E8000000 		call	_ZSt16__throw_bad_castv@PLT
 3391      00
 3392              	.LVL336:
 3393              	.L150:
  50:/usr/include/c++/9.1.0/bits/basic_ios.h ****       return *__f;
 3394              		.loc 5 50 18 view .LVU817
 3395              	.LBE1073:
 3396              	.LBE1072:
 3397              	.LBB1075:
 3398              	.LBB1076:
 876:/usr/include/c++/9.1.0/bits/locale_facets.h **** 	return this->do_widen(__c);
 3399              		.loc 6 876 2 is_stmt 1 view .LVU818
 876:/usr/include/c++/9.1.0/bits/locale_facets.h **** 	return this->do_widen(__c);
 3400              		.loc 6 876 21 is_stmt 0 view .LVU819
 3401 0eb9 4C89F7   		movq	%r14, %rdi
 3402 0ebc E8000000 		call	_ZNKSt5ctypeIcE13_M_widen_initEv@PLT
 3402      00
 3403              	.LVL337:
 3404              		.loc 6 877 2 is_stmt 1 view .LVU820
 3405              		.loc 6 877 27 is_stmt 0 view .LVU821
 3406 0ec1 498B06   		movq	(%r14), %rax
 3407              		.loc 6 877 23 view .LVU822
 3408 0ec4 BE0A0000 		movl	$10, %esi
 3408      00
 3409 0ec9 4C89F7   		movq	%r14, %rdi
 3410 0ecc FF5030   		call	*48(%rax)
 3411              	.LVL338:
 3412 0ecf 89C6     		movl	%eax, %esi
 3413              	.L151:
 3414              	.LVL339:
 3415              		.loc 6 877 23 view .LVU823
 3416              	.LBE1076:
 3417              	.LBE1075:
 3418              	.LBE1071:
 3419              	.LBE1070:
 600:/usr/include/c++/9.1.0/ostream **** 
 3420              		.loc 3 600 19 view .LVU824
 3421 0ed1 400FBEF6 		movsbl	%sil, %esi
 3422 0ed5 4889DF   		movq	%rbx, %rdi
 3423 0ed8 E8000000 		call	_ZNSo3putEc@PLT
GAS LISTING /tmp/ccK1lRdA.s 			page 130


 3423      00
 3424              	.LVL340:
 3425 0edd 4889C7   		movq	%rax, %rdi
 3426              	.LVL341:
 3427              	.LBB1081:
 3428              	.LBI1081:
 621:/usr/include/c++/9.1.0/ostream ****     { return __os.flush(); }
 3429              		.loc 3 621 5 is_stmt 1 view .LVU825
 3430              	.LBB1082:
 3431              		.loc 3 622 25 is_stmt 0 view .LVU826
 3432 0ee0 E8000000 		call	_ZNSo5flushEv@PLT
 3432      00
 3433              	.LVL342:
 3434              		.loc 3 622 25 view .LVU827
 3435              	.LBE1082:
 3436              	.LBE1081:
 3437              	.LBE1069:
 3438              	.LBE1068:
 3439              	.LBE1067:
 270:Src/main.cpp  **** 	{
 3440              		.loc 1 270 2 view .LVU828
 3441 0ee5 4883C501 		addq	$1, %rbp
 3442              	.LVL343:
 3443              	.L152:
 270:Src/main.cpp  **** 	{
 3444              		.loc 1 270 22 discriminator 1 view .LVU829
 3445 0ee9 49396C24 		cmpq	%rbp, 8(%r12)
 3445      08
 3446 0eee 0F868301 		jbe	.L141
 3446      0000
 272:Src/main.cpp  **** 		drawLine(start.x, start.y, end.x, end.y);
 3447              		.loc 1 272 3 is_stmt 1 view .LVU830
 272:Src/main.cpp  **** 		drawLine(start.x, start.y, end.x, end.y);
 3448              		.loc 1 272 38 is_stmt 0 view .LVU831
 3449 0ef4 488D04ED 		leaq	0(,%rbp,8), %rax
 3449      00000000 
 3450 0efc 49030424 		addq	(%r12), %rax
 272:Src/main.cpp  **** 		drawLine(start.x, start.y, end.x, end.y);
 3451              		.loc 1 272 39 view .LVU832
 3452 0f00 488B38   		movq	(%rax), %rdi
 3453 0f03 E8000000 		call	_Z16getCoordsOfPointPK10graphPoint
 3453      00
 3454              	.LVL344:
 273:Src/main.cpp  **** 		cout 	<< "\tLine: " << endl
 3455              		.loc 1 273 3 is_stmt 1 view .LVU833
 273:Src/main.cpp  **** 		cout 	<< "\tLine: " << endl
 3456              		.loc 1 273 11 is_stmt 0 view .LVU834
 3457 0f08 66480F7E 		movq	%xmm0, %rcx
 3457      C1
 3458 0f0d 48C1E920 		shrq	$32, %rcx
 3459 0f11 660F6ED9 		movd	%ecx, %xmm3
 3460 0f15 894C2408 		movl	%ecx, 8(%rsp)
 3461 0f19 660F7E04 		movd	%xmm0, (%rsp)
 3461      24
 3462 0f1e 4C89E8   		movq	%r13, %rax
 3463 0f21 48C1E820 		shrq	$32, %rax
 3464 0f25 660F6EC8 		movd	%eax, %xmm1
GAS LISTING /tmp/ccK1lRdA.s 			page 131


 3465 0f29 8944240C 		movl	%eax, 12(%rsp)
 3466 0f2d 44896C24 		movl	%r13d, 4(%rsp)
 3466      04
 3467 0f32 F30F1014 		movss	(%rsp), %xmm2
 3467      24
 3468 0f37 F30F1044 		movss	4(%rsp), %xmm0
 3468      2404
 3469              	.LVL345:
 273:Src/main.cpp  **** 		cout 	<< "\tLine: " << endl
 3470              		.loc 1 273 11 view .LVU835
 3471 0f3d E8000000 		call	_Z8drawLineffff@PLT
 3471      00
 3472              	.LVL346:
 274:Src/main.cpp  **** 				<< "\t\t" << start.x << ":" << start.y << " -> " << end.x << ":" << end.y << endl;
 3473              		.loc 1 274 3 is_stmt 1 view .LVU836
 3474              	.LBB1086:
 3475              	.LBI1086:
 565:/usr/include/c++/9.1.0/ostream ****     {
 3476              		.loc 3 565 5 view .LVU837
 565:/usr/include/c++/9.1.0/ostream ****     {
 3477              		.loc 3 565 5 is_stmt 0 view .LVU838
 3478              	.LBE1086:
 3479              	.LBE1047:
 3480              		.loc 4 335 2 is_stmt 1 view .LVU839
 3481              	.LBB1111:
 3482              	.LBB1088:
 3483              	.LBB1087:
 570:/usr/include/c++/9.1.0/ostream **** 			 static_cast<streamsize>(_Traits::length(__s)));
 3484              		.loc 3 570 18 is_stmt 0 view .LVU840
 3485 0f42 BA070000 		movl	$7, %edx
 3485      00
 3486 0f47 488D3500 		leaq	.LC28(%rip), %rsi
 3486      000000
 3487 0f4e 488D3D00 		leaq	_ZSt4cout(%rip), %rdi
 3487      000000
 3488 0f55 E8000000 		call	_ZSt16__ostream_insertIcSt11char_traitsIcEERSt13basic_ostreamIT_T0_ES6_PKS3_l@PLT
 3488      00
 3489              	.LVL347:
 570:/usr/include/c++/9.1.0/ostream **** 			 static_cast<streamsize>(_Traits::length(__s)));
 3490              		.loc 3 570 18 view .LVU841
 3491              	.LBE1087:
 3492              	.LBE1088:
 3493              	.LBB1089:
 3494              	.LBI1048:
 108:/usr/include/c++/9.1.0/ostream ****       {
 3495              		.loc 3 108 7 is_stmt 1 view .LVU842
 3496              	.LBB1066:
 3497              	.LBI1049:
 599:/usr/include/c++/9.1.0/ostream ****     { return flush(__os.put(__os.widen('\n'))); }
 3498              		.loc 3 599 5 view .LVU843
 3499              	.LBB1065:
 600:/usr/include/c++/9.1.0/ostream **** 
 3500              		.loc 3 600 19 is_stmt 0 view .LVU844
 3501 0f5a 488D0500 		leaq	_ZSt4cout(%rip), %rax
 3501      000000
 3502 0f61 488B1500 		movq	_ZSt4cout(%rip), %rdx
 3502      000000
GAS LISTING /tmp/ccK1lRdA.s 			page 132


 3503 0f68 480342E8 		addq	-24(%rdx), %rax
 3504              	.LVL348:
 3505              	.LBB1062:
 3506              	.LBI1051:
 449:/usr/include/c++/9.1.0/bits/basic_ios.h ****       { return __check_facet(_M_ctype).widen(__c); }
 3507              		.loc 5 449 7 is_stmt 1 view .LVU845
 3508              	.LBB1061:
 3509              		.loc 5 450 30 is_stmt 0 view .LVU846
 3510 0f6c 488B98F0 		movq	240(%rax), %rbx
 3510      000000
 3511              	.LVL349:
 3512              	.LBB1059:
 3513              	.LBI1053:
  47:/usr/include/c++/9.1.0/bits/basic_ios.h ****     {
 3514              		.loc 5 47 5 is_stmt 1 view .LVU847
 3515              	.LBB1055:
  49:/usr/include/c++/9.1.0/bits/basic_ios.h **** 	__throw_bad_cast();
 3516              		.loc 5 49 7 is_stmt 0 view .LVU848
 3517 0f73 4885DB   		testq	%rbx, %rbx
 3518 0f76 0F8416FF 		je	.L157
 3518      FFFF
 3519              	.LVL350:
  49:/usr/include/c++/9.1.0/bits/basic_ios.h **** 	__throw_bad_cast();
 3520              		.loc 5 49 7 view .LVU849
 3521              	.LBE1055:
 3522              	.LBE1059:
 3523              	.LBB1060:
 3524              	.LBI1056:
 872:/usr/include/c++/9.1.0/bits/locale_facets.h ****       {
 3525              		.loc 6 872 7 is_stmt 1 view .LVU850
 3526              	.LBB1058:
 874:/usr/include/c++/9.1.0/bits/locale_facets.h **** 	  return _M_widen[static_cast<unsigned char>(__c)];
 3527              		.loc 6 874 2 view .LVU851
 3528 0f7c 807B3800 		cmpb	$0, 56(%rbx)
 3529 0f80 0F8411FF 		je	.L147
 3529      FFFF
 875:/usr/include/c++/9.1.0/bits/locale_facets.h **** 	this->_M_widen_init();
 3530              		.loc 6 875 4 view .LVU852
 875:/usr/include/c++/9.1.0/bits/locale_facets.h **** 	this->_M_widen_init();
 3531              		.loc 6 875 51 is_stmt 0 view .LVU853
 3532 0f86 0FB67343 		movzbl	67(%rbx), %esi
 3533              	.LVL351:
 3534              	.L148:
 875:/usr/include/c++/9.1.0/bits/locale_facets.h **** 	this->_M_widen_init();
 3535              		.loc 6 875 51 view .LVU854
 3536              	.LBE1058:
 3537              	.LBE1060:
 3538              	.LBE1061:
 3539              	.LBE1062:
 600:/usr/include/c++/9.1.0/ostream **** 
 3540              		.loc 3 600 19 view .LVU855
 3541 0f8a 400FBEF6 		movsbl	%sil, %esi
 3542 0f8e 488D3D00 		leaq	_ZSt4cout(%rip), %rdi
 3542      000000
 3543 0f95 E8000000 		call	_ZNSo3putEc@PLT
 3543      00
 3544              	.LVL352:
GAS LISTING /tmp/ccK1lRdA.s 			page 133


 3545 0f9a 4889C7   		movq	%rax, %rdi
 3546              	.LVL353:
 3547              	.LBB1063:
 3548              	.LBI1063:
 621:/usr/include/c++/9.1.0/ostream ****     { return __os.flush(); }
 3549              		.loc 3 621 5 is_stmt 1 view .LVU856
 3550              	.LBB1064:
 3551              		.loc 3 622 25 is_stmt 0 view .LVU857
 3552 0f9d E8000000 		call	_ZNSo5flushEv@PLT
 3552      00
 3553              	.LVL354:
 3554              		.loc 3 622 25 view .LVU858
 3555 0fa2 4889C3   		movq	%rax, %rbx
 3556              	.LVL355:
 3557              		.loc 3 622 25 view .LVU859
 3558              	.LBE1064:
 3559              	.LBE1063:
 3560              	.LBE1065:
 3561              	.LBE1066:
 3562              	.LBE1089:
 3563              	.LBB1090:
 3564              	.LBI1090:
 565:/usr/include/c++/9.1.0/ostream ****     {
 3565              		.loc 3 565 5 is_stmt 1 view .LVU860
 565:/usr/include/c++/9.1.0/ostream ****     {
 3566              		.loc 3 565 5 is_stmt 0 view .LVU861
 3567              	.LBE1090:
 3568              	.LBE1111:
 3569              		.loc 4 335 2 is_stmt 1 view .LVU862
 3570              	.LBB1112:
 3571              	.LBB1092:
 3572              	.LBB1091:
 570:/usr/include/c++/9.1.0/ostream **** 			 static_cast<streamsize>(_Traits::length(__s)));
 3573              		.loc 3 570 18 is_stmt 0 view .LVU863
 3574 0fa5 BA020000 		movl	$2, %edx
 3574      00
 3575 0faa 488D3500 		leaq	.LC29(%rip), %rsi
 3575      000000
 3576 0fb1 4889C7   		movq	%rax, %rdi
 3577 0fb4 E8000000 		call	_ZSt16__ostream_insertIcSt11char_traitsIcEERSt13basic_ostreamIT_T0_ES6_PKS3_l@PLT
 3577      00
 3578              	.LVL356:
 570:/usr/include/c++/9.1.0/ostream **** 			 static_cast<streamsize>(_Traits::length(__s)));
 3579              		.loc 3 570 18 view .LVU864
 3580              	.LBE1091:
 3581              	.LBE1092:
 3582              	.LBB1093:
 3583              	.LBI1093:
 224:/usr/include/c++/9.1.0/ostream ****       {
 3584              		.loc 3 224 7 is_stmt 1 view .LVU865
 3585              	.LBB1094:
 228:/usr/include/c++/9.1.0/ostream ****       }
 3586              		.loc 3 228 43 is_stmt 0 view .LVU866
 3587 0fb9 660FEFC0 		pxor	%xmm0, %xmm0
 3588 0fbd F30F5A44 		cvtss2sd	4(%rsp), %xmm0
 3588      2404
 3589 0fc3 4889DF   		movq	%rbx, %rdi
GAS LISTING /tmp/ccK1lRdA.s 			page 134


 3590 0fc6 E8000000 		call	_ZNSo9_M_insertIdEERSoT_@PLT
 3590      00
 3591              	.LVL357:
 3592 0fcb 4889C3   		movq	%rax, %rbx
 3593              	.LVL358:
 228:/usr/include/c++/9.1.0/ostream ****       }
 3594              		.loc 3 228 43 view .LVU867
 3595              	.LBE1094:
 3596              	.LBE1093:
 3597              	.LBB1095:
 3598              	.LBI1095:
 565:/usr/include/c++/9.1.0/ostream ****     {
 3599              		.loc 3 565 5 is_stmt 1 view .LVU868
 565:/usr/include/c++/9.1.0/ostream ****     {
 3600              		.loc 3 565 5 is_stmt 0 view .LVU869
 3601              	.LBE1095:
 3602              	.LBE1112:
 3603              		.loc 4 335 2 is_stmt 1 view .LVU870
 3604              	.LBB1113:
 3605              	.LBB1097:
 3606              	.LBB1096:
 570:/usr/include/c++/9.1.0/ostream **** 			 static_cast<streamsize>(_Traits::length(__s)));
 3607              		.loc 3 570 18 is_stmt 0 view .LVU871
 3608 0fce BA010000 		movl	$1, %edx
 3608      00
 3609 0fd3 488D3500 		leaq	.LC11(%rip), %rsi
 3609      000000
 3610 0fda 4889C7   		movq	%rax, %rdi
 3611 0fdd E8000000 		call	_ZSt16__ostream_insertIcSt11char_traitsIcEERSt13basic_ostreamIT_T0_ES6_PKS3_l@PLT
 3611      00
 3612              	.LVL359:
 570:/usr/include/c++/9.1.0/ostream **** 			 static_cast<streamsize>(_Traits::length(__s)));
 3613              		.loc 3 570 18 view .LVU872
 3614              	.LBE1096:
 3615              	.LBE1097:
 3616              	.LBB1098:
 3617              	.LBI1098:
 224:/usr/include/c++/9.1.0/ostream ****       {
 3618              		.loc 3 224 7 is_stmt 1 view .LVU873
 3619              	.LBB1099:
 228:/usr/include/c++/9.1.0/ostream ****       }
 3620              		.loc 3 228 43 is_stmt 0 view .LVU874
 3621 0fe2 660FEFC0 		pxor	%xmm0, %xmm0
 3622 0fe6 F30F5A44 		cvtss2sd	12(%rsp), %xmm0
 3622      240C
 3623 0fec 4889DF   		movq	%rbx, %rdi
 3624 0fef E8000000 		call	_ZNSo9_M_insertIdEERSoT_@PLT
 3624      00
 3625              	.LVL360:
 3626 0ff4 4889C3   		movq	%rax, %rbx
 3627              	.LVL361:
 228:/usr/include/c++/9.1.0/ostream ****       }
 3628              		.loc 3 228 43 view .LVU875
 3629              	.LBE1099:
 3630              	.LBE1098:
 3631              	.LBB1100:
 3632              	.LBI1100:
GAS LISTING /tmp/ccK1lRdA.s 			page 135


 565:/usr/include/c++/9.1.0/ostream ****     {
 3633              		.loc 3 565 5 is_stmt 1 view .LVU876
 565:/usr/include/c++/9.1.0/ostream ****     {
 3634              		.loc 3 565 5 is_stmt 0 view .LVU877
 3635              	.LBE1100:
 3636              	.LBE1113:
 3637              		.loc 4 335 2 is_stmt 1 view .LVU878
 3638              	.LBB1114:
 3639              	.LBB1102:
 3640              	.LBB1101:
 570:/usr/include/c++/9.1.0/ostream **** 			 static_cast<streamsize>(_Traits::length(__s)));
 3641              		.loc 3 570 18 is_stmt 0 view .LVU879
 3642 0ff7 BA040000 		movl	$4, %edx
 3642      00
 3643 0ffc 488D3500 		leaq	.LC27(%rip), %rsi
 3643      000000
 3644 1003 4889C7   		movq	%rax, %rdi
 3645 1006 E8000000 		call	_ZSt16__ostream_insertIcSt11char_traitsIcEERSt13basic_ostreamIT_T0_ES6_PKS3_l@PLT
 3645      00
 3646              	.LVL362:
 570:/usr/include/c++/9.1.0/ostream **** 			 static_cast<streamsize>(_Traits::length(__s)));
 3647              		.loc 3 570 18 view .LVU880
 3648              	.LBE1101:
 3649              	.LBE1102:
 3650              	.LBB1103:
 3651              	.LBI1103:
 224:/usr/include/c++/9.1.0/ostream ****       {
 3652              		.loc 3 224 7 is_stmt 1 view .LVU881
 3653              	.LBB1104:
 228:/usr/include/c++/9.1.0/ostream ****       }
 3654              		.loc 3 228 43 is_stmt 0 view .LVU882
 3655 100b 660FEFC0 		pxor	%xmm0, %xmm0
 3656 100f F30F5A04 		cvtss2sd	(%rsp), %xmm0
 3656      24
 3657 1014 4889DF   		movq	%rbx, %rdi
 3658 1017 E8000000 		call	_ZNSo9_M_insertIdEERSoT_@PLT
 3658      00
 3659              	.LVL363:
 3660 101c 4889C3   		movq	%rax, %rbx
 3661              	.LVL364:
 228:/usr/include/c++/9.1.0/ostream ****       }
 3662              		.loc 3 228 43 view .LVU883
 3663              	.LBE1104:
 3664              	.LBE1103:
 3665              	.LBB1105:
 3666              	.LBI1105:
 565:/usr/include/c++/9.1.0/ostream ****     {
 3667              		.loc 3 565 5 is_stmt 1 view .LVU884
 565:/usr/include/c++/9.1.0/ostream ****     {
 3668              		.loc 3 565 5 is_stmt 0 view .LVU885
 3669              	.LBE1105:
 3670              	.LBE1114:
 3671              		.loc 4 335 2 is_stmt 1 view .LVU886
 3672              	.LBB1115:
 3673              	.LBB1107:
 3674              	.LBB1106:
 570:/usr/include/c++/9.1.0/ostream **** 			 static_cast<streamsize>(_Traits::length(__s)));
GAS LISTING /tmp/ccK1lRdA.s 			page 136


 3675              		.loc 3 570 18 is_stmt 0 view .LVU887
 3676 101f BA010000 		movl	$1, %edx
 3676      00
 3677 1024 488D3500 		leaq	.LC11(%rip), %rsi
 3677      000000
 3678 102b 4889C7   		movq	%rax, %rdi
 3679 102e E8000000 		call	_ZSt16__ostream_insertIcSt11char_traitsIcEERSt13basic_ostreamIT_T0_ES6_PKS3_l@PLT
 3679      00
 3680              	.LVL365:
 570:/usr/include/c++/9.1.0/ostream **** 			 static_cast<streamsize>(_Traits::length(__s)));
 3681              		.loc 3 570 18 view .LVU888
 3682              	.LBE1106:
 3683              	.LBE1107:
 3684              	.LBB1108:
 3685              	.LBI1108:
 224:/usr/include/c++/9.1.0/ostream ****       {
 3686              		.loc 3 224 7 is_stmt 1 view .LVU889
 3687              	.LBB1109:
 228:/usr/include/c++/9.1.0/ostream ****       }
 3688              		.loc 3 228 43 is_stmt 0 view .LVU890
 3689 1033 660FEFC0 		pxor	%xmm0, %xmm0
 3690 1037 F30F5A44 		cvtss2sd	8(%rsp), %xmm0
 3690      2408
 3691 103d 4889DF   		movq	%rbx, %rdi
 3692 1040 E8000000 		call	_ZNSo9_M_insertIdEERSoT_@PLT
 3692      00
 3693              	.LVL366:
 3694 1045 4889C3   		movq	%rax, %rbx
 3695              	.LVL367:
 228:/usr/include/c++/9.1.0/ostream ****       }
 3696              		.loc 3 228 43 view .LVU891
 3697              	.LBE1109:
 3698              	.LBE1108:
 3699              	.LBB1110:
 3700              	.LBI1067:
 108:/usr/include/c++/9.1.0/ostream ****       {
 3701              		.loc 3 108 7 is_stmt 1 view .LVU892
 3702              	.LBB1085:
 3703              	.LBI1068:
 599:/usr/include/c++/9.1.0/ostream ****     { return flush(__os.put(__os.widen('\n'))); }
 3704              		.loc 3 599 5 view .LVU893
 3705              	.LBB1084:
 600:/usr/include/c++/9.1.0/ostream **** 
 3706              		.loc 3 600 19 is_stmt 0 view .LVU894
 3707 1048 488B00   		movq	(%rax), %rax
 3708              	.LVL368:
 600:/usr/include/c++/9.1.0/ostream **** 
 3709              		.loc 3 600 19 view .LVU895
 3710 104b 4889D9   		movq	%rbx, %rcx
 3711 104e 480348E8 		addq	-24(%rax), %rcx
 3712              	.LVL369:
 3713              	.LBB1083:
 3714              	.LBI1070:
 449:/usr/include/c++/9.1.0/bits/basic_ios.h ****       { return __check_facet(_M_ctype).widen(__c); }
 3715              		.loc 5 449 7 is_stmt 1 view .LVU896
 3716              	.LBB1080:
 3717              		.loc 5 450 30 is_stmt 0 view .LVU897
GAS LISTING /tmp/ccK1lRdA.s 			page 137


 3718 1052 4C8BB1F0 		movq	240(%rcx), %r14
 3718      000000
 3719              	.LVL370:
 3720              	.LBB1078:
 3721              	.LBI1072:
  47:/usr/include/c++/9.1.0/bits/basic_ios.h ****     {
 3722              		.loc 5 47 5 is_stmt 1 view .LVU898
 3723              	.LBB1074:
  49:/usr/include/c++/9.1.0/bits/basic_ios.h **** 	__throw_bad_cast();
 3724              		.loc 5 49 7 is_stmt 0 view .LVU899
 3725 1059 4D85F6   		testq	%r14, %r14
 3726 105c 0F8452FE 		je	.L158
 3726      FFFF
 3727              	.LVL371:
  49:/usr/include/c++/9.1.0/bits/basic_ios.h **** 	__throw_bad_cast();
 3728              		.loc 5 49 7 view .LVU900
 3729              	.LBE1074:
 3730              	.LBE1078:
 3731              	.LBB1079:
 3732              	.LBI1075:
 872:/usr/include/c++/9.1.0/bits/locale_facets.h ****       {
 3733              		.loc 6 872 7 is_stmt 1 view .LVU901
 3734              	.LBB1077:
 874:/usr/include/c++/9.1.0/bits/locale_facets.h **** 	  return _M_widen[static_cast<unsigned char>(__c)];
 3735              		.loc 6 874 2 view .LVU902
 3736 1062 41807E38 		cmpb	$0, 56(%r14)
 3736      00
 3737 1067 0F844CFE 		je	.L150
 3737      FFFF
 875:/usr/include/c++/9.1.0/bits/locale_facets.h **** 	this->_M_widen_init();
 3738              		.loc 6 875 4 view .LVU903
 875:/usr/include/c++/9.1.0/bits/locale_facets.h **** 	this->_M_widen_init();
 3739              		.loc 6 875 51 is_stmt 0 view .LVU904
 3740 106d 410FB676 		movzbl	67(%r14), %esi
 3740      43
 3741 1072 E95AFEFF 		jmp	.L151
 3741      FF
 3742              	.LVL372:
 3743              	.L141:
 875:/usr/include/c++/9.1.0/bits/locale_facets.h **** 	this->_M_widen_init();
 3744              		.loc 6 875 51 view .LVU905
 3745              	.LBE1077:
 3746              	.LBE1079:
 3747              	.LBE1080:
 3748              	.LBE1083:
 3749              	.LBE1084:
 3750              	.LBE1085:
 3751              	.LBE1110:
 3752              	.LBE1115:
 277:Src/main.cpp  **** 
 3753              		.loc 1 277 1 view .LVU906
 3754 1077 4883C410 		addq	$16, %rsp
 3755              		.cfi_def_cfa_offset 48
 3756 107b 5B       		popq	%rbx
 3757              		.cfi_def_cfa_offset 40
 3758 107c 5D       		popq	%rbp
 3759              		.cfi_def_cfa_offset 32
GAS LISTING /tmp/ccK1lRdA.s 			page 138


 3760 107d 415C     		popq	%r12
 3761              		.cfi_def_cfa_offset 24
 3762              	.LVL373:
 277:Src/main.cpp  **** 
 3763              		.loc 1 277 1 view .LVU907
 3764 107f 415D     		popq	%r13
 3765              		.cfi_def_cfa_offset 16
 3766              	.LVL374:
 277:Src/main.cpp  **** 
 3767              		.loc 1 277 1 view .LVU908
 3768 1081 415E     		popq	%r14
 3769              		.cfi_def_cfa_offset 8
 3770 1083 C3       		ret
 3771              	.LVL375:
 3772              	.L154:
 3773              		.cfi_restore 3
 3774              		.cfi_restore 6
 3775              		.cfi_restore 12
 3776              		.cfi_restore 13
 3777              		.cfi_restore 14
 277:Src/main.cpp  **** 
 3778              		.loc 1 277 1 view .LVU909
 3779 1084 C3       		ret
 3780              		.cfi_endproc
 3781              	.LFE2483:
 3783              		.globl	_Z12drawObstaclePK8obstacle
 3785              	_Z12drawObstaclePK8obstacle:
 3786              	.LVL376:
 3787              	.LFB2484:
 283:Src/main.cpp  **** 	glSetColor(OBST_COLOR);
 3788              		.loc 1 283 1 is_stmt 1 view -0
 3789              		.cfi_startproc
 283:Src/main.cpp  **** 	glSetColor(OBST_COLOR);
 3790              		.loc 1 283 1 is_stmt 0 view .LVU911
 3791 1085 55       		pushq	%rbp
 3792              		.cfi_def_cfa_offset 16
 3793              		.cfi_offset 6, -16
 3794 1086 53       		pushq	%rbx
 3795              		.cfi_def_cfa_offset 24
 3796              		.cfi_offset 3, -24
 3797 1087 4883EC08 		subq	$8, %rsp
 3798              		.cfi_def_cfa_offset 32
 3799 108b 4889FD   		movq	%rdi, %rbp
 284:Src/main.cpp  **** 	drawQuad(o->c->x, o->c->y, o->a);
 3800              		.loc 1 284 2 is_stmt 1 view .LVU912
 284:Src/main.cpp  **** 	drawQuad(o->c->x, o->c->y, o->a);
 3801              		.loc 1 284 12 is_stmt 0 view .LVU913
 3802 108e BF0000FF 		movl	$16711680, %edi
 3802      00
 3803              	.LVL377:
 284:Src/main.cpp  **** 	drawQuad(o->c->x, o->c->y, o->a);
 3804              		.loc 1 284 12 view .LVU914
 3805 1093 E8000000 		call	_Z10glSetColorj@PLT
 3805      00
 3806              	.LVL378:
 285:Src/main.cpp  **** 	glSetColor(GRAPH_COLOR);
 3807              		.loc 1 285 2 is_stmt 1 view .LVU915
GAS LISTING /tmp/ccK1lRdA.s 			page 139


 285:Src/main.cpp  **** 	glSetColor(GRAPH_COLOR);
 3808              		.loc 1 285 23 is_stmt 0 view .LVU916
 3809 1098 488B4500 		movq	0(%rbp), %rax
 285:Src/main.cpp  **** 	glSetColor(GRAPH_COLOR);
 3810              		.loc 1 285 10 view .LVU917
 3811 109c F30F1055 		movss	40(%rbp), %xmm2
 3811      28
 3812 10a1 F30F1048 		movss	4(%rax), %xmm1
 3812      04
 3813 10a6 F30F1000 		movss	(%rax), %xmm0
 3814 10aa E8000000 		call	_Z8drawQuadfff@PLT
 3814      00
 3815              	.LVL379:
 286:Src/main.cpp  **** 	for(int i = 0; i < 4; i++)
 3816              		.loc 1 286 2 is_stmt 1 view .LVU918
 286:Src/main.cpp  **** 	for(int i = 0; i < 4; i++)
 3817              		.loc 1 286 12 is_stmt 0 view .LVU919
 3818 10af BFFFFF00 		movl	$65535, %edi
 3818      00
 3819 10b4 E8000000 		call	_Z10glSetColorj@PLT
 3819      00
 3820              	.LVL380:
 287:Src/main.cpp  **** 		drawEdges(o->corners[i]);
 3821              		.loc 1 287 2 is_stmt 1 view .LVU920
 3822              	.LBB1116:
 287:Src/main.cpp  **** 		drawEdges(o->corners[i]);
 3823              		.loc 1 287 10 is_stmt 0 view .LVU921
 3824 10b9 BB000000 		movl	$0, %ebx
 3824      00
 3825 10be EB10     		jmp	.L161
 3826              	.LVL381:
 3827              	.L163:
 288:Src/main.cpp  **** }
 3828              		.loc 1 288 3 is_stmt 1 discriminator 2 view .LVU922
 288:Src/main.cpp  **** }
 3829              		.loc 1 288 25 is_stmt 0 discriminator 2 view .LVU923
 3830 10c0 4863C3   		movslq	%ebx, %rax
 3831 10c3 488B7CC5 		movq	8(%rbp,%rax,8), %rdi
 3831      08
 288:Src/main.cpp  **** }
 3832              		.loc 1 288 12 discriminator 2 view .LVU924
 3833 10c8 E8000000 		call	_Z9drawEdgesPK10graphPoint
 3833      00
 3834              	.LVL382:
 287:Src/main.cpp  **** 		drawEdges(o->corners[i]);
 3835              		.loc 1 287 2 discriminator 2 view .LVU925
 3836 10cd 83C301   		addl	$1, %ebx
 3837              	.LVL383:
 3838              	.L161:
 287:Src/main.cpp  **** 		drawEdges(o->corners[i]);
 3839              		.loc 1 287 19 discriminator 3 view .LVU926
 3840 10d0 83FB03   		cmpl	$3, %ebx
 3841 10d3 7EEB     		jle	.L163
 3842              	.LBE1116:
 289:Src/main.cpp  **** 
 3843              		.loc 1 289 1 view .LVU927
 3844 10d5 4883C408 		addq	$8, %rsp
GAS LISTING /tmp/ccK1lRdA.s 			page 140


 3845              		.cfi_def_cfa_offset 24
 3846 10d9 5B       		popq	%rbx
 3847              		.cfi_def_cfa_offset 16
 3848              	.LVL384:
 289:Src/main.cpp  **** 
 3849              		.loc 1 289 1 view .LVU928
 3850 10da 5D       		popq	%rbp
 3851              		.cfi_def_cfa_offset 8
 3852              	.LVL385:
 289:Src/main.cpp  **** 
 3853              		.loc 1 289 1 view .LVU929
 3854 10db C3       		ret
 3855              		.cfi_endproc
 3856              	.LFE2484:
 3858              		.globl	_Z11renderScenev
 3860              	_Z11renderScenev:
 3861              	.LFB2485:
 292:Src/main.cpp  **** 	glClear(GL_COLOR_BUFFER_BIT);
 3862              		.loc 1 292 1 is_stmt 1 view -0
 3863              		.cfi_startproc
 3864 10dc 53       		pushq	%rbx
 3865              		.cfi_def_cfa_offset 16
 3866              		.cfi_offset 3, -16
 293:Src/main.cpp  **** 
 3867              		.loc 1 293 2 view .LVU931
 293:Src/main.cpp  **** 
 3868              		.loc 1 293 9 is_stmt 0 view .LVU932
 3869 10dd BF004000 		movl	$16384, %edi
 3869      00
 3870 10e2 E8000000 		call	glClear@PLT
 3870      00
 3871              	.LVL386:
 297:Src/main.cpp  **** 		{
 3872              		.loc 1 297 3 is_stmt 1 view .LVU933
 3873              	.LBB1117:
 297:Src/main.cpp  **** 		{
 3874              		.loc 1 297 14 is_stmt 0 view .LVU934
 3875 10e7 BB000000 		movl	$0, %ebx
 3875      00
 3876              	.LVL387:
 3877              	.L166:
 297:Src/main.cpp  **** 		{
 3878              		.loc 1 297 23 discriminator 3 view .LVU935
 3879 10ec 48391D00 		cmpq	%rbx, numOfObstacles(%rip)
 3879      000000
 3880 10f3 761D     		jbe	.L165
 299:Src/main.cpp  **** 		}
 3881              		.loc 1 299 4 is_stmt 1 discriminator 2 view .LVU936
 299:Src/main.cpp  **** 		}
 3882              		.loc 1 299 29 is_stmt 0 discriminator 2 view .LVU937
 3883 10f5 488D045B 		leaq	(%rbx,%rbx,2), %rax
 3884 10f9 48C1E004 		salq	$4, %rax
 3885 10fd 4889C7   		movq	%rax, %rdi
 299:Src/main.cpp  **** 		}
 3886              		.loc 1 299 17 discriminator 2 view .LVU938
 3887 1100 48033D00 		addq	obstacles(%rip), %rdi
 3887      000000
GAS LISTING /tmp/ccK1lRdA.s 			page 141


 299:Src/main.cpp  **** 		}
 3888              		.loc 1 299 16 discriminator 2 view .LVU939
 3889 1107 E8000000 		call	_Z12drawObstaclePK8obstacle
 3889      00
 3890              	.LVL388:
 297:Src/main.cpp  **** 		{
 3891              		.loc 1 297 3 discriminator 2 view .LVU940
 3892 110c 4883C301 		addq	$1, %rbx
 3893              	.LVL389:
 297:Src/main.cpp  **** 		{
 3894              		.loc 1 297 3 discriminator 2 view .LVU941
 3895 1110 EBDA     		jmp	.L166
 3896              	.L165:
 297:Src/main.cpp  **** 		{
 3897              		.loc 1 297 3 discriminator 2 view .LVU942
 3898              	.LBE1117:
 306:Src/main.cpp  **** }
 3899              		.loc 1 306 5 is_stmt 1 view .LVU943
 306:Src/main.cpp  **** }
 3900              		.loc 1 306 20 is_stmt 0 view .LVU944
 3901 1112 E8000000 		call	glutSwapBuffers@PLT
 3901      00
 3902              	.LVL390:
 307:Src/main.cpp  **** 
 3903              		.loc 1 307 1 view .LVU945
 3904 1117 5B       		popq	%rbx
 3905              		.cfi_def_cfa_offset 8
 3906              	.LVL391:
 307:Src/main.cpp  **** 
 3907              		.loc 1 307 1 view .LVU946
 3908 1118 C3       		ret
 3909              		.cfi_endproc
 3910              	.LFE2485:
 3912              		.section	.rodata.str1.1
 3913              	.LC33:
 3914 00f0 676C7574 		.string	"glut init\n"
 3914      20696E69 
 3914      740A00
 3915              	.LC34:
 3916 00fb 64697370 		.string	"dispmode\n"
 3916      6D6F6465 
 3916      0A00
 3917              	.LC35:
 3918 0105 666C6F61 		.string	"floating"
 3918      74696E67 
 3918      00
 3919              	.LC36:
 3920 010e 72657368 		.string	"reshape\n"
 3920      6170650A 
 3920      00
 3921              	.LC37:
 3922 0117 64697370 		.string	"dispfunc\n"
 3922      66756E63 
 3922      0A00
 3923              	.LC38:
 3924 0121 6B657966 		.string	"keyfunc\n"
 3924      756E630A 
GAS LISTING /tmp/ccK1lRdA.s 			page 142


 3924      00
 3925              	.LC39:
 3926 012a 74696D65 		.string	"timer\n"
 3926      720A00
 3927              	.LC40:
 3928 0131 6D61696E 		.string	"mainloop\n"
 3928      6C6F6F70 
 3928      0A00
 3929              		.text
 3930              		.globl	main
 3932              	main:
 3933              	.LVL392:
 3934              	.LFB2489:
 358:Src/main.cpp  **** 	numOfObstacles = 2;
 3935              		.loc 1 358 1 is_stmt 1 view -0
 3936              		.cfi_startproc
 358:Src/main.cpp  **** 	numOfObstacles = 2;
 3937              		.loc 1 358 1 is_stmt 0 view .LVU948
 3938 1119 4154     		pushq	%r12
 3939              		.cfi_def_cfa_offset 16
 3940              		.cfi_offset 12, -16
 3941 111b 55       		pushq	%rbp
 3942              		.cfi_def_cfa_offset 24
 3943              		.cfi_offset 6, -24
 3944 111c 53       		pushq	%rbx
 3945              		.cfi_def_cfa_offset 32
 3946              		.cfi_offset 3, -32
 3947 111d 4883EC50 		subq	$80, %rsp
 3948              		.cfi_def_cfa_offset 112
 3949 1121 897C240C 		movl	%edi, 12(%rsp)
 3950 1125 4889F3   		movq	%rsi, %rbx
 358:Src/main.cpp  **** 	numOfObstacles = 2;
 3951              		.loc 1 358 1 view .LVU949
 3952 1128 BD280000 		movl	$40, %ebp
 3952      00
 3953 112d 64488B45 		movq	%fs:0(%rbp), %rax
 3953      00
 3954 1132 48894424 		movq	%rax, 72(%rsp)
 3954      48
 3955 1137 31C0     		xorl	%eax, %eax
 359:Src/main.cpp  **** 	obstacles = (struct obstacle*)malloc(sizeof(struct obstacle) * numOfObstacles);
 3956              		.loc 1 359 2 is_stmt 1 view .LVU950
 359:Src/main.cpp  **** 	obstacles = (struct obstacle*)malloc(sizeof(struct obstacle) * numOfObstacles);
 3957              		.loc 1 359 17 is_stmt 0 view .LVU951
 3958 1139 48C70500 		movq	$2, numOfObstacles(%rip)
 3958      00000002 
 3958      000000
 360:Src/main.cpp  **** 	obstacles[0] = createObstacle(20, 20, 20);
 3959              		.loc 1 360 2 is_stmt 1 view .LVU952
 360:Src/main.cpp  **** 	obstacles[0] = createObstacle(20, 20, 20);
 3960              		.loc 1 360 38 is_stmt 0 view .LVU953
 3961 1144 BF600000 		movl	$96, %edi
 3961      00
 3962              	.LVL393:
 360:Src/main.cpp  **** 	obstacles[0] = createObstacle(20, 20, 20);
 3963              		.loc 1 360 38 view .LVU954
 3964 1149 E8000000 		call	malloc@PLT
GAS LISTING /tmp/ccK1lRdA.s 			page 143


 3964      00
 3965              	.LVL394:
 360:Src/main.cpp  **** 	obstacles[0] = createObstacle(20, 20, 20);
 3966              		.loc 1 360 12 view .LVU955
 3967 114e 48890500 		movq	%rax, obstacles(%rip)
 3967      000000
 361:Src/main.cpp  **** 	obstacles[1] = createObstacle(50, 50, 20);
 3968              		.loc 1 361 2 is_stmt 1 view .LVU956
 361:Src/main.cpp  **** 	obstacles[1] = createObstacle(50, 50, 20);
 3969              		.loc 1 361 42 is_stmt 0 view .LVU957
 3970 1155 4C8D6424 		leaq	16(%rsp), %r12
 3970      10
 3971 115a F30F1015 		movss	.LC30(%rip), %xmm2
 3971      00000000 
 3972 1162 0F28CA   		movaps	%xmm2, %xmm1
 3973 1165 0F28C2   		movaps	%xmm2, %xmm0
 3974 1168 4C89E7   		movq	%r12, %rdi
 3975 116b E8000000 		call	_Z14createObstaclefff@PLT
 3975      00
 3976              	.LVL395:
 361:Src/main.cpp  **** 	obstacles[1] = createObstacle(50, 50, 20);
 3977              		.loc 1 361 15 view .LVU958
 3978 1170 488B0500 		movq	obstacles(%rip), %rax
 3978      000000
 3979 1177 660F6F5C 		movdqa	16(%rsp), %xmm3
 3979      2410
 3980 117d 0F1118   		movups	%xmm3, (%rax)
 3981 1180 660F6F64 		movdqa	32(%rsp), %xmm4
 3981      2420
 3982 1186 0F116010 		movups	%xmm4, 16(%rax)
 3983 118a 488B5424 		movq	48(%rsp), %rdx
 3983      30
 3984 118f 48895020 		movq	%rdx, 32(%rax)
 3985 1193 8B542438 		movl	56(%rsp), %edx
 3986 1197 895028   		movl	%edx, 40(%rax)
 362:Src/main.cpp  **** 	// obstacles[2] = createObstacle(70, 20, 20);
 3987              		.loc 1 362 2 is_stmt 1 view .LVU959
 362:Src/main.cpp  **** 	// obstacles[2] = createObstacle(70, 20, 20);
 3988              		.loc 1 362 42 is_stmt 0 view .LVU960
 3989 119a F30F1015 		movss	.LC30(%rip), %xmm2
 3989      00000000 
 3990 11a2 F30F100D 		movss	.LC31(%rip), %xmm1
 3990      00000000 
 3991 11aa 0F28C1   		movaps	%xmm1, %xmm0
 3992 11ad 4C89E7   		movq	%r12, %rdi
 3993 11b0 E8000000 		call	_Z14createObstaclefff@PLT
 3993      00
 3994              	.LVL396:
 362:Src/main.cpp  **** 	// obstacles[2] = createObstacle(70, 20, 20);
 3995              		.loc 1 362 15 view .LVU961
 3996 11b5 488B3D00 		movq	obstacles(%rip), %rdi
 3996      000000
 3997 11bc 660F6F6C 		movdqa	16(%rsp), %xmm5
 3997      2410
 3998 11c2 0F116F30 		movups	%xmm5, 48(%rdi)
 3999 11c6 660F6F74 		movdqa	32(%rsp), %xmm6
 3999      2420
GAS LISTING /tmp/ccK1lRdA.s 			page 144


 4000 11cc 0F117740 		movups	%xmm6, 64(%rdi)
 4001 11d0 488B4424 		movq	48(%rsp), %rax
 4001      30
 4002 11d5 48894750 		movq	%rax, 80(%rdi)
 4003 11d9 8B442438 		movl	56(%rsp), %eax
 4004 11dd 894758   		movl	%eax, 88(%rdi)
 366:Src/main.cpp  **** 	startway.y 	= 0;
 4005              		.loc 1 366 2 is_stmt 1 view .LVU962
 366:Src/main.cpp  **** 	startway.y 	= 0;
 4006              		.loc 1 366 14 is_stmt 0 view .LVU963
 4007 11e0 C7050000 		movl	$0x00000000, startway(%rip)
 4007      00000000 
 4007      0000
 367:Src/main.cpp  **** 	endway.x	= 150;
 4008              		.loc 1 367 2 is_stmt 1 view .LVU964
 367:Src/main.cpp  **** 	endway.x	= 150;
 4009              		.loc 1 367 14 is_stmt 0 view .LVU965
 4010 11ea C7050000 		movl	$0x00000000, 4+startway(%rip)
 4010      00000000 
 4010      0000
 368:Src/main.cpp  **** 	endway.y	= 150;
 4011              		.loc 1 368 2 is_stmt 1 view .LVU966
 368:Src/main.cpp  **** 	endway.y	= 150;
 4012              		.loc 1 368 11 is_stmt 0 view .LVU967
 4013 11f4 F30F1005 		movss	.LC32(%rip), %xmm0
 4013      00000000 
 4014 11fc F30F1105 		movss	%xmm0, endway(%rip)
 4014      00000000 
 369:Src/main.cpp  **** 
 4015              		.loc 1 369 2 is_stmt 1 view .LVU968
 369:Src/main.cpp  **** 
 4016              		.loc 1 369 11 is_stmt 0 view .LVU969
 4017 1204 F30F1105 		movss	%xmm0, 4+endway(%rip)
 4017      00000000 
 375:Src/main.cpp  **** 
 4018              		.loc 1 375 2 is_stmt 1 view .LVU970
 375:Src/main.cpp  **** 
 4019              		.loc 1 375 10 is_stmt 0 view .LVU971
 4020 120c E8000000 		call	_Z8initObstPK8obstacle
 4020      00
 4021              	.LVL397:
 404:Src/main.cpp  **** 	glutInit(&argc, argv);
 4022              		.loc 1 404 3 is_stmt 1 view .LVU972
 404:Src/main.cpp  **** 	glutInit(&argc, argv);
 4023              		.loc 1 404 11 is_stmt 0 view .LVU973
 4024 1211 488D3500 		leaq	.LC33(%rip), %rsi
 4024      000000
 4025 1218 488D3D00 		leaq	_ZSt4cout(%rip), %rdi
 4025      000000
 4026 121f E8000000 		call	_ZStlsISt11char_traitsIcEERSt13basic_ostreamIcT_ES5_PKc@PLT
 4026      00
 4027              	.LVL398:
 405:Src/main.cpp  **** 	cout << "dispmode\n";
 4028              		.loc 1 405 2 is_stmt 1 view .LVU974
 405:Src/main.cpp  **** 	cout << "dispmode\n";
 4029              		.loc 1 405 10 is_stmt 0 view .LVU975
 4030 1224 488D7C24 		leaq	12(%rsp), %rdi
GAS LISTING /tmp/ccK1lRdA.s 			page 145


 4030      0C
 4031 1229 4889DE   		movq	%rbx, %rsi
 4032 122c E8000000 		call	glutInit@PLT
 4032      00
 4033              	.LVL399:
 406:Src/main.cpp  **** 	glutInitDisplayMode(GLUT_DOUBLE | GLUT_RGBA);
 4034              		.loc 1 406 2 is_stmt 1 view .LVU976
 406:Src/main.cpp  **** 	glutInitDisplayMode(GLUT_DOUBLE | GLUT_RGBA);
 4035              		.loc 1 406 10 is_stmt 0 view .LVU977
 4036 1231 488D3500 		leaq	.LC34(%rip), %rsi
 4036      000000
 4037 1238 488D3D00 		leaq	_ZSt4cout(%rip), %rdi
 4037      000000
 4038 123f E8000000 		call	_ZStlsISt11char_traitsIcEERSt13basic_ostreamIcT_ES5_PKc@PLT
 4038      00
 4039              	.LVL400:
 407:Src/main.cpp  **** 	glutCreateWindow("floating");
 4040              		.loc 1 407 2 is_stmt 1 view .LVU978
 407:Src/main.cpp  **** 	glutCreateWindow("floating");
 4041              		.loc 1 407 21 is_stmt 0 view .LVU979
 4042 1244 BF020000 		movl	$2, %edi
 4042      00
 4043 1249 E8000000 		call	glutInitDisplayMode@PLT
 4043      00
 4044              	.LVL401:
 408:Src/main.cpp  **** 	cout << "reshape\n";
 4045              		.loc 1 408 2 is_stmt 1 view .LVU980
 408:Src/main.cpp  **** 	cout << "reshape\n";
 4046              		.loc 1 408 18 is_stmt 0 view .LVU981
 4047 124e 488D3D00 		leaq	.LC35(%rip), %rdi
 4047      000000
 4048 1255 E8000000 		call	glutCreateWindow@PLT
 4048      00
 4049              	.LVL402:
 409:Src/main.cpp  **** 	glutReshapeFunc(reshape);
 4050              		.loc 1 409 2 is_stmt 1 view .LVU982
 409:Src/main.cpp  **** 	glutReshapeFunc(reshape);
 4051              		.loc 1 409 10 is_stmt 0 view .LVU983
 4052 125a 488D3500 		leaq	.LC36(%rip), %rsi
 4052      000000
 4053 1261 488D3D00 		leaq	_ZSt4cout(%rip), %rdi
 4053      000000
 4054 1268 E8000000 		call	_ZStlsISt11char_traitsIcEERSt13basic_ostreamIcT_ES5_PKc@PLT
 4054      00
 4055              	.LVL403:
 410:Src/main.cpp  **** 	cout << "dispfunc\n";
 4056              		.loc 1 410 2 is_stmt 1 view .LVU984
 410:Src/main.cpp  **** 	cout << "dispfunc\n";
 4057              		.loc 1 410 17 is_stmt 0 view .LVU985
 4058 126d 488D3D00 		leaq	_Z7reshapeii(%rip), %rdi
 4058      000000
 4059 1274 E8000000 		call	glutReshapeFunc@PLT
 4059      00
 4060              	.LVL404:
 411:Src/main.cpp  **** 	glutDisplayFunc(renderScene);
 4061              		.loc 1 411 2 is_stmt 1 view .LVU986
 411:Src/main.cpp  **** 	glutDisplayFunc(renderScene);
GAS LISTING /tmp/ccK1lRdA.s 			page 146


 4062              		.loc 1 411 10 is_stmt 0 view .LVU987
 4063 1279 488D3500 		leaq	.LC37(%rip), %rsi
 4063      000000
 4064 1280 488D3D00 		leaq	_ZSt4cout(%rip), %rdi
 4064      000000
 4065 1287 E8000000 		call	_ZStlsISt11char_traitsIcEERSt13basic_ostreamIcT_ES5_PKc@PLT
 4065      00
 4066              	.LVL405:
 412:Src/main.cpp  ****     cout << "keyfunc\n";
 4067              		.loc 1 412 2 is_stmt 1 view .LVU988
 412:Src/main.cpp  ****     cout << "keyfunc\n";
 4068              		.loc 1 412 17 is_stmt 0 view .LVU989
 4069 128c 488D3D00 		leaq	_Z11renderScenev(%rip), %rdi
 4069      000000
 4070 1293 E8000000 		call	glutDisplayFunc@PLT
 4070      00
 4071              	.LVL406:
 413:Src/main.cpp  ****     glutKeyboardFunc(handleKeypress);
 4072              		.loc 1 413 5 is_stmt 1 view .LVU990
 413:Src/main.cpp  ****     glutKeyboardFunc(handleKeypress);
 4073              		.loc 1 413 13 is_stmt 0 view .LVU991
 4074 1298 488D3500 		leaq	.LC38(%rip), %rsi
 4074      000000
 4075 129f 488D3D00 		leaq	_ZSt4cout(%rip), %rdi
 4075      000000
 4076 12a6 E8000000 		call	_ZStlsISt11char_traitsIcEERSt13basic_ostreamIcT_ES5_PKc@PLT
 4076      00
 4077              	.LVL407:
 414:Src/main.cpp  **** 	cout << "timer\n";
 4078              		.loc 1 414 5 is_stmt 1 view .LVU992
 414:Src/main.cpp  **** 	cout << "timer\n";
 4079              		.loc 1 414 21 is_stmt 0 view .LVU993
 4080 12ab 488D3D00 		leaq	_Z14handleKeypresshii(%rip), %rdi
 4080      000000
 4081 12b2 E8000000 		call	glutKeyboardFunc@PLT
 4081      00
 4082              	.LVL408:
 415:Src/main.cpp  **** 	glutTimerFunc(GL_TIMER_DELAY, timf, 0);
 4083              		.loc 1 415 2 is_stmt 1 view .LVU994
 415:Src/main.cpp  **** 	glutTimerFunc(GL_TIMER_DELAY, timf, 0);
 4084              		.loc 1 415 10 is_stmt 0 view .LVU995
 4085 12b7 488D3500 		leaq	.LC39(%rip), %rsi
 4085      000000
 4086 12be 488D3D00 		leaq	_ZSt4cout(%rip), %rdi
 4086      000000
 4087 12c5 E8000000 		call	_ZStlsISt11char_traitsIcEERSt13basic_ostreamIcT_ES5_PKc@PLT
 4087      00
 4088              	.LVL409:
 416:Src/main.cpp  **** 	cout << "mainloop\n";
 4089              		.loc 1 416 2 is_stmt 1 view .LVU996
 416:Src/main.cpp  **** 	cout << "mainloop\n";
 4090              		.loc 1 416 15 is_stmt 0 view .LVU997
 4091 12ca BA000000 		movl	$0, %edx
 4091      00
 4092 12cf 488D3500 		leaq	_Z4timfi(%rip), %rsi
 4092      000000
 4093 12d6 BF900100 		movl	$400, %edi
GAS LISTING /tmp/ccK1lRdA.s 			page 147


 4093      00
 4094 12db E8000000 		call	glutTimerFunc@PLT
 4094      00
 4095              	.LVL410:
 417:Src/main.cpp  **** 	glutMainLoop();
 4096              		.loc 1 417 2 is_stmt 1 view .LVU998
 417:Src/main.cpp  **** 	glutMainLoop();
 4097              		.loc 1 417 10 is_stmt 0 view .LVU999
 4098 12e0 488D3500 		leaq	.LC40(%rip), %rsi
 4098      000000
 4099 12e7 488D3D00 		leaq	_ZSt4cout(%rip), %rdi
 4099      000000
 4100 12ee E8000000 		call	_ZStlsISt11char_traitsIcEERSt13basic_ostreamIcT_ES5_PKc@PLT
 4100      00
 4101              	.LVL411:
 418:Src/main.cpp  **** 
 4102              		.loc 1 418 2 is_stmt 1 view .LVU1000
 418:Src/main.cpp  **** 
 4103              		.loc 1 418 14 is_stmt 0 view .LVU1001
 4104 12f3 E8000000 		call	glutMainLoop@PLT
 4104      00
 4105              	.LVL412:
 421:Src/main.cpp  **** }
 4106              		.loc 1 421 2 is_stmt 1 view .LVU1002
 4107              		.loc 1 422 1 is_stmt 0 view .LVU1003
 4108 12f8 488B4424 		movq	72(%rsp), %rax
 4108      48
 4109 12fd 64483345 		xorq	%fs:0(%rbp), %rax
 4109      00
 4110 1302 750E     		jne	.L171
 4111 1304 B8010000 		movl	$1, %eax
 4111      00
 4112 1309 4883C450 		addq	$80, %rsp
 4113              		.cfi_remember_state
 4114              		.cfi_def_cfa_offset 32
 4115 130d 5B       		popq	%rbx
 4116              		.cfi_def_cfa_offset 24
 4117              	.LVL413:
 4118              		.loc 1 422 1 view .LVU1004
 4119 130e 5D       		popq	%rbp
 4120              		.cfi_def_cfa_offset 16
 4121 130f 415C     		popq	%r12
 4122              		.cfi_def_cfa_offset 8
 4123 1311 C3       		ret
 4124              	.LVL414:
 4125              	.L171:
 4126              		.cfi_restore_state
 4127              		.loc 1 422 1 view .LVU1005
 4128 1312 E8000000 		call	__stack_chk_fail@PLT
 4128      00
 4129              	.LVL415:
 4130              		.cfi_endproc
 4131              	.LFE2489:
 4134              	_GLOBAL__sub_I_QUAD_CHECK_SIDE:
 4135              	.LFB2838:
 4136              		.loc 1 422 1 is_stmt 1 view -0
 4137              		.cfi_startproc
GAS LISTING /tmp/ccK1lRdA.s 			page 148


 4138 1317 4883EC08 		subq	$8, %rsp
 4139              		.cfi_def_cfa_offset 16
 4140              		.loc 1 422 1 is_stmt 0 view .LVU1007
 4141 131b BEFFFF00 		movl	$65535, %esi
 4141      00
 4142 1320 BF010000 		movl	$1, %edi
 4142      00
 4143 1325 E873EDFF 		call	_Z41__static_initialization_and_destruction_0ii
 4143      FF
 4144              	.LVL416:
 4145 132a 4883C408 		addq	$8, %rsp
 4146              		.cfi_def_cfa_offset 8
 4147 132e C3       		ret
 4148              		.cfi_endproc
 4149              	.LFE2838:
 4151              		.section	.init_array,"aw"
 4152              		.align 8
 4153 0000 00000000 		.quad	_GLOBAL__sub_I_QUAD_CHECK_SIDE
 4153      00000000 
 4154              		.globl	endway
 4155              		.bss
 4156              		.align 8
 4159              	endway:
 4160 0000 00000000 		.zero	8
 4160      00000000 
 4161              		.globl	startway
 4162              		.align 8
 4165              	startway:
 4166 0008 00000000 		.zero	8
 4166      00000000 
 4167              		.globl	obstacles
 4168              		.align 8
 4171              	obstacles:
 4172 0010 00000000 		.zero	8
 4172      00000000 
 4173              		.globl	numOfObstacles
 4174              		.align 8
 4177              	numOfObstacles:
 4178 0018 00000000 		.zero	8
 4178      00000000 
 4179              		.globl	terminated
 4182              	terminated:
 4183 0020 00       		.zero	1
 4184              		.globl	QUAD_CHECK_SIDE
 4185              		.data
 4186              		.align 8
 4189              	QUAD_CHECK_SIDE:
 4190 0000 05000000 		.quad	5
 4190      00000000 
 4191              		.local	_ZStL8__ioinit
 4192              		.comm	_ZStL8__ioinit,1,1
 4193              		.section	.rodata.cst4,"aM",@progbits,4
 4194              		.align 4
 4195              	.LC3:
 4196 0000 00003443 		.long	1127481344
 4197              		.section	.rodata.cst8,"aM",@progbits,8
 4198              		.align 8
GAS LISTING /tmp/ccK1lRdA.s 			page 149


 4199              	.LC4:
 4200 0000 6E861BF0 		.long	4028335726
 4201 0004 F9210940 		.long	1074340345
 4202              		.section	.rodata.cst4
 4203              		.align 4
 4204              	.LC7:
 4205 0004 000080BF 		.long	3212836864
 4206              		.align 4
 4207              	.LC8:
 4208 0008 0000803F 		.long	1065353216
 4209              		.align 4
 4210              	.LC9:
 4211 000c 00000000 		.long	0
 4212              		.section	.rodata.cst16,"aM",@progbits,16
 4213              		.align 16
 4214              	.LC22:
 4215 0000 FFFFFF7F 		.long	2147483647
 4216 0004 00000000 		.long	0
 4217 0008 00000000 		.long	0
 4218 000c 00000000 		.long	0
 4219              		.section	.rodata.cst4
 4220              		.align 4
 4221              	.LC30:
 4222 0010 0000A041 		.long	1101004800
 4223              		.align 4
 4224              	.LC31:
 4225 0014 00004842 		.long	1112014848
 4226              		.align 4
 4227              	.LC32:
 4228 0018 00001643 		.long	1125515264
 4229              		.text
 4230              	.Letext0:
 4231              		.file 8 "/usr/include/c++/9.1.0/cwchar"
 4232              		.file 9 "/usr/include/c++/9.1.0/new"
 4233              		.file 10 "/usr/include/c++/9.1.0/bits/exception_ptr.h"
 4234              		.file 11 "/usr/include/c++/9.1.0/type_traits"
 4235              		.file 12 "/usr/include/c++/9.1.0/x86_64-pc-linux-gnu/bits/c++config.h"
 4236              		.file 13 "/usr/include/c++/9.1.0/bits/stl_pair.h"
 4237              		.file 14 "/usr/include/c++/9.1.0/debug/debug.h"
 4238              		.file 15 "/usr/include/c++/9.1.0/cstdint"
 4239              		.file 16 "/usr/include/c++/9.1.0/clocale"
 4240              		.file 17 "/usr/include/c++/9.1.0/cstdlib"
 4241              		.file 18 "/usr/include/c++/9.1.0/cstdio"
 4242              		.file 19 "/usr/include/c++/9.1.0/system_error"
 4243              		.file 20 "/usr/include/c++/9.1.0/bits/ios_base.h"
 4244              		.file 21 "/usr/include/c++/9.1.0/cwctype"
 4245              		.file 22 "/usr/include/c++/9.1.0/bits/ostream.tcc"
 4246              		.file 23 "/usr/include/c++/9.1.0/iosfwd"
 4247              		.file 24 "/usr/include/c++/9.1.0/cmath"
 4248              		.file 25 "/usr/include/c++/9.1.0/bits/functexcept.h"
 4249              		.file 26 "/usr/include/c++/9.1.0/bits/ostream_insert.h"
 4250              		.file 27 "/usr/include/c++/9.1.0/bits/predefined_ops.h"
 4251              		.file 28 "/usr/include/c++/9.1.0/ext/new_allocator.h"
 4252              		.file 29 "/usr/include/c++/9.1.0/ext/numeric_traits.h"
 4253              		.file 30 "/usr/lib/gcc/x86_64-pc-linux-gnu/9.1.0/include/stddef.h"
 4254              		.file 31 "<built-in>"
 4255              		.file 32 "/usr/include/bits/types/wint_t.h"
GAS LISTING /tmp/ccK1lRdA.s 			page 150


 4256              		.file 33 "/usr/include/bits/types/__mbstate_t.h"
 4257              		.file 34 "/usr/include/bits/types/mbstate_t.h"
 4258              		.file 35 "/usr/include/bits/types/__FILE.h"
 4259              		.file 36 "/usr/include/bits/types/struct_FILE.h"
 4260              		.file 37 "/usr/include/bits/types/FILE.h"
 4261              		.file 38 "/usr/include/wchar.h"
 4262              		.file 39 "/usr/include/bits/types/struct_tm.h"
 4263              		.file 40 "/usr/include/bits/types.h"
 4264              		.file 41 "/usr/include/bits/stdint-intn.h"
 4265              		.file 42 "/usr/include/bits/stdint-uintn.h"
 4266              		.file 43 "/usr/include/stdint.h"
 4267              		.file 44 "/usr/include/locale.h"
 4268              		.file 45 "/usr/include/time.h"
 4269              		.file 46 "/usr/include/c++/9.1.0/x86_64-pc-linux-gnu/bits/atomic_word.h"
 4270              		.file 47 "/usr/include/stdlib.h"
 4271              		.file 48 "/usr/include/bits/stdlib-float.h"
 4272              		.file 49 "/usr/include/bits/stdlib-bsearch.h"
 4273              		.file 50 "/usr/include/bits/types/__fpos_t.h"
 4274              		.file 51 "/usr/include/stdio.h"
 4275              		.file 52 "/usr/include/bits/sys_errlist.h"
 4276              		.file 53 "/usr/include/bits/stdio.h"
 4277              		.file 54 "/usr/include/errno.h"
 4278              		.file 55 "/usr/include/bits/wctype-wchar.h"
 4279              		.file 56 "/usr/include/wctype.h"
 4280              		.file 57 "/usr/include/c++/9.1.0/stdlib.h"
 4281              		.file 58 "/usr/include/unistd.h"
 4282              		.file 59 "/usr/include/bits/getopt_core.h"
 4283              		.file 60 "/usr/include/signal.h"
 4284              		.file 61 "/usr/include/GL/glew.h"
 4285              		.file 62 "/usr/include/GL/freeglut_std.h"
 4286              		.file 63 "/usr/include/FTGL/ftgl.h"
 4287              		.file 64 "/usr/include/math.h"
 4288              		.file 65 "/usr/include/c++/9.1.0/math.h"
 4289              		.file 66 "/usr/include/bits/mathcalls.h"
 4290              		.file 67 "Includes/findwayBases.hpp"
 4291              		.file 68 "/usr/include/GL/glu.h"
 4292              		.file 69 "Includes/routines.hpp"
GAS LISTING /tmp/ccK1lRdA.s 			page 151


DEFINED SYMBOLS
                            *ABS*:0000000000000000 main.cpp
     /tmp/ccK1lRdA.s:6      .text:0000000000000000 _Z7reshapeii
     /tmp/ccK1lRdA.s:80     .text:000000000000005f _Z4timfi
     /tmp/ccK1lRdA.s:4182   .bss:0000000000000020 terminated
     /tmp/ccK1lRdA.s:124    .text:000000000000009d _Z41__static_initialization_and_destruction_0ii
                             .bss:0000000000000021 _ZStL8__ioinit
     /tmp/ccK1lRdA.s:169    .text:00000000000000da _Z14handleKeypresshii
     /tmp/ccK1lRdA.s:376    .text:000000000000018f _Z12calculateWayv
     /tmp/ccK1lRdA.s:387    .text:0000000000000190 _Z10createVectPK8obstaclehf
     /tmp/ccK1lRdA.s:4189   .data:0000000000000000 QUAD_CHECK_SIDE
     /tmp/ccK1lRdA.s:477    .text:000000000000022f _Z10getDataSetPK8obstacleh
     /tmp/ccK1lRdA.s:4177   .bss:0000000000000018 numOfObstacles
     /tmp/ccK1lRdA.s:4171   .bss:0000000000000010 obstacles
     /tmp/ccK1lRdA.s:941    .text:00000000000004a4 _Z16hasIntersectionsPK5arrayPK4vect
     /tmp/ccK1lRdA.s:1010   .text:00000000000004e1 _Z16hasIntersectionsPK4vect
     /tmp/ccK1lRdA.s:1076   .text:0000000000000525 _Z15getIntersectionPK5arrayPK4vect
     /tmp/ccK1lRdA.s:1211   .text:00000000000005a0 _Z14getIntersectedPK5arrayPK4vect
     /tmp/ccK1lRdA.s:2040   .text:000000000000093a _Z14initObstCornerPK8obstacleh
     /tmp/ccK1lRdA.s:3221   .text:0000000000000e2e _Z8initObstPK8obstacle
     /tmp/ccK1lRdA.s:3275   .text:0000000000000e58 _Z16getCoordsOfPointPK10graphPoint
     /tmp/ccK1lRdA.s:3296   .text:0000000000000e5e _Z9drawEdgesPK10graphPoint
     /tmp/ccK1lRdA.s:3785   .text:0000000000001085 _Z12drawObstaclePK8obstacle
     /tmp/ccK1lRdA.s:3860   .text:00000000000010dc _Z11renderScenev
     /tmp/ccK1lRdA.s:3932   .text:0000000000001119 main
     /tmp/ccK1lRdA.s:4165   .bss:0000000000000008 startway
     /tmp/ccK1lRdA.s:4159   .bss:0000000000000000 endway
     /tmp/ccK1lRdA.s:4134   .text:0000000000001317 _GLOBAL__sub_I_QUAD_CHECK_SIDE
     /tmp/ccK1lRdA.s:162    .rodata.str1.1:0000000000000000 .LC1
     /tmp/ccK1lRdA.s:164    .rodata.str1.1:0000000000000009 .LC2
     /tmp/ccK1lRdA.s:4195   .rodata.cst4:0000000000000000 .LC3
     /tmp/ccK1lRdA.s:4199   .rodata.cst8:0000000000000000 .LC4
     /tmp/ccK1lRdA.s:470    .rodata.str1.1:000000000000000e .LC5
     /tmp/ccK1lRdA.s:472    .rodata.str1.1:0000000000000021 .LC6
     /tmp/ccK1lRdA.s:4207   .rodata.cst4:0000000000000008 .LC8
     /tmp/ccK1lRdA.s:4210   .rodata.cst4:000000000000000c .LC9
     /tmp/ccK1lRdA.s:1187   .rodata.str1.1:0000000000000028 .LC10
     /tmp/ccK1lRdA.s:1189   .rodata.str1.1:000000000000003b .LC11
     /tmp/ccK1lRdA.s:1191   .rodata.str1.1:000000000000003d .LC12
     /tmp/ccK1lRdA.s:1193   .rodata.str1.1:0000000000000041 .LC13
     /tmp/ccK1lRdA.s:1197   .rodata.str1.8:0000000000000000 .LC14
     /tmp/ccK1lRdA.s:1200   .rodata.str1.1:0000000000000044 .LC15
     /tmp/ccK1lRdA.s:4204   .rodata.cst4:0000000000000004 .LC7
     /tmp/ccK1lRdA.s:1202   .rodata.str1.1:000000000000004a .LC16
     /tmp/ccK1lRdA.s:1204   .rodata.str1.1:0000000000000063 .LC17
     /tmp/ccK1lRdA.s:1206   .rodata.str1.1:000000000000006e .LC18
     /tmp/ccK1lRdA.s:2021   .rodata.str1.1:0000000000000076 .LC19
     /tmp/ccK1lRdA.s:2023   .rodata.str1.1:0000000000000087 .LC20
     /tmp/ccK1lRdA.s:2025   .rodata.str1.1:0000000000000095 .LC21
     /tmp/ccK1lRdA.s:4214   .rodata.cst16:0000000000000000 .LC22
     /tmp/ccK1lRdA.s:2027   .rodata.str1.1:00000000000000aa .LC23
     /tmp/ccK1lRdA.s:2029   .rodata.str1.1:00000000000000c2 .LC24
     /tmp/ccK1lRdA.s:2031   .rodata.str1.1:00000000000000c9 .LC25
     /tmp/ccK1lRdA.s:2033   .rodata.str1.1:00000000000000d2 .LC26
     /tmp/ccK1lRdA.s:2035   .rodata.str1.1:00000000000000e0 .LC27
     /tmp/ccK1lRdA.s:3289   .rodata.str1.1:00000000000000e5 .LC28
     /tmp/ccK1lRdA.s:3291   .rodata.str1.1:00000000000000ed .LC29
GAS LISTING /tmp/ccK1lRdA.s 			page 152


     /tmp/ccK1lRdA.s:4221   .rodata.cst4:0000000000000010 .LC30
     /tmp/ccK1lRdA.s:4224   .rodata.cst4:0000000000000014 .LC31
     /tmp/ccK1lRdA.s:4227   .rodata.cst4:0000000000000018 .LC32
     /tmp/ccK1lRdA.s:3913   .rodata.str1.1:00000000000000f0 .LC33
     /tmp/ccK1lRdA.s:3915   .rodata.str1.1:00000000000000fb .LC34
     /tmp/ccK1lRdA.s:3917   .rodata.str1.1:0000000000000105 .LC35
     /tmp/ccK1lRdA.s:3919   .rodata.str1.1:000000000000010e .LC36
     /tmp/ccK1lRdA.s:3921   .rodata.str1.1:0000000000000117 .LC37
     /tmp/ccK1lRdA.s:3923   .rodata.str1.1:0000000000000121 .LC38
     /tmp/ccK1lRdA.s:3925   .rodata.str1.1:000000000000012a .LC39
     /tmp/ccK1lRdA.s:3927   .rodata.str1.1:0000000000000131 .LC40

UNDEFINED SYMBOLS
_GLOBAL_OFFSET_TABLE_
glViewport
glMatrixMode
glLoadIdentity
gluOrtho2D
glutPostRedisplay
glutTimerFunc
exit
_ZNSt8ios_base4InitC1Ev
__dso_handle
_ZNSt8ios_base4InitD1Ev
__cxa_atexit
_ZSt4cout
_ZSt16__ostream_insertIcSt11char_traitsIcEERSt13basic_ostreamIT_T0_ES6_PKS3_l
_ZNSolsEi
_ZNSo3putEc
_ZNSo5flushEv
_ZSt16__throw_bad_castv
_ZNKSt5ctypeIcE13_M_widen_initEv
_Z17getCoordsOfCornerPK8obstacleh
tan
_Z8getPointPK8obstacleh
_ZNSo9_M_insertImEERSoT_
malloc
_Z15hasIntersectionPK8obstaclePK4vect
_Z15getIntersectionPK8obstaclePK4vect
_ZNSo9_M_insertIdEERSoT_
_Z6getLenPK6coordsS1_
__stack_chk_fail
_ZNSo9_M_insertIPKvEERSoT_
_Z9addTargetP10graphPointS0_
free
_Z8drawLineffff
_Z10glSetColorj
_Z8drawQuadfff
glClear
glutSwapBuffers
_Z14createObstaclefff
_ZStlsISt11char_traitsIcEERSt13basic_ostreamIcT_ES5_PKc
glutInit
glutInitDisplayMode
glutCreateWindow
glutReshapeFunc
glutDisplayFunc
GAS LISTING /tmp/ccK1lRdA.s 			page 153


glutKeyboardFunc
glutMainLoop
