GAS LISTING /tmp/cc6iEGVT.s 			page 1


   1              		.file	"main.cpp"
   2              		.text
   3              	.Ltext0:
   4              		.globl	_Z4timfi
   6              	_Z4timfi:
   7              	.LVL0:
   8              	.LFB2494:
   9              		.file 1 "Src/main.cpp"
   1:Src/main.cpp  **** #include <iostream>
   2:Src/main.cpp  **** #include <stdio.h>      // standard input / output functions
   3:Src/main.cpp  **** #include <stdlib.h>
   4:Src/main.cpp  **** #include <string.h>     // string function definitions
   5:Src/main.cpp  **** #include <unistd.h>     // UNIX standard function definitions
   6:Src/main.cpp  **** #include <fcntl.h>      // File control definitions
   7:Src/main.cpp  **** #include <errno.h>      // Error number definitions
   8:Src/main.cpp  **** #include <termios.h>    // POSIX terminal control definitions
   9:Src/main.cpp  **** #include <signal.h>
  10:Src/main.cpp  **** #include <GL/glew.h>
  11:Src/main.cpp  **** #include <GL/glut.h>
  12:Src/main.cpp  **** #include <GL/gl.h>
  13:Src/main.cpp  **** #include <GL/glu.h>
  14:Src/main.cpp  **** #include <FTGL/ftgl.h>
  15:Src/main.cpp  **** #include <FTGL/FTGLPixmapFont.h>
  16:Src/main.cpp  **** 
  17:Src/main.cpp  **** #include "routines.hpp"
  18:Src/main.cpp  **** #include "findwayBases.hpp"
  19:Src/main.cpp  **** 
  20:Src/main.cpp  **** #define GL_TIMER_DELAY	400
  21:Src/main.cpp  **** #define RETURN_CODE_OK 0
  22:Src/main.cpp  **** #define OBST_COLOR 0xFF0000
  23:Src/main.cpp  **** #define GRAPH_COLOR 0x00FFFF
  24:Src/main.cpp  **** 
  25:Src/main.cpp  **** #define VECTORS_PER_CHECK	50
  26:Src/main.cpp  **** 
  27:Src/main.cpp  **** size_t QUAD_CHECK_SIDE = 5;
  28:Src/main.cpp  **** 
  29:Src/main.cpp  **** using namespace std;
  30:Src/main.cpp  **** 
  31:Src/main.cpp  **** 
  32:Src/main.cpp  **** bool terminated = false;
  33:Src/main.cpp  **** size_t numOfObstacles = 0;
  34:Src/main.cpp  **** size_t graphSize = 0;
  35:Src/main.cpp  **** size_t calculatedPoints = 0;
  36:Src/main.cpp  **** 
  37:Src/main.cpp  **** 
  38:Src/main.cpp  **** struct obstacle *obstacles;
  39:Src/main.cpp  **** struct coords	startway,
  40:Src/main.cpp  **** 				endway;
  41:Src/main.cpp  **** struct graphPoint **graph;
  42:Src/main.cpp  **** 
  43:Src/main.cpp  **** 
  44:Src/main.cpp  **** 
  45:Src/main.cpp  **** struct array
  46:Src/main.cpp  **** {
  47:Src/main.cpp  **** 	void *items;
  48:Src/main.cpp  **** 	size_t size;
  49:Src/main.cpp  **** };
GAS LISTING /tmp/cc6iEGVT.s 			page 2


  50:Src/main.cpp  **** 
  51:Src/main.cpp  **** 
  52:Src/main.cpp  **** 
  53:Src/main.cpp  **** 
  54:Src/main.cpp  **** 
  55:Src/main.cpp  **** 
  56:Src/main.cpp  **** 
  57:Src/main.cpp  **** void calculateWay()
  58:Src/main.cpp  **** {
  59:Src/main.cpp  **** 
  60:Src/main.cpp  **** }
  61:Src/main.cpp  **** 
  62:Src/main.cpp  **** 
  63:Src/main.cpp  **** void initObst(const struct obstacle *obst);
  64:Src/main.cpp  **** void initPoint(struct graphPoint *p, const struct coords *c);
  65:Src/main.cpp  **** 
  66:Src/main.cpp  **** 
  67:Src/main.cpp  **** 
  68:Src/main.cpp  **** /*
  69:Src/main.cpp  ****  *	-------+----->	0
  70:Src/main.cpp  ****  *	<------+------	180
  71:Src/main.cpp  ****  *		  /|\
  72:Src/main.cpp  ****  *         |		90
  73:Src/main.cpp  ****  *		   +
  74:Src/main.cpp  ****  */
  75:Src/main.cpp  **** struct vect createVect(const struct coords *c, const COORDS_DATATYPE angle)
  76:Src/main.cpp  **** {
  77:Src/main.cpp  **** 	struct vect ret;
  78:Src/main.cpp  **** 	ret.c  = (struct coords*)malloc(sizeof(struct coords));
  79:Src/main.cpp  **** 	ret.c->x = c->x;
  80:Src/main.cpp  **** 	ret.c->y = c->y;
  81:Src/main.cpp  **** 	ret.dx = QUAD_CHECK_SIDE * 10.0 / tan(angle / 180.0 * PI);
  82:Src/main.cpp  **** 	ret.dy = ret.dx * tan(angle / 180.0 * PI);
  83:Src/main.cpp  **** 	ret.dx = abs(ret.dx);
  84:Src/main.cpp  **** 	ret.dy = abs(ret.dy);
  85:Src/main.cpp  **** 	if(angle > 180 || angle < 0)
  86:Src/main.cpp  **** 		ret.dy *= -1;
  87:Src/main.cpp  **** 
  88:Src/main.cpp  **** 	if(!((angle >= -90 && angle <= 90) || (angle >= 190 + 90 && angle <= 360 + 90)))
  89:Src/main.cpp  **** 		ret.dx *= -1;
  90:Src/main.cpp  **** 
  91:Src/main.cpp  **** 	// cout <<  "\tcreate vect:" << endl
  92:Src/main.cpp  **** 	// 	 << "\tdx: " << ret.dx << endl
  93:Src/main.cpp  **** 	// 	 << "\tdy: " << ret.dy << endl
  94:Src/main.cpp  **** 	// 	 << "\tx:  " << ret.c->x << endl
  95:Src/main.cpp  **** 	// 	 << "\ty:  " << ret.c->y << endl;
  96:Src/main.cpp  **** 	return ret;
  97:Src/main.cpp  **** }
  98:Src/main.cpp  **** 
  99:Src/main.cpp  **** struct vect createVect(const struct coords *start, const struct coords *end)
 100:Src/main.cpp  **** {
 101:Src/main.cpp  **** 	struct vect ret;
 102:Src/main.cpp  **** 	ret.c = (struct coords*)malloc(sizeof(struct coords));
 103:Src/main.cpp  **** 	ret.c->x = start->x;
 104:Src/main.cpp  **** 	ret.c->y = start->y;
 105:Src/main.cpp  **** 	ret.dx = end->x - start->x;
 106:Src/main.cpp  **** 	ret.dy = end->y - start->y;
GAS LISTING /tmp/cc6iEGVT.s 			page 3


 107:Src/main.cpp  **** 	return ret;
 108:Src/main.cpp  **** }
 109:Src/main.cpp  **** 
 110:Src/main.cpp  **** 
 111:Src/main.cpp  **** struct vect createVect(const struct obstacle *obst, const uint8_t corner, const COORDS_DATATYPE ang
 112:Src/main.cpp  **** {
 113:Src/main.cpp  **** 	struct vect ret;
 114:Src/main.cpp  **** 	struct coords *c = getCoordsOfCorner(obst, corner);
 115:Src/main.cpp  **** 	ret = createVect(c, angle);
 116:Src/main.cpp  **** 	free(c);
 117:Src/main.cpp  **** 	return ret;
 118:Src/main.cpp  **** }
 119:Src/main.cpp  **** 
 120:Src/main.cpp  **** 
 121:Src/main.cpp  **** struct array* getDataSet(const struct coords *c)
 122:Src/main.cpp  **** {
 123:Src/main.cpp  **** 	size_t size = 0;
 124:Src/main.cpp  **** 	while (size < 2) {
 125:Src/main.cpp  **** 		size = 0;
 126:Src/main.cpp  **** 		for(size_t i = 0; i < numOfObstacles; i++)
 127:Src/main.cpp  **** 		{
 128:Src/main.cpp  **** 			if(obstacles[i].c->x + obstacles[i].a >= c->x - QUAD_CHECK_SIDE
 129:Src/main.cpp  **** 			&& obstacles[i].c->x <= c->x + obstacles[i].a + QUAD_CHECK_SIDE
 130:Src/main.cpp  **** 			&& obstacles[i].c->y + obstacles[i].a >= c->y - QUAD_CHECK_SIDE
 131:Src/main.cpp  **** 			&& obstacles[i].c->y <= c->y + obstacles[i].a + QUAD_CHECK_SIDE)
 132:Src/main.cpp  **** 				size++;
 133:Src/main.cpp  **** 		}
 134:Src/main.cpp  **** 		if(size < 2)
 135:Src/main.cpp  **** 		{
 136:Src/main.cpp  **** 			cout << "Increacing radius\n";
 137:Src/main.cpp  **** 			QUAD_CHECK_SIDE += 100;
 138:Src/main.cpp  **** 		}
 139:Src/main.cpp  **** 	}
 140:Src/main.cpp  **** 	cout << "Size: " << size << endl;
 141:Src/main.cpp  **** 	size_t iter = 0;
 142:Src/main.cpp  **** 	struct obstacle **obsts = (struct obstacle**)malloc(sizeof(struct obstacle*) * size);
 143:Src/main.cpp  **** 	for(size_t i = 0; i < numOfObstacles; i++)
 144:Src/main.cpp  **** 	{
 145:Src/main.cpp  **** 		// struct coords *c = getCoordsOfCorner(obst, corner);
 146:Src/main.cpp  **** 		if(obstacles[i].c->x + obstacles[i].a >= c->x - QUAD_CHECK_SIDE
 147:Src/main.cpp  **** 		&& obstacles[i].c->x <= c->x + obstacles[i].a + QUAD_CHECK_SIDE
 148:Src/main.cpp  **** 		&& obstacles[i].c->y + obstacles[i].a >= c->y - QUAD_CHECK_SIDE
 149:Src/main.cpp  **** 		&& obstacles[i].c->y <= c->y + obstacles[i].a + QUAD_CHECK_SIDE)
 150:Src/main.cpp  **** 		obsts[iter++] = &(obstacles[i]);
 151:Src/main.cpp  **** 	}
 152:Src/main.cpp  **** 	struct array *ret = (struct array*)malloc(sizeof(struct array));
 153:Src/main.cpp  **** 	ret->items = *obsts;
 154:Src/main.cpp  **** 	ret->size = size;
 155:Src/main.cpp  **** 	return ret;
 156:Src/main.cpp  **** }
 157:Src/main.cpp  **** 
 158:Src/main.cpp  **** 
 159:Src/main.cpp  **** struct array* getDataSet(const struct obstacle *obst, const uint8_t corner)
 160:Src/main.cpp  **** {
 161:Src/main.cpp  **** 	struct graphPoint *p = getPoint(obst, corner);
 162:Src/main.cpp  **** 	struct coords *c = getCoordsOfCorner(obst, corner);
 163:Src/main.cpp  **** 
GAS LISTING /tmp/cc6iEGVT.s 			page 4


 164:Src/main.cpp  **** 	struct array *ret = getDataSet(c);
 165:Src/main.cpp  **** 
 166:Src/main.cpp  **** 	free(c);
 167:Src/main.cpp  **** 
 168:Src/main.cpp  **** 	return ret;
 169:Src/main.cpp  **** }
 170:Src/main.cpp  **** 
 171:Src/main.cpp  **** 
 172:Src/main.cpp  **** bool hasIntersections(const struct array *dataset, const struct vect *v)
 173:Src/main.cpp  **** {
 174:Src/main.cpp  **** 	for(size_t i = 0; i < dataset->size; i++)
 175:Src/main.cpp  **** 	{
 176:Src/main.cpp  **** 		if(hasIntersection(&((struct obstacle*)dataset->items)[i], v))
 177:Src/main.cpp  **** 			return true;
 178:Src/main.cpp  **** 	}
 179:Src/main.cpp  **** 	return false;
 180:Src/main.cpp  **** }
 181:Src/main.cpp  **** 
 182:Src/main.cpp  **** bool hasIntersections(const struct vect *v)
 183:Src/main.cpp  **** {
 184:Src/main.cpp  **** 	for(size_t i = 0; i < numOfObstacles; i++)
 185:Src/main.cpp  **** 	{
 186:Src/main.cpp  **** 		if(hasIntersection(&obstacles[i], v))
 187:Src/main.cpp  **** 			return true;
 188:Src/main.cpp  **** 	}
 189:Src/main.cpp  **** 	return false;
 190:Src/main.cpp  **** }
 191:Src/main.cpp  **** 
 192:Src/main.cpp  **** struct coords getIntersection(const struct array *dataset, const struct vect *v)
 193:Src/main.cpp  **** {
 194:Src/main.cpp  **** 	struct obstacle *o = NULL;
 195:Src/main.cpp  **** 	for(size_t i = 0; i < dataset->size; i++)
 196:Src/main.cpp  **** 	{
 197:Src/main.cpp  **** 		if(hasIntersection(&((struct obstacle*)dataset->items)[i], v))
 198:Src/main.cpp  **** 		{
 199:Src/main.cpp  **** 			o = &((struct obstacle*)dataset->items)[i];
 200:Src/main.cpp  **** 			break;
 201:Src/main.cpp  **** 		}
 202:Src/main.cpp  **** 	}
 203:Src/main.cpp  **** 	if(o != NULL)
 204:Src/main.cpp  **** 		return {-1, -1};
 205:Src/main.cpp  **** 
 206:Src/main.cpp  **** 	return getIntersection(o, v);
 207:Src/main.cpp  **** }
 208:Src/main.cpp  **** 
 209:Src/main.cpp  **** 
 210:Src/main.cpp  **** struct obstacle*	getIntersected(const struct array *dataset, const struct vect *v)
 211:Src/main.cpp  **** {
 212:Src/main.cpp  **** 	struct obstacle *o = NULL;
 213:Src/main.cpp  **** 	struct coords	inter;
 214:Src/main.cpp  **** 	COORDS_DATATYPE l = INF;
 215:Src/main.cpp  **** 	// cout << "Watching for vect " << v->c->x << ":" << v->c->y << "; d" << v->dx << ":d" << v->dy <<
 216:Src/main.cpp  **** 	for(size_t i = 0; i < dataset->size; i++)
 217:Src/main.cpp  **** 	{
 218:Src/main.cpp  **** 		// cout << "###Watching for intersection, obst: " << (int)i << "\t\t###" << endl;
 219:Src/main.cpp  **** 		inter = getIntersection(&((struct obstacle*)dataset->items)[i], v);
 220:Src/main.cpp  **** 		COORDS_DATATYPE _l = getLen(v->c, &inter);
GAS LISTING /tmp/cc6iEGVT.s 			page 5


 221:Src/main.cpp  **** 		if(inter.x != -1 && inter.y != -1 && _l < l)
 222:Src/main.cpp  **** 		{
 223:Src/main.cpp  **** 			// cout << "####Found intersection: " << inter.x << ":" << inter.y << " with len " << _l << "\t\
 224:Src/main.cpp  **** 			o = &((struct obstacle*)dataset->items)[i];
 225:Src/main.cpp  **** 			l = _l;
 226:Src/main.cpp  **** 		}
 227:Src/main.cpp  **** 	}
 228:Src/main.cpp  **** 	return o;
 229:Src/main.cpp  **** }
 230:Src/main.cpp  **** 
 231:Src/main.cpp  **** void initPoint(struct graphPoint *p, const struct coords *c, const struct array *obsts)
 232:Src/main.cpp  **** {
 233:Src/main.cpp  **** 	struct vect v;
 234:Src/main.cpp  **** 	// for(uint8_t i = 0; i < VECTORS_PER_CHECK; i++)
 235:Src/main.cpp  **** 	// {
 236:Src/main.cpp  **** 	// 	v = createVect(c, ((360.0 / VECTORS_PER_CHECK) * i));
 237:Src/main.cpp  **** 	// 	struct obstacle *o = getIntersected(obsts, &v);
 238:Src/main.cpp  **** 	// 	if(o != NULL)
 239:Src/main.cpp  **** 	// 	{
 240:Src/main.cpp  **** 	// 		struct coords *c;
 241:Src/main.cpp  **** 	// 		for(uint8_t h = 0; h < 4; h++)
 242:Src/main.cpp  **** 	// 		{
 243:Src/main.cpp  **** 	// 			cout << "->Found intersection" << endl;
 244:Src/main.cpp  **** 	// 			c = getCoordsOfCorner(o, h);
 245:Src/main.cpp  **** 	// 			v.dx = (c->x - v.c->x);
 246:Src/main.cpp  **** 	// 			v.dy = (c->y - v.c->y);
 247:Src/main.cpp  **** 	// 			if((v.dx != 0 || v.dy != 0) && getIntersected(obsts, &v) == NULL)
 248:Src/main.cpp  **** 	// 			{
 249:Src/main.cpp  **** 	// 				addTarget(p, o->corners[h]);
 250:Src/main.cpp  **** 	// 			}
 251:Src/main.cpp  **** 	// 			free(c);
 252:Src/main.cpp  **** 	// 		}
 253:Src/main.cpp  **** 	// 	}
 254:Src/main.cpp  **** 	// }
 255:Src/main.cpp  **** 
 256:Src/main.cpp  **** 
 257:Src/main.cpp  **** 
 258:Src/main.cpp  **** 	struct coords *tgt;
 259:Src/main.cpp  **** 	for(size_t i = 0; i < obsts->size; i++)
 260:Src/main.cpp  **** 	{
 261:Src/main.cpp  **** 		for(uint8_t j = 0; j < 4; j++)
 262:Src/main.cpp  **** 		{
 263:Src/main.cpp  **** 			tgt = getCoordsOfCorner(&((struct obstacle*)obsts->items)[i], j);
 264:Src/main.cpp  **** 			v = createVect(c, tgt);
 265:Src/main.cpp  **** 			if((v.dx != 0 || v.dy != 0) && !hasIntersections(&v))
 266:Src/main.cpp  **** 			{
 267:Src/main.cpp  **** 				cout << "Creating tgt\n";
 268:Src/main.cpp  **** 				if(p->numOfTargets == 0)
 269:Src/main.cpp  **** 					calculatedPoints++;
 270:Src/main.cpp  **** 				if(((struct obstacle*)obsts->items)[i].corners[j]->numOfTargets == 0)
 271:Src/main.cpp  **** 					calculatedPoints++;
 272:Src/main.cpp  **** 				addTarget(p, ((struct obstacle*)obsts->items)[i].corners[j]);
 273:Src/main.cpp  **** 				for(uint8_t h = 0; h < 4; h++)
 274:Src/main.cpp  **** 					if(((struct obstacle*)obsts->items)[i].corners[h]->numOfTargets == 0)
 275:Src/main.cpp  **** 						initPoint(((struct obstacle*)obsts->items)[i].corners[h], getCoordsOfCorner(&((struct obstacl
 276:Src/main.cpp  **** 				// initObst(&((struct obstacle*)obsts->items)[i]);
 277:Src/main.cpp  **** 			}
GAS LISTING /tmp/cc6iEGVT.s 			page 6


 278:Src/main.cpp  **** 			free(tgt);
 279:Src/main.cpp  **** 		}
 280:Src/main.cpp  **** 	}
 281:Src/main.cpp  **** }
 282:Src/main.cpp  **** 
 283:Src/main.cpp  **** 
 284:Src/main.cpp  **** 
 285:Src/main.cpp  **** void initPoint(struct graphPoint *p, const struct coords *c)
 286:Src/main.cpp  **** {
 287:Src/main.cpp  **** 	struct array *obsts = getDataSet(c);
 288:Src/main.cpp  **** 	initPoint(p, c, obsts);
 289:Src/main.cpp  **** 	free(obsts);
 290:Src/main.cpp  **** }
 291:Src/main.cpp  **** 
 292:Src/main.cpp  **** 
 293:Src/main.cpp  **** void initObstCorner(const struct obstacle *obst, const uint8_t corner)
 294:Src/main.cpp  **** {
 295:Src/main.cpp  **** 	cout << "Watching corner " << (int)corner << " of obstacle " << obst << endl;
 296:Src/main.cpp  **** 	struct graphPoint *point = getPoint(obst, corner);
 297:Src/main.cpp  **** 	struct coords *c = getCoordsOfCorner(obst, corner);
 298:Src/main.cpp  **** 	initPoint(point, c);
 299:Src/main.cpp  **** }
 300:Src/main.cpp  **** 
 301:Src/main.cpp  **** 
 302:Src/main.cpp  **** 
 303:Src/main.cpp  **** void initObst(const struct obstacle *obst)
 304:Src/main.cpp  **** {
 305:Src/main.cpp  **** 	for(uint8_t i = 0; i < 4; i++)
 306:Src/main.cpp  **** 		initObstCorner(obst, i);
 307:Src/main.cpp  **** }
 308:Src/main.cpp  **** 
 309:Src/main.cpp  **** 
 310:Src/main.cpp  **** 
 311:Src/main.cpp  **** void initGraph(struct graphPoint *startp, const struct coords *startc)
 312:Src/main.cpp  **** {
 313:Src/main.cpp  **** 	struct array *ar = getDataSet(startc);
 314:Src/main.cpp  **** 	initPoint(startp, startc, ar);
 315:Src/main.cpp  **** }
 316:Src/main.cpp  **** 
 317:Src/main.cpp  **** 
 318:Src/main.cpp  **** 
 319:Src/main.cpp  **** 
 320:Src/main.cpp  **** 
 321:Src/main.cpp  **** 
 322:Src/main.cpp  **** 
 323:Src/main.cpp  **** 
 324:Src/main.cpp  **** 
 325:Src/main.cpp  **** 
 326:Src/main.cpp  **** 
 327:Src/main.cpp  **** struct coords getCoordsOfPoint(const struct graphPoint *p)
 328:Src/main.cpp  **** {
 329:Src/main.cpp  **** 	return p->c;
 330:Src/main.cpp  **** 
 331:Src/main.cpp  **** 	for(size_t i = 0; i < numOfObstacles; i++)
 332:Src/main.cpp  **** 	{
 333:Src/main.cpp  **** 		for(size_t j = 0; j < 4; j++)
 334:Src/main.cpp  **** 		{
GAS LISTING /tmp/cc6iEGVT.s 			page 7


 335:Src/main.cpp  **** 			if(p == getPoint(&obstacles[i], j))
 336:Src/main.cpp  **** 			{
 337:Src/main.cpp  **** 				cout << "\t\t\tPoint found: obst: " << i << endl
 338:Src/main.cpp  **** 					 << "\t\t\tCorner: " << j << endl
 339:Src/main.cpp  **** 					 << "\t\tobst: " << &obstacles[i] << " corners: ";
 340:Src/main.cpp  **** 				for(int s = 0; s < 4; s++)
 341:Src/main.cpp  **** 					cout << obstacles[i].corners[s] << " ";
 342:Src/main.cpp  **** 				cout << endl << "\t\tCurr: " << p << endl;
 343:Src/main.cpp  **** 				return *getCoordsOfCorner(&obstacles[i], j);
 344:Src/main.cpp  **** 			}
 345:Src/main.cpp  **** 		}
 346:Src/main.cpp  **** 	}
 347:Src/main.cpp  **** 
 348:Src/main.cpp  **** 	return {-1, -1};
 349:Src/main.cpp  **** }
 350:Src/main.cpp  **** 
 351:Src/main.cpp  **** 
 352:Src/main.cpp  **** 
 353:Src/main.cpp  **** void drawEdges(const struct graphPoint *p)
 354:Src/main.cpp  **** {
 355:Src/main.cpp  **** 	if(p == NULL || p->numOfTargets == 0)
 356:Src/main.cpp  **** 		return;
 357:Src/main.cpp  **** 
 358:Src/main.cpp  **** 	struct coords start, end;
 359:Src/main.cpp  **** 	start = getCoordsOfPoint(p);
 360:Src/main.cpp  **** 	for(size_t i = 0; i < p->numOfTargets; i++)
 361:Src/main.cpp  **** 	{
 362:Src/main.cpp  **** 		end = getCoordsOfPoint(p->targets[i]);
 363:Src/main.cpp  **** 		drawLine(start.x, start.y, end.x, end.y);
 364:Src/main.cpp  **** 		cout 	<< "\tLine: " << endl
 365:Src/main.cpp  **** 				<< "\t\t" << start.x << ":" << start.y << " -> " << end.x << ":" << end.y << endl;
 366:Src/main.cpp  **** 	}
 367:Src/main.cpp  **** }
 368:Src/main.cpp  **** 
 369:Src/main.cpp  **** 
 370:Src/main.cpp  **** 
 371:Src/main.cpp  **** 
 372:Src/main.cpp  **** void drawObstacle(const struct obstacle *o)
 373:Src/main.cpp  **** {
 374:Src/main.cpp  **** 	glSetColor(OBST_COLOR);
 375:Src/main.cpp  **** 	drawQuad(o->c->x, o->c->y, o->a);
 376:Src/main.cpp  **** 	glSetColor(GRAPH_COLOR);
 377:Src/main.cpp  **** 	// for(int i = 0; i < 4; i++)
 378:Src/main.cpp  **** 	// 	drawEdges(o->corners[i]);
 379:Src/main.cpp  **** }
 380:Src/main.cpp  **** 
 381:Src/main.cpp  **** void renderScene(void)
 382:Src/main.cpp  **** {
 383:Src/main.cpp  **** 	glClear(GL_COLOR_BUFFER_BIT);
 384:Src/main.cpp  **** 
 385:Src/main.cpp  **** 		// glSetColor(0xFF0000);
 386:Src/main.cpp  **** 		// drawTriangle(glutGet(GLUT_WINDOW_WIDTH) / 2 - 200, glutGet(GLUT_WINDOW_HEIGHT) / 2 - 200, 400)
 387:Src/main.cpp  **** 		for(size_t i = 0; i < numOfObstacles; i++)
 388:Src/main.cpp  **** 		{
 389:Src/main.cpp  **** 			drawObstacle(&obstacles[i]);
 390:Src/main.cpp  **** 		}
 391:Src/main.cpp  **** 		for(size_t i = 0; i < graphSize; i++)
GAS LISTING /tmp/cc6iEGVT.s 			page 8


 392:Src/main.cpp  **** 		{
 393:Src/main.cpp  **** 			drawEdges(graph[i]);
 394:Src/main.cpp  **** 		}
 395:Src/main.cpp  **** 		// glSetColor(0x00FF00);
 396:Src/main.cpp  **** 		// drawLine(19, 40, 49, 70);
 397:Src/main.cpp  **** 		// drawLine(startway.x, startway.y, endway.x, endway.y);
 398:Src/main.cpp  **** 
 399:Src/main.cpp  **** 
 400:Src/main.cpp  ****     glutSwapBuffers();
 401:Src/main.cpp  **** }
 402:Src/main.cpp  **** 
 403:Src/main.cpp  **** 
 404:Src/main.cpp  **** void handleKeypress(unsigned char key, //The key that was pressed
 405:Src/main.cpp  ****                                         int x, int y) //The current mouse coordinates
 406:Src/main.cpp  **** {
 407:Src/main.cpp  ****     cout << "PRESSED\n" << (int)key << endl;
 408:Src/main.cpp  ****     if(key == 27) //ESC
 409:Src/main.cpp  ****     {
 410:Src/main.cpp  **** 	    cout << "ESC\n";
 411:Src/main.cpp  **** 		terminated = true;
 412:Src/main.cpp  ****     }
 413:Src/main.cpp  **** }
 414:Src/main.cpp  **** 
 415:Src/main.cpp  **** 
 416:Src/main.cpp  **** 
 417:Src/main.cpp  **** 
 418:Src/main.cpp  **** 
 419:Src/main.cpp  **** void reshape(int w, int h)
 420:Src/main.cpp  **** {
 421:Src/main.cpp  **** 	glViewport(0, 0, w, h);
 422:Src/main.cpp  **** 
 423:Src/main.cpp  **** 	glMatrixMode(GL_PROJECTION);
 424:Src/main.cpp  **** 	glLoadIdentity();
 425:Src/main.cpp  **** 	gluOrtho2D(0, w, 0, h);
 426:Src/main.cpp  **** 
 427:Src/main.cpp  **** 	glMatrixMode(GL_MODELVIEW);
 428:Src/main.cpp  **** 	glLoadIdentity();
 429:Src/main.cpp  **** }
 430:Src/main.cpp  **** 
 431:Src/main.cpp  **** 
 432:Src/main.cpp  **** 
 433:Src/main.cpp  **** 
 434:Src/main.cpp  **** void timf(int value)				// Timer function
 435:Src/main.cpp  **** {
  10              		.loc 1 435 1 view -0
  11              		.cfi_startproc
  12              		.loc 1 435 1 is_stmt 0 view .LVU1
  13 0000 4883EC08 		subq	$8, %rsp
  14              		.cfi_def_cfa_offset 16
 436:Src/main.cpp  **** 	if(!terminated)					//if don't wanna terminate
  15              		.loc 1 436 2 is_stmt 1 view .LVU2
  16 0004 803D0000 		cmpb	$0, terminated(%rip)
  16      000000
  17 000b 7520     		jne	.L2
 437:Src/main.cpp  **** 	{
 438:Src/main.cpp  **** 		glutPostRedisplay();		//Redraw windows
  18              		.loc 1 438 3 view .LVU3
GAS LISTING /tmp/cc6iEGVT.s 			page 9


  19              		.loc 1 438 20 is_stmt 0 view .LVU4
  20 000d E8000000 		call	glutPostRedisplay@PLT
  20      00
  21              	.LVL1:
 439:Src/main.cpp  **** 		glutTimerFunc(GL_TIMER_DELAY, timf, 0);	//Setup next timer
  22              		.loc 1 439 3 is_stmt 1 view .LVU5
  23              		.loc 1 439 16 is_stmt 0 view .LVU6
  24 0012 BA000000 		movl	$0, %edx
  24      00
  25 0017 488D3500 		leaq	_Z4timfi(%rip), %rsi
  25      000000
  26 001e BF900100 		movl	$400, %edi
  26      00
  27 0023 E8000000 		call	glutTimerFunc@PLT
  27      00
  28              	.LVL2:
 440:Src/main.cpp  **** 	}
 441:Src/main.cpp  **** 	else							//if wanna terminate
 442:Src/main.cpp  **** 	{
 443:Src/main.cpp  **** 		terminated = false;			//set terminated flag
 444:Src/main.cpp  **** 		exit(RETURN_CODE_OK);		//terminate thread
 445:Src/main.cpp  **** 	}
 446:Src/main.cpp  **** }
  29              		.loc 1 446 1 view .LVU7
  30 0028 4883C408 		addq	$8, %rsp
  31              		.cfi_remember_state
  32              		.cfi_def_cfa_offset 8
  33 002c C3       		ret
  34              	.LVL3:
  35              	.L2:
  36              		.cfi_restore_state
 443:Src/main.cpp  **** 		exit(RETURN_CODE_OK);		//terminate thread
  37              		.loc 1 443 3 is_stmt 1 view .LVU8
 443:Src/main.cpp  **** 		exit(RETURN_CODE_OK);		//terminate thread
  38              		.loc 1 443 14 is_stmt 0 view .LVU9
  39 002d C6050000 		movb	$0, terminated(%rip)
  39      000000
 444:Src/main.cpp  **** 	}
  40              		.loc 1 444 3 is_stmt 1 view .LVU10
 444:Src/main.cpp  **** 	}
  41              		.loc 1 444 7 is_stmt 0 view .LVU11
  42 0034 BF000000 		movl	$0, %edi
  42      00
  43              	.LVL4:
 444:Src/main.cpp  **** 	}
  44              		.loc 1 444 7 view .LVU12
  45 0039 E8000000 		call	exit@PLT
  45      00
  46              	.LVL5:
  47              		.cfi_endproc
  48              	.LFE2494:
  51              	_Z41__static_initialization_and_destruction_0ii:
  52              	.LVL6:
  53              	.LFB2843:
 447:Src/main.cpp  **** 
 448:Src/main.cpp  **** 
 449:Src/main.cpp  **** 
GAS LISTING /tmp/cc6iEGVT.s 			page 10


 450:Src/main.cpp  **** 
 451:Src/main.cpp  **** int main(int argc, char **argv)
 452:Src/main.cpp  **** {
 453:Src/main.cpp  **** 	numOfObstacles = 10;
 454:Src/main.cpp  **** 	size_t iter = 0;
 455:Src/main.cpp  **** 	obstacles = (struct obstacle*)malloc(sizeof(struct obstacle) * numOfObstacles);
 456:Src/main.cpp  **** 	obstacles[iter++] = createObstacle(200, 200, 20);
 457:Src/main.cpp  **** 	obstacles[iter++] = createObstacle(45, 55, 20);
 458:Src/main.cpp  **** 	// obstacles[iter++] = createObstacle(70, 20, 20);
 459:Src/main.cpp  **** 	// obstacles[iter++] = createObstacle(5, 55, 20);
 460:Src/main.cpp  **** 	// obstacles[iter++] = createObstacle(5, 100, 20);
 461:Src/main.cpp  **** 	// obstacles[iter++] = createObstacle(500, 55, 20);
 462:Src/main.cpp  **** 	// obstacles[iter++] = createObstacle(300, 240, 20);
 463:Src/main.cpp  **** 	// obstacles[iter++] = createObstacle(100, 90, 20);
 464:Src/main.cpp  **** 	obstacles[iter++] = createObstacle(20, 280, 20);
 465:Src/main.cpp  **** 	numOfObstacles = iter;
 466:Src/main.cpp  **** 
 467:Src/main.cpp  **** 	graphSize = numOfObstacles * 4 + 2;
 468:Src/main.cpp  **** 
 469:Src/main.cpp  **** 	struct graphPoint *p = (struct graphPoint*)malloc(sizeof(struct graphPoint));
 470:Src/main.cpp  **** 
 471:Src/main.cpp  **** 	struct coords c;
 472:Src/main.cpp  **** 	c.x = 200;
 473:Src/main.cpp  **** 	c.y = 0;
 474:Src/main.cpp  **** 	p->c = c;
 475:Src/main.cpp  **** 	struct graphPoint *p2 = (struct graphPoint*)malloc(sizeof(struct graphPoint));
 476:Src/main.cpp  **** 
 477:Src/main.cpp  **** 	struct coords c2;
 478:Src/main.cpp  **** 	c2.x = 0;
 479:Src/main.cpp  **** 	c2.y = 200;
 480:Src/main.cpp  **** 	p2->c = c2;
 481:Src/main.cpp  **** 
 482:Src/main.cpp  **** 	graph = (struct graphPoint**)malloc(graphSize * sizeof(struct graphPoint*));
 483:Src/main.cpp  **** 	graph[numOfObstacles * 4] = p;
 484:Src/main.cpp  **** 	graph[numOfObstacles * 4 + 1] = p2;
 485:Src/main.cpp  **** 	for(size_t i = 0; i < numOfObstacles * 4; i++)
 486:Src/main.cpp  **** 	{
 487:Src/main.cpp  **** 		graph[i] = obstacles[i / 4].corners[i % 4];
 488:Src/main.cpp  **** 	}
 489:Src/main.cpp  **** 
 490:Src/main.cpp  **** 	startway.x 	= 0;
 491:Src/main.cpp  **** 	startway.y 	= 0;
 492:Src/main.cpp  **** 	endway.x	= 150;
 493:Src/main.cpp  **** 	endway.y	= 150;
 494:Src/main.cpp  **** 
 495:Src/main.cpp  **** 
 496:Src/main.cpp  **** 	// cout << "AAAAAAAAAAAAAAAA" << endl;
 497:Src/main.cpp  **** 
 498:Src/main.cpp  **** 
 499:Src/main.cpp  **** 	// initObst(&obstacles[0]);
 500:Src/main.cpp  **** 	// initPoint(graph[graphSize - 1], &c);
 501:Src/main.cpp  **** 	initGraph(graph[numOfObstacles * 4], &c);
 502:Src/main.cpp  **** 
 503:Src/main.cpp  **** 	// for(int i = 0; i < 4; i++)
 504:Src/main.cpp  **** 	// {
 505:Src/main.cpp  **** 	// 	if(obstacles[0].corners[i] != NULL)
 506:Src/main.cpp  **** 	// 	{
GAS LISTING /tmp/cc6iEGVT.s 			page 11


 507:Src/main.cpp  **** 	// 		for(int j = 0; j < obstacles[0].corners[i]->numOfTargets; j++)
 508:Src/main.cpp  **** 	// 		{
 509:Src/main.cpp  **** 	// 			cout << "corner: " << obstacles[0].corners[i]->c.x << ":" << obstacles[0].corners[i]->c.y <<
 510:Src/main.cpp  **** 	// 		}
 511:Src/main.cpp  **** 	// 	}
 512:Src/main.cpp  **** 	// }
 513:Src/main.cpp  **** 
 514:Src/main.cpp  **** 	// struct coords sss = getCoordsOfPoint(obstacles[0].corners[0]);
 515:Src/main.cpp  **** 	// cout << sss.x << " " << sss.y << endl;
 516:Src/main.cpp  **** //
 517:Src/main.cpp  **** // 	struct vect v = createVect(&obstacles[0], CORNER_LEFT_BOT, -45);
 518:Src/main.cpp  **** // 	// v.dx = 5;
 519:Src/main.cpp  **** // 	// v.dy = 35;
 520:Src/main.cpp  **** // 	// struct vect v;
 521:Src/main.cpp  **** // 	// v.c = createCoords(19.4, 40.4);
 522:Src/main.cpp  **** // 	// v.dx =
 523:Src/main.cpp  **** // 	// cout << hasIntersection(&obstacles[1], &v) << endl;
 524:Src/main.cpp  **** //
 525:Src/main.cpp  **** // 	struct array ar;
 526:Src/main.cpp  **** // 	ar.items = obstacles;
 527:Src/main.cpp  **** // 	ar.size = numOfObstacles;
 528:Src/main.cpp  **** //
 529:Src/main.cpp  **** // 	struct coords cc = getIntersection(&obstacles[1], &v);
 530:Src/main.cpp  **** // 	cout << cc.x << ":" << cc.y << endl;
 531:Src/main.cpp  **** // 	//
 532:Src/main.cpp  **** // 	// struct obstacle *ob = getIntersected(&ar, &v);
 533:Src/main.cpp  **** // 	//
 534:Src/main.cpp  **** // 	// cout << ob << endl;
 535:Src/main.cpp  **** // 	// struct coords dot = {20, 10};
 536:Src/main.cpp  **** // 	// cout << isDotInside(&dot, &obstacles[0]);
 537:Src/main.cpp  **** cout << "points: " << graphSize << "; calculated: " << calculatedPoints << endl;
 538:Src/main.cpp  **** return 0;
 539:Src/main.cpp  ****  	cout << "glut init\n";
 540:Src/main.cpp  **** 	glutInit(&argc, argv);
 541:Src/main.cpp  **** 	cout << "dispmode\n";
 542:Src/main.cpp  **** 	glutInitDisplayMode(GLUT_DOUBLE | GLUT_RGBA);
 543:Src/main.cpp  **** 	glutCreateWindow("floating");
 544:Src/main.cpp  **** 	cout << "reshape\n";
 545:Src/main.cpp  **** 	glutReshapeFunc(reshape);
 546:Src/main.cpp  **** 	cout << "dispfunc\n";
 547:Src/main.cpp  **** 	glutDisplayFunc(renderScene);
 548:Src/main.cpp  ****     cout << "keyfunc\n";
 549:Src/main.cpp  ****     glutKeyboardFunc(handleKeypress);
 550:Src/main.cpp  **** 	cout << "timer\n";
 551:Src/main.cpp  **** 	glutTimerFunc(GL_TIMER_DELAY, timf, 0);
 552:Src/main.cpp  **** 	cout << "mainloop\n";
 553:Src/main.cpp  **** 	glutMainLoop();
 554:Src/main.cpp  **** 
 555:Src/main.cpp  **** 
 556:Src/main.cpp  **** 	return 1;
 557:Src/main.cpp  **** }
  54              		.loc 1 557 1 is_stmt 1 view -0
  55              		.cfi_startproc
  56              		.loc 1 557 1 is_stmt 0 view .LVU14
  57 003e 83FF01   		cmpl	$1, %edi
  58 0041 7401     		je	.L11
  59              	.L8:
GAS LISTING /tmp/cc6iEGVT.s 			page 12


  60 0043 C3       		ret
  61              	.L11:
  62              		.loc 1 557 1 discriminator 1 view .LVU15
  63 0044 81FEFFFF 		cmpl	$65535, %esi
  63      0000
  64 004a 75F7     		jne	.L8
  65              		.loc 1 557 1 view .LVU16
  66 004c 4883EC08 		subq	$8, %rsp
  67              		.cfi_def_cfa_offset 16
  68              		.file 2 "/usr/include/c++/9.1.0/iostream"
   1:/usr/include/c++/9.1.0/iostream **** // Standard iostream objects -*- C++ -*-
   2:/usr/include/c++/9.1.0/iostream **** 
   3:/usr/include/c++/9.1.0/iostream **** // Copyright (C) 1997-2019 Free Software Foundation, Inc.
   4:/usr/include/c++/9.1.0/iostream **** //
   5:/usr/include/c++/9.1.0/iostream **** // This file is part of the GNU ISO C++ Library.  This library is free
   6:/usr/include/c++/9.1.0/iostream **** // software; you can redistribute it and/or modify it under the
   7:/usr/include/c++/9.1.0/iostream **** // terms of the GNU General Public License as published by the
   8:/usr/include/c++/9.1.0/iostream **** // Free Software Foundation; either version 3, or (at your option)
   9:/usr/include/c++/9.1.0/iostream **** // any later version.
  10:/usr/include/c++/9.1.0/iostream **** 
  11:/usr/include/c++/9.1.0/iostream **** // This library is distributed in the hope that it will be useful,
  12:/usr/include/c++/9.1.0/iostream **** // but WITHOUT ANY WARRANTY; without even the implied warranty of
  13:/usr/include/c++/9.1.0/iostream **** // MERCHANTABILITY or FITNESS FOR A PARTICULAR PURPOSE.  See the
  14:/usr/include/c++/9.1.0/iostream **** // GNU General Public License for more details.
  15:/usr/include/c++/9.1.0/iostream **** 
  16:/usr/include/c++/9.1.0/iostream **** // Under Section 7 of GPL version 3, you are granted additional
  17:/usr/include/c++/9.1.0/iostream **** // permissions described in the GCC Runtime Library Exception, version
  18:/usr/include/c++/9.1.0/iostream **** // 3.1, as published by the Free Software Foundation.
  19:/usr/include/c++/9.1.0/iostream **** 
  20:/usr/include/c++/9.1.0/iostream **** // You should have received a copy of the GNU General Public License and
  21:/usr/include/c++/9.1.0/iostream **** // a copy of the GCC Runtime Library Exception along with this program;
  22:/usr/include/c++/9.1.0/iostream **** // see the files COPYING3 and COPYING.RUNTIME respectively.  If not, see
  23:/usr/include/c++/9.1.0/iostream **** // <http://www.gnu.org/licenses/>.
  24:/usr/include/c++/9.1.0/iostream **** 
  25:/usr/include/c++/9.1.0/iostream **** /** @file include/iostream
  26:/usr/include/c++/9.1.0/iostream ****  *  This is a Standard C++ Library header.
  27:/usr/include/c++/9.1.0/iostream ****  */
  28:/usr/include/c++/9.1.0/iostream **** 
  29:/usr/include/c++/9.1.0/iostream **** //
  30:/usr/include/c++/9.1.0/iostream **** // ISO C++ 14882: 27.3  Standard iostream objects
  31:/usr/include/c++/9.1.0/iostream **** //
  32:/usr/include/c++/9.1.0/iostream **** 
  33:/usr/include/c++/9.1.0/iostream **** #ifndef _GLIBCXX_IOSTREAM
  34:/usr/include/c++/9.1.0/iostream **** #define _GLIBCXX_IOSTREAM 1
  35:/usr/include/c++/9.1.0/iostream **** 
  36:/usr/include/c++/9.1.0/iostream **** #pragma GCC system_header
  37:/usr/include/c++/9.1.0/iostream **** 
  38:/usr/include/c++/9.1.0/iostream **** #include <bits/c++config.h>
  39:/usr/include/c++/9.1.0/iostream **** #include <ostream>
  40:/usr/include/c++/9.1.0/iostream **** #include <istream>
  41:/usr/include/c++/9.1.0/iostream **** 
  42:/usr/include/c++/9.1.0/iostream **** namespace std _GLIBCXX_VISIBILITY(default)
  43:/usr/include/c++/9.1.0/iostream **** {
  44:/usr/include/c++/9.1.0/iostream **** _GLIBCXX_BEGIN_NAMESPACE_VERSION
  45:/usr/include/c++/9.1.0/iostream **** 
  46:/usr/include/c++/9.1.0/iostream ****   /**
  47:/usr/include/c++/9.1.0/iostream ****    *  @name Standard Stream Objects
GAS LISTING /tmp/cc6iEGVT.s 			page 13


  48:/usr/include/c++/9.1.0/iostream ****    *
  49:/usr/include/c++/9.1.0/iostream ****    *  The &lt;iostream&gt; header declares the eight <em>standard stream
  50:/usr/include/c++/9.1.0/iostream ****    *  objects</em>.  For other declarations, see
  51:/usr/include/c++/9.1.0/iostream ****    *  http://gcc.gnu.org/onlinedocs/libstdc++/manual/io.html
  52:/usr/include/c++/9.1.0/iostream ****    *  and the @link iosfwd I/O forward declarations @endlink
  53:/usr/include/c++/9.1.0/iostream ****    *
  54:/usr/include/c++/9.1.0/iostream ****    *  They are required by default to cooperate with the global C
  55:/usr/include/c++/9.1.0/iostream ****    *  library's @c FILE streams, and to be available during program
  56:/usr/include/c++/9.1.0/iostream ****    *  startup and termination. For more information, see the section of the
  57:/usr/include/c++/9.1.0/iostream ****    *  manual linked to above.
  58:/usr/include/c++/9.1.0/iostream ****   */
  59:/usr/include/c++/9.1.0/iostream ****   //@{
  60:/usr/include/c++/9.1.0/iostream ****   extern istream cin;		/// Linked to standard input
  61:/usr/include/c++/9.1.0/iostream ****   extern ostream cout;		/// Linked to standard output
  62:/usr/include/c++/9.1.0/iostream ****   extern ostream cerr;		/// Linked to standard error (unbuffered)
  63:/usr/include/c++/9.1.0/iostream ****   extern ostream clog;		/// Linked to standard error (buffered)
  64:/usr/include/c++/9.1.0/iostream **** 
  65:/usr/include/c++/9.1.0/iostream **** #ifdef _GLIBCXX_USE_WCHAR_T
  66:/usr/include/c++/9.1.0/iostream ****   extern wistream wcin;		/// Linked to standard input
  67:/usr/include/c++/9.1.0/iostream ****   extern wostream wcout;	/// Linked to standard output
  68:/usr/include/c++/9.1.0/iostream ****   extern wostream wcerr;	/// Linked to standard error (unbuffered)
  69:/usr/include/c++/9.1.0/iostream ****   extern wostream wclog;	/// Linked to standard error (buffered)
  70:/usr/include/c++/9.1.0/iostream **** #endif
  71:/usr/include/c++/9.1.0/iostream ****   //@}
  72:/usr/include/c++/9.1.0/iostream **** 
  73:/usr/include/c++/9.1.0/iostream ****   // For construction of filebuffers for cout, cin, cerr, clog et. al.
  74:/usr/include/c++/9.1.0/iostream ****   static ios_base::Init __ioinit;
  69              		.loc 2 74 25 view .LVU17
  70 0050 488D3D00 		leaq	_ZStL8__ioinit(%rip), %rdi
  70      000000
  71              	.LVL7:
  72              		.loc 2 74 25 view .LVU18
  73 0057 E8000000 		call	_ZNSt8ios_base4InitC1Ev@PLT
  73      00
  74              	.LVL8:
  75              		.loc 2 74 25 view .LVU19
  76 005c 488D1500 		leaq	__dso_handle(%rip), %rdx
  76      000000
  77 0063 488D3500 		leaq	_ZStL8__ioinit(%rip), %rsi
  77      000000
  78 006a 488B3D00 		movq	_ZNSt8ios_base4InitD1Ev@GOTPCREL(%rip), %rdi
  78      000000
  79 0071 E8000000 		call	__cxa_atexit@PLT
  79      00
  80              	.LVL9:
  81              		.loc 1 557 1 view .LVU20
  82 0076 4883C408 		addq	$8, %rsp
  83              		.cfi_def_cfa_offset 8
  84 007a C3       		ret
  85              		.cfi_endproc
  86              	.LFE2843:
  88              		.globl	_Z12calculateWayv
  90              	_Z12calculateWayv:
  91              	.LFB2470:
  58:Src/main.cpp  **** 
  92              		.loc 1 58 1 is_stmt 1 view -0
  93              		.cfi_startproc
GAS LISTING /tmp/cc6iEGVT.s 			page 14


  60:Src/main.cpp  **** 
  94              		.loc 1 60 1 is_stmt 0 view .LVU22
  95 007b C3       		ret
  96              		.cfi_endproc
  97              	.LFE2470:
  99              		.globl	_Z10createVectPK6coordsf
 101              	_Z10createVectPK6coordsf:
 102              	.LVL10:
 103              	.LFB2471:
  76:Src/main.cpp  **** 	struct vect ret;
 104              		.loc 1 76 1 is_stmt 1 view -0
 105              		.cfi_startproc
  76:Src/main.cpp  **** 	struct vect ret;
 106              		.loc 1 76 1 is_stmt 0 view .LVU24
 107 007c 55       		pushq	%rbp
 108              		.cfi_def_cfa_offset 16
 109              		.cfi_offset 6, -16
 110 007d 53       		pushq	%rbx
 111              		.cfi_def_cfa_offset 24
 112              		.cfi_offset 3, -24
 113 007e 4883EC18 		subq	$24, %rsp
 114              		.cfi_def_cfa_offset 48
 115 0082 4889FD   		movq	%rdi, %rbp
 116 0085 F30F1144 		movss	%xmm0, 4(%rsp)
 116      2404
  77:Src/main.cpp  **** 	ret.c  = (struct coords*)malloc(sizeof(struct coords));
 117              		.loc 1 77 2 is_stmt 1 view .LVU25
  78:Src/main.cpp  **** 	ret.c->x = c->x;
 118              		.loc 1 78 2 view .LVU26
  78:Src/main.cpp  **** 	ret.c->x = c->x;
 119              		.loc 1 78 33 is_stmt 0 view .LVU27
 120 008b BF080000 		movl	$8, %edi
 120      00
 121              	.LVL11:
  78:Src/main.cpp  **** 	ret.c->x = c->x;
 122              		.loc 1 78 33 view .LVU28
 123 0090 E8000000 		call	malloc@PLT
 123      00
 124              	.LVL12:
  78:Src/main.cpp  **** 	ret.c->x = c->x;
 125              		.loc 1 78 33 view .LVU29
 126 0095 4889C3   		movq	%rax, %rbx
  79:Src/main.cpp  **** 	ret.c->y = c->y;
 127              		.loc 1 79 2 is_stmt 1 view .LVU30
  79:Src/main.cpp  **** 	ret.c->y = c->y;
 128              		.loc 1 79 16 is_stmt 0 view .LVU31
 129 0098 F30F1045 		movss	0(%rbp), %xmm0
 129      00
  79:Src/main.cpp  **** 	ret.c->y = c->y;
 130              		.loc 1 79 11 view .LVU32
 131 009d F30F1100 		movss	%xmm0, (%rax)
  80:Src/main.cpp  **** 	ret.dx = QUAD_CHECK_SIDE * 10.0 / tan(angle / 180.0 * PI);
 132              		.loc 1 80 2 is_stmt 1 view .LVU33
  80:Src/main.cpp  **** 	ret.dx = QUAD_CHECK_SIDE * 10.0 / tan(angle / 180.0 * PI);
 133              		.loc 1 80 16 is_stmt 0 view .LVU34
 134 00a1 F30F1045 		movss	4(%rbp), %xmm0
 134      04
GAS LISTING /tmp/cc6iEGVT.s 			page 15


  80:Src/main.cpp  **** 	ret.dx = QUAD_CHECK_SIDE * 10.0 / tan(angle / 180.0 * PI);
 135              		.loc 1 80 11 view .LVU35
 136 00a6 F30F1140 		movss	%xmm0, 4(%rax)
 136      04
  81:Src/main.cpp  **** 	ret.dy = ret.dx * tan(angle / 180.0 * PI);
 137              		.loc 1 81 2 is_stmt 1 view .LVU36
  81:Src/main.cpp  **** 	ret.dy = ret.dx * tan(angle / 180.0 * PI);
 138              		.loc 1 81 27 is_stmt 0 view .LVU37
 139 00ab 488B0500 		movq	QUAD_CHECK_SIDE(%rip), %rax
 139      000000
 140 00b2 4885C0   		testq	%rax, %rax
 141 00b5 0F880501 		js	.L14
 141      0000
 142 00bb 660FEFC0 		pxor	%xmm0, %xmm0
 143 00bf F2480F2A 		cvtsi2sdq	%rax, %xmm0
 143      C0
 144              	.L15:
 145 00c4 F20F5905 		mulsd	.LC0(%rip), %xmm0
 145      00000000 
 146 00cc F20F1144 		movsd	%xmm0, 8(%rsp)
 146      2408
  81:Src/main.cpp  **** 	ret.dy = ret.dx * tan(angle / 180.0 * PI);
 147              		.loc 1 81 40 view .LVU38
 148 00d2 660FEFC0 		pxor	%xmm0, %xmm0
 149 00d6 F30F5A44 		cvtss2sd	4(%rsp), %xmm0
 149      2404
  81:Src/main.cpp  **** 	ret.dy = ret.dx * tan(angle / 180.0 * PI);
 150              		.loc 1 81 46 view .LVU39
 151 00dc F20F5E05 		divsd	.LC1(%rip), %xmm0
 151      00000000 
  81:Src/main.cpp  **** 	ret.dy = ret.dx * tan(angle / 180.0 * PI);
 152              		.loc 1 81 39 view .LVU40
 153 00e4 F20F5905 		mulsd	.LC2(%rip), %xmm0
 153      00000000 
 154 00ec E8000000 		call	tan@PLT
 154      00
 155              	.LVL13:
  81:Src/main.cpp  **** 	ret.dy = ret.dx * tan(angle / 180.0 * PI);
 156              		.loc 1 81 34 view .LVU41
 157 00f1 F20F104C 		movsd	8(%rsp), %xmm1
 157      2408
 158 00f7 F20F5EC8 		divsd	%xmm0, %xmm1
 159 00fb F20F5AC9 		cvtsd2ss	%xmm1, %xmm1
  82:Src/main.cpp  **** 	ret.dx = abs(ret.dx);
 160              		.loc 1 82 2 is_stmt 1 view .LVU42
  82:Src/main.cpp  **** 	ret.dx = abs(ret.dx);
 161              		.loc 1 82 15 is_stmt 0 view .LVU43
 162 00ff 660FEFD2 		pxor	%xmm2, %xmm2
 163 0103 F30F5AD1 		cvtss2sd	%xmm1, %xmm2
  82:Src/main.cpp  **** 	ret.dx = abs(ret.dx);
 164              		.loc 1 82 18 view .LVU44
 165 0107 F20F59C2 		mulsd	%xmm2, %xmm0
 166 010b F20F5AC0 		cvtsd2ss	%xmm0, %xmm0
  83:Src/main.cpp  **** 	ret.dy = abs(ret.dy);
 167              		.loc 1 83 2 is_stmt 1 view .LVU45
 168              	.LVL14:
 169              	.LBB169:
GAS LISTING /tmp/cc6iEGVT.s 			page 16


 170              	.LBI169:
 171              		.file 3 "/usr/include/c++/9.1.0/bits/std_abs.h"
   1:/usr/include/c++/9.1.0/bits/std_abs.h **** // -*- C++ -*- C library enhancements header.
   2:/usr/include/c++/9.1.0/bits/std_abs.h **** 
   3:/usr/include/c++/9.1.0/bits/std_abs.h **** // Copyright (C) 2016-2019 Free Software Foundation, Inc.
   4:/usr/include/c++/9.1.0/bits/std_abs.h **** //
   5:/usr/include/c++/9.1.0/bits/std_abs.h **** // This file is part of the GNU ISO C++ Library.  This library is free
   6:/usr/include/c++/9.1.0/bits/std_abs.h **** // software; you can redistribute it and/or modify it under the
   7:/usr/include/c++/9.1.0/bits/std_abs.h **** // terms of the GNU General Public License as published by the
   8:/usr/include/c++/9.1.0/bits/std_abs.h **** // Free Software Foundation; either version 3, or (at your option)
   9:/usr/include/c++/9.1.0/bits/std_abs.h **** // any later version.
  10:/usr/include/c++/9.1.0/bits/std_abs.h **** 
  11:/usr/include/c++/9.1.0/bits/std_abs.h **** // This library is distributed in the hope that it will be useful,
  12:/usr/include/c++/9.1.0/bits/std_abs.h **** // but WITHOUT ANY WARRANTY; without even the implied warranty of
  13:/usr/include/c++/9.1.0/bits/std_abs.h **** // MERCHANTABILITY or FITNESS FOR A PARTICULAR PURPOSE.  See the
  14:/usr/include/c++/9.1.0/bits/std_abs.h **** // GNU General Public License for more details.
  15:/usr/include/c++/9.1.0/bits/std_abs.h **** 
  16:/usr/include/c++/9.1.0/bits/std_abs.h **** // Under Section 7 of GPL version 3, you are granted additional
  17:/usr/include/c++/9.1.0/bits/std_abs.h **** // permissions described in the GCC Runtime Library Exception, version
  18:/usr/include/c++/9.1.0/bits/std_abs.h **** // 3.1, as published by the Free Software Foundation.
  19:/usr/include/c++/9.1.0/bits/std_abs.h **** 
  20:/usr/include/c++/9.1.0/bits/std_abs.h **** // You should have received a copy of the GNU General Public License and
  21:/usr/include/c++/9.1.0/bits/std_abs.h **** // a copy of the GCC Runtime Library Exception along with this program;
  22:/usr/include/c++/9.1.0/bits/std_abs.h **** // see the files COPYING3 and COPYING.RUNTIME respectively.  If not, see
  23:/usr/include/c++/9.1.0/bits/std_abs.h **** // <http://www.gnu.org/licenses/>.
  24:/usr/include/c++/9.1.0/bits/std_abs.h **** 
  25:/usr/include/c++/9.1.0/bits/std_abs.h **** /** @file include/bits/std_abs.h
  26:/usr/include/c++/9.1.0/bits/std_abs.h ****  *  This is an internal header file, included by other library headers.
  27:/usr/include/c++/9.1.0/bits/std_abs.h ****  *  Do not attempt to use it directly. @headername{cmath, cstdlib}
  28:/usr/include/c++/9.1.0/bits/std_abs.h ****  */
  29:/usr/include/c++/9.1.0/bits/std_abs.h **** 
  30:/usr/include/c++/9.1.0/bits/std_abs.h **** #ifndef _GLIBCXX_BITS_STD_ABS_H
  31:/usr/include/c++/9.1.0/bits/std_abs.h **** #define _GLIBCXX_BITS_STD_ABS_H
  32:/usr/include/c++/9.1.0/bits/std_abs.h **** 
  33:/usr/include/c++/9.1.0/bits/std_abs.h **** #pragma GCC system_header
  34:/usr/include/c++/9.1.0/bits/std_abs.h **** 
  35:/usr/include/c++/9.1.0/bits/std_abs.h **** #include <bits/c++config.h>
  36:/usr/include/c++/9.1.0/bits/std_abs.h **** 
  37:/usr/include/c++/9.1.0/bits/std_abs.h **** #define _GLIBCXX_INCLUDE_NEXT_C_HEADERS
  38:/usr/include/c++/9.1.0/bits/std_abs.h **** #include_next <stdlib.h>
  39:/usr/include/c++/9.1.0/bits/std_abs.h **** #ifdef __CORRECT_ISO_CPP_MATH_H_PROTO
  40:/usr/include/c++/9.1.0/bits/std_abs.h **** # include_next <math.h>
  41:/usr/include/c++/9.1.0/bits/std_abs.h **** #endif
  42:/usr/include/c++/9.1.0/bits/std_abs.h **** #undef _GLIBCXX_INCLUDE_NEXT_C_HEADERS
  43:/usr/include/c++/9.1.0/bits/std_abs.h **** 
  44:/usr/include/c++/9.1.0/bits/std_abs.h **** #undef abs
  45:/usr/include/c++/9.1.0/bits/std_abs.h **** 
  46:/usr/include/c++/9.1.0/bits/std_abs.h **** extern "C++"
  47:/usr/include/c++/9.1.0/bits/std_abs.h **** {
  48:/usr/include/c++/9.1.0/bits/std_abs.h **** namespace std _GLIBCXX_VISIBILITY(default)
  49:/usr/include/c++/9.1.0/bits/std_abs.h **** {
  50:/usr/include/c++/9.1.0/bits/std_abs.h **** _GLIBCXX_BEGIN_NAMESPACE_VERSION
  51:/usr/include/c++/9.1.0/bits/std_abs.h **** 
  52:/usr/include/c++/9.1.0/bits/std_abs.h ****   using ::abs;
  53:/usr/include/c++/9.1.0/bits/std_abs.h **** 
  54:/usr/include/c++/9.1.0/bits/std_abs.h **** #ifndef __CORRECT_ISO_CPP_STDLIB_H_PROTO
  55:/usr/include/c++/9.1.0/bits/std_abs.h ****   inline long
GAS LISTING /tmp/cc6iEGVT.s 			page 17


  56:/usr/include/c++/9.1.0/bits/std_abs.h ****   abs(long __i) { return __builtin_labs(__i); }
  57:/usr/include/c++/9.1.0/bits/std_abs.h **** #endif
  58:/usr/include/c++/9.1.0/bits/std_abs.h **** 
  59:/usr/include/c++/9.1.0/bits/std_abs.h **** #ifdef _GLIBCXX_USE_LONG_LONG
  60:/usr/include/c++/9.1.0/bits/std_abs.h ****   inline long long
  61:/usr/include/c++/9.1.0/bits/std_abs.h ****   abs(long long __x) { return __builtin_llabs (__x); }
  62:/usr/include/c++/9.1.0/bits/std_abs.h **** #endif
  63:/usr/include/c++/9.1.0/bits/std_abs.h **** 
  64:/usr/include/c++/9.1.0/bits/std_abs.h **** // _GLIBCXX_RESOLVE_LIB_DEFECTS
  65:/usr/include/c++/9.1.0/bits/std_abs.h **** // 2192. Validity and return type of std::abs(0u) is unclear
  66:/usr/include/c++/9.1.0/bits/std_abs.h **** // 2294. <cstdlib> should declare abs(double)
  67:/usr/include/c++/9.1.0/bits/std_abs.h **** // 2735. std::abs(short), std::abs(signed char) and others should return int
  68:/usr/include/c++/9.1.0/bits/std_abs.h **** 
  69:/usr/include/c++/9.1.0/bits/std_abs.h **** #ifndef __CORRECT_ISO_CPP_MATH_H_PROTO
  70:/usr/include/c++/9.1.0/bits/std_abs.h ****   inline _GLIBCXX_CONSTEXPR double
  71:/usr/include/c++/9.1.0/bits/std_abs.h ****   abs(double __x)
  72:/usr/include/c++/9.1.0/bits/std_abs.h ****   { return __builtin_fabs(__x); }
  73:/usr/include/c++/9.1.0/bits/std_abs.h **** 
  74:/usr/include/c++/9.1.0/bits/std_abs.h ****   inline _GLIBCXX_CONSTEXPR float
  75:/usr/include/c++/9.1.0/bits/std_abs.h ****   abs(float __x)
 172              		.loc 3 75 3 view .LVU46
 173              	.LBB170:
  76:/usr/include/c++/9.1.0/bits/std_abs.h ****   { return __builtin_fabsf(__x); }
 174              		.loc 3 76 5 view .LVU47
 175              		.loc 3 76 31 is_stmt 0 view .LVU48
 176 010f F30F1015 		movss	.LC3(%rip), %xmm2
 176      00000000 
 177 0117 0F54CA   		andps	%xmm2, %xmm1
 178              	.LVL15:
 179              		.loc 3 76 31 view .LVU49
 180              	.LBE170:
 181              	.LBE169:
  84:Src/main.cpp  **** 	if(angle > 180 || angle < 0)
 182              		.loc 1 84 2 is_stmt 1 view .LVU50
 183              	.LBB171:
 184              	.LBI171:
  75:/usr/include/c++/9.1.0/bits/std_abs.h ****   { return __builtin_fabsf(__x); }
 185              		.loc 3 75 3 view .LVU51
 186              	.LBB172:
 187              		.loc 3 76 5 view .LVU52
 188              		.loc 3 76 31 is_stmt 0 view .LVU53
 189 011a 0F54C2   		andps	%xmm2, %xmm0
 190              	.LVL16:
 191              		.loc 3 76 31 view .LVU54
 192              	.LBE172:
 193              	.LBE171:
  84:Src/main.cpp  **** 	if(angle > 180 || angle < 0)
 194              		.loc 1 84 9 view .LVU55
 195 011d 660F7EC0 		movd	%xmm0, %eax
 196 0121 48C1E020 		salq	$32, %rax
 197 0125 660F7ECA 		movd	%xmm1, %edx
 198              	.LVL17:
  84:Src/main.cpp  **** 	if(angle > 180 || angle < 0)
 199              		.loc 1 84 9 view .LVU56
 200 0129 4809C2   		orq	%rax, %rdx
  84:Src/main.cpp  **** 	if(angle > 180 || angle < 0)
 201              		.loc 1 84 9 view .LVU57
GAS LISTING /tmp/cc6iEGVT.s 			page 18


 202 012c 4889D1   		movq	%rdx, %rcx
  85:Src/main.cpp  **** 		ret.dy *= -1;
 203              		.loc 1 85 2 is_stmt 1 view .LVU58
 204 012f F30F1064 		movss	4(%rsp), %xmm4
 204      2404
 205 0135 0F2F2500 		comiss	.LC4(%rip), %xmm4
 205      000000
 206 013c 7709     		ja	.L16
  85:Src/main.cpp  **** 		ret.dy *= -1;
 207              		.loc 1 85 17 is_stmt 0 discriminator 1 view .LVU59
 208 013e 660FEFD2 		pxor	%xmm2, %xmm2
 209 0142 0F2FD4   		comiss	%xmm4, %xmm2
 210 0145 7614     		jbe	.L17
 211              	.L16:
  86:Src/main.cpp  **** 
 212              		.loc 1 86 3 is_stmt 1 view .LVU60
  86:Src/main.cpp  **** 
 213              		.loc 1 86 10 is_stmt 0 view .LVU61
 214 0147 0F570500 		xorps	.LC6(%rip), %xmm0
 214      000000
 215 014e 660F7EC0 		movd	%xmm0, %eax
 216 0152 48C1E020 		salq	$32, %rax
 217 0156 89D1     		movl	%edx, %ecx
  86:Src/main.cpp  **** 
 218              		.loc 1 86 10 view .LVU62
 219 0158 4809C1   		orq	%rax, %rcx
 220              	.L17:
  88:Src/main.cpp  **** 		ret.dx *= -1;
 221              		.loc 1 88 2 is_stmt 1 view .LVU63
 222 015b F30F106C 		movss	4(%rsp), %xmm5
 222      2404
 223 0161 0F2F2D00 		comiss	.LC7(%rip), %xmm5
 223      000000
 224 0168 720D     		jb	.L19
  88:Src/main.cpp  **** 		ret.dx *= -1;
 225              		.loc 1 88 21 is_stmt 0 discriminator 2 view .LVU64
 226 016a F30F1005 		movss	.LC8(%rip), %xmm0
 226      00000000 
 227 0172 0F2FC5   		comiss	%xmm5, %xmm0
 228 0175 733A     		jnb	.L21
 229              	.L19:
  88:Src/main.cpp  **** 		ret.dx *= -1;
 230              		.loc 1 88 5 discriminator 3 view .LVU65
 231 0177 F30F1074 		movss	4(%rsp), %xmm6
 231      2404
 232 017d 0F2F3500 		comiss	.LC9(%rip), %xmm6
 232      000000
 233 0184 720D     		jb	.L22
  88:Src/main.cpp  **** 		ret.dx *= -1;
 234              		.loc 1 88 59 discriminator 4 view .LVU66
 235 0186 F30F1005 		movss	.LC10(%rip), %xmm0
 235      00000000 
 236 018e 0F2FC6   		comiss	%xmm6, %xmm0
 237 0191 731E     		jnb	.L21
 238              	.L22:
  89:Src/main.cpp  **** 
 239              		.loc 1 89 3 is_stmt 1 view .LVU67
GAS LISTING /tmp/cc6iEGVT.s 			page 19


  89:Src/main.cpp  **** 
 240              		.loc 1 89 10 is_stmt 0 view .LVU68
 241 0193 0F570D00 		xorps	.LC6(%rip), %xmm1
 241      000000
 242 019a 660F7ECA 		movd	%xmm1, %edx
 243 019e 48B80000 		movabsq	$-4294967296, %rax
 243      0000FFFF 
 243      FFFF
  89:Src/main.cpp  **** 
 244              		.loc 1 89 10 view .LVU69
 245 01a8 4821C8   		andq	%rcx, %rax
 246 01ab 4809D0   		orq	%rdx, %rax
 247 01ae 4889C1   		movq	%rax, %rcx
 248              	.L21:
  96:Src/main.cpp  **** }
 249              		.loc 1 96 2 is_stmt 1 view .LVU70
  97:Src/main.cpp  **** 
 250              		.loc 1 97 1 is_stmt 0 view .LVU71
 251 01b1 4889D8   		movq	%rbx, %rax
  97:Src/main.cpp  **** 
 252              		.loc 1 97 1 view .LVU72
 253 01b4 66480F6E 		movq	%rcx, %xmm0
 253      C1
 254 01b9 4883C418 		addq	$24, %rsp
 255              		.cfi_remember_state
 256              		.cfi_def_cfa_offset 24
 257 01bd 5B       		popq	%rbx
 258              		.cfi_def_cfa_offset 16
 259 01be 5D       		popq	%rbp
 260              		.cfi_def_cfa_offset 8
 261              	.LVL18:
  97:Src/main.cpp  **** 
 262              		.loc 1 97 1 view .LVU73
 263 01bf C3       		ret
 264              	.LVL19:
 265              	.L14:
 266              		.cfi_restore_state
  81:Src/main.cpp  **** 	ret.dy = ret.dx * tan(angle / 180.0 * PI);
 267              		.loc 1 81 27 view .LVU74
 268 01c0 4889C2   		movq	%rax, %rdx
 269 01c3 48D1EA   		shrq	%rdx
 270 01c6 83E001   		andl	$1, %eax
 271 01c9 4809C2   		orq	%rax, %rdx
 272 01cc 660FEFC0 		pxor	%xmm0, %xmm0
 273 01d0 F2480F2A 		cvtsi2sdq	%rdx, %xmm0
 273      C2
 274 01d5 F20F58C0 		addsd	%xmm0, %xmm0
 275 01d9 E9E6FEFF 		jmp	.L15
 275      FF
 276              		.cfi_endproc
 277              	.LFE2471:
 279              		.globl	_Z10createVectPK6coordsS1_
 281              	_Z10createVectPK6coordsS1_:
 282              	.LVL20:
 283              	.LFB2475:
 100:Src/main.cpp  **** 	struct vect ret;
 284              		.loc 1 100 1 is_stmt 1 view -0
GAS LISTING /tmp/cc6iEGVT.s 			page 20


 285              		.cfi_startproc
 100:Src/main.cpp  **** 	struct vect ret;
 286              		.loc 1 100 1 is_stmt 0 view .LVU76
 287 01de 55       		pushq	%rbp
 288              		.cfi_def_cfa_offset 16
 289              		.cfi_offset 6, -16
 290 01df 53       		pushq	%rbx
 291              		.cfi_def_cfa_offset 24
 292              		.cfi_offset 3, -24
 293 01e0 4883EC08 		subq	$8, %rsp
 294              		.cfi_def_cfa_offset 32
 295 01e4 4889FD   		movq	%rdi, %rbp
 296 01e7 4889F3   		movq	%rsi, %rbx
 101:Src/main.cpp  **** 	ret.c = (struct coords*)malloc(sizeof(struct coords));
 297              		.loc 1 101 2 is_stmt 1 view .LVU77
 102:Src/main.cpp  **** 	ret.c->x = start->x;
 298              		.loc 1 102 2 view .LVU78
 102:Src/main.cpp  **** 	ret.c->x = start->x;
 299              		.loc 1 102 32 is_stmt 0 view .LVU79
 300 01ea BF080000 		movl	$8, %edi
 300      00
 301              	.LVL21:
 102:Src/main.cpp  **** 	ret.c->x = start->x;
 302              		.loc 1 102 32 view .LVU80
 303 01ef E8000000 		call	malloc@PLT
 303      00
 304              	.LVL22:
 103:Src/main.cpp  **** 	ret.c->y = start->y;
 305              		.loc 1 103 2 is_stmt 1 view .LVU81
 103:Src/main.cpp  **** 	ret.c->y = start->y;
 306              		.loc 1 103 20 is_stmt 0 view .LVU82
 307 01f4 F30F1055 		movss	0(%rbp), %xmm2
 307      00
 103:Src/main.cpp  **** 	ret.c->y = start->y;
 308              		.loc 1 103 11 view .LVU83
 309 01f9 F30F1110 		movss	%xmm2, (%rax)
 104:Src/main.cpp  **** 	ret.dx = end->x - start->x;
 310              		.loc 1 104 2 is_stmt 1 view .LVU84
 104:Src/main.cpp  **** 	ret.dx = end->x - start->x;
 311              		.loc 1 104 20 is_stmt 0 view .LVU85
 312 01fd F30F104D 		movss	4(%rbp), %xmm1
 312      04
 104:Src/main.cpp  **** 	ret.dx = end->x - start->x;
 313              		.loc 1 104 11 view .LVU86
 314 0202 F30F1148 		movss	%xmm1, 4(%rax)
 314      04
 105:Src/main.cpp  **** 	ret.dy = end->y - start->y;
 315              		.loc 1 105 2 is_stmt 1 view .LVU87
 105:Src/main.cpp  **** 	ret.dy = end->y - start->y;
 316              		.loc 1 105 16 is_stmt 0 view .LVU88
 317 0207 F30F1003 		movss	(%rbx), %xmm0
 105:Src/main.cpp  **** 	ret.dy = end->y - start->y;
 318              		.loc 1 105 9 view .LVU89
 319 020b F30F5CC2 		subss	%xmm2, %xmm0
 106:Src/main.cpp  **** 	return ret;
 320              		.loc 1 106 2 is_stmt 1 view .LVU90
 106:Src/main.cpp  **** 	return ret;
GAS LISTING /tmp/cc6iEGVT.s 			page 21


 321              		.loc 1 106 16 is_stmt 0 view .LVU91
 322 020f F30F1053 		movss	4(%rbx), %xmm2
 322      04
 106:Src/main.cpp  **** 	return ret;
 323              		.loc 1 106 9 view .LVU92
 324 0214 F30F5CD1 		subss	%xmm1, %xmm2
 325 0218 660F7ED2 		movd	%xmm2, %edx
 326 021c 4889D1   		movq	%rdx, %rcx
 327 021f 48C1E120 		salq	$32, %rcx
 328 0223 660F7EC2 		movd	%xmm0, %edx
 329              	.LVL23:
 106:Src/main.cpp  **** 	return ret;
 330              		.loc 1 106 9 view .LVU93
 331 0227 4809CA   		orq	%rcx, %rdx
 107:Src/main.cpp  **** }
 332              		.loc 1 107 2 is_stmt 1 view .LVU94
 108:Src/main.cpp  **** 
 333              		.loc 1 108 1 is_stmt 0 view .LVU95
 334 022a 66480F6E 		movq	%rdx, %xmm0
 334      C2
 335 022f 4883C408 		addq	$8, %rsp
 336              		.cfi_def_cfa_offset 24
 337 0233 5B       		popq	%rbx
 338              		.cfi_def_cfa_offset 16
 339              	.LVL24:
 108:Src/main.cpp  **** 
 340              		.loc 1 108 1 view .LVU96
 341 0234 5D       		popq	%rbp
 342              		.cfi_def_cfa_offset 8
 343              	.LVL25:
 108:Src/main.cpp  **** 
 344              		.loc 1 108 1 view .LVU97
 345 0235 C3       		ret
 346              		.cfi_endproc
 347              	.LFE2475:
 349              		.globl	_Z10createVectPK8obstaclehf
 351              	_Z10createVectPK8obstaclehf:
 352              	.LVL26:
 353              	.LFB2476:
 112:Src/main.cpp  **** 	struct vect ret;
 354              		.loc 1 112 1 is_stmt 1 view -0
 355              		.cfi_startproc
 112:Src/main.cpp  **** 	struct vect ret;
 356              		.loc 1 112 1 is_stmt 0 view .LVU99
 357 0236 55       		pushq	%rbp
 358              		.cfi_def_cfa_offset 16
 359              		.cfi_offset 6, -16
 360 0237 53       		pushq	%rbx
 361              		.cfi_def_cfa_offset 24
 362              		.cfi_offset 3, -24
 363 0238 4883EC18 		subq	$24, %rsp
 364              		.cfi_def_cfa_offset 48
 365 023c F30F1144 		movss	%xmm0, 8(%rsp)
 365      2408
 113:Src/main.cpp  **** 	struct coords *c = getCoordsOfCorner(obst, corner);
 366              		.loc 1 113 2 is_stmt 1 view .LVU100
 114:Src/main.cpp  **** 	ret = createVect(c, angle);
GAS LISTING /tmp/cc6iEGVT.s 			page 22


 367              		.loc 1 114 2 view .LVU101
 114:Src/main.cpp  **** 	ret = createVect(c, angle);
 368              		.loc 1 114 38 is_stmt 0 view .LVU102
 369 0242 400FB6F6 		movzbl	%sil, %esi
 114:Src/main.cpp  **** 	ret = createVect(c, angle);
 370              		.loc 1 114 38 view .LVU103
 371 0246 E8000000 		call	_Z17getCoordsOfCornerPK8obstacleh@PLT
 371      00
 372              	.LVL27:
 114:Src/main.cpp  **** 	ret = createVect(c, angle);
 373              		.loc 1 114 38 view .LVU104
 374 024b 4889C3   		movq	%rax, %rbx
 375              	.LVL28:
 115:Src/main.cpp  **** 	free(c);
 376              		.loc 1 115 2 is_stmt 1 view .LVU105
 115:Src/main.cpp  **** 	free(c);
 377              		.loc 1 115 27 is_stmt 0 view .LVU106
 378 024e F30F1044 		movss	8(%rsp), %xmm0
 378      2408
 379 0254 4889C7   		movq	%rax, %rdi
 380 0257 E8000000 		call	_Z10createVectPK6coordsf
 380      00
 381              	.LVL29:
 115:Src/main.cpp  **** 	free(c);
 382              		.loc 1 115 27 view .LVU107
 383 025c 4889C5   		movq	%rax, %rbp
 384 025f 660FD644 		movq	%xmm0, 8(%rsp)
 384      2408
 385              	.LVL30:
 116:Src/main.cpp  **** 	return ret;
 386              		.loc 1 116 2 is_stmt 1 view .LVU108
 116:Src/main.cpp  **** 	return ret;
 387              		.loc 1 116 6 is_stmt 0 view .LVU109
 388 0265 4889DF   		movq	%rbx, %rdi
 389 0268 E8000000 		call	free@PLT
 389      00
 390              	.LVL31:
 117:Src/main.cpp  **** }
 391              		.loc 1 117 2 is_stmt 1 view .LVU110
 118:Src/main.cpp  **** 
 392              		.loc 1 118 1 is_stmt 0 view .LVU111
 393 026d 4889E8   		movq	%rbp, %rax
 394 0270 F30F7E44 		movq	8(%rsp), %xmm0
 394      2408
 395 0276 4883C418 		addq	$24, %rsp
 396              		.cfi_def_cfa_offset 24
 397 027a 5B       		popq	%rbx
 398              		.cfi_def_cfa_offset 16
 399              	.LVL32:
 118:Src/main.cpp  **** 
 400              		.loc 1 118 1 view .LVU112
 401 027b 5D       		popq	%rbp
 402              		.cfi_def_cfa_offset 8
 403 027c C3       		ret
 404              		.cfi_endproc
 405              	.LFE2476:
 407              		.section	.rodata.str1.1,"aMS",@progbits,1
GAS LISTING /tmp/cc6iEGVT.s 			page 23


 408              	.LC11:
 409 0000 496E6372 		.string	"Increacing radius\n"
 409      65616369 
 409      6E672072 
 409      61646975 
 409      730A00
 410              	.LC12:
 411 0013 53697A65 		.string	"Size: "
 411      3A2000
 412              		.text
 413              		.globl	_Z10getDataSetPK6coords
 415              	_Z10getDataSetPK6coords:
 416              	.LVL33:
 417              	.LFB2477:
 122:Src/main.cpp  **** 	size_t size = 0;
 418              		.loc 1 122 1 is_stmt 1 view -0
 419              		.cfi_startproc
 122:Src/main.cpp  **** 	size_t size = 0;
 420              		.loc 1 122 1 is_stmt 0 view .LVU114
 421 027d 4155     		pushq	%r13
 422              		.cfi_def_cfa_offset 16
 423              		.cfi_offset 13, -16
 424 027f 4154     		pushq	%r12
 425              		.cfi_def_cfa_offset 24
 426              		.cfi_offset 12, -24
 427 0281 55       		pushq	%rbp
 428              		.cfi_def_cfa_offset 32
 429              		.cfi_offset 6, -32
 430 0282 53       		pushq	%rbx
 431              		.cfi_def_cfa_offset 40
 432              		.cfi_offset 3, -40
 433 0283 4883EC08 		subq	$8, %rsp
 434              		.cfi_def_cfa_offset 48
 435 0287 4889FB   		movq	%rdi, %rbx
 123:Src/main.cpp  **** 	while (size < 2) {
 436              		.loc 1 123 2 is_stmt 1 view .LVU115
 437              	.LVL34:
 123:Src/main.cpp  **** 	while (size < 2) {
 438              		.loc 1 123 9 is_stmt 0 view .LVU116
 439 028a BD000000 		movl	$0, %ebp
 439      00
 440 028f E9C10000 		jmp	.L32
 440      00
 441              	.LVL35:
 442              	.L35:
 443              	.LBB202:
 444              	.LBB203:
 128:Src/main.cpp  **** 			&& obstacles[i].c->x <= c->x + obstacles[i].a + QUAD_CHECK_SIDE
 445              		.loc 1 128 50 view .LVU117
 446 0294 4889C6   		movq	%rax, %rsi
 447 0297 48D1EE   		shrq	%rsi
 448 029a 83E001   		andl	$1, %eax
 449 029d 4809C6   		orq	%rax, %rsi
 450 02a0 660FEFC0 		pxor	%xmm0, %xmm0
 451 02a4 F3480F2A 		cvtsi2ssq	%rsi, %xmm0
 451      C6
 452 02a9 F30F58C0 		addss	%xmm0, %xmm0
GAS LISTING /tmp/cc6iEGVT.s 			page 24


 453 02ad EB4C     		jmp	.L36
 454              	.L37:
 126:Src/main.cpp  **** 		{
 455              		.loc 1 126 3 discriminator 2 view .LVU118
 456 02af 4883C201 		addq	$1, %rdx
 457              	.LVL36:
 458              	.L42:
 126:Src/main.cpp  **** 		{
 459              		.loc 1 126 23 discriminator 1 view .LVU119
 460 02b3 48391500 		cmpq	%rdx, numOfObstacles(%rip)
 460      000000
 461 02ba 0F868F00 		jbe	.L34
 461      0000
 128:Src/main.cpp  **** 			&& obstacles[i].c->x <= c->x + obstacles[i].a + QUAD_CHECK_SIDE
 462              		.loc 1 128 4 is_stmt 1 view .LVU120
 128:Src/main.cpp  **** 			&& obstacles[i].c->x <= c->x + obstacles[i].a + QUAD_CHECK_SIDE
 463              		.loc 1 128 18 is_stmt 0 view .LVU121
 464 02c0 488D0452 		leaq	(%rdx,%rdx,2), %rax
 465 02c4 48C1E004 		salq	$4, %rax
 466 02c8 48030500 		addq	obstacles(%rip), %rax
 466      000000
 128:Src/main.cpp  **** 			&& obstacles[i].c->x <= c->x + obstacles[i].a + QUAD_CHECK_SIDE
 467              		.loc 1 128 20 view .LVU122
 468 02cf 488B08   		movq	(%rax), %rcx
 128:Src/main.cpp  **** 			&& obstacles[i].c->x <= c->x + obstacles[i].a + QUAD_CHECK_SIDE
 469              		.loc 1 128 23 view .LVU123
 470 02d2 F30F1019 		movss	(%rcx), %xmm3
 128:Src/main.cpp  **** 			&& obstacles[i].c->x <= c->x + obstacles[i].a + QUAD_CHECK_SIDE
 471              		.loc 1 128 40 view .LVU124
 472 02d6 F30F1050 		movss	40(%rax), %xmm2
 472      28
 128:Src/main.cpp  **** 			&& obstacles[i].c->x <= c->x + obstacles[i].a + QUAD_CHECK_SIDE
 473              		.loc 1 128 25 view .LVU125
 474 02db 0F28EB   		movaps	%xmm3, %xmm5
 475 02de F30F58EA 		addss	%xmm2, %xmm5
 128:Src/main.cpp  **** 			&& obstacles[i].c->x <= c->x + obstacles[i].a + QUAD_CHECK_SIDE
 476              		.loc 1 128 48 view .LVU126
 477 02e2 F30F100B 		movss	(%rbx), %xmm1
 128:Src/main.cpp  **** 			&& obstacles[i].c->x <= c->x + obstacles[i].a + QUAD_CHECK_SIDE
 478              		.loc 1 128 50 view .LVU127
 479 02e6 488B0500 		movq	QUAD_CHECK_SIDE(%rip), %rax
 479      000000
 480 02ed 4885C0   		testq	%rax, %rax
 481 02f0 78A2     		js	.L35
 482 02f2 660FEFC0 		pxor	%xmm0, %xmm0
 483 02f6 F3480F2A 		cvtsi2ssq	%rax, %xmm0
 483      C0
 484              	.L36:
 485 02fb 0F28E1   		movaps	%xmm1, %xmm4
 486 02fe F30F5CE0 		subss	%xmm0, %xmm4
 128:Src/main.cpp  **** 			&& obstacles[i].c->x <= c->x + obstacles[i].a + QUAD_CHECK_SIDE
 487              		.loc 1 128 4 view .LVU128
 488 0302 0F2FEC   		comiss	%xmm4, %xmm5
 489 0305 72A8     		jb	.L37
 129:Src/main.cpp  **** 			&& obstacles[i].c->y + obstacles[i].a >= c->y - QUAD_CHECK_SIDE
 490              		.loc 1 129 33 view .LVU129
 491 0307 F30F58CA 		addss	%xmm2, %xmm1
GAS LISTING /tmp/cc6iEGVT.s 			page 25


 129:Src/main.cpp  **** 			&& obstacles[i].c->y + obstacles[i].a >= c->y - QUAD_CHECK_SIDE
 492              		.loc 1 129 50 view .LVU130
 493 030b F30F58C8 		addss	%xmm0, %xmm1
 129:Src/main.cpp  **** 			&& obstacles[i].c->y + obstacles[i].a >= c->y - QUAD_CHECK_SIDE
 494              		.loc 1 129 4 view .LVU131
 495 030f 0F2FCB   		comiss	%xmm3, %xmm1
 496 0312 729B     		jb	.L37
 130:Src/main.cpp  **** 			&& obstacles[i].c->y <= c->y + obstacles[i].a + QUAD_CHECK_SIDE)
 497              		.loc 1 130 23 view .LVU132
 498 0314 F30F1049 		movss	4(%rcx), %xmm1
 498      04
 130:Src/main.cpp  **** 			&& obstacles[i].c->y <= c->y + obstacles[i].a + QUAD_CHECK_SIDE)
 499              		.loc 1 130 25 view .LVU133
 500 0319 0F28EA   		movaps	%xmm2, %xmm5
 501 031c F30F58E9 		addss	%xmm1, %xmm5
 130:Src/main.cpp  **** 			&& obstacles[i].c->y <= c->y + obstacles[i].a + QUAD_CHECK_SIDE)
 502              		.loc 1 130 48 view .LVU134
 503 0320 F30F105B 		movss	4(%rbx), %xmm3
 503      04
 130:Src/main.cpp  **** 			&& obstacles[i].c->y <= c->y + obstacles[i].a + QUAD_CHECK_SIDE)
 504              		.loc 1 130 50 view .LVU135
 505 0325 0F28E3   		movaps	%xmm3, %xmm4
 506 0328 F30F5CE0 		subss	%xmm0, %xmm4
 130:Src/main.cpp  **** 			&& obstacles[i].c->y <= c->y + obstacles[i].a + QUAD_CHECK_SIDE)
 507              		.loc 1 130 4 view .LVU136
 508 032c 0F2FEC   		comiss	%xmm4, %xmm5
 509 032f 0F827AFF 		jb	.L37
 509      FFFF
 131:Src/main.cpp  **** 				size++;
 510              		.loc 1 131 33 view .LVU137
 511 0335 F30F58D3 		addss	%xmm3, %xmm2
 131:Src/main.cpp  **** 				size++;
 512              		.loc 1 131 50 view .LVU138
 513 0339 F30F58C2 		addss	%xmm2, %xmm0
 131:Src/main.cpp  **** 				size++;
 514              		.loc 1 131 4 view .LVU139
 515 033d 0F2FC1   		comiss	%xmm1, %xmm0
 516 0340 0F8269FF 		jb	.L37
 516      FFFF
 132:Src/main.cpp  **** 		}
 517              		.loc 1 132 5 is_stmt 1 view .LVU140
 132:Src/main.cpp  **** 		}
 518              		.loc 1 132 9 is_stmt 0 view .LVU141
 519 0346 4883C501 		addq	$1, %rbp
 520              	.LVL37:
 132:Src/main.cpp  **** 		}
 521              		.loc 1 132 9 view .LVU142
 522 034a E960FFFF 		jmp	.L37
 522      FF
 523              	.L34:
 132:Src/main.cpp  **** 		}
 524              		.loc 1 132 9 view .LVU143
 525              	.LBE203:
 134:Src/main.cpp  **** 		{
 526              		.loc 1 134 3 is_stmt 1 view .LVU144
 527 034f 4883FD01 		cmpq	$1, %rbp
 528 0353 7615     		jbe	.L65
GAS LISTING /tmp/cc6iEGVT.s 			page 26


 529              	.LVL38:
 530              	.L32:
 134:Src/main.cpp  **** 		{
 531              		.loc 1 134 3 is_stmt 0 view .LVU145
 532              	.LBE202:
 124:Src/main.cpp  **** 		size = 0;
 533              		.loc 1 124 2 is_stmt 1 view .LVU146
 124:Src/main.cpp  **** 		size = 0;
 534              		.loc 1 124 14 is_stmt 0 view .LVU147
 535 0355 4883FD01 		cmpq	$1, %rbp
 536 0359 7731     		ja	.L33
 537              	.LBB208:
 538              	.LBB204:
 126:Src/main.cpp  **** 		{
 539              		.loc 1 126 14 view .LVU148
 540 035b BA000000 		movl	$0, %edx
 540      00
 541              	.LBE204:
 125:Src/main.cpp  **** 		for(size_t i = 0; i < numOfObstacles; i++)
 542              		.loc 1 125 8 view .LVU149
 543 0360 BD000000 		movl	$0, %ebp
 543      00
 544              	.LVL39:
 125:Src/main.cpp  **** 		for(size_t i = 0; i < numOfObstacles; i++)
 545              		.loc 1 125 8 view .LVU150
 546 0365 E949FFFF 		jmp	.L42
 546      FF
 547              	.LVL40:
 548              	.L65:
 136:Src/main.cpp  **** 			QUAD_CHECK_SIDE += 100;
 549              		.loc 1 136 4 is_stmt 1 view .LVU151
 550              	.LBB205:
 551              	.LBI205:
 552              		.file 4 "/usr/include/c++/9.1.0/ostream"
   1:/usr/include/c++/9.1.0/ostream **** // Output streams -*- C++ -*-
   2:/usr/include/c++/9.1.0/ostream **** 
   3:/usr/include/c++/9.1.0/ostream **** // Copyright (C) 1997-2019 Free Software Foundation, Inc.
   4:/usr/include/c++/9.1.0/ostream **** //
   5:/usr/include/c++/9.1.0/ostream **** // This file is part of the GNU ISO C++ Library.  This library is free
   6:/usr/include/c++/9.1.0/ostream **** // software; you can redistribute it and/or modify it under the
   7:/usr/include/c++/9.1.0/ostream **** // terms of the GNU General Public License as published by the
   8:/usr/include/c++/9.1.0/ostream **** // Free Software Foundation; either version 3, or (at your option)
   9:/usr/include/c++/9.1.0/ostream **** // any later version.
  10:/usr/include/c++/9.1.0/ostream **** 
  11:/usr/include/c++/9.1.0/ostream **** // This library is distributed in the hope that it will be useful,
  12:/usr/include/c++/9.1.0/ostream **** // but WITHOUT ANY WARRANTY; without even the implied warranty of
  13:/usr/include/c++/9.1.0/ostream **** // MERCHANTABILITY or FITNESS FOR A PARTICULAR PURPOSE.  See the
  14:/usr/include/c++/9.1.0/ostream **** // GNU General Public License for more details.
  15:/usr/include/c++/9.1.0/ostream **** 
  16:/usr/include/c++/9.1.0/ostream **** // Under Section 7 of GPL version 3, you are granted additional
  17:/usr/include/c++/9.1.0/ostream **** // permissions described in the GCC Runtime Library Exception, version
  18:/usr/include/c++/9.1.0/ostream **** // 3.1, as published by the Free Software Foundation.
  19:/usr/include/c++/9.1.0/ostream **** 
  20:/usr/include/c++/9.1.0/ostream **** // You should have received a copy of the GNU General Public License and
  21:/usr/include/c++/9.1.0/ostream **** // a copy of the GCC Runtime Library Exception along with this program;
  22:/usr/include/c++/9.1.0/ostream **** // see the files COPYING3 and COPYING.RUNTIME respectively.  If not, see
  23:/usr/include/c++/9.1.0/ostream **** // <http://www.gnu.org/licenses/>.
GAS LISTING /tmp/cc6iEGVT.s 			page 27


  24:/usr/include/c++/9.1.0/ostream **** 
  25:/usr/include/c++/9.1.0/ostream **** /** @file include/ostream
  26:/usr/include/c++/9.1.0/ostream ****  *  This is a Standard C++ Library header.
  27:/usr/include/c++/9.1.0/ostream ****  */
  28:/usr/include/c++/9.1.0/ostream **** 
  29:/usr/include/c++/9.1.0/ostream **** //
  30:/usr/include/c++/9.1.0/ostream **** // ISO C++ 14882: 27.6.2  Output streams
  31:/usr/include/c++/9.1.0/ostream **** //
  32:/usr/include/c++/9.1.0/ostream **** 
  33:/usr/include/c++/9.1.0/ostream **** #ifndef _GLIBCXX_OSTREAM
  34:/usr/include/c++/9.1.0/ostream **** #define _GLIBCXX_OSTREAM 1
  35:/usr/include/c++/9.1.0/ostream **** 
  36:/usr/include/c++/9.1.0/ostream **** #pragma GCC system_header
  37:/usr/include/c++/9.1.0/ostream **** 
  38:/usr/include/c++/9.1.0/ostream **** #include <ios>
  39:/usr/include/c++/9.1.0/ostream **** #include <bits/ostream_insert.h>
  40:/usr/include/c++/9.1.0/ostream **** 
  41:/usr/include/c++/9.1.0/ostream **** namespace std _GLIBCXX_VISIBILITY(default)
  42:/usr/include/c++/9.1.0/ostream **** {
  43:/usr/include/c++/9.1.0/ostream **** _GLIBCXX_BEGIN_NAMESPACE_VERSION
  44:/usr/include/c++/9.1.0/ostream **** 
  45:/usr/include/c++/9.1.0/ostream ****   /**
  46:/usr/include/c++/9.1.0/ostream ****    *  @brief  Template class basic_ostream.
  47:/usr/include/c++/9.1.0/ostream ****    *  @ingroup io
  48:/usr/include/c++/9.1.0/ostream ****    *
  49:/usr/include/c++/9.1.0/ostream ****    *  @tparam _CharT  Type of character stream.
  50:/usr/include/c++/9.1.0/ostream ****    *  @tparam _Traits  Traits for character type, defaults to
  51:/usr/include/c++/9.1.0/ostream ****    *                   char_traits<_CharT>.
  52:/usr/include/c++/9.1.0/ostream ****    *
  53:/usr/include/c++/9.1.0/ostream ****    *  This is the base class for all output streams.  It provides text
  54:/usr/include/c++/9.1.0/ostream ****    *  formatting of all builtin types, and communicates with any class
  55:/usr/include/c++/9.1.0/ostream ****    *  derived from basic_streambuf to do the actual output.
  56:/usr/include/c++/9.1.0/ostream ****   */
  57:/usr/include/c++/9.1.0/ostream ****   template<typename _CharT, typename _Traits>
  58:/usr/include/c++/9.1.0/ostream ****     class basic_ostream : virtual public basic_ios<_CharT, _Traits>
  59:/usr/include/c++/9.1.0/ostream ****     {
  60:/usr/include/c++/9.1.0/ostream ****     public:
  61:/usr/include/c++/9.1.0/ostream ****       // Types (inherited from basic_ios):
  62:/usr/include/c++/9.1.0/ostream ****       typedef _CharT			 		char_type;
  63:/usr/include/c++/9.1.0/ostream ****       typedef typename _Traits::int_type 		int_type;
  64:/usr/include/c++/9.1.0/ostream ****       typedef typename _Traits::pos_type 		pos_type;
  65:/usr/include/c++/9.1.0/ostream ****       typedef typename _Traits::off_type 		off_type;
  66:/usr/include/c++/9.1.0/ostream ****       typedef _Traits			 		traits_type;
  67:/usr/include/c++/9.1.0/ostream **** 
  68:/usr/include/c++/9.1.0/ostream ****       // Non-standard Types:
  69:/usr/include/c++/9.1.0/ostream ****       typedef basic_streambuf<_CharT, _Traits> 		__streambuf_type;
  70:/usr/include/c++/9.1.0/ostream ****       typedef basic_ios<_CharT, _Traits>		__ios_type;
  71:/usr/include/c++/9.1.0/ostream ****       typedef basic_ostream<_CharT, _Traits>		__ostream_type;
  72:/usr/include/c++/9.1.0/ostream ****       typedef num_put<_CharT, ostreambuf_iterator<_CharT, _Traits> >
  73:/usr/include/c++/9.1.0/ostream ****       							__num_put_type;
  74:/usr/include/c++/9.1.0/ostream ****       typedef ctype<_CharT>	      			__ctype_type;
  75:/usr/include/c++/9.1.0/ostream **** 
  76:/usr/include/c++/9.1.0/ostream ****       /**
  77:/usr/include/c++/9.1.0/ostream ****        *  @brief  Base constructor.
  78:/usr/include/c++/9.1.0/ostream ****        *
  79:/usr/include/c++/9.1.0/ostream ****        *  This ctor is almost never called by the user directly, rather from
  80:/usr/include/c++/9.1.0/ostream ****        *  derived classes' initialization lists, which pass a pointer to
GAS LISTING /tmp/cc6iEGVT.s 			page 28


  81:/usr/include/c++/9.1.0/ostream ****        *  their own stream buffer.
  82:/usr/include/c++/9.1.0/ostream ****       */
  83:/usr/include/c++/9.1.0/ostream ****       explicit
  84:/usr/include/c++/9.1.0/ostream ****       basic_ostream(__streambuf_type* __sb)
  85:/usr/include/c++/9.1.0/ostream ****       { this->init(__sb); }
  86:/usr/include/c++/9.1.0/ostream **** 
  87:/usr/include/c++/9.1.0/ostream ****       /**
  88:/usr/include/c++/9.1.0/ostream ****        *  @brief  Base destructor.
  89:/usr/include/c++/9.1.0/ostream ****        *
  90:/usr/include/c++/9.1.0/ostream ****        *  This does very little apart from providing a virtual base dtor.
  91:/usr/include/c++/9.1.0/ostream ****       */
  92:/usr/include/c++/9.1.0/ostream ****       virtual
  93:/usr/include/c++/9.1.0/ostream ****       ~basic_ostream() { }
  94:/usr/include/c++/9.1.0/ostream **** 
  95:/usr/include/c++/9.1.0/ostream ****       /// Safe prefix/suffix operations.
  96:/usr/include/c++/9.1.0/ostream ****       class sentry;
  97:/usr/include/c++/9.1.0/ostream ****       friend class sentry;
  98:/usr/include/c++/9.1.0/ostream **** 
  99:/usr/include/c++/9.1.0/ostream ****       //@{
 100:/usr/include/c++/9.1.0/ostream ****       /**
 101:/usr/include/c++/9.1.0/ostream ****        *  @brief  Interface for manipulators.
 102:/usr/include/c++/9.1.0/ostream ****        *
 103:/usr/include/c++/9.1.0/ostream ****        *  Manipulators such as @c std::endl and @c std::hex use these
 104:/usr/include/c++/9.1.0/ostream ****        *  functions in constructs like "std::cout << std::endl".  For more
 105:/usr/include/c++/9.1.0/ostream ****        *  information, see the iomanip header.
 106:/usr/include/c++/9.1.0/ostream ****       */
 107:/usr/include/c++/9.1.0/ostream ****       __ostream_type&
 108:/usr/include/c++/9.1.0/ostream ****       operator<<(__ostream_type& (*__pf)(__ostream_type&))
 109:/usr/include/c++/9.1.0/ostream ****       {
 110:/usr/include/c++/9.1.0/ostream **** 	// _GLIBCXX_RESOLVE_LIB_DEFECTS
 111:/usr/include/c++/9.1.0/ostream **** 	// DR 60. What is a formatted input function?
 112:/usr/include/c++/9.1.0/ostream **** 	// The inserters for manipulators are *not* formatted output functions.
 113:/usr/include/c++/9.1.0/ostream **** 	return __pf(*this);
 114:/usr/include/c++/9.1.0/ostream ****       }
 115:/usr/include/c++/9.1.0/ostream **** 
 116:/usr/include/c++/9.1.0/ostream ****       __ostream_type&
 117:/usr/include/c++/9.1.0/ostream ****       operator<<(__ios_type& (*__pf)(__ios_type&))
 118:/usr/include/c++/9.1.0/ostream ****       {
 119:/usr/include/c++/9.1.0/ostream **** 	// _GLIBCXX_RESOLVE_LIB_DEFECTS
 120:/usr/include/c++/9.1.0/ostream **** 	// DR 60. What is a formatted input function?
 121:/usr/include/c++/9.1.0/ostream **** 	// The inserters for manipulators are *not* formatted output functions.
 122:/usr/include/c++/9.1.0/ostream **** 	__pf(*this);
 123:/usr/include/c++/9.1.0/ostream **** 	return *this;
 124:/usr/include/c++/9.1.0/ostream ****       }
 125:/usr/include/c++/9.1.0/ostream **** 
 126:/usr/include/c++/9.1.0/ostream ****       __ostream_type&
 127:/usr/include/c++/9.1.0/ostream ****       operator<<(ios_base& (*__pf) (ios_base&))
 128:/usr/include/c++/9.1.0/ostream ****       {
 129:/usr/include/c++/9.1.0/ostream **** 	// _GLIBCXX_RESOLVE_LIB_DEFECTS
 130:/usr/include/c++/9.1.0/ostream **** 	// DR 60. What is a formatted input function?
 131:/usr/include/c++/9.1.0/ostream **** 	// The inserters for manipulators are *not* formatted output functions.
 132:/usr/include/c++/9.1.0/ostream **** 	__pf(*this);
 133:/usr/include/c++/9.1.0/ostream **** 	return *this;
 134:/usr/include/c++/9.1.0/ostream ****       }
 135:/usr/include/c++/9.1.0/ostream ****       //@}
 136:/usr/include/c++/9.1.0/ostream **** 
 137:/usr/include/c++/9.1.0/ostream ****       //@{
GAS LISTING /tmp/cc6iEGVT.s 			page 29


 138:/usr/include/c++/9.1.0/ostream ****       /**
 139:/usr/include/c++/9.1.0/ostream ****        *  @name Inserters
 140:/usr/include/c++/9.1.0/ostream ****        *
 141:/usr/include/c++/9.1.0/ostream ****        *  All the @c operator<< functions (aka <em>formatted output
 142:/usr/include/c++/9.1.0/ostream ****        *  functions</em>) have some common behavior.  Each starts by
 143:/usr/include/c++/9.1.0/ostream ****        *  constructing a temporary object of type std::basic_ostream::sentry.
 144:/usr/include/c++/9.1.0/ostream ****        *  This can have several effects, concluding with the setting of a
 145:/usr/include/c++/9.1.0/ostream ****        *  status flag; see the sentry documentation for more.
 146:/usr/include/c++/9.1.0/ostream ****        *
 147:/usr/include/c++/9.1.0/ostream ****        *  If the sentry status is good, the function tries to generate
 148:/usr/include/c++/9.1.0/ostream ****        *  whatever data is appropriate for the type of the argument.
 149:/usr/include/c++/9.1.0/ostream ****        *
 150:/usr/include/c++/9.1.0/ostream ****        *  If an exception is thrown during insertion, ios_base::badbit
 151:/usr/include/c++/9.1.0/ostream ****        *  will be turned on in the stream's error state without causing an
 152:/usr/include/c++/9.1.0/ostream ****        *  ios_base::failure to be thrown.  The original exception will then
 153:/usr/include/c++/9.1.0/ostream ****        *  be rethrown.
 154:/usr/include/c++/9.1.0/ostream ****       */
 155:/usr/include/c++/9.1.0/ostream **** 
 156:/usr/include/c++/9.1.0/ostream ****       //@{
 157:/usr/include/c++/9.1.0/ostream ****       /**
 158:/usr/include/c++/9.1.0/ostream ****        *  @brief Integer arithmetic inserters
 159:/usr/include/c++/9.1.0/ostream ****        *  @param  __n A variable of builtin integral type.
 160:/usr/include/c++/9.1.0/ostream ****        *  @return  @c *this if successful
 161:/usr/include/c++/9.1.0/ostream ****        *
 162:/usr/include/c++/9.1.0/ostream ****        *  These functions use the stream's current locale (specifically, the
 163:/usr/include/c++/9.1.0/ostream ****        *  @c num_get facet) to perform numeric formatting.
 164:/usr/include/c++/9.1.0/ostream ****       */
 165:/usr/include/c++/9.1.0/ostream ****       __ostream_type&
 166:/usr/include/c++/9.1.0/ostream ****       operator<<(long __n)
 167:/usr/include/c++/9.1.0/ostream ****       { return _M_insert(__n); }
 168:/usr/include/c++/9.1.0/ostream **** 
 169:/usr/include/c++/9.1.0/ostream ****       __ostream_type&
 170:/usr/include/c++/9.1.0/ostream ****       operator<<(unsigned long __n)
 171:/usr/include/c++/9.1.0/ostream ****       { return _M_insert(__n); }
 172:/usr/include/c++/9.1.0/ostream **** 
 173:/usr/include/c++/9.1.0/ostream ****       __ostream_type&
 174:/usr/include/c++/9.1.0/ostream ****       operator<<(bool __n)
 175:/usr/include/c++/9.1.0/ostream ****       { return _M_insert(__n); }
 176:/usr/include/c++/9.1.0/ostream **** 
 177:/usr/include/c++/9.1.0/ostream ****       __ostream_type&
 178:/usr/include/c++/9.1.0/ostream ****       operator<<(short __n);
 179:/usr/include/c++/9.1.0/ostream **** 
 180:/usr/include/c++/9.1.0/ostream ****       __ostream_type&
 181:/usr/include/c++/9.1.0/ostream ****       operator<<(unsigned short __n)
 182:/usr/include/c++/9.1.0/ostream ****       {
 183:/usr/include/c++/9.1.0/ostream **** 	// _GLIBCXX_RESOLVE_LIB_DEFECTS
 184:/usr/include/c++/9.1.0/ostream **** 	// 117. basic_ostream uses nonexistent num_put member functions.
 185:/usr/include/c++/9.1.0/ostream **** 	return _M_insert(static_cast<unsigned long>(__n));
 186:/usr/include/c++/9.1.0/ostream ****       }
 187:/usr/include/c++/9.1.0/ostream **** 
 188:/usr/include/c++/9.1.0/ostream ****       __ostream_type&
 189:/usr/include/c++/9.1.0/ostream ****       operator<<(int __n);
 190:/usr/include/c++/9.1.0/ostream **** 
 191:/usr/include/c++/9.1.0/ostream ****       __ostream_type&
 192:/usr/include/c++/9.1.0/ostream ****       operator<<(unsigned int __n)
 193:/usr/include/c++/9.1.0/ostream ****       {
 194:/usr/include/c++/9.1.0/ostream **** 	// _GLIBCXX_RESOLVE_LIB_DEFECTS
GAS LISTING /tmp/cc6iEGVT.s 			page 30


 195:/usr/include/c++/9.1.0/ostream **** 	// 117. basic_ostream uses nonexistent num_put member functions.
 196:/usr/include/c++/9.1.0/ostream **** 	return _M_insert(static_cast<unsigned long>(__n));
 197:/usr/include/c++/9.1.0/ostream ****       }
 198:/usr/include/c++/9.1.0/ostream **** 
 199:/usr/include/c++/9.1.0/ostream **** #ifdef _GLIBCXX_USE_LONG_LONG
 200:/usr/include/c++/9.1.0/ostream ****       __ostream_type&
 201:/usr/include/c++/9.1.0/ostream ****       operator<<(long long __n)
 202:/usr/include/c++/9.1.0/ostream ****       { return _M_insert(__n); }
 203:/usr/include/c++/9.1.0/ostream **** 
 204:/usr/include/c++/9.1.0/ostream ****       __ostream_type&
 205:/usr/include/c++/9.1.0/ostream ****       operator<<(unsigned long long __n)
 206:/usr/include/c++/9.1.0/ostream ****       { return _M_insert(__n); }
 207:/usr/include/c++/9.1.0/ostream **** #endif
 208:/usr/include/c++/9.1.0/ostream ****       //@}
 209:/usr/include/c++/9.1.0/ostream **** 
 210:/usr/include/c++/9.1.0/ostream ****       //@{
 211:/usr/include/c++/9.1.0/ostream ****       /**
 212:/usr/include/c++/9.1.0/ostream ****        *  @brief  Floating point arithmetic inserters
 213:/usr/include/c++/9.1.0/ostream ****        *  @param  __f A variable of builtin floating point type.
 214:/usr/include/c++/9.1.0/ostream ****        *  @return  @c *this if successful
 215:/usr/include/c++/9.1.0/ostream ****        *
 216:/usr/include/c++/9.1.0/ostream ****        *  These functions use the stream's current locale (specifically, the
 217:/usr/include/c++/9.1.0/ostream ****        *  @c num_get facet) to perform numeric formatting.
 218:/usr/include/c++/9.1.0/ostream ****       */
 219:/usr/include/c++/9.1.0/ostream ****       __ostream_type&
 220:/usr/include/c++/9.1.0/ostream ****       operator<<(double __f)
 221:/usr/include/c++/9.1.0/ostream ****       { return _M_insert(__f); }
 222:/usr/include/c++/9.1.0/ostream **** 
 223:/usr/include/c++/9.1.0/ostream ****       __ostream_type&
 224:/usr/include/c++/9.1.0/ostream ****       operator<<(float __f)
 225:/usr/include/c++/9.1.0/ostream ****       {
 226:/usr/include/c++/9.1.0/ostream **** 	// _GLIBCXX_RESOLVE_LIB_DEFECTS
 227:/usr/include/c++/9.1.0/ostream **** 	// 117. basic_ostream uses nonexistent num_put member functions.
 228:/usr/include/c++/9.1.0/ostream **** 	return _M_insert(static_cast<double>(__f));
 229:/usr/include/c++/9.1.0/ostream ****       }
 230:/usr/include/c++/9.1.0/ostream **** 
 231:/usr/include/c++/9.1.0/ostream ****       __ostream_type&
 232:/usr/include/c++/9.1.0/ostream ****       operator<<(long double __f)
 233:/usr/include/c++/9.1.0/ostream ****       { return _M_insert(__f); }
 234:/usr/include/c++/9.1.0/ostream ****       //@}
 235:/usr/include/c++/9.1.0/ostream **** 
 236:/usr/include/c++/9.1.0/ostream ****       /**
 237:/usr/include/c++/9.1.0/ostream ****        *  @brief  Pointer arithmetic inserters
 238:/usr/include/c++/9.1.0/ostream ****        *  @param  __p A variable of pointer type.
 239:/usr/include/c++/9.1.0/ostream ****        *  @return  @c *this if successful
 240:/usr/include/c++/9.1.0/ostream ****        *
 241:/usr/include/c++/9.1.0/ostream ****        *  These functions use the stream's current locale (specifically, the
 242:/usr/include/c++/9.1.0/ostream ****        *  @c num_get facet) to perform numeric formatting.
 243:/usr/include/c++/9.1.0/ostream ****       */
 244:/usr/include/c++/9.1.0/ostream ****       __ostream_type&
 245:/usr/include/c++/9.1.0/ostream ****       operator<<(const void* __p)
 246:/usr/include/c++/9.1.0/ostream ****       { return _M_insert(__p); }
 247:/usr/include/c++/9.1.0/ostream **** 
 248:/usr/include/c++/9.1.0/ostream **** #if __cplusplus >= 201703L
 249:/usr/include/c++/9.1.0/ostream ****       __ostream_type&
 250:/usr/include/c++/9.1.0/ostream ****       operator<<(nullptr_t)
 251:/usr/include/c++/9.1.0/ostream ****       { return *this << "nullptr"; }
GAS LISTING /tmp/cc6iEGVT.s 			page 31


 252:/usr/include/c++/9.1.0/ostream **** #endif
 253:/usr/include/c++/9.1.0/ostream **** 
 254:/usr/include/c++/9.1.0/ostream ****       /**
 255:/usr/include/c++/9.1.0/ostream ****        *  @brief  Extracting from another streambuf.
 256:/usr/include/c++/9.1.0/ostream ****        *  @param  __sb  A pointer to a streambuf
 257:/usr/include/c++/9.1.0/ostream ****        *
 258:/usr/include/c++/9.1.0/ostream ****        *  This function behaves like one of the basic arithmetic extractors,
 259:/usr/include/c++/9.1.0/ostream ****        *  in that it also constructs a sentry object and has the same error
 260:/usr/include/c++/9.1.0/ostream ****        *  handling behavior.
 261:/usr/include/c++/9.1.0/ostream ****        *
 262:/usr/include/c++/9.1.0/ostream ****        *  If @p __sb is NULL, the stream will set failbit in its error state.
 263:/usr/include/c++/9.1.0/ostream ****        *
 264:/usr/include/c++/9.1.0/ostream ****        *  Characters are extracted from @p __sb and inserted into @c *this
 265:/usr/include/c++/9.1.0/ostream ****        *  until one of the following occurs:
 266:/usr/include/c++/9.1.0/ostream ****        *
 267:/usr/include/c++/9.1.0/ostream ****        *  - the input stream reaches end-of-file,
 268:/usr/include/c++/9.1.0/ostream ****        *  - insertion into the output sequence fails (in this case, the
 269:/usr/include/c++/9.1.0/ostream ****        *    character that would have been inserted is not extracted), or
 270:/usr/include/c++/9.1.0/ostream ****        *  - an exception occurs while getting a character from @p __sb, which
 271:/usr/include/c++/9.1.0/ostream ****        *    sets failbit in the error state
 272:/usr/include/c++/9.1.0/ostream ****        *
 273:/usr/include/c++/9.1.0/ostream ****        *  If the function inserts no characters, failbit is set.
 274:/usr/include/c++/9.1.0/ostream ****       */
 275:/usr/include/c++/9.1.0/ostream ****       __ostream_type&
 276:/usr/include/c++/9.1.0/ostream ****       operator<<(__streambuf_type* __sb);
 277:/usr/include/c++/9.1.0/ostream ****       //@}
 278:/usr/include/c++/9.1.0/ostream **** 
 279:/usr/include/c++/9.1.0/ostream ****       //@{
 280:/usr/include/c++/9.1.0/ostream ****       /**
 281:/usr/include/c++/9.1.0/ostream ****        *  @name Unformatted Output Functions
 282:/usr/include/c++/9.1.0/ostream ****        *
 283:/usr/include/c++/9.1.0/ostream ****        *  All the unformatted output functions have some common behavior.
 284:/usr/include/c++/9.1.0/ostream ****        *  Each starts by constructing a temporary object of type
 285:/usr/include/c++/9.1.0/ostream ****        *  std::basic_ostream::sentry.  This has several effects, concluding
 286:/usr/include/c++/9.1.0/ostream ****        *  with the setting of a status flag; see the sentry documentation
 287:/usr/include/c++/9.1.0/ostream ****        *  for more.
 288:/usr/include/c++/9.1.0/ostream ****        *
 289:/usr/include/c++/9.1.0/ostream ****        *  If the sentry status is good, the function tries to generate
 290:/usr/include/c++/9.1.0/ostream ****        *  whatever data is appropriate for the type of the argument.
 291:/usr/include/c++/9.1.0/ostream ****        *
 292:/usr/include/c++/9.1.0/ostream ****        *  If an exception is thrown during insertion, ios_base::badbit
 293:/usr/include/c++/9.1.0/ostream ****        *  will be turned on in the stream's error state.  If badbit is on in
 294:/usr/include/c++/9.1.0/ostream ****        *  the stream's exceptions mask, the exception will be rethrown
 295:/usr/include/c++/9.1.0/ostream ****        *  without completing its actions.
 296:/usr/include/c++/9.1.0/ostream ****       */
 297:/usr/include/c++/9.1.0/ostream **** 
 298:/usr/include/c++/9.1.0/ostream ****       /**
 299:/usr/include/c++/9.1.0/ostream ****        *  @brief  Simple insertion.
 300:/usr/include/c++/9.1.0/ostream ****        *  @param  __c  The character to insert.
 301:/usr/include/c++/9.1.0/ostream ****        *  @return  *this
 302:/usr/include/c++/9.1.0/ostream ****        *
 303:/usr/include/c++/9.1.0/ostream ****        *  Tries to insert @p __c.
 304:/usr/include/c++/9.1.0/ostream ****        *
 305:/usr/include/c++/9.1.0/ostream ****        *  @note  This function is not overloaded on signed char and
 306:/usr/include/c++/9.1.0/ostream ****        *         unsigned char.
 307:/usr/include/c++/9.1.0/ostream ****       */
 308:/usr/include/c++/9.1.0/ostream ****       __ostream_type&
GAS LISTING /tmp/cc6iEGVT.s 			page 32


 309:/usr/include/c++/9.1.0/ostream ****       put(char_type __c);
 310:/usr/include/c++/9.1.0/ostream **** 
 311:/usr/include/c++/9.1.0/ostream ****       /**
 312:/usr/include/c++/9.1.0/ostream ****        *  @brief  Core write functionality, without sentry.
 313:/usr/include/c++/9.1.0/ostream ****        *  @param  __s  The array to insert.
 314:/usr/include/c++/9.1.0/ostream ****        *  @param  __n  Maximum number of characters to insert.
 315:/usr/include/c++/9.1.0/ostream ****       */
 316:/usr/include/c++/9.1.0/ostream ****       void
 317:/usr/include/c++/9.1.0/ostream ****       _M_write(const char_type* __s, streamsize __n)
 318:/usr/include/c++/9.1.0/ostream ****       {
 319:/usr/include/c++/9.1.0/ostream **** 	const streamsize __put = this->rdbuf()->sputn(__s, __n);
 320:/usr/include/c++/9.1.0/ostream **** 	if (__put != __n)
 321:/usr/include/c++/9.1.0/ostream **** 	  this->setstate(ios_base::badbit);
 322:/usr/include/c++/9.1.0/ostream ****       }
 323:/usr/include/c++/9.1.0/ostream **** 
 324:/usr/include/c++/9.1.0/ostream ****       /**
 325:/usr/include/c++/9.1.0/ostream ****        *  @brief  Character string insertion.
 326:/usr/include/c++/9.1.0/ostream ****        *  @param  __s  The array to insert.
 327:/usr/include/c++/9.1.0/ostream ****        *  @param  __n  Maximum number of characters to insert.
 328:/usr/include/c++/9.1.0/ostream ****        *  @return  *this
 329:/usr/include/c++/9.1.0/ostream ****        *
 330:/usr/include/c++/9.1.0/ostream ****        *  Characters are copied from @p __s and inserted into the stream until
 331:/usr/include/c++/9.1.0/ostream ****        *  one of the following happens:
 332:/usr/include/c++/9.1.0/ostream ****        *
 333:/usr/include/c++/9.1.0/ostream ****        *  - @p __n characters are inserted
 334:/usr/include/c++/9.1.0/ostream ****        *  - inserting into the output sequence fails (in this case, badbit
 335:/usr/include/c++/9.1.0/ostream ****        *    will be set in the stream's error state)
 336:/usr/include/c++/9.1.0/ostream ****        *
 337:/usr/include/c++/9.1.0/ostream ****        *  @note  This function is not overloaded on signed char and
 338:/usr/include/c++/9.1.0/ostream ****        *         unsigned char.
 339:/usr/include/c++/9.1.0/ostream ****       */
 340:/usr/include/c++/9.1.0/ostream ****       __ostream_type&
 341:/usr/include/c++/9.1.0/ostream ****       write(const char_type* __s, streamsize __n);
 342:/usr/include/c++/9.1.0/ostream ****       //@}
 343:/usr/include/c++/9.1.0/ostream **** 
 344:/usr/include/c++/9.1.0/ostream ****       /**
 345:/usr/include/c++/9.1.0/ostream ****        *  @brief  Synchronizing the stream buffer.
 346:/usr/include/c++/9.1.0/ostream ****        *  @return  *this
 347:/usr/include/c++/9.1.0/ostream ****        *
 348:/usr/include/c++/9.1.0/ostream ****        *  If @c rdbuf() is a null pointer, changes nothing.
 349:/usr/include/c++/9.1.0/ostream ****        *
 350:/usr/include/c++/9.1.0/ostream ****        *  Otherwise, calls @c rdbuf()->pubsync(), and if that returns -1,
 351:/usr/include/c++/9.1.0/ostream ****        *  sets badbit.
 352:/usr/include/c++/9.1.0/ostream ****       */
 353:/usr/include/c++/9.1.0/ostream ****       __ostream_type&
 354:/usr/include/c++/9.1.0/ostream ****       flush();
 355:/usr/include/c++/9.1.0/ostream **** 
 356:/usr/include/c++/9.1.0/ostream ****       /**
 357:/usr/include/c++/9.1.0/ostream ****        *  @brief  Getting the current write position.
 358:/usr/include/c++/9.1.0/ostream ****        *  @return  A file position object.
 359:/usr/include/c++/9.1.0/ostream ****        *
 360:/usr/include/c++/9.1.0/ostream ****        *  If @c fail() is not false, returns @c pos_type(-1) to indicate
 361:/usr/include/c++/9.1.0/ostream ****        *  failure.  Otherwise returns @c rdbuf()->pubseekoff(0,cur,out).
 362:/usr/include/c++/9.1.0/ostream ****       */
 363:/usr/include/c++/9.1.0/ostream ****       pos_type
 364:/usr/include/c++/9.1.0/ostream ****       tellp();
 365:/usr/include/c++/9.1.0/ostream **** 
GAS LISTING /tmp/cc6iEGVT.s 			page 33


 366:/usr/include/c++/9.1.0/ostream ****       /**
 367:/usr/include/c++/9.1.0/ostream ****        *  @brief  Changing the current write position.
 368:/usr/include/c++/9.1.0/ostream ****        *  @param  __pos  A file position object.
 369:/usr/include/c++/9.1.0/ostream ****        *  @return  *this
 370:/usr/include/c++/9.1.0/ostream ****        *
 371:/usr/include/c++/9.1.0/ostream ****        *  If @c fail() is not true, calls @c rdbuf()->pubseekpos(pos).  If
 372:/usr/include/c++/9.1.0/ostream ****        *  that function fails, sets failbit.
 373:/usr/include/c++/9.1.0/ostream ****       */
 374:/usr/include/c++/9.1.0/ostream ****       __ostream_type&
 375:/usr/include/c++/9.1.0/ostream ****       seekp(pos_type);
 376:/usr/include/c++/9.1.0/ostream **** 
 377:/usr/include/c++/9.1.0/ostream ****       /**
 378:/usr/include/c++/9.1.0/ostream ****        *  @brief  Changing the current write position.
 379:/usr/include/c++/9.1.0/ostream ****        *  @param  __off  A file offset object.
 380:/usr/include/c++/9.1.0/ostream ****        *  @param  __dir  The direction in which to seek.
 381:/usr/include/c++/9.1.0/ostream ****        *  @return  *this
 382:/usr/include/c++/9.1.0/ostream ****        *
 383:/usr/include/c++/9.1.0/ostream ****        *  If @c fail() is not true, calls @c rdbuf()->pubseekoff(off,dir).
 384:/usr/include/c++/9.1.0/ostream ****        *  If that function fails, sets failbit.
 385:/usr/include/c++/9.1.0/ostream ****       */
 386:/usr/include/c++/9.1.0/ostream ****        __ostream_type&
 387:/usr/include/c++/9.1.0/ostream ****       seekp(off_type, ios_base::seekdir);
 388:/usr/include/c++/9.1.0/ostream **** 
 389:/usr/include/c++/9.1.0/ostream ****     protected:
 390:/usr/include/c++/9.1.0/ostream ****       basic_ostream()
 391:/usr/include/c++/9.1.0/ostream ****       { this->init(0); }
 392:/usr/include/c++/9.1.0/ostream **** 
 393:/usr/include/c++/9.1.0/ostream **** #if __cplusplus >= 201103L
 394:/usr/include/c++/9.1.0/ostream ****       // Non-standard constructor that does not call init()
 395:/usr/include/c++/9.1.0/ostream ****       basic_ostream(basic_iostream<_CharT, _Traits>&) { }
 396:/usr/include/c++/9.1.0/ostream **** 
 397:/usr/include/c++/9.1.0/ostream ****       basic_ostream(const basic_ostream&) = delete;
 398:/usr/include/c++/9.1.0/ostream **** 
 399:/usr/include/c++/9.1.0/ostream ****       basic_ostream(basic_ostream&& __rhs)
 400:/usr/include/c++/9.1.0/ostream ****       : __ios_type()
 401:/usr/include/c++/9.1.0/ostream ****       { __ios_type::move(__rhs); }
 402:/usr/include/c++/9.1.0/ostream **** 
 403:/usr/include/c++/9.1.0/ostream ****       // 27.7.3.3 Assign/swap
 404:/usr/include/c++/9.1.0/ostream **** 
 405:/usr/include/c++/9.1.0/ostream ****       basic_ostream& operator=(const basic_ostream&) = delete;
 406:/usr/include/c++/9.1.0/ostream **** 
 407:/usr/include/c++/9.1.0/ostream ****       basic_ostream&
 408:/usr/include/c++/9.1.0/ostream ****       operator=(basic_ostream&& __rhs)
 409:/usr/include/c++/9.1.0/ostream ****       {
 410:/usr/include/c++/9.1.0/ostream **** 	swap(__rhs);
 411:/usr/include/c++/9.1.0/ostream **** 	return *this;
 412:/usr/include/c++/9.1.0/ostream ****       }
 413:/usr/include/c++/9.1.0/ostream **** 
 414:/usr/include/c++/9.1.0/ostream ****       void
 415:/usr/include/c++/9.1.0/ostream ****       swap(basic_ostream& __rhs)
 416:/usr/include/c++/9.1.0/ostream ****       { __ios_type::swap(__rhs); }
 417:/usr/include/c++/9.1.0/ostream **** #endif
 418:/usr/include/c++/9.1.0/ostream **** 
 419:/usr/include/c++/9.1.0/ostream ****       template<typename _ValueT>
 420:/usr/include/c++/9.1.0/ostream **** 	__ostream_type&
 421:/usr/include/c++/9.1.0/ostream **** 	_M_insert(_ValueT __v);
 422:/usr/include/c++/9.1.0/ostream ****     };
GAS LISTING /tmp/cc6iEGVT.s 			page 34


 423:/usr/include/c++/9.1.0/ostream **** 
 424:/usr/include/c++/9.1.0/ostream ****   /**
 425:/usr/include/c++/9.1.0/ostream ****    *  @brief  Performs setup work for output streams.
 426:/usr/include/c++/9.1.0/ostream ****    *
 427:/usr/include/c++/9.1.0/ostream ****    *  Objects of this class are created before all of the standard
 428:/usr/include/c++/9.1.0/ostream ****    *  inserters are run.  It is responsible for <em>exception-safe prefix and
 429:/usr/include/c++/9.1.0/ostream ****    *  suffix operations</em>.
 430:/usr/include/c++/9.1.0/ostream ****   */
 431:/usr/include/c++/9.1.0/ostream ****   template <typename _CharT, typename _Traits>
 432:/usr/include/c++/9.1.0/ostream ****     class basic_ostream<_CharT, _Traits>::sentry
 433:/usr/include/c++/9.1.0/ostream ****     {
 434:/usr/include/c++/9.1.0/ostream ****       // Data Members.
 435:/usr/include/c++/9.1.0/ostream ****       bool 				_M_ok;
 436:/usr/include/c++/9.1.0/ostream ****       basic_ostream<_CharT, _Traits>& 	_M_os;
 437:/usr/include/c++/9.1.0/ostream **** 
 438:/usr/include/c++/9.1.0/ostream ****     public:
 439:/usr/include/c++/9.1.0/ostream ****       /**
 440:/usr/include/c++/9.1.0/ostream ****        *  @brief  The constructor performs preparatory work.
 441:/usr/include/c++/9.1.0/ostream ****        *  @param  __os  The output stream to guard.
 442:/usr/include/c++/9.1.0/ostream ****        *
 443:/usr/include/c++/9.1.0/ostream ****        *  If the stream state is good (@a __os.good() is true), then if the
 444:/usr/include/c++/9.1.0/ostream ****        *  stream is tied to another output stream, @c is.tie()->flush()
 445:/usr/include/c++/9.1.0/ostream ****        *  is called to synchronize the output sequences.
 446:/usr/include/c++/9.1.0/ostream ****        *
 447:/usr/include/c++/9.1.0/ostream ****        *  If the stream state is still good, then the sentry state becomes
 448:/usr/include/c++/9.1.0/ostream ****        *  true (@a okay).
 449:/usr/include/c++/9.1.0/ostream ****       */
 450:/usr/include/c++/9.1.0/ostream ****       explicit
 451:/usr/include/c++/9.1.0/ostream ****       sentry(basic_ostream<_CharT, _Traits>& __os);
 452:/usr/include/c++/9.1.0/ostream **** 
 453:/usr/include/c++/9.1.0/ostream **** #pragma GCC diagnostic push
 454:/usr/include/c++/9.1.0/ostream **** #pragma GCC diagnostic ignored "-Wdeprecated-declarations"
 455:/usr/include/c++/9.1.0/ostream ****       /**
 456:/usr/include/c++/9.1.0/ostream ****        *  @brief  Possibly flushes the stream.
 457:/usr/include/c++/9.1.0/ostream ****        *
 458:/usr/include/c++/9.1.0/ostream ****        *  If @c ios_base::unitbuf is set in @c os.flags(), and
 459:/usr/include/c++/9.1.0/ostream ****        *  @c std::uncaught_exception() is true, the sentry destructor calls
 460:/usr/include/c++/9.1.0/ostream ****        *  @c flush() on the output stream.
 461:/usr/include/c++/9.1.0/ostream ****       */
 462:/usr/include/c++/9.1.0/ostream ****       ~sentry()
 463:/usr/include/c++/9.1.0/ostream ****       {
 464:/usr/include/c++/9.1.0/ostream **** 	// XXX MT
 465:/usr/include/c++/9.1.0/ostream **** 	if (bool(_M_os.flags() & ios_base::unitbuf) && !uncaught_exception())
 466:/usr/include/c++/9.1.0/ostream **** 	  {
 467:/usr/include/c++/9.1.0/ostream **** 	    // Can't call flush directly or else will get into recursive lock.
 468:/usr/include/c++/9.1.0/ostream **** 	    if (_M_os.rdbuf() && _M_os.rdbuf()->pubsync() == -1)
 469:/usr/include/c++/9.1.0/ostream **** 	      _M_os.setstate(ios_base::badbit);
 470:/usr/include/c++/9.1.0/ostream **** 	  }
 471:/usr/include/c++/9.1.0/ostream ****       }
 472:/usr/include/c++/9.1.0/ostream **** #pragma GCC diagnostic pop
 473:/usr/include/c++/9.1.0/ostream **** 
 474:/usr/include/c++/9.1.0/ostream ****       /**
 475:/usr/include/c++/9.1.0/ostream ****        *  @brief  Quick status checking.
 476:/usr/include/c++/9.1.0/ostream ****        *  @return  The sentry state.
 477:/usr/include/c++/9.1.0/ostream ****        *
 478:/usr/include/c++/9.1.0/ostream ****        *  For ease of use, sentries may be converted to booleans.  The
 479:/usr/include/c++/9.1.0/ostream ****        *  return value is that of the sentry state (true == okay).
GAS LISTING /tmp/cc6iEGVT.s 			page 35


 480:/usr/include/c++/9.1.0/ostream ****       */
 481:/usr/include/c++/9.1.0/ostream **** #if __cplusplus >= 201103L
 482:/usr/include/c++/9.1.0/ostream ****       explicit
 483:/usr/include/c++/9.1.0/ostream **** #endif
 484:/usr/include/c++/9.1.0/ostream ****       operator bool() const
 485:/usr/include/c++/9.1.0/ostream ****       { return _M_ok; }
 486:/usr/include/c++/9.1.0/ostream ****     };
 487:/usr/include/c++/9.1.0/ostream **** 
 488:/usr/include/c++/9.1.0/ostream ****   //@{
 489:/usr/include/c++/9.1.0/ostream ****   /**
 490:/usr/include/c++/9.1.0/ostream ****    *  @brief  Character inserters
 491:/usr/include/c++/9.1.0/ostream ****    *  @param  __out  An output stream.
 492:/usr/include/c++/9.1.0/ostream ****    *  @param  __c  A character.
 493:/usr/include/c++/9.1.0/ostream ****    *  @return  out
 494:/usr/include/c++/9.1.0/ostream ****    *
 495:/usr/include/c++/9.1.0/ostream ****    *  Behaves like one of the formatted arithmetic inserters described in
 496:/usr/include/c++/9.1.0/ostream ****    *  std::basic_ostream.  After constructing a sentry object with good
 497:/usr/include/c++/9.1.0/ostream ****    *  status, this function inserts a single character and any required
 498:/usr/include/c++/9.1.0/ostream ****    *  padding (as determined by [22.2.2.2.2]).  @c __out.width(0) is then
 499:/usr/include/c++/9.1.0/ostream ****    *  called.
 500:/usr/include/c++/9.1.0/ostream ****    *
 501:/usr/include/c++/9.1.0/ostream ****    *  If @p __c is of type @c char and the character type of the stream is not
 502:/usr/include/c++/9.1.0/ostream ****    *  @c char, the character is widened before insertion.
 503:/usr/include/c++/9.1.0/ostream ****   */
 504:/usr/include/c++/9.1.0/ostream ****   template<typename _CharT, typename _Traits>
 505:/usr/include/c++/9.1.0/ostream ****     inline basic_ostream<_CharT, _Traits>&
 506:/usr/include/c++/9.1.0/ostream ****     operator<<(basic_ostream<_CharT, _Traits>& __out, _CharT __c)
 507:/usr/include/c++/9.1.0/ostream ****     { return __ostream_insert(__out, &__c, 1); }
 508:/usr/include/c++/9.1.0/ostream **** 
 509:/usr/include/c++/9.1.0/ostream ****   template<typename _CharT, typename _Traits>
 510:/usr/include/c++/9.1.0/ostream ****     inline basic_ostream<_CharT, _Traits>&
 511:/usr/include/c++/9.1.0/ostream ****     operator<<(basic_ostream<_CharT, _Traits>& __out, char __c)
 512:/usr/include/c++/9.1.0/ostream ****     { return (__out << __out.widen(__c)); }
 513:/usr/include/c++/9.1.0/ostream **** 
 514:/usr/include/c++/9.1.0/ostream ****   // Specialization
 515:/usr/include/c++/9.1.0/ostream ****   template <class _Traits>
 516:/usr/include/c++/9.1.0/ostream ****     inline basic_ostream<char, _Traits>&
 517:/usr/include/c++/9.1.0/ostream ****     operator<<(basic_ostream<char, _Traits>& __out, char __c)
 518:/usr/include/c++/9.1.0/ostream ****     { return __ostream_insert(__out, &__c, 1); }
 519:/usr/include/c++/9.1.0/ostream **** 
 520:/usr/include/c++/9.1.0/ostream ****   // Signed and unsigned
 521:/usr/include/c++/9.1.0/ostream ****   template<class _Traits>
 522:/usr/include/c++/9.1.0/ostream ****     inline basic_ostream<char, _Traits>&
 523:/usr/include/c++/9.1.0/ostream ****     operator<<(basic_ostream<char, _Traits>& __out, signed char __c)
 524:/usr/include/c++/9.1.0/ostream ****     { return (__out << static_cast<char>(__c)); }
 525:/usr/include/c++/9.1.0/ostream **** 
 526:/usr/include/c++/9.1.0/ostream ****   template<class _Traits>
 527:/usr/include/c++/9.1.0/ostream ****     inline basic_ostream<char, _Traits>&
 528:/usr/include/c++/9.1.0/ostream ****     operator<<(basic_ostream<char, _Traits>& __out, unsigned char __c)
 529:/usr/include/c++/9.1.0/ostream ****     { return (__out << static_cast<char>(__c)); }
 530:/usr/include/c++/9.1.0/ostream ****   //@}
 531:/usr/include/c++/9.1.0/ostream **** 
 532:/usr/include/c++/9.1.0/ostream ****   //@{
 533:/usr/include/c++/9.1.0/ostream ****   /**
 534:/usr/include/c++/9.1.0/ostream ****    *  @brief  String inserters
 535:/usr/include/c++/9.1.0/ostream ****    *  @param  __out  An output stream.
 536:/usr/include/c++/9.1.0/ostream ****    *  @param  __s  A character string.
GAS LISTING /tmp/cc6iEGVT.s 			page 36


 537:/usr/include/c++/9.1.0/ostream ****    *  @return  out
 538:/usr/include/c++/9.1.0/ostream ****    *  @pre  @p __s must be a non-NULL pointer
 539:/usr/include/c++/9.1.0/ostream ****    *
 540:/usr/include/c++/9.1.0/ostream ****    *  Behaves like one of the formatted arithmetic inserters described in
 541:/usr/include/c++/9.1.0/ostream ****    *  std::basic_ostream.  After constructing a sentry object with good
 542:/usr/include/c++/9.1.0/ostream ****    *  status, this function inserts @c traits::length(__s) characters starting
 543:/usr/include/c++/9.1.0/ostream ****    *  at @p __s, widened if necessary, followed by any required padding (as
 544:/usr/include/c++/9.1.0/ostream ****    *  determined by [22.2.2.2.2]).  @c __out.width(0) is then called.
 545:/usr/include/c++/9.1.0/ostream ****   */
 546:/usr/include/c++/9.1.0/ostream ****   template<typename _CharT, typename _Traits>
 547:/usr/include/c++/9.1.0/ostream ****     inline basic_ostream<_CharT, _Traits>&
 548:/usr/include/c++/9.1.0/ostream ****     operator<<(basic_ostream<_CharT, _Traits>& __out, const _CharT* __s)
 549:/usr/include/c++/9.1.0/ostream ****     {
 550:/usr/include/c++/9.1.0/ostream ****       if (!__s)
 551:/usr/include/c++/9.1.0/ostream **** 	__out.setstate(ios_base::badbit);
 552:/usr/include/c++/9.1.0/ostream ****       else
 553:/usr/include/c++/9.1.0/ostream **** 	__ostream_insert(__out, __s,
 554:/usr/include/c++/9.1.0/ostream **** 			 static_cast<streamsize>(_Traits::length(__s)));
 555:/usr/include/c++/9.1.0/ostream ****       return __out;
 556:/usr/include/c++/9.1.0/ostream ****     }
 557:/usr/include/c++/9.1.0/ostream **** 
 558:/usr/include/c++/9.1.0/ostream ****   template<typename _CharT, typename _Traits>
 559:/usr/include/c++/9.1.0/ostream ****     basic_ostream<_CharT, _Traits> &
 560:/usr/include/c++/9.1.0/ostream ****     operator<<(basic_ostream<_CharT, _Traits>& __out, const char* __s);
 561:/usr/include/c++/9.1.0/ostream **** 
 562:/usr/include/c++/9.1.0/ostream ****   // Partial specializations
 563:/usr/include/c++/9.1.0/ostream ****   template<class _Traits>
 564:/usr/include/c++/9.1.0/ostream ****     inline basic_ostream<char, _Traits>&
 565:/usr/include/c++/9.1.0/ostream ****     operator<<(basic_ostream<char, _Traits>& __out, const char* __s)
 553              		.loc 4 565 5 view .LVU152
 554              		.loc 4 565 5 is_stmt 0 view .LVU153
 555              	.LBE205:
 556              	.LBE208:
 557              		.file 5 "/usr/include/c++/9.1.0/bits/char_traits.h"
   1:/usr/include/c++/9.1.0/bits/char_traits.h **** // Character Traits for use by standard string and iostream -*- C++ -*-
   2:/usr/include/c++/9.1.0/bits/char_traits.h **** 
   3:/usr/include/c++/9.1.0/bits/char_traits.h **** // Copyright (C) 1997-2019 Free Software Foundation, Inc.
   4:/usr/include/c++/9.1.0/bits/char_traits.h **** //
   5:/usr/include/c++/9.1.0/bits/char_traits.h **** // This file is part of the GNU ISO C++ Library.  This library is free
   6:/usr/include/c++/9.1.0/bits/char_traits.h **** // software; you can redistribute it and/or modify it under the
   7:/usr/include/c++/9.1.0/bits/char_traits.h **** // terms of the GNU General Public License as published by the
   8:/usr/include/c++/9.1.0/bits/char_traits.h **** // Free Software Foundation; either version 3, or (at your option)
   9:/usr/include/c++/9.1.0/bits/char_traits.h **** // any later version.
  10:/usr/include/c++/9.1.0/bits/char_traits.h **** 
  11:/usr/include/c++/9.1.0/bits/char_traits.h **** // This library is distributed in the hope that it will be useful,
  12:/usr/include/c++/9.1.0/bits/char_traits.h **** // but WITHOUT ANY WARRANTY; without even the implied warranty of
  13:/usr/include/c++/9.1.0/bits/char_traits.h **** // MERCHANTABILITY or FITNESS FOR A PARTICULAR PURPOSE.  See the
  14:/usr/include/c++/9.1.0/bits/char_traits.h **** // GNU General Public License for more details.
  15:/usr/include/c++/9.1.0/bits/char_traits.h **** 
  16:/usr/include/c++/9.1.0/bits/char_traits.h **** // Under Section 7 of GPL version 3, you are granted additional
  17:/usr/include/c++/9.1.0/bits/char_traits.h **** // permissions described in the GCC Runtime Library Exception, version
  18:/usr/include/c++/9.1.0/bits/char_traits.h **** // 3.1, as published by the Free Software Foundation.
  19:/usr/include/c++/9.1.0/bits/char_traits.h **** 
  20:/usr/include/c++/9.1.0/bits/char_traits.h **** // You should have received a copy of the GNU General Public License and
  21:/usr/include/c++/9.1.0/bits/char_traits.h **** // a copy of the GCC Runtime Library Exception along with this program;
  22:/usr/include/c++/9.1.0/bits/char_traits.h **** // see the files COPYING3 and COPYING.RUNTIME respectively.  If not, see
  23:/usr/include/c++/9.1.0/bits/char_traits.h **** // <http://www.gnu.org/licenses/>.
GAS LISTING /tmp/cc6iEGVT.s 			page 37


  24:/usr/include/c++/9.1.0/bits/char_traits.h **** 
  25:/usr/include/c++/9.1.0/bits/char_traits.h **** /** @file bits/char_traits.h
  26:/usr/include/c++/9.1.0/bits/char_traits.h ****  *  This is an internal header file, included by other library headers.
  27:/usr/include/c++/9.1.0/bits/char_traits.h ****  *  Do not attempt to use it directly. @headername{string}
  28:/usr/include/c++/9.1.0/bits/char_traits.h ****  */
  29:/usr/include/c++/9.1.0/bits/char_traits.h **** 
  30:/usr/include/c++/9.1.0/bits/char_traits.h **** //
  31:/usr/include/c++/9.1.0/bits/char_traits.h **** // ISO C++ 14882: 21  Strings library
  32:/usr/include/c++/9.1.0/bits/char_traits.h **** //
  33:/usr/include/c++/9.1.0/bits/char_traits.h **** 
  34:/usr/include/c++/9.1.0/bits/char_traits.h **** #ifndef _CHAR_TRAITS_H
  35:/usr/include/c++/9.1.0/bits/char_traits.h **** #define _CHAR_TRAITS_H 1
  36:/usr/include/c++/9.1.0/bits/char_traits.h **** 
  37:/usr/include/c++/9.1.0/bits/char_traits.h **** #pragma GCC system_header
  38:/usr/include/c++/9.1.0/bits/char_traits.h **** 
  39:/usr/include/c++/9.1.0/bits/char_traits.h **** #include <bits/stl_algobase.h>  // std::copy, std::fill_n
  40:/usr/include/c++/9.1.0/bits/char_traits.h **** #include <bits/postypes.h>      // For streampos
  41:/usr/include/c++/9.1.0/bits/char_traits.h **** #include <cwchar>               // For WEOF, wmemmove, wmemset, etc.
  42:/usr/include/c++/9.1.0/bits/char_traits.h **** 
  43:/usr/include/c++/9.1.0/bits/char_traits.h **** #ifndef _GLIBCXX_ALWAYS_INLINE
  44:/usr/include/c++/9.1.0/bits/char_traits.h **** # define _GLIBCXX_ALWAYS_INLINE inline __attribute__((__always_inline__))
  45:/usr/include/c++/9.1.0/bits/char_traits.h **** #endif
  46:/usr/include/c++/9.1.0/bits/char_traits.h **** 
  47:/usr/include/c++/9.1.0/bits/char_traits.h **** namespace __gnu_cxx _GLIBCXX_VISIBILITY(default)
  48:/usr/include/c++/9.1.0/bits/char_traits.h **** {
  49:/usr/include/c++/9.1.0/bits/char_traits.h **** _GLIBCXX_BEGIN_NAMESPACE_VERSION
  50:/usr/include/c++/9.1.0/bits/char_traits.h **** 
  51:/usr/include/c++/9.1.0/bits/char_traits.h ****   /**
  52:/usr/include/c++/9.1.0/bits/char_traits.h ****    *  @brief  Mapping from character type to associated types.
  53:/usr/include/c++/9.1.0/bits/char_traits.h ****    *
  54:/usr/include/c++/9.1.0/bits/char_traits.h ****    *  @note This is an implementation class for the generic version
  55:/usr/include/c++/9.1.0/bits/char_traits.h ****    *  of char_traits.  It defines int_type, off_type, pos_type, and
  56:/usr/include/c++/9.1.0/bits/char_traits.h ****    *  state_type.  By default these are unsigned long, streamoff,
  57:/usr/include/c++/9.1.0/bits/char_traits.h ****    *  streampos, and mbstate_t.  Users who need a different set of
  58:/usr/include/c++/9.1.0/bits/char_traits.h ****    *  types, but who don't need to change the definitions of any function
  59:/usr/include/c++/9.1.0/bits/char_traits.h ****    *  defined in char_traits, can specialize __gnu_cxx::_Char_types
  60:/usr/include/c++/9.1.0/bits/char_traits.h ****    *  while leaving __gnu_cxx::char_traits alone. */
  61:/usr/include/c++/9.1.0/bits/char_traits.h ****   template<typename _CharT>
  62:/usr/include/c++/9.1.0/bits/char_traits.h ****     struct _Char_types
  63:/usr/include/c++/9.1.0/bits/char_traits.h ****     {
  64:/usr/include/c++/9.1.0/bits/char_traits.h ****       typedef unsigned long   int_type;
  65:/usr/include/c++/9.1.0/bits/char_traits.h ****       typedef std::streampos  pos_type;
  66:/usr/include/c++/9.1.0/bits/char_traits.h ****       typedef std::streamoff  off_type;
  67:/usr/include/c++/9.1.0/bits/char_traits.h ****       typedef std::mbstate_t  state_type;
  68:/usr/include/c++/9.1.0/bits/char_traits.h ****     };
  69:/usr/include/c++/9.1.0/bits/char_traits.h **** 
  70:/usr/include/c++/9.1.0/bits/char_traits.h **** 
  71:/usr/include/c++/9.1.0/bits/char_traits.h ****   /**
  72:/usr/include/c++/9.1.0/bits/char_traits.h ****    *  @brief  Base class used to implement std::char_traits.
  73:/usr/include/c++/9.1.0/bits/char_traits.h ****    *
  74:/usr/include/c++/9.1.0/bits/char_traits.h ****    *  @note For any given actual character type, this definition is
  75:/usr/include/c++/9.1.0/bits/char_traits.h ****    *  probably wrong.  (Most of the member functions are likely to be
  76:/usr/include/c++/9.1.0/bits/char_traits.h ****    *  right, but the int_type and state_type typedefs, and the eof()
  77:/usr/include/c++/9.1.0/bits/char_traits.h ****    *  member function, are likely to be wrong.)  The reason this class
  78:/usr/include/c++/9.1.0/bits/char_traits.h ****    *  exists is so users can specialize it.  Classes in namespace std
  79:/usr/include/c++/9.1.0/bits/char_traits.h ****    *  may not be specialized for fundamental types, but classes in
  80:/usr/include/c++/9.1.0/bits/char_traits.h ****    *  namespace __gnu_cxx may be.
GAS LISTING /tmp/cc6iEGVT.s 			page 38


  81:/usr/include/c++/9.1.0/bits/char_traits.h ****    *
  82:/usr/include/c++/9.1.0/bits/char_traits.h ****    *  See https://gcc.gnu.org/onlinedocs/libstdc++/manual/strings.html#strings.string.character_typ
  83:/usr/include/c++/9.1.0/bits/char_traits.h ****    *  for advice on how to make use of this class for @a unusual character
  84:/usr/include/c++/9.1.0/bits/char_traits.h ****    *  types. Also, check out include/ext/pod_char_traits.h.  
  85:/usr/include/c++/9.1.0/bits/char_traits.h ****    */
  86:/usr/include/c++/9.1.0/bits/char_traits.h ****   template<typename _CharT>
  87:/usr/include/c++/9.1.0/bits/char_traits.h ****     struct char_traits
  88:/usr/include/c++/9.1.0/bits/char_traits.h ****     {
  89:/usr/include/c++/9.1.0/bits/char_traits.h ****       typedef _CharT                                    char_type;
  90:/usr/include/c++/9.1.0/bits/char_traits.h ****       typedef typename _Char_types<_CharT>::int_type    int_type;
  91:/usr/include/c++/9.1.0/bits/char_traits.h ****       typedef typename _Char_types<_CharT>::pos_type    pos_type;
  92:/usr/include/c++/9.1.0/bits/char_traits.h ****       typedef typename _Char_types<_CharT>::off_type    off_type;
  93:/usr/include/c++/9.1.0/bits/char_traits.h ****       typedef typename _Char_types<_CharT>::state_type  state_type;
  94:/usr/include/c++/9.1.0/bits/char_traits.h **** 
  95:/usr/include/c++/9.1.0/bits/char_traits.h ****       static _GLIBCXX14_CONSTEXPR void
  96:/usr/include/c++/9.1.0/bits/char_traits.h ****       assign(char_type& __c1, const char_type& __c2)
  97:/usr/include/c++/9.1.0/bits/char_traits.h ****       { __c1 = __c2; }
  98:/usr/include/c++/9.1.0/bits/char_traits.h **** 
  99:/usr/include/c++/9.1.0/bits/char_traits.h ****       static _GLIBCXX_CONSTEXPR bool
 100:/usr/include/c++/9.1.0/bits/char_traits.h ****       eq(const char_type& __c1, const char_type& __c2)
 101:/usr/include/c++/9.1.0/bits/char_traits.h ****       { return __c1 == __c2; }
 102:/usr/include/c++/9.1.0/bits/char_traits.h **** 
 103:/usr/include/c++/9.1.0/bits/char_traits.h ****       static _GLIBCXX_CONSTEXPR bool
 104:/usr/include/c++/9.1.0/bits/char_traits.h ****       lt(const char_type& __c1, const char_type& __c2)
 105:/usr/include/c++/9.1.0/bits/char_traits.h ****       { return __c1 < __c2; }
 106:/usr/include/c++/9.1.0/bits/char_traits.h **** 
 107:/usr/include/c++/9.1.0/bits/char_traits.h ****       static _GLIBCXX14_CONSTEXPR int
 108:/usr/include/c++/9.1.0/bits/char_traits.h ****       compare(const char_type* __s1, const char_type* __s2, std::size_t __n);
 109:/usr/include/c++/9.1.0/bits/char_traits.h **** 
 110:/usr/include/c++/9.1.0/bits/char_traits.h ****       static _GLIBCXX14_CONSTEXPR std::size_t
 111:/usr/include/c++/9.1.0/bits/char_traits.h ****       length(const char_type* __s);
 112:/usr/include/c++/9.1.0/bits/char_traits.h **** 
 113:/usr/include/c++/9.1.0/bits/char_traits.h ****       static _GLIBCXX14_CONSTEXPR const char_type*
 114:/usr/include/c++/9.1.0/bits/char_traits.h ****       find(const char_type* __s, std::size_t __n, const char_type& __a);
 115:/usr/include/c++/9.1.0/bits/char_traits.h **** 
 116:/usr/include/c++/9.1.0/bits/char_traits.h ****       static char_type*
 117:/usr/include/c++/9.1.0/bits/char_traits.h ****       move(char_type* __s1, const char_type* __s2, std::size_t __n);
 118:/usr/include/c++/9.1.0/bits/char_traits.h **** 
 119:/usr/include/c++/9.1.0/bits/char_traits.h ****       static char_type*
 120:/usr/include/c++/9.1.0/bits/char_traits.h ****       copy(char_type* __s1, const char_type* __s2, std::size_t __n);
 121:/usr/include/c++/9.1.0/bits/char_traits.h **** 
 122:/usr/include/c++/9.1.0/bits/char_traits.h ****       static char_type*
 123:/usr/include/c++/9.1.0/bits/char_traits.h ****       assign(char_type* __s, std::size_t __n, char_type __a);
 124:/usr/include/c++/9.1.0/bits/char_traits.h **** 
 125:/usr/include/c++/9.1.0/bits/char_traits.h ****       static _GLIBCXX_CONSTEXPR char_type
 126:/usr/include/c++/9.1.0/bits/char_traits.h ****       to_char_type(const int_type& __c)
 127:/usr/include/c++/9.1.0/bits/char_traits.h ****       { return static_cast<char_type>(__c); }
 128:/usr/include/c++/9.1.0/bits/char_traits.h **** 
 129:/usr/include/c++/9.1.0/bits/char_traits.h ****       static _GLIBCXX_CONSTEXPR int_type
 130:/usr/include/c++/9.1.0/bits/char_traits.h ****       to_int_type(const char_type& __c)
 131:/usr/include/c++/9.1.0/bits/char_traits.h ****       { return static_cast<int_type>(__c); }
 132:/usr/include/c++/9.1.0/bits/char_traits.h **** 
 133:/usr/include/c++/9.1.0/bits/char_traits.h ****       static _GLIBCXX_CONSTEXPR bool
 134:/usr/include/c++/9.1.0/bits/char_traits.h ****       eq_int_type(const int_type& __c1, const int_type& __c2)
 135:/usr/include/c++/9.1.0/bits/char_traits.h ****       { return __c1 == __c2; }
 136:/usr/include/c++/9.1.0/bits/char_traits.h **** 
 137:/usr/include/c++/9.1.0/bits/char_traits.h ****       static _GLIBCXX_CONSTEXPR int_type
GAS LISTING /tmp/cc6iEGVT.s 			page 39


 138:/usr/include/c++/9.1.0/bits/char_traits.h ****       eof()
 139:/usr/include/c++/9.1.0/bits/char_traits.h ****       { return static_cast<int_type>(_GLIBCXX_STDIO_EOF); }
 140:/usr/include/c++/9.1.0/bits/char_traits.h **** 
 141:/usr/include/c++/9.1.0/bits/char_traits.h ****       static _GLIBCXX_CONSTEXPR int_type
 142:/usr/include/c++/9.1.0/bits/char_traits.h ****       not_eof(const int_type& __c)
 143:/usr/include/c++/9.1.0/bits/char_traits.h ****       { return !eq_int_type(__c, eof()) ? __c : to_int_type(char_type()); }
 144:/usr/include/c++/9.1.0/bits/char_traits.h ****     };
 145:/usr/include/c++/9.1.0/bits/char_traits.h **** 
 146:/usr/include/c++/9.1.0/bits/char_traits.h ****   template<typename _CharT>
 147:/usr/include/c++/9.1.0/bits/char_traits.h ****     _GLIBCXX14_CONSTEXPR int
 148:/usr/include/c++/9.1.0/bits/char_traits.h ****     char_traits<_CharT>::
 149:/usr/include/c++/9.1.0/bits/char_traits.h ****     compare(const char_type* __s1, const char_type* __s2, std::size_t __n)
 150:/usr/include/c++/9.1.0/bits/char_traits.h ****     {
 151:/usr/include/c++/9.1.0/bits/char_traits.h ****       for (std::size_t __i = 0; __i < __n; ++__i)
 152:/usr/include/c++/9.1.0/bits/char_traits.h **** 	if (lt(__s1[__i], __s2[__i]))
 153:/usr/include/c++/9.1.0/bits/char_traits.h **** 	  return -1;
 154:/usr/include/c++/9.1.0/bits/char_traits.h **** 	else if (lt(__s2[__i], __s1[__i]))
 155:/usr/include/c++/9.1.0/bits/char_traits.h **** 	  return 1;
 156:/usr/include/c++/9.1.0/bits/char_traits.h ****       return 0;
 157:/usr/include/c++/9.1.0/bits/char_traits.h ****     }
 158:/usr/include/c++/9.1.0/bits/char_traits.h **** 
 159:/usr/include/c++/9.1.0/bits/char_traits.h ****   template<typename _CharT>
 160:/usr/include/c++/9.1.0/bits/char_traits.h ****     _GLIBCXX14_CONSTEXPR std::size_t
 161:/usr/include/c++/9.1.0/bits/char_traits.h ****     char_traits<_CharT>::
 162:/usr/include/c++/9.1.0/bits/char_traits.h ****     length(const char_type* __p)
 163:/usr/include/c++/9.1.0/bits/char_traits.h ****     {
 164:/usr/include/c++/9.1.0/bits/char_traits.h ****       std::size_t __i = 0;
 165:/usr/include/c++/9.1.0/bits/char_traits.h ****       while (!eq(__p[__i], char_type()))
 166:/usr/include/c++/9.1.0/bits/char_traits.h ****         ++__i;
 167:/usr/include/c++/9.1.0/bits/char_traits.h ****       return __i;
 168:/usr/include/c++/9.1.0/bits/char_traits.h ****     }
 169:/usr/include/c++/9.1.0/bits/char_traits.h **** 
 170:/usr/include/c++/9.1.0/bits/char_traits.h ****   template<typename _CharT>
 171:/usr/include/c++/9.1.0/bits/char_traits.h ****     _GLIBCXX14_CONSTEXPR const typename char_traits<_CharT>::char_type*
 172:/usr/include/c++/9.1.0/bits/char_traits.h ****     char_traits<_CharT>::
 173:/usr/include/c++/9.1.0/bits/char_traits.h ****     find(const char_type* __s, std::size_t __n, const char_type& __a)
 174:/usr/include/c++/9.1.0/bits/char_traits.h ****     {
 175:/usr/include/c++/9.1.0/bits/char_traits.h ****       for (std::size_t __i = 0; __i < __n; ++__i)
 176:/usr/include/c++/9.1.0/bits/char_traits.h ****         if (eq(__s[__i], __a))
 177:/usr/include/c++/9.1.0/bits/char_traits.h ****           return __s + __i;
 178:/usr/include/c++/9.1.0/bits/char_traits.h ****       return 0;
 179:/usr/include/c++/9.1.0/bits/char_traits.h ****     }
 180:/usr/include/c++/9.1.0/bits/char_traits.h **** 
 181:/usr/include/c++/9.1.0/bits/char_traits.h ****   template<typename _CharT>
 182:/usr/include/c++/9.1.0/bits/char_traits.h ****     typename char_traits<_CharT>::char_type*
 183:/usr/include/c++/9.1.0/bits/char_traits.h ****     char_traits<_CharT>::
 184:/usr/include/c++/9.1.0/bits/char_traits.h ****     move(char_type* __s1, const char_type* __s2, std::size_t __n)
 185:/usr/include/c++/9.1.0/bits/char_traits.h ****     {
 186:/usr/include/c++/9.1.0/bits/char_traits.h ****       if (__n == 0)
 187:/usr/include/c++/9.1.0/bits/char_traits.h **** 	return __s1;
 188:/usr/include/c++/9.1.0/bits/char_traits.h ****       return static_cast<_CharT*>(__builtin_memmove(__s1, __s2,
 189:/usr/include/c++/9.1.0/bits/char_traits.h **** 						    __n * sizeof(char_type)));
 190:/usr/include/c++/9.1.0/bits/char_traits.h ****     }
 191:/usr/include/c++/9.1.0/bits/char_traits.h **** 
 192:/usr/include/c++/9.1.0/bits/char_traits.h ****   template<typename _CharT>
 193:/usr/include/c++/9.1.0/bits/char_traits.h ****     typename char_traits<_CharT>::char_type*
 194:/usr/include/c++/9.1.0/bits/char_traits.h ****     char_traits<_CharT>::
GAS LISTING /tmp/cc6iEGVT.s 			page 40


 195:/usr/include/c++/9.1.0/bits/char_traits.h ****     copy(char_type* __s1, const char_type* __s2, std::size_t __n)
 196:/usr/include/c++/9.1.0/bits/char_traits.h ****     {
 197:/usr/include/c++/9.1.0/bits/char_traits.h ****       // NB: Inline std::copy so no recursive dependencies.
 198:/usr/include/c++/9.1.0/bits/char_traits.h ****       std::copy(__s2, __s2 + __n, __s1);
 199:/usr/include/c++/9.1.0/bits/char_traits.h ****       return __s1;
 200:/usr/include/c++/9.1.0/bits/char_traits.h ****     }
 201:/usr/include/c++/9.1.0/bits/char_traits.h **** 
 202:/usr/include/c++/9.1.0/bits/char_traits.h ****   template<typename _CharT>
 203:/usr/include/c++/9.1.0/bits/char_traits.h ****     typename char_traits<_CharT>::char_type*
 204:/usr/include/c++/9.1.0/bits/char_traits.h ****     char_traits<_CharT>::
 205:/usr/include/c++/9.1.0/bits/char_traits.h ****     assign(char_type* __s, std::size_t __n, char_type __a)
 206:/usr/include/c++/9.1.0/bits/char_traits.h ****     {
 207:/usr/include/c++/9.1.0/bits/char_traits.h ****       // NB: Inline std::fill_n so no recursive dependencies.
 208:/usr/include/c++/9.1.0/bits/char_traits.h ****       std::fill_n(__s, __n, __a);
 209:/usr/include/c++/9.1.0/bits/char_traits.h ****       return __s;
 210:/usr/include/c++/9.1.0/bits/char_traits.h ****     }
 211:/usr/include/c++/9.1.0/bits/char_traits.h **** 
 212:/usr/include/c++/9.1.0/bits/char_traits.h **** _GLIBCXX_END_NAMESPACE_VERSION
 213:/usr/include/c++/9.1.0/bits/char_traits.h **** } // namespace
 214:/usr/include/c++/9.1.0/bits/char_traits.h **** 
 215:/usr/include/c++/9.1.0/bits/char_traits.h **** namespace std _GLIBCXX_VISIBILITY(default)
 216:/usr/include/c++/9.1.0/bits/char_traits.h **** {
 217:/usr/include/c++/9.1.0/bits/char_traits.h **** _GLIBCXX_BEGIN_NAMESPACE_VERSION
 218:/usr/include/c++/9.1.0/bits/char_traits.h **** 
 219:/usr/include/c++/9.1.0/bits/char_traits.h **** #if __cplusplus >= 201703L
 220:/usr/include/c++/9.1.0/bits/char_traits.h **** #define __cpp_lib_constexpr_char_traits 201611
 221:/usr/include/c++/9.1.0/bits/char_traits.h **** 
 222:/usr/include/c++/9.1.0/bits/char_traits.h ****   /**
 223:/usr/include/c++/9.1.0/bits/char_traits.h ****    *  @brief Determine whether the characters of a NULL-terminated
 224:/usr/include/c++/9.1.0/bits/char_traits.h ****    *  string are known at compile time.
 225:/usr/include/c++/9.1.0/bits/char_traits.h ****    *  @param  __s  The string.
 226:/usr/include/c++/9.1.0/bits/char_traits.h ****    *
 227:/usr/include/c++/9.1.0/bits/char_traits.h ****    *  Assumes that _CharT is a built-in character type.
 228:/usr/include/c++/9.1.0/bits/char_traits.h ****    */
 229:/usr/include/c++/9.1.0/bits/char_traits.h ****   template<typename _CharT>
 230:/usr/include/c++/9.1.0/bits/char_traits.h ****     static _GLIBCXX_ALWAYS_INLINE constexpr bool
 231:/usr/include/c++/9.1.0/bits/char_traits.h ****     __constant_string_p(const _CharT* __s)
 232:/usr/include/c++/9.1.0/bits/char_traits.h ****     {
 233:/usr/include/c++/9.1.0/bits/char_traits.h **** #ifdef _GLIBCXX_HAVE_BUILTIN_IS_CONSTANT_EVALUATED
 234:/usr/include/c++/9.1.0/bits/char_traits.h ****       (void) __s;
 235:/usr/include/c++/9.1.0/bits/char_traits.h ****       // In constexpr contexts all strings should be constant.
 236:/usr/include/c++/9.1.0/bits/char_traits.h ****       return __builtin_is_constant_evaluated();
 237:/usr/include/c++/9.1.0/bits/char_traits.h **** #else
 238:/usr/include/c++/9.1.0/bits/char_traits.h ****       while (__builtin_constant_p(*__s) && *__s)
 239:/usr/include/c++/9.1.0/bits/char_traits.h **** 	__s++;
 240:/usr/include/c++/9.1.0/bits/char_traits.h ****       return __builtin_constant_p(*__s);
 241:/usr/include/c++/9.1.0/bits/char_traits.h **** #endif
 242:/usr/include/c++/9.1.0/bits/char_traits.h ****     }
 243:/usr/include/c++/9.1.0/bits/char_traits.h **** 
 244:/usr/include/c++/9.1.0/bits/char_traits.h ****   /**
 245:/usr/include/c++/9.1.0/bits/char_traits.h ****    *  @brief Determine whether the characters of a character array are
 246:/usr/include/c++/9.1.0/bits/char_traits.h ****    *  known at compile time.
 247:/usr/include/c++/9.1.0/bits/char_traits.h ****    *  @param  __a  The character array.
 248:/usr/include/c++/9.1.0/bits/char_traits.h ****    *  @param  __n  Number of characters.
 249:/usr/include/c++/9.1.0/bits/char_traits.h ****    *
 250:/usr/include/c++/9.1.0/bits/char_traits.h ****    *  Assumes that _CharT is a built-in character type.
 251:/usr/include/c++/9.1.0/bits/char_traits.h ****    */
GAS LISTING /tmp/cc6iEGVT.s 			page 41


 252:/usr/include/c++/9.1.0/bits/char_traits.h ****   template<typename _CharT>
 253:/usr/include/c++/9.1.0/bits/char_traits.h ****     static _GLIBCXX_ALWAYS_INLINE constexpr bool
 254:/usr/include/c++/9.1.0/bits/char_traits.h ****     __constant_char_array_p(const _CharT* __a, size_t __n)
 255:/usr/include/c++/9.1.0/bits/char_traits.h ****     {
 256:/usr/include/c++/9.1.0/bits/char_traits.h **** #ifdef _GLIBCXX_HAVE_BUILTIN_IS_CONSTANT_EVALUATED
 257:/usr/include/c++/9.1.0/bits/char_traits.h ****       (void) __a;
 258:/usr/include/c++/9.1.0/bits/char_traits.h ****       (void) __n;
 259:/usr/include/c++/9.1.0/bits/char_traits.h ****       // In constexpr contexts all character arrays should be constant.
 260:/usr/include/c++/9.1.0/bits/char_traits.h ****       return __builtin_is_constant_evaluated();
 261:/usr/include/c++/9.1.0/bits/char_traits.h **** #else
 262:/usr/include/c++/9.1.0/bits/char_traits.h ****       size_t __i = 0;
 263:/usr/include/c++/9.1.0/bits/char_traits.h ****       while (__i < __n && __builtin_constant_p(__a[__i]))
 264:/usr/include/c++/9.1.0/bits/char_traits.h **** 	__i++;
 265:/usr/include/c++/9.1.0/bits/char_traits.h ****       return __i == __n;
 266:/usr/include/c++/9.1.0/bits/char_traits.h **** #endif
 267:/usr/include/c++/9.1.0/bits/char_traits.h ****     }
 268:/usr/include/c++/9.1.0/bits/char_traits.h **** #endif
 269:/usr/include/c++/9.1.0/bits/char_traits.h **** 
 270:/usr/include/c++/9.1.0/bits/char_traits.h ****   // 21.1
 271:/usr/include/c++/9.1.0/bits/char_traits.h ****   /**
 272:/usr/include/c++/9.1.0/bits/char_traits.h ****    *  @brief  Basis for explicit traits specializations.
 273:/usr/include/c++/9.1.0/bits/char_traits.h ****    *
 274:/usr/include/c++/9.1.0/bits/char_traits.h ****    *  @note  For any given actual character type, this definition is
 275:/usr/include/c++/9.1.0/bits/char_traits.h ****    *  probably wrong.  Since this is just a thin wrapper around
 276:/usr/include/c++/9.1.0/bits/char_traits.h ****    *  __gnu_cxx::char_traits, it is possible to achieve a more
 277:/usr/include/c++/9.1.0/bits/char_traits.h ****    *  appropriate definition by specializing __gnu_cxx::char_traits.
 278:/usr/include/c++/9.1.0/bits/char_traits.h ****    *
 279:/usr/include/c++/9.1.0/bits/char_traits.h ****    *  See https://gcc.gnu.org/onlinedocs/libstdc++/manual/strings.html#strings.string.character_typ
 280:/usr/include/c++/9.1.0/bits/char_traits.h ****    *  for advice on how to make use of this class for @a unusual character
 281:/usr/include/c++/9.1.0/bits/char_traits.h ****    *  types. Also, check out include/ext/pod_char_traits.h.
 282:/usr/include/c++/9.1.0/bits/char_traits.h ****   */
 283:/usr/include/c++/9.1.0/bits/char_traits.h ****   template<class _CharT>
 284:/usr/include/c++/9.1.0/bits/char_traits.h ****     struct char_traits : public __gnu_cxx::char_traits<_CharT>
 285:/usr/include/c++/9.1.0/bits/char_traits.h ****     { };
 286:/usr/include/c++/9.1.0/bits/char_traits.h **** 
 287:/usr/include/c++/9.1.0/bits/char_traits.h **** 
 288:/usr/include/c++/9.1.0/bits/char_traits.h ****   /// 21.1.3.1  char_traits specializations
 289:/usr/include/c++/9.1.0/bits/char_traits.h ****   template<>
 290:/usr/include/c++/9.1.0/bits/char_traits.h ****     struct char_traits<char>
 291:/usr/include/c++/9.1.0/bits/char_traits.h ****     {
 292:/usr/include/c++/9.1.0/bits/char_traits.h ****       typedef char              char_type;
 293:/usr/include/c++/9.1.0/bits/char_traits.h ****       typedef int               int_type;
 294:/usr/include/c++/9.1.0/bits/char_traits.h ****       typedef streampos         pos_type;
 295:/usr/include/c++/9.1.0/bits/char_traits.h ****       typedef streamoff         off_type;
 296:/usr/include/c++/9.1.0/bits/char_traits.h ****       typedef mbstate_t         state_type;
 297:/usr/include/c++/9.1.0/bits/char_traits.h **** 
 298:/usr/include/c++/9.1.0/bits/char_traits.h ****       static _GLIBCXX17_CONSTEXPR void
 299:/usr/include/c++/9.1.0/bits/char_traits.h ****       assign(char_type& __c1, const char_type& __c2) _GLIBCXX_NOEXCEPT
 300:/usr/include/c++/9.1.0/bits/char_traits.h ****       { __c1 = __c2; }
 301:/usr/include/c++/9.1.0/bits/char_traits.h **** 
 302:/usr/include/c++/9.1.0/bits/char_traits.h ****       static _GLIBCXX_CONSTEXPR bool
 303:/usr/include/c++/9.1.0/bits/char_traits.h ****       eq(const char_type& __c1, const char_type& __c2) _GLIBCXX_NOEXCEPT
 304:/usr/include/c++/9.1.0/bits/char_traits.h ****       { return __c1 == __c2; }
 305:/usr/include/c++/9.1.0/bits/char_traits.h **** 
 306:/usr/include/c++/9.1.0/bits/char_traits.h ****       static _GLIBCXX_CONSTEXPR bool
 307:/usr/include/c++/9.1.0/bits/char_traits.h ****       lt(const char_type& __c1, const char_type& __c2) _GLIBCXX_NOEXCEPT
 308:/usr/include/c++/9.1.0/bits/char_traits.h ****       {
GAS LISTING /tmp/cc6iEGVT.s 			page 42


 309:/usr/include/c++/9.1.0/bits/char_traits.h **** 	// LWG 467.
 310:/usr/include/c++/9.1.0/bits/char_traits.h **** 	return (static_cast<unsigned char>(__c1)
 311:/usr/include/c++/9.1.0/bits/char_traits.h **** 		< static_cast<unsigned char>(__c2));
 312:/usr/include/c++/9.1.0/bits/char_traits.h ****       }
 313:/usr/include/c++/9.1.0/bits/char_traits.h **** 
 314:/usr/include/c++/9.1.0/bits/char_traits.h ****       static _GLIBCXX17_CONSTEXPR int
 315:/usr/include/c++/9.1.0/bits/char_traits.h ****       compare(const char_type* __s1, const char_type* __s2, size_t __n)
 316:/usr/include/c++/9.1.0/bits/char_traits.h ****       {
 317:/usr/include/c++/9.1.0/bits/char_traits.h **** 	if (__n == 0)
 318:/usr/include/c++/9.1.0/bits/char_traits.h **** 	  return 0;
 319:/usr/include/c++/9.1.0/bits/char_traits.h **** #if __cplusplus >= 201703L
 320:/usr/include/c++/9.1.0/bits/char_traits.h **** 	if (__builtin_constant_p(__n)
 321:/usr/include/c++/9.1.0/bits/char_traits.h **** 	    && __constant_char_array_p(__s1, __n)
 322:/usr/include/c++/9.1.0/bits/char_traits.h **** 	    && __constant_char_array_p(__s2, __n))
 323:/usr/include/c++/9.1.0/bits/char_traits.h **** 	  return __gnu_cxx::char_traits<char_type>::compare(__s1, __s2, __n);
 324:/usr/include/c++/9.1.0/bits/char_traits.h **** #endif
 325:/usr/include/c++/9.1.0/bits/char_traits.h **** 	return __builtin_memcmp(__s1, __s2, __n);
 326:/usr/include/c++/9.1.0/bits/char_traits.h ****       }
 327:/usr/include/c++/9.1.0/bits/char_traits.h **** 
 328:/usr/include/c++/9.1.0/bits/char_traits.h ****       static _GLIBCXX17_CONSTEXPR size_t
 329:/usr/include/c++/9.1.0/bits/char_traits.h ****       length(const char_type* __s)
 330:/usr/include/c++/9.1.0/bits/char_traits.h ****       {
 331:/usr/include/c++/9.1.0/bits/char_traits.h **** #if __cplusplus >= 201703L
 332:/usr/include/c++/9.1.0/bits/char_traits.h **** 	if (__constant_string_p(__s))
 333:/usr/include/c++/9.1.0/bits/char_traits.h **** 	  return __gnu_cxx::char_traits<char_type>::length(__s);
 334:/usr/include/c++/9.1.0/bits/char_traits.h **** #endif
 335:/usr/include/c++/9.1.0/bits/char_traits.h **** 	return __builtin_strlen(__s);
 558              		.loc 5 335 2 is_stmt 1 view .LVU154
 559              	.LBB209:
 560              	.LBB207:
 561              	.LBB206:
 566:/usr/include/c++/9.1.0/ostream ****     {
 567:/usr/include/c++/9.1.0/ostream ****       if (!__s)
 568:/usr/include/c++/9.1.0/ostream **** 	__out.setstate(ios_base::badbit);
 569:/usr/include/c++/9.1.0/ostream ****       else
 570:/usr/include/c++/9.1.0/ostream **** 	__ostream_insert(__out, __s,
 562              		.loc 4 570 18 is_stmt 0 view .LVU155
 563 036a BA120000 		movl	$18, %edx
 563      00
 564              	.LVL41:
 565              		.loc 4 570 18 view .LVU156
 566 036f 488D3500 		leaq	.LC11(%rip), %rsi
 566      000000
 567 0376 488D3D00 		leaq	_ZSt4cout(%rip), %rdi
 567      000000
 568 037d E8000000 		call	_ZSt16__ostream_insertIcSt11char_traitsIcEERSt13basic_ostreamIT_T0_ES6_PKS3_l@PLT
 568      00
 569              	.LVL42:
 570              		.loc 4 570 18 view .LVU157
 571              	.LBE206:
 572              	.LBE207:
 137:Src/main.cpp  **** 		}
 573              		.loc 1 137 4 is_stmt 1 view .LVU158
 137:Src/main.cpp  **** 		}
 574              		.loc 1 137 20 is_stmt 0 view .LVU159
 575 0382 48830500 		addq	$100, QUAD_CHECK_SIDE(%rip)
 575      00000064 
GAS LISTING /tmp/cc6iEGVT.s 			page 43


 576 038a EBC9     		jmp	.L32
 577              	.L33:
 137:Src/main.cpp  **** 		}
 578              		.loc 1 137 20 view .LVU160
 579              	.LBE209:
 140:Src/main.cpp  **** 	size_t iter = 0;
 580              		.loc 1 140 2 is_stmt 1 view .LVU161
 581              	.LVL43:
 582              	.LBB210:
 583              	.LBI210:
 565:/usr/include/c++/9.1.0/ostream ****     {
 584              		.loc 4 565 5 view .LVU162
 565:/usr/include/c++/9.1.0/ostream ****     {
 585              		.loc 4 565 5 is_stmt 0 view .LVU163
 586              	.LBE210:
 587              		.loc 5 335 2 is_stmt 1 view .LVU164
 588              	.LBB212:
 589              	.LBB211:
 590              		.loc 4 570 18 is_stmt 0 view .LVU165
 591 038c BA060000 		movl	$6, %edx
 591      00
 592 0391 488D3500 		leaq	.LC12(%rip), %rsi
 592      000000
 593 0398 488D3D00 		leaq	_ZSt4cout(%rip), %rdi
 593      000000
 594 039f E8000000 		call	_ZSt16__ostream_insertIcSt11char_traitsIcEERSt13basic_ostreamIT_T0_ES6_PKS3_l@PLT
 594      00
 595              	.LVL44:
 596              		.loc 4 570 18 view .LVU166
 597              	.LBE211:
 598              	.LBE212:
 599              	.LBB213:
 600              	.LBI213:
 170:/usr/include/c++/9.1.0/ostream ****       { return _M_insert(__n); }
 601              		.loc 4 170 7 is_stmt 1 view .LVU167
 602              	.LBB214:
 171:/usr/include/c++/9.1.0/ostream **** 
 603              		.loc 4 171 29 is_stmt 0 view .LVU168
 604 03a4 4889EE   		movq	%rbp, %rsi
 605 03a7 488D3D00 		leaq	_ZSt4cout(%rip), %rdi
 605      000000
 606 03ae E8000000 		call	_ZNSo9_M_insertImEERSoT_@PLT
 606      00
 607              	.LVL45:
 608 03b3 4989C4   		movq	%rax, %r12
 609              	.LVL46:
 171:/usr/include/c++/9.1.0/ostream **** 
 610              		.loc 4 171 29 view .LVU169
 611              	.LBE214:
 612              	.LBE213:
 613              	.LBB215:
 614              	.LBI215:
 108:/usr/include/c++/9.1.0/ostream ****       {
 615              		.loc 4 108 7 is_stmt 1 view .LVU170
 616              	.LBB216:
 617              	.LBI216:
 571:/usr/include/c++/9.1.0/ostream **** 			 static_cast<streamsize>(_Traits::length(__s)));
GAS LISTING /tmp/cc6iEGVT.s 			page 44


 572:/usr/include/c++/9.1.0/ostream ****       return __out;
 573:/usr/include/c++/9.1.0/ostream ****     }
 574:/usr/include/c++/9.1.0/ostream **** 
 575:/usr/include/c++/9.1.0/ostream ****   // Signed and unsigned
 576:/usr/include/c++/9.1.0/ostream ****   template<class _Traits>
 577:/usr/include/c++/9.1.0/ostream ****     inline basic_ostream<char, _Traits>&
 578:/usr/include/c++/9.1.0/ostream ****     operator<<(basic_ostream<char, _Traits>& __out, const signed char* __s)
 579:/usr/include/c++/9.1.0/ostream ****     { return (__out << reinterpret_cast<const char*>(__s)); }
 580:/usr/include/c++/9.1.0/ostream **** 
 581:/usr/include/c++/9.1.0/ostream ****   template<class _Traits>
 582:/usr/include/c++/9.1.0/ostream ****     inline basic_ostream<char, _Traits> &
 583:/usr/include/c++/9.1.0/ostream ****     operator<<(basic_ostream<char, _Traits>& __out, const unsigned char* __s)
 584:/usr/include/c++/9.1.0/ostream ****     { return (__out << reinterpret_cast<const char*>(__s)); }
 585:/usr/include/c++/9.1.0/ostream ****   //@}
 586:/usr/include/c++/9.1.0/ostream **** 
 587:/usr/include/c++/9.1.0/ostream ****   // Standard basic_ostream manipulators
 588:/usr/include/c++/9.1.0/ostream **** 
 589:/usr/include/c++/9.1.0/ostream ****   /**
 590:/usr/include/c++/9.1.0/ostream ****    *  @brief  Write a newline and flush the stream.
 591:/usr/include/c++/9.1.0/ostream ****    *
 592:/usr/include/c++/9.1.0/ostream ****    *  This manipulator is often mistakenly used when a simple newline is
 593:/usr/include/c++/9.1.0/ostream ****    *  desired, leading to poor buffering performance.  See
 594:/usr/include/c++/9.1.0/ostream ****    *  https://gcc.gnu.org/onlinedocs/libstdc++/manual/streambufs.html#io.streambuf.buffering
 595:/usr/include/c++/9.1.0/ostream ****    *  for more on this subject.
 596:/usr/include/c++/9.1.0/ostream ****   */
 597:/usr/include/c++/9.1.0/ostream ****   template<typename _CharT, typename _Traits>
 598:/usr/include/c++/9.1.0/ostream ****     inline basic_ostream<_CharT, _Traits>&
 599:/usr/include/c++/9.1.0/ostream ****     endl(basic_ostream<_CharT, _Traits>& __os)
 618              		.loc 4 599 5 view .LVU171
 619              	.LBB217:
 600:/usr/include/c++/9.1.0/ostream ****     { return flush(__os.put(__os.widen('\n'))); }
 620              		.loc 4 600 19 is_stmt 0 view .LVU172
 621 03b6 488B00   		movq	(%rax), %rax
 622              	.LVL47:
 623              		.loc 4 600 19 view .LVU173
 624 03b9 4C89E7   		movq	%r12, %rdi
 625 03bc 480378E8 		addq	-24(%rax), %rdi
 626              	.LVL48:
 627              	.LBB218:
 628              	.LBI218:
 629              		.file 6 "/usr/include/c++/9.1.0/bits/basic_ios.h"
   1:/usr/include/c++/9.1.0/bits/basic_ios.h **** // Iostreams base classes -*- C++ -*-
   2:/usr/include/c++/9.1.0/bits/basic_ios.h **** 
   3:/usr/include/c++/9.1.0/bits/basic_ios.h **** // Copyright (C) 1997-2019 Free Software Foundation, Inc.
   4:/usr/include/c++/9.1.0/bits/basic_ios.h **** //
   5:/usr/include/c++/9.1.0/bits/basic_ios.h **** // This file is part of the GNU ISO C++ Library.  This library is free
   6:/usr/include/c++/9.1.0/bits/basic_ios.h **** // software; you can redistribute it and/or modify it under the
   7:/usr/include/c++/9.1.0/bits/basic_ios.h **** // terms of the GNU General Public License as published by the
   8:/usr/include/c++/9.1.0/bits/basic_ios.h **** // Free Software Foundation; either version 3, or (at your option)
   9:/usr/include/c++/9.1.0/bits/basic_ios.h **** // any later version.
  10:/usr/include/c++/9.1.0/bits/basic_ios.h **** 
  11:/usr/include/c++/9.1.0/bits/basic_ios.h **** // This library is distributed in the hope that it will be useful,
  12:/usr/include/c++/9.1.0/bits/basic_ios.h **** // but WITHOUT ANY WARRANTY; without even the implied warranty of
  13:/usr/include/c++/9.1.0/bits/basic_ios.h **** // MERCHANTABILITY or FITNESS FOR A PARTICULAR PURPOSE.  See the
  14:/usr/include/c++/9.1.0/bits/basic_ios.h **** // GNU General Public License for more details.
  15:/usr/include/c++/9.1.0/bits/basic_ios.h **** 
  16:/usr/include/c++/9.1.0/bits/basic_ios.h **** // Under Section 7 of GPL version 3, you are granted additional
GAS LISTING /tmp/cc6iEGVT.s 			page 45


  17:/usr/include/c++/9.1.0/bits/basic_ios.h **** // permissions described in the GCC Runtime Library Exception, version
  18:/usr/include/c++/9.1.0/bits/basic_ios.h **** // 3.1, as published by the Free Software Foundation.
  19:/usr/include/c++/9.1.0/bits/basic_ios.h **** 
  20:/usr/include/c++/9.1.0/bits/basic_ios.h **** // You should have received a copy of the GNU General Public License and
  21:/usr/include/c++/9.1.0/bits/basic_ios.h **** // a copy of the GCC Runtime Library Exception along with this program;
  22:/usr/include/c++/9.1.0/bits/basic_ios.h **** // see the files COPYING3 and COPYING.RUNTIME respectively.  If not, see
  23:/usr/include/c++/9.1.0/bits/basic_ios.h **** // <http://www.gnu.org/licenses/>.
  24:/usr/include/c++/9.1.0/bits/basic_ios.h **** 
  25:/usr/include/c++/9.1.0/bits/basic_ios.h **** /** @file bits/basic_ios.h
  26:/usr/include/c++/9.1.0/bits/basic_ios.h ****  *  This is an internal header file, included by other library headers.
  27:/usr/include/c++/9.1.0/bits/basic_ios.h ****  *  Do not attempt to use it directly. @headername{ios}
  28:/usr/include/c++/9.1.0/bits/basic_ios.h ****  */
  29:/usr/include/c++/9.1.0/bits/basic_ios.h **** 
  30:/usr/include/c++/9.1.0/bits/basic_ios.h **** #ifndef _BASIC_IOS_H
  31:/usr/include/c++/9.1.0/bits/basic_ios.h **** #define _BASIC_IOS_H 1
  32:/usr/include/c++/9.1.0/bits/basic_ios.h **** 
  33:/usr/include/c++/9.1.0/bits/basic_ios.h **** #pragma GCC system_header
  34:/usr/include/c++/9.1.0/bits/basic_ios.h **** 
  35:/usr/include/c++/9.1.0/bits/basic_ios.h **** #include <bits/localefwd.h>
  36:/usr/include/c++/9.1.0/bits/basic_ios.h **** #include <bits/locale_classes.h>
  37:/usr/include/c++/9.1.0/bits/basic_ios.h **** #include <bits/locale_facets.h>
  38:/usr/include/c++/9.1.0/bits/basic_ios.h **** #include <bits/streambuf_iterator.h>
  39:/usr/include/c++/9.1.0/bits/basic_ios.h **** #include <bits/move.h>
  40:/usr/include/c++/9.1.0/bits/basic_ios.h **** 
  41:/usr/include/c++/9.1.0/bits/basic_ios.h **** namespace std _GLIBCXX_VISIBILITY(default)
  42:/usr/include/c++/9.1.0/bits/basic_ios.h **** {
  43:/usr/include/c++/9.1.0/bits/basic_ios.h **** _GLIBCXX_BEGIN_NAMESPACE_VERSION
  44:/usr/include/c++/9.1.0/bits/basic_ios.h **** 
  45:/usr/include/c++/9.1.0/bits/basic_ios.h ****   template<typename _Facet>
  46:/usr/include/c++/9.1.0/bits/basic_ios.h ****     inline const _Facet&
  47:/usr/include/c++/9.1.0/bits/basic_ios.h ****     __check_facet(const _Facet* __f)
  48:/usr/include/c++/9.1.0/bits/basic_ios.h ****     {
  49:/usr/include/c++/9.1.0/bits/basic_ios.h ****       if (!__f)
  50:/usr/include/c++/9.1.0/bits/basic_ios.h **** 	__throw_bad_cast();
  51:/usr/include/c++/9.1.0/bits/basic_ios.h ****       return *__f;
  52:/usr/include/c++/9.1.0/bits/basic_ios.h ****     }
  53:/usr/include/c++/9.1.0/bits/basic_ios.h **** 
  54:/usr/include/c++/9.1.0/bits/basic_ios.h ****   /**
  55:/usr/include/c++/9.1.0/bits/basic_ios.h ****    *  @brief Template class basic_ios, virtual base class for all
  56:/usr/include/c++/9.1.0/bits/basic_ios.h ****    *  stream classes. 
  57:/usr/include/c++/9.1.0/bits/basic_ios.h ****    *  @ingroup io
  58:/usr/include/c++/9.1.0/bits/basic_ios.h ****    *
  59:/usr/include/c++/9.1.0/bits/basic_ios.h ****    *  @tparam _CharT  Type of character stream.
  60:/usr/include/c++/9.1.0/bits/basic_ios.h ****    *  @tparam _Traits  Traits for character type, defaults to
  61:/usr/include/c++/9.1.0/bits/basic_ios.h ****    *                   char_traits<_CharT>.
  62:/usr/include/c++/9.1.0/bits/basic_ios.h ****    *
  63:/usr/include/c++/9.1.0/bits/basic_ios.h ****    *  Most of the member functions called dispatched on stream objects
  64:/usr/include/c++/9.1.0/bits/basic_ios.h ****    *  (e.g., @c std::cout.foo(bar);) are consolidated in this class.
  65:/usr/include/c++/9.1.0/bits/basic_ios.h ****   */
  66:/usr/include/c++/9.1.0/bits/basic_ios.h ****   template<typename _CharT, typename _Traits>
  67:/usr/include/c++/9.1.0/bits/basic_ios.h ****     class basic_ios : public ios_base
  68:/usr/include/c++/9.1.0/bits/basic_ios.h ****     {
  69:/usr/include/c++/9.1.0/bits/basic_ios.h ****     public:
  70:/usr/include/c++/9.1.0/bits/basic_ios.h ****       //@{
  71:/usr/include/c++/9.1.0/bits/basic_ios.h ****       /**
  72:/usr/include/c++/9.1.0/bits/basic_ios.h ****        *  These are standard types.  They permit a standardized way of
  73:/usr/include/c++/9.1.0/bits/basic_ios.h ****        *  referring to names of (or names dependent on) the template
GAS LISTING /tmp/cc6iEGVT.s 			page 46


  74:/usr/include/c++/9.1.0/bits/basic_ios.h ****        *  parameters, which are specific to the implementation.
  75:/usr/include/c++/9.1.0/bits/basic_ios.h ****       */
  76:/usr/include/c++/9.1.0/bits/basic_ios.h ****       typedef _CharT                                 char_type;
  77:/usr/include/c++/9.1.0/bits/basic_ios.h ****       typedef typename _Traits::int_type             int_type;
  78:/usr/include/c++/9.1.0/bits/basic_ios.h ****       typedef typename _Traits::pos_type             pos_type;
  79:/usr/include/c++/9.1.0/bits/basic_ios.h ****       typedef typename _Traits::off_type             off_type;
  80:/usr/include/c++/9.1.0/bits/basic_ios.h ****       typedef _Traits                                traits_type;
  81:/usr/include/c++/9.1.0/bits/basic_ios.h ****       //@}
  82:/usr/include/c++/9.1.0/bits/basic_ios.h **** 
  83:/usr/include/c++/9.1.0/bits/basic_ios.h ****       //@{
  84:/usr/include/c++/9.1.0/bits/basic_ios.h ****       /**
  85:/usr/include/c++/9.1.0/bits/basic_ios.h ****        *  These are non-standard types.
  86:/usr/include/c++/9.1.0/bits/basic_ios.h ****       */
  87:/usr/include/c++/9.1.0/bits/basic_ios.h ****       typedef ctype<_CharT>                          __ctype_type;
  88:/usr/include/c++/9.1.0/bits/basic_ios.h ****       typedef num_put<_CharT, ostreambuf_iterator<_CharT, _Traits> >
  89:/usr/include/c++/9.1.0/bits/basic_ios.h **** 						     __num_put_type;
  90:/usr/include/c++/9.1.0/bits/basic_ios.h ****       typedef num_get<_CharT, istreambuf_iterator<_CharT, _Traits> >
  91:/usr/include/c++/9.1.0/bits/basic_ios.h **** 						     __num_get_type;
  92:/usr/include/c++/9.1.0/bits/basic_ios.h ****       //@}
  93:/usr/include/c++/9.1.0/bits/basic_ios.h **** 
  94:/usr/include/c++/9.1.0/bits/basic_ios.h ****       // Data members:
  95:/usr/include/c++/9.1.0/bits/basic_ios.h ****     protected:
  96:/usr/include/c++/9.1.0/bits/basic_ios.h ****       basic_ostream<_CharT, _Traits>*                _M_tie;
  97:/usr/include/c++/9.1.0/bits/basic_ios.h ****       mutable char_type                              _M_fill;
  98:/usr/include/c++/9.1.0/bits/basic_ios.h ****       mutable bool                                   _M_fill_init;
  99:/usr/include/c++/9.1.0/bits/basic_ios.h ****       basic_streambuf<_CharT, _Traits>*              _M_streambuf;
 100:/usr/include/c++/9.1.0/bits/basic_ios.h **** 
 101:/usr/include/c++/9.1.0/bits/basic_ios.h ****       // Cached use_facet<ctype>, which is based on the current locale info.
 102:/usr/include/c++/9.1.0/bits/basic_ios.h ****       const __ctype_type*                            _M_ctype;
 103:/usr/include/c++/9.1.0/bits/basic_ios.h ****       // For ostream.
 104:/usr/include/c++/9.1.0/bits/basic_ios.h ****       const __num_put_type*                          _M_num_put;
 105:/usr/include/c++/9.1.0/bits/basic_ios.h ****       // For istream.
 106:/usr/include/c++/9.1.0/bits/basic_ios.h ****       const __num_get_type*                          _M_num_get;
 107:/usr/include/c++/9.1.0/bits/basic_ios.h **** 
 108:/usr/include/c++/9.1.0/bits/basic_ios.h ****     public:
 109:/usr/include/c++/9.1.0/bits/basic_ios.h ****       //@{
 110:/usr/include/c++/9.1.0/bits/basic_ios.h ****       /**
 111:/usr/include/c++/9.1.0/bits/basic_ios.h ****        *  @brief  The quick-and-easy status check.
 112:/usr/include/c++/9.1.0/bits/basic_ios.h ****        *
 113:/usr/include/c++/9.1.0/bits/basic_ios.h ****        *  This allows you to write constructs such as
 114:/usr/include/c++/9.1.0/bits/basic_ios.h ****        *  <code>if (!a_stream) ...</code> and <code>while (a_stream) ...</code>
 115:/usr/include/c++/9.1.0/bits/basic_ios.h ****       */
 116:/usr/include/c++/9.1.0/bits/basic_ios.h **** #if __cplusplus >= 201103L
 117:/usr/include/c++/9.1.0/bits/basic_ios.h ****       explicit operator bool() const
 118:/usr/include/c++/9.1.0/bits/basic_ios.h ****       { return !this->fail(); }
 119:/usr/include/c++/9.1.0/bits/basic_ios.h **** #else
 120:/usr/include/c++/9.1.0/bits/basic_ios.h ****       operator void*() const
 121:/usr/include/c++/9.1.0/bits/basic_ios.h ****       { return this->fail() ? 0 : const_cast<basic_ios*>(this); }
 122:/usr/include/c++/9.1.0/bits/basic_ios.h **** #endif
 123:/usr/include/c++/9.1.0/bits/basic_ios.h **** 
 124:/usr/include/c++/9.1.0/bits/basic_ios.h ****       bool
 125:/usr/include/c++/9.1.0/bits/basic_ios.h ****       operator!() const
 126:/usr/include/c++/9.1.0/bits/basic_ios.h ****       { return this->fail(); }
 127:/usr/include/c++/9.1.0/bits/basic_ios.h ****       //@}
 128:/usr/include/c++/9.1.0/bits/basic_ios.h **** 
 129:/usr/include/c++/9.1.0/bits/basic_ios.h ****       /**
 130:/usr/include/c++/9.1.0/bits/basic_ios.h ****        *  @brief  Returns the error state of the stream buffer.
GAS LISTING /tmp/cc6iEGVT.s 			page 47


 131:/usr/include/c++/9.1.0/bits/basic_ios.h ****        *  @return  A bit pattern (well, isn't everything?)
 132:/usr/include/c++/9.1.0/bits/basic_ios.h ****        *
 133:/usr/include/c++/9.1.0/bits/basic_ios.h ****        *  See std::ios_base::iostate for the possible bit values.  Most
 134:/usr/include/c++/9.1.0/bits/basic_ios.h ****        *  users will call one of the interpreting wrappers, e.g., good().
 135:/usr/include/c++/9.1.0/bits/basic_ios.h ****       */
 136:/usr/include/c++/9.1.0/bits/basic_ios.h ****       iostate
 137:/usr/include/c++/9.1.0/bits/basic_ios.h ****       rdstate() const
 138:/usr/include/c++/9.1.0/bits/basic_ios.h ****       { return _M_streambuf_state; }
 139:/usr/include/c++/9.1.0/bits/basic_ios.h **** 
 140:/usr/include/c++/9.1.0/bits/basic_ios.h ****       /**
 141:/usr/include/c++/9.1.0/bits/basic_ios.h ****        *  @brief  [Re]sets the error state.
 142:/usr/include/c++/9.1.0/bits/basic_ios.h ****        *  @param  __state  The new state flag(s) to set.
 143:/usr/include/c++/9.1.0/bits/basic_ios.h ****        *
 144:/usr/include/c++/9.1.0/bits/basic_ios.h ****        *  See std::ios_base::iostate for the possible bit values.  Most
 145:/usr/include/c++/9.1.0/bits/basic_ios.h ****        *  users will not need to pass an argument.
 146:/usr/include/c++/9.1.0/bits/basic_ios.h ****       */
 147:/usr/include/c++/9.1.0/bits/basic_ios.h ****       void
 148:/usr/include/c++/9.1.0/bits/basic_ios.h ****       clear(iostate __state = goodbit);
 149:/usr/include/c++/9.1.0/bits/basic_ios.h **** 
 150:/usr/include/c++/9.1.0/bits/basic_ios.h ****       /**
 151:/usr/include/c++/9.1.0/bits/basic_ios.h ****        *  @brief  Sets additional flags in the error state.
 152:/usr/include/c++/9.1.0/bits/basic_ios.h ****        *  @param  __state  The additional state flag(s) to set.
 153:/usr/include/c++/9.1.0/bits/basic_ios.h ****        *
 154:/usr/include/c++/9.1.0/bits/basic_ios.h ****        *  See std::ios_base::iostate for the possible bit values.
 155:/usr/include/c++/9.1.0/bits/basic_ios.h ****       */
 156:/usr/include/c++/9.1.0/bits/basic_ios.h ****       void
 157:/usr/include/c++/9.1.0/bits/basic_ios.h ****       setstate(iostate __state)
 158:/usr/include/c++/9.1.0/bits/basic_ios.h ****       { this->clear(this->rdstate() | __state); }
 159:/usr/include/c++/9.1.0/bits/basic_ios.h **** 
 160:/usr/include/c++/9.1.0/bits/basic_ios.h ****       // Flip the internal state on for the proper state bits, then
 161:/usr/include/c++/9.1.0/bits/basic_ios.h ****       // rethrows the propagated exception if bit also set in
 162:/usr/include/c++/9.1.0/bits/basic_ios.h ****       // exceptions().
 163:/usr/include/c++/9.1.0/bits/basic_ios.h ****       void
 164:/usr/include/c++/9.1.0/bits/basic_ios.h ****       _M_setstate(iostate __state)
 165:/usr/include/c++/9.1.0/bits/basic_ios.h ****       {
 166:/usr/include/c++/9.1.0/bits/basic_ios.h **** 	// 27.6.1.2.1 Common requirements.
 167:/usr/include/c++/9.1.0/bits/basic_ios.h **** 	// Turn this on without causing an ios::failure to be thrown.
 168:/usr/include/c++/9.1.0/bits/basic_ios.h **** 	_M_streambuf_state |= __state;
 169:/usr/include/c++/9.1.0/bits/basic_ios.h **** 	if (this->exceptions() & __state)
 170:/usr/include/c++/9.1.0/bits/basic_ios.h **** 	  __throw_exception_again;
 171:/usr/include/c++/9.1.0/bits/basic_ios.h ****       }
 172:/usr/include/c++/9.1.0/bits/basic_ios.h **** 
 173:/usr/include/c++/9.1.0/bits/basic_ios.h ****       /**
 174:/usr/include/c++/9.1.0/bits/basic_ios.h ****        *  @brief  Fast error checking.
 175:/usr/include/c++/9.1.0/bits/basic_ios.h ****        *  @return  True if no error flags are set.
 176:/usr/include/c++/9.1.0/bits/basic_ios.h ****        *
 177:/usr/include/c++/9.1.0/bits/basic_ios.h ****        *  A wrapper around rdstate.
 178:/usr/include/c++/9.1.0/bits/basic_ios.h ****       */
 179:/usr/include/c++/9.1.0/bits/basic_ios.h ****       bool
 180:/usr/include/c++/9.1.0/bits/basic_ios.h ****       good() const
 181:/usr/include/c++/9.1.0/bits/basic_ios.h ****       { return this->rdstate() == 0; }
 182:/usr/include/c++/9.1.0/bits/basic_ios.h **** 
 183:/usr/include/c++/9.1.0/bits/basic_ios.h ****       /**
 184:/usr/include/c++/9.1.0/bits/basic_ios.h ****        *  @brief  Fast error checking.
 185:/usr/include/c++/9.1.0/bits/basic_ios.h ****        *  @return  True if the eofbit is set.
 186:/usr/include/c++/9.1.0/bits/basic_ios.h ****        *
 187:/usr/include/c++/9.1.0/bits/basic_ios.h ****        *  Note that other iostate flags may also be set.
GAS LISTING /tmp/cc6iEGVT.s 			page 48


 188:/usr/include/c++/9.1.0/bits/basic_ios.h ****       */
 189:/usr/include/c++/9.1.0/bits/basic_ios.h ****       bool
 190:/usr/include/c++/9.1.0/bits/basic_ios.h ****       eof() const
 191:/usr/include/c++/9.1.0/bits/basic_ios.h ****       { return (this->rdstate() & eofbit) != 0; }
 192:/usr/include/c++/9.1.0/bits/basic_ios.h **** 
 193:/usr/include/c++/9.1.0/bits/basic_ios.h ****       /**
 194:/usr/include/c++/9.1.0/bits/basic_ios.h ****        *  @brief  Fast error checking.
 195:/usr/include/c++/9.1.0/bits/basic_ios.h ****        *  @return  True if either the badbit or the failbit is set.
 196:/usr/include/c++/9.1.0/bits/basic_ios.h ****        *
 197:/usr/include/c++/9.1.0/bits/basic_ios.h ****        *  Checking the badbit in fail() is historical practice.
 198:/usr/include/c++/9.1.0/bits/basic_ios.h ****        *  Note that other iostate flags may also be set.
 199:/usr/include/c++/9.1.0/bits/basic_ios.h ****       */
 200:/usr/include/c++/9.1.0/bits/basic_ios.h ****       bool
 201:/usr/include/c++/9.1.0/bits/basic_ios.h ****       fail() const
 202:/usr/include/c++/9.1.0/bits/basic_ios.h ****       { return (this->rdstate() & (badbit | failbit)) != 0; }
 203:/usr/include/c++/9.1.0/bits/basic_ios.h **** 
 204:/usr/include/c++/9.1.0/bits/basic_ios.h ****       /**
 205:/usr/include/c++/9.1.0/bits/basic_ios.h ****        *  @brief  Fast error checking.
 206:/usr/include/c++/9.1.0/bits/basic_ios.h ****        *  @return  True if the badbit is set.
 207:/usr/include/c++/9.1.0/bits/basic_ios.h ****        *
 208:/usr/include/c++/9.1.0/bits/basic_ios.h ****        *  Note that other iostate flags may also be set.
 209:/usr/include/c++/9.1.0/bits/basic_ios.h ****       */
 210:/usr/include/c++/9.1.0/bits/basic_ios.h ****       bool
 211:/usr/include/c++/9.1.0/bits/basic_ios.h ****       bad() const
 212:/usr/include/c++/9.1.0/bits/basic_ios.h ****       { return (this->rdstate() & badbit) != 0; }
 213:/usr/include/c++/9.1.0/bits/basic_ios.h **** 
 214:/usr/include/c++/9.1.0/bits/basic_ios.h ****       /**
 215:/usr/include/c++/9.1.0/bits/basic_ios.h ****        *  @brief  Throwing exceptions on errors.
 216:/usr/include/c++/9.1.0/bits/basic_ios.h ****        *  @return  The current exceptions mask.
 217:/usr/include/c++/9.1.0/bits/basic_ios.h ****        *
 218:/usr/include/c++/9.1.0/bits/basic_ios.h ****        *  This changes nothing in the stream.  See the one-argument version
 219:/usr/include/c++/9.1.0/bits/basic_ios.h ****        *  of exceptions(iostate) for the meaning of the return value.
 220:/usr/include/c++/9.1.0/bits/basic_ios.h ****       */
 221:/usr/include/c++/9.1.0/bits/basic_ios.h ****       iostate
 222:/usr/include/c++/9.1.0/bits/basic_ios.h ****       exceptions() const
 223:/usr/include/c++/9.1.0/bits/basic_ios.h ****       { return _M_exception; }
 224:/usr/include/c++/9.1.0/bits/basic_ios.h **** 
 225:/usr/include/c++/9.1.0/bits/basic_ios.h ****       /**
 226:/usr/include/c++/9.1.0/bits/basic_ios.h ****        *  @brief  Throwing exceptions on errors.
 227:/usr/include/c++/9.1.0/bits/basic_ios.h ****        *  @param  __except  The new exceptions mask.
 228:/usr/include/c++/9.1.0/bits/basic_ios.h ****        *
 229:/usr/include/c++/9.1.0/bits/basic_ios.h ****        *  By default, error flags are set silently.  You can set an
 230:/usr/include/c++/9.1.0/bits/basic_ios.h ****        *  exceptions mask for each stream; if a bit in the mask becomes set
 231:/usr/include/c++/9.1.0/bits/basic_ios.h ****        *  in the error flags, then an exception of type
 232:/usr/include/c++/9.1.0/bits/basic_ios.h ****        *  std::ios_base::failure is thrown.
 233:/usr/include/c++/9.1.0/bits/basic_ios.h ****        *
 234:/usr/include/c++/9.1.0/bits/basic_ios.h ****        *  If the error flag is already set when the exceptions mask is
 235:/usr/include/c++/9.1.0/bits/basic_ios.h ****        *  added, the exception is immediately thrown.  Try running the
 236:/usr/include/c++/9.1.0/bits/basic_ios.h ****        *  following under GCC 3.1 or later:
 237:/usr/include/c++/9.1.0/bits/basic_ios.h ****        *  @code
 238:/usr/include/c++/9.1.0/bits/basic_ios.h ****        *  #include <iostream>
 239:/usr/include/c++/9.1.0/bits/basic_ios.h ****        *  #include <fstream>
 240:/usr/include/c++/9.1.0/bits/basic_ios.h ****        *  #include <exception>
 241:/usr/include/c++/9.1.0/bits/basic_ios.h ****        *
 242:/usr/include/c++/9.1.0/bits/basic_ios.h ****        *  int main()
 243:/usr/include/c++/9.1.0/bits/basic_ios.h ****        *  {
 244:/usr/include/c++/9.1.0/bits/basic_ios.h ****        *      std::set_terminate (__gnu_cxx::__verbose_terminate_handler);
GAS LISTING /tmp/cc6iEGVT.s 			page 49


 245:/usr/include/c++/9.1.0/bits/basic_ios.h ****        *
 246:/usr/include/c++/9.1.0/bits/basic_ios.h ****        *      std::ifstream f ("/etc/motd");
 247:/usr/include/c++/9.1.0/bits/basic_ios.h ****        *
 248:/usr/include/c++/9.1.0/bits/basic_ios.h ****        *      std::cerr << "Setting badbit\n";
 249:/usr/include/c++/9.1.0/bits/basic_ios.h ****        *      f.setstate (std::ios_base::badbit);
 250:/usr/include/c++/9.1.0/bits/basic_ios.h ****        *
 251:/usr/include/c++/9.1.0/bits/basic_ios.h ****        *      std::cerr << "Setting exception mask\n";
 252:/usr/include/c++/9.1.0/bits/basic_ios.h ****        *      f.exceptions (std::ios_base::badbit);
 253:/usr/include/c++/9.1.0/bits/basic_ios.h ****        *  }
 254:/usr/include/c++/9.1.0/bits/basic_ios.h ****        *  @endcode
 255:/usr/include/c++/9.1.0/bits/basic_ios.h ****       */
 256:/usr/include/c++/9.1.0/bits/basic_ios.h ****       void
 257:/usr/include/c++/9.1.0/bits/basic_ios.h ****       exceptions(iostate __except)
 258:/usr/include/c++/9.1.0/bits/basic_ios.h ****       {
 259:/usr/include/c++/9.1.0/bits/basic_ios.h ****         _M_exception = __except;
 260:/usr/include/c++/9.1.0/bits/basic_ios.h ****         this->clear(_M_streambuf_state);
 261:/usr/include/c++/9.1.0/bits/basic_ios.h ****       }
 262:/usr/include/c++/9.1.0/bits/basic_ios.h **** 
 263:/usr/include/c++/9.1.0/bits/basic_ios.h ****       // Constructor/destructor:
 264:/usr/include/c++/9.1.0/bits/basic_ios.h ****       /**
 265:/usr/include/c++/9.1.0/bits/basic_ios.h ****        *  @brief  Constructor performs initialization.
 266:/usr/include/c++/9.1.0/bits/basic_ios.h ****        *
 267:/usr/include/c++/9.1.0/bits/basic_ios.h ****        *  The parameter is passed by derived streams.
 268:/usr/include/c++/9.1.0/bits/basic_ios.h ****       */
 269:/usr/include/c++/9.1.0/bits/basic_ios.h ****       explicit
 270:/usr/include/c++/9.1.0/bits/basic_ios.h ****       basic_ios(basic_streambuf<_CharT, _Traits>* __sb)
 271:/usr/include/c++/9.1.0/bits/basic_ios.h ****       : ios_base(), _M_tie(0), _M_fill(), _M_fill_init(false), _M_streambuf(0),
 272:/usr/include/c++/9.1.0/bits/basic_ios.h **** 	_M_ctype(0), _M_num_put(0), _M_num_get(0)
 273:/usr/include/c++/9.1.0/bits/basic_ios.h ****       { this->init(__sb); }
 274:/usr/include/c++/9.1.0/bits/basic_ios.h **** 
 275:/usr/include/c++/9.1.0/bits/basic_ios.h ****       /**
 276:/usr/include/c++/9.1.0/bits/basic_ios.h ****        *  @brief  Empty.
 277:/usr/include/c++/9.1.0/bits/basic_ios.h ****        *
 278:/usr/include/c++/9.1.0/bits/basic_ios.h ****        *  The destructor does nothing.  More specifically, it does not
 279:/usr/include/c++/9.1.0/bits/basic_ios.h ****        *  destroy the streambuf held by rdbuf().
 280:/usr/include/c++/9.1.0/bits/basic_ios.h ****       */
 281:/usr/include/c++/9.1.0/bits/basic_ios.h ****       virtual
 282:/usr/include/c++/9.1.0/bits/basic_ios.h ****       ~basic_ios() { }
 283:/usr/include/c++/9.1.0/bits/basic_ios.h **** 
 284:/usr/include/c++/9.1.0/bits/basic_ios.h ****       // Members:
 285:/usr/include/c++/9.1.0/bits/basic_ios.h ****       /**
 286:/usr/include/c++/9.1.0/bits/basic_ios.h ****        *  @brief  Fetches the current @e tied stream.
 287:/usr/include/c++/9.1.0/bits/basic_ios.h ****        *  @return  A pointer to the tied stream, or NULL if the stream is
 288:/usr/include/c++/9.1.0/bits/basic_ios.h ****        *           not tied.
 289:/usr/include/c++/9.1.0/bits/basic_ios.h ****        *
 290:/usr/include/c++/9.1.0/bits/basic_ios.h ****        *  A stream may be @e tied (or synchronized) to a second output
 291:/usr/include/c++/9.1.0/bits/basic_ios.h ****        *  stream.  When this stream performs any I/O, the tied stream is
 292:/usr/include/c++/9.1.0/bits/basic_ios.h ****        *  first flushed.  For example, @c std::cin is tied to @c std::cout.
 293:/usr/include/c++/9.1.0/bits/basic_ios.h ****       */
 294:/usr/include/c++/9.1.0/bits/basic_ios.h ****       basic_ostream<_CharT, _Traits>*
 295:/usr/include/c++/9.1.0/bits/basic_ios.h ****       tie() const
 296:/usr/include/c++/9.1.0/bits/basic_ios.h ****       { return _M_tie; }
 297:/usr/include/c++/9.1.0/bits/basic_ios.h **** 
 298:/usr/include/c++/9.1.0/bits/basic_ios.h ****       /**
 299:/usr/include/c++/9.1.0/bits/basic_ios.h ****        *  @brief  Ties this stream to an output stream.
 300:/usr/include/c++/9.1.0/bits/basic_ios.h ****        *  @param  __tiestr  The output stream.
 301:/usr/include/c++/9.1.0/bits/basic_ios.h ****        *  @return  The previously tied output stream, or NULL if the stream
GAS LISTING /tmp/cc6iEGVT.s 			page 50


 302:/usr/include/c++/9.1.0/bits/basic_ios.h ****        *           was not tied.
 303:/usr/include/c++/9.1.0/bits/basic_ios.h ****        *
 304:/usr/include/c++/9.1.0/bits/basic_ios.h ****        *  This sets up a new tie; see tie() for more.
 305:/usr/include/c++/9.1.0/bits/basic_ios.h ****       */
 306:/usr/include/c++/9.1.0/bits/basic_ios.h ****       basic_ostream<_CharT, _Traits>*
 307:/usr/include/c++/9.1.0/bits/basic_ios.h ****       tie(basic_ostream<_CharT, _Traits>* __tiestr)
 308:/usr/include/c++/9.1.0/bits/basic_ios.h ****       {
 309:/usr/include/c++/9.1.0/bits/basic_ios.h ****         basic_ostream<_CharT, _Traits>* __old = _M_tie;
 310:/usr/include/c++/9.1.0/bits/basic_ios.h ****         _M_tie = __tiestr;
 311:/usr/include/c++/9.1.0/bits/basic_ios.h ****         return __old;
 312:/usr/include/c++/9.1.0/bits/basic_ios.h ****       }
 313:/usr/include/c++/9.1.0/bits/basic_ios.h **** 
 314:/usr/include/c++/9.1.0/bits/basic_ios.h ****       /**
 315:/usr/include/c++/9.1.0/bits/basic_ios.h ****        *  @brief  Accessing the underlying buffer.
 316:/usr/include/c++/9.1.0/bits/basic_ios.h ****        *  @return  The current stream buffer.
 317:/usr/include/c++/9.1.0/bits/basic_ios.h ****        *
 318:/usr/include/c++/9.1.0/bits/basic_ios.h ****        *  This does not change the state of the stream.
 319:/usr/include/c++/9.1.0/bits/basic_ios.h ****       */
 320:/usr/include/c++/9.1.0/bits/basic_ios.h ****       basic_streambuf<_CharT, _Traits>*
 321:/usr/include/c++/9.1.0/bits/basic_ios.h ****       rdbuf() const
 322:/usr/include/c++/9.1.0/bits/basic_ios.h ****       { return _M_streambuf; }
 323:/usr/include/c++/9.1.0/bits/basic_ios.h **** 
 324:/usr/include/c++/9.1.0/bits/basic_ios.h ****       /**
 325:/usr/include/c++/9.1.0/bits/basic_ios.h ****        *  @brief  Changing the underlying buffer.
 326:/usr/include/c++/9.1.0/bits/basic_ios.h ****        *  @param  __sb  The new stream buffer.
 327:/usr/include/c++/9.1.0/bits/basic_ios.h ****        *  @return  The previous stream buffer.
 328:/usr/include/c++/9.1.0/bits/basic_ios.h ****        *
 329:/usr/include/c++/9.1.0/bits/basic_ios.h ****        *  Associates a new buffer with the current stream, and clears the
 330:/usr/include/c++/9.1.0/bits/basic_ios.h ****        *  error state.
 331:/usr/include/c++/9.1.0/bits/basic_ios.h ****        *
 332:/usr/include/c++/9.1.0/bits/basic_ios.h ****        *  Due to historical accidents which the LWG refuses to correct, the
 333:/usr/include/c++/9.1.0/bits/basic_ios.h ****        *  I/O library suffers from a design error:  this function is hidden
 334:/usr/include/c++/9.1.0/bits/basic_ios.h ****        *  in derived classes by overrides of the zero-argument @c rdbuf(),
 335:/usr/include/c++/9.1.0/bits/basic_ios.h ****        *  which is non-virtual for hysterical raisins.  As a result, you
 336:/usr/include/c++/9.1.0/bits/basic_ios.h ****        *  must use explicit qualifications to access this function via any
 337:/usr/include/c++/9.1.0/bits/basic_ios.h ****        *  derived class.  For example:
 338:/usr/include/c++/9.1.0/bits/basic_ios.h ****        *
 339:/usr/include/c++/9.1.0/bits/basic_ios.h ****        *  @code
 340:/usr/include/c++/9.1.0/bits/basic_ios.h ****        *  std::fstream     foo;         // or some other derived type
 341:/usr/include/c++/9.1.0/bits/basic_ios.h ****        *  std::streambuf*  p = .....;
 342:/usr/include/c++/9.1.0/bits/basic_ios.h ****        *
 343:/usr/include/c++/9.1.0/bits/basic_ios.h ****        *  foo.ios::rdbuf(p);            // ios == basic_ios<char>
 344:/usr/include/c++/9.1.0/bits/basic_ios.h ****        *  @endcode
 345:/usr/include/c++/9.1.0/bits/basic_ios.h ****       */
 346:/usr/include/c++/9.1.0/bits/basic_ios.h ****       basic_streambuf<_CharT, _Traits>*
 347:/usr/include/c++/9.1.0/bits/basic_ios.h ****       rdbuf(basic_streambuf<_CharT, _Traits>* __sb);
 348:/usr/include/c++/9.1.0/bits/basic_ios.h **** 
 349:/usr/include/c++/9.1.0/bits/basic_ios.h ****       /**
 350:/usr/include/c++/9.1.0/bits/basic_ios.h ****        *  @brief  Copies fields of __rhs into this.
 351:/usr/include/c++/9.1.0/bits/basic_ios.h ****        *  @param  __rhs  The source values for the copies.
 352:/usr/include/c++/9.1.0/bits/basic_ios.h ****        *  @return  Reference to this object.
 353:/usr/include/c++/9.1.0/bits/basic_ios.h ****        *
 354:/usr/include/c++/9.1.0/bits/basic_ios.h ****        *  All fields of __rhs are copied into this object except that rdbuf()
 355:/usr/include/c++/9.1.0/bits/basic_ios.h ****        *  and rdstate() remain unchanged.  All values in the pword and iword
 356:/usr/include/c++/9.1.0/bits/basic_ios.h ****        *  arrays are copied.  Before copying, each callback is invoked with
 357:/usr/include/c++/9.1.0/bits/basic_ios.h ****        *  erase_event.  After copying, each (new) callback is invoked with
 358:/usr/include/c++/9.1.0/bits/basic_ios.h ****        *  copyfmt_event.  The final step is to copy exceptions().
GAS LISTING /tmp/cc6iEGVT.s 			page 51


 359:/usr/include/c++/9.1.0/bits/basic_ios.h ****       */
 360:/usr/include/c++/9.1.0/bits/basic_ios.h ****       basic_ios&
 361:/usr/include/c++/9.1.0/bits/basic_ios.h ****       copyfmt(const basic_ios& __rhs);
 362:/usr/include/c++/9.1.0/bits/basic_ios.h **** 
 363:/usr/include/c++/9.1.0/bits/basic_ios.h ****       /**
 364:/usr/include/c++/9.1.0/bits/basic_ios.h ****        *  @brief  Retrieves the @a empty character.
 365:/usr/include/c++/9.1.0/bits/basic_ios.h ****        *  @return  The current fill character.
 366:/usr/include/c++/9.1.0/bits/basic_ios.h ****        *
 367:/usr/include/c++/9.1.0/bits/basic_ios.h ****        *  It defaults to a space (' ') in the current locale.
 368:/usr/include/c++/9.1.0/bits/basic_ios.h ****       */
 369:/usr/include/c++/9.1.0/bits/basic_ios.h ****       char_type
 370:/usr/include/c++/9.1.0/bits/basic_ios.h ****       fill() const
 371:/usr/include/c++/9.1.0/bits/basic_ios.h ****       {
 372:/usr/include/c++/9.1.0/bits/basic_ios.h **** 	if (!_M_fill_init)
 373:/usr/include/c++/9.1.0/bits/basic_ios.h **** 	  {
 374:/usr/include/c++/9.1.0/bits/basic_ios.h **** 	    _M_fill = this->widen(' ');
 375:/usr/include/c++/9.1.0/bits/basic_ios.h **** 	    _M_fill_init = true;
 376:/usr/include/c++/9.1.0/bits/basic_ios.h **** 	  }
 377:/usr/include/c++/9.1.0/bits/basic_ios.h **** 	return _M_fill;
 378:/usr/include/c++/9.1.0/bits/basic_ios.h ****       }
 379:/usr/include/c++/9.1.0/bits/basic_ios.h **** 
 380:/usr/include/c++/9.1.0/bits/basic_ios.h ****       /**
 381:/usr/include/c++/9.1.0/bits/basic_ios.h ****        *  @brief  Sets a new @a empty character.
 382:/usr/include/c++/9.1.0/bits/basic_ios.h ****        *  @param  __ch  The new character.
 383:/usr/include/c++/9.1.0/bits/basic_ios.h ****        *  @return  The previous fill character.
 384:/usr/include/c++/9.1.0/bits/basic_ios.h ****        *
 385:/usr/include/c++/9.1.0/bits/basic_ios.h ****        *  The fill character is used to fill out space when P+ characters
 386:/usr/include/c++/9.1.0/bits/basic_ios.h ****        *  have been requested (e.g., via setw), Q characters are actually
 387:/usr/include/c++/9.1.0/bits/basic_ios.h ****        *  used, and Q<P.  It defaults to a space (' ') in the current locale.
 388:/usr/include/c++/9.1.0/bits/basic_ios.h ****       */
 389:/usr/include/c++/9.1.0/bits/basic_ios.h ****       char_type
 390:/usr/include/c++/9.1.0/bits/basic_ios.h ****       fill(char_type __ch)
 391:/usr/include/c++/9.1.0/bits/basic_ios.h ****       {
 392:/usr/include/c++/9.1.0/bits/basic_ios.h **** 	char_type __old = this->fill();
 393:/usr/include/c++/9.1.0/bits/basic_ios.h **** 	_M_fill = __ch;
 394:/usr/include/c++/9.1.0/bits/basic_ios.h **** 	return __old;
 395:/usr/include/c++/9.1.0/bits/basic_ios.h ****       }
 396:/usr/include/c++/9.1.0/bits/basic_ios.h **** 
 397:/usr/include/c++/9.1.0/bits/basic_ios.h ****       // Locales:
 398:/usr/include/c++/9.1.0/bits/basic_ios.h ****       /**
 399:/usr/include/c++/9.1.0/bits/basic_ios.h ****        *  @brief  Moves to a new locale.
 400:/usr/include/c++/9.1.0/bits/basic_ios.h ****        *  @param  __loc  The new locale.
 401:/usr/include/c++/9.1.0/bits/basic_ios.h ****        *  @return  The previous locale.
 402:/usr/include/c++/9.1.0/bits/basic_ios.h ****        *
 403:/usr/include/c++/9.1.0/bits/basic_ios.h ****        *  Calls @c ios_base::imbue(loc), and if a stream buffer is associated
 404:/usr/include/c++/9.1.0/bits/basic_ios.h ****        *  with this stream, calls that buffer's @c pubimbue(loc).
 405:/usr/include/c++/9.1.0/bits/basic_ios.h ****        *
 406:/usr/include/c++/9.1.0/bits/basic_ios.h ****        *  Additional l10n notes are at
 407:/usr/include/c++/9.1.0/bits/basic_ios.h ****        *  http://gcc.gnu.org/onlinedocs/libstdc++/manual/localization.html
 408:/usr/include/c++/9.1.0/bits/basic_ios.h ****       */
 409:/usr/include/c++/9.1.0/bits/basic_ios.h ****       locale
 410:/usr/include/c++/9.1.0/bits/basic_ios.h ****       imbue(const locale& __loc);
 411:/usr/include/c++/9.1.0/bits/basic_ios.h **** 
 412:/usr/include/c++/9.1.0/bits/basic_ios.h ****       /**
 413:/usr/include/c++/9.1.0/bits/basic_ios.h ****        *  @brief  Squeezes characters.
 414:/usr/include/c++/9.1.0/bits/basic_ios.h ****        *  @param  __c  The character to narrow.
 415:/usr/include/c++/9.1.0/bits/basic_ios.h ****        *  @param  __dfault  The character to narrow.
GAS LISTING /tmp/cc6iEGVT.s 			page 52


 416:/usr/include/c++/9.1.0/bits/basic_ios.h ****        *  @return  The narrowed character.
 417:/usr/include/c++/9.1.0/bits/basic_ios.h ****        *
 418:/usr/include/c++/9.1.0/bits/basic_ios.h ****        *  Maps a character of @c char_type to a character of @c char,
 419:/usr/include/c++/9.1.0/bits/basic_ios.h ****        *  if possible.
 420:/usr/include/c++/9.1.0/bits/basic_ios.h ****        *
 421:/usr/include/c++/9.1.0/bits/basic_ios.h ****        *  Returns the result of
 422:/usr/include/c++/9.1.0/bits/basic_ios.h ****        *  @code
 423:/usr/include/c++/9.1.0/bits/basic_ios.h ****        *    std::use_facet<ctype<char_type> >(getloc()).narrow(c,dfault)
 424:/usr/include/c++/9.1.0/bits/basic_ios.h ****        *  @endcode
 425:/usr/include/c++/9.1.0/bits/basic_ios.h ****        *
 426:/usr/include/c++/9.1.0/bits/basic_ios.h ****        *  Additional l10n notes are at
 427:/usr/include/c++/9.1.0/bits/basic_ios.h ****        *  http://gcc.gnu.org/onlinedocs/libstdc++/manual/localization.html
 428:/usr/include/c++/9.1.0/bits/basic_ios.h ****       */
 429:/usr/include/c++/9.1.0/bits/basic_ios.h ****       char
 430:/usr/include/c++/9.1.0/bits/basic_ios.h ****       narrow(char_type __c, char __dfault) const
 431:/usr/include/c++/9.1.0/bits/basic_ios.h ****       { return __check_facet(_M_ctype).narrow(__c, __dfault); }
 432:/usr/include/c++/9.1.0/bits/basic_ios.h **** 
 433:/usr/include/c++/9.1.0/bits/basic_ios.h ****       /**
 434:/usr/include/c++/9.1.0/bits/basic_ios.h ****        *  @brief  Widens characters.
 435:/usr/include/c++/9.1.0/bits/basic_ios.h ****        *  @param  __c  The character to widen.
 436:/usr/include/c++/9.1.0/bits/basic_ios.h ****        *  @return  The widened character.
 437:/usr/include/c++/9.1.0/bits/basic_ios.h ****        *
 438:/usr/include/c++/9.1.0/bits/basic_ios.h ****        *  Maps a character of @c char to a character of @c char_type.
 439:/usr/include/c++/9.1.0/bits/basic_ios.h ****        *
 440:/usr/include/c++/9.1.0/bits/basic_ios.h ****        *  Returns the result of
 441:/usr/include/c++/9.1.0/bits/basic_ios.h ****        *  @code
 442:/usr/include/c++/9.1.0/bits/basic_ios.h ****        *    std::use_facet<ctype<char_type> >(getloc()).widen(c)
 443:/usr/include/c++/9.1.0/bits/basic_ios.h ****        *  @endcode
 444:/usr/include/c++/9.1.0/bits/basic_ios.h ****        *
 445:/usr/include/c++/9.1.0/bits/basic_ios.h ****        *  Additional l10n notes are at
 446:/usr/include/c++/9.1.0/bits/basic_ios.h ****        *  http://gcc.gnu.org/onlinedocs/libstdc++/manual/localization.html
 447:/usr/include/c++/9.1.0/bits/basic_ios.h ****       */
 448:/usr/include/c++/9.1.0/bits/basic_ios.h ****       char_type
 449:/usr/include/c++/9.1.0/bits/basic_ios.h ****       widen(char __c) const
 630              		.loc 6 449 7 is_stmt 1 view .LVU174
 631              	.LBB219:
 450:/usr/include/c++/9.1.0/bits/basic_ios.h ****       { return __check_facet(_M_ctype).widen(__c); }
 632              		.loc 6 450 30 is_stmt 0 view .LVU175
 633 03c0 4C8BAFF0 		movq	240(%rdi), %r13
 633      000000
 634              	.LVL49:
 635              	.LBB220:
 636              	.LBI220:
  47:/usr/include/c++/9.1.0/bits/basic_ios.h ****     {
 637              		.loc 6 47 5 is_stmt 1 view .LVU176
 638              	.LBB221:
  49:/usr/include/c++/9.1.0/bits/basic_ios.h **** 	__throw_bad_cast();
 639              		.loc 6 49 7 is_stmt 0 view .LVU177
 640 03c7 4D85ED   		testq	%r13, %r13
 641 03ca 743C     		je	.L66
 642              	.LVL50:
  49:/usr/include/c++/9.1.0/bits/basic_ios.h **** 	__throw_bad_cast();
 643              		.loc 6 49 7 view .LVU178
 644              	.LBE221:
 645              	.LBE220:
 646              	.LBB223:
 647              	.LBI223:
GAS LISTING /tmp/cc6iEGVT.s 			page 53


 648              		.file 7 "/usr/include/c++/9.1.0/bits/locale_facets.h"
   1:/usr/include/c++/9.1.0/bits/locale_facets.h **** // Locale support -*- C++ -*-
   2:/usr/include/c++/9.1.0/bits/locale_facets.h **** 
   3:/usr/include/c++/9.1.0/bits/locale_facets.h **** // Copyright (C) 1997-2019 Free Software Foundation, Inc.
   4:/usr/include/c++/9.1.0/bits/locale_facets.h **** //
   5:/usr/include/c++/9.1.0/bits/locale_facets.h **** // This file is part of the GNU ISO C++ Library.  This library is free
   6:/usr/include/c++/9.1.0/bits/locale_facets.h **** // software; you can redistribute it and/or modify it under the
   7:/usr/include/c++/9.1.0/bits/locale_facets.h **** // terms of the GNU General Public License as published by the
   8:/usr/include/c++/9.1.0/bits/locale_facets.h **** // Free Software Foundation; either version 3, or (at your option)
   9:/usr/include/c++/9.1.0/bits/locale_facets.h **** // any later version.
  10:/usr/include/c++/9.1.0/bits/locale_facets.h **** 
  11:/usr/include/c++/9.1.0/bits/locale_facets.h **** // This library is distributed in the hope that it will be useful,
  12:/usr/include/c++/9.1.0/bits/locale_facets.h **** // but WITHOUT ANY WARRANTY; without even the implied warranty of
  13:/usr/include/c++/9.1.0/bits/locale_facets.h **** // MERCHANTABILITY or FITNESS FOR A PARTICULAR PURPOSE.  See the
  14:/usr/include/c++/9.1.0/bits/locale_facets.h **** // GNU General Public License for more details.
  15:/usr/include/c++/9.1.0/bits/locale_facets.h **** 
  16:/usr/include/c++/9.1.0/bits/locale_facets.h **** // Under Section 7 of GPL version 3, you are granted additional
  17:/usr/include/c++/9.1.0/bits/locale_facets.h **** // permissions described in the GCC Runtime Library Exception, version
  18:/usr/include/c++/9.1.0/bits/locale_facets.h **** // 3.1, as published by the Free Software Foundation.
  19:/usr/include/c++/9.1.0/bits/locale_facets.h **** 
  20:/usr/include/c++/9.1.0/bits/locale_facets.h **** // You should have received a copy of the GNU General Public License and
  21:/usr/include/c++/9.1.0/bits/locale_facets.h **** // a copy of the GCC Runtime Library Exception along with this program;
  22:/usr/include/c++/9.1.0/bits/locale_facets.h **** // see the files COPYING3 and COPYING.RUNTIME respectively.  If not, see
  23:/usr/include/c++/9.1.0/bits/locale_facets.h **** // <http://www.gnu.org/licenses/>.
  24:/usr/include/c++/9.1.0/bits/locale_facets.h **** 
  25:/usr/include/c++/9.1.0/bits/locale_facets.h **** /** @file bits/locale_facets.h
  26:/usr/include/c++/9.1.0/bits/locale_facets.h ****  *  This is an internal header file, included by other library headers.
  27:/usr/include/c++/9.1.0/bits/locale_facets.h ****  *  Do not attempt to use it directly. @headername{locale}
  28:/usr/include/c++/9.1.0/bits/locale_facets.h ****  */
  29:/usr/include/c++/9.1.0/bits/locale_facets.h **** 
  30:/usr/include/c++/9.1.0/bits/locale_facets.h **** //
  31:/usr/include/c++/9.1.0/bits/locale_facets.h **** // ISO C++ 14882: 22.1  Locales
  32:/usr/include/c++/9.1.0/bits/locale_facets.h **** //
  33:/usr/include/c++/9.1.0/bits/locale_facets.h **** 
  34:/usr/include/c++/9.1.0/bits/locale_facets.h **** #ifndef _LOCALE_FACETS_H
  35:/usr/include/c++/9.1.0/bits/locale_facets.h **** #define _LOCALE_FACETS_H 1
  36:/usr/include/c++/9.1.0/bits/locale_facets.h **** 
  37:/usr/include/c++/9.1.0/bits/locale_facets.h **** #pragma GCC system_header
  38:/usr/include/c++/9.1.0/bits/locale_facets.h **** 
  39:/usr/include/c++/9.1.0/bits/locale_facets.h **** #include <cwctype>	// For wctype_t
  40:/usr/include/c++/9.1.0/bits/locale_facets.h **** #include <cctype>
  41:/usr/include/c++/9.1.0/bits/locale_facets.h **** #include <bits/ctype_base.h>
  42:/usr/include/c++/9.1.0/bits/locale_facets.h **** #include <iosfwd>
  43:/usr/include/c++/9.1.0/bits/locale_facets.h **** #include <bits/ios_base.h>  // For ios_base, ios_base::iostate
  44:/usr/include/c++/9.1.0/bits/locale_facets.h **** #include <streambuf>
  45:/usr/include/c++/9.1.0/bits/locale_facets.h **** #include <bits/cpp_type_traits.h>
  46:/usr/include/c++/9.1.0/bits/locale_facets.h **** #include <ext/type_traits.h>
  47:/usr/include/c++/9.1.0/bits/locale_facets.h **** #include <ext/numeric_traits.h>
  48:/usr/include/c++/9.1.0/bits/locale_facets.h **** #include <bits/streambuf_iterator.h>
  49:/usr/include/c++/9.1.0/bits/locale_facets.h **** 
  50:/usr/include/c++/9.1.0/bits/locale_facets.h **** namespace std _GLIBCXX_VISIBILITY(default)
  51:/usr/include/c++/9.1.0/bits/locale_facets.h **** {
  52:/usr/include/c++/9.1.0/bits/locale_facets.h **** _GLIBCXX_BEGIN_NAMESPACE_VERSION
  53:/usr/include/c++/9.1.0/bits/locale_facets.h **** 
  54:/usr/include/c++/9.1.0/bits/locale_facets.h ****   // NB: Don't instantiate required wchar_t facets if no wchar_t support.
  55:/usr/include/c++/9.1.0/bits/locale_facets.h **** #ifdef _GLIBCXX_USE_WCHAR_T
  56:/usr/include/c++/9.1.0/bits/locale_facets.h **** # define  _GLIBCXX_NUM_FACETS 28
GAS LISTING /tmp/cc6iEGVT.s 			page 54


  57:/usr/include/c++/9.1.0/bits/locale_facets.h **** # define  _GLIBCXX_NUM_CXX11_FACETS 16
  58:/usr/include/c++/9.1.0/bits/locale_facets.h **** #else
  59:/usr/include/c++/9.1.0/bits/locale_facets.h **** # define  _GLIBCXX_NUM_FACETS 14
  60:/usr/include/c++/9.1.0/bits/locale_facets.h **** # define  _GLIBCXX_NUM_CXX11_FACETS 8
  61:/usr/include/c++/9.1.0/bits/locale_facets.h **** #endif
  62:/usr/include/c++/9.1.0/bits/locale_facets.h **** #ifdef _GLIBCXX_USE_CHAR8_T
  63:/usr/include/c++/9.1.0/bits/locale_facets.h **** # define _GLIBCXX_NUM_UNICODE_FACETS 4
  64:/usr/include/c++/9.1.0/bits/locale_facets.h **** #else
  65:/usr/include/c++/9.1.0/bits/locale_facets.h **** # define _GLIBCXX_NUM_UNICODE_FACETS 2
  66:/usr/include/c++/9.1.0/bits/locale_facets.h **** #endif
  67:/usr/include/c++/9.1.0/bits/locale_facets.h **** 
  68:/usr/include/c++/9.1.0/bits/locale_facets.h ****   // Convert string to numeric value of type _Tp and store results.
  69:/usr/include/c++/9.1.0/bits/locale_facets.h ****   // NB: This is specialized for all required types, there is no
  70:/usr/include/c++/9.1.0/bits/locale_facets.h ****   // generic definition.
  71:/usr/include/c++/9.1.0/bits/locale_facets.h ****   template<typename _Tp>
  72:/usr/include/c++/9.1.0/bits/locale_facets.h ****     void
  73:/usr/include/c++/9.1.0/bits/locale_facets.h ****     __convert_to_v(const char*, _Tp&, ios_base::iostate&,
  74:/usr/include/c++/9.1.0/bits/locale_facets.h **** 		   const __c_locale&) throw();
  75:/usr/include/c++/9.1.0/bits/locale_facets.h **** 
  76:/usr/include/c++/9.1.0/bits/locale_facets.h ****   // Explicit specializations for required types.
  77:/usr/include/c++/9.1.0/bits/locale_facets.h ****   template<>
  78:/usr/include/c++/9.1.0/bits/locale_facets.h ****     void
  79:/usr/include/c++/9.1.0/bits/locale_facets.h ****     __convert_to_v(const char*, float&, ios_base::iostate&,
  80:/usr/include/c++/9.1.0/bits/locale_facets.h **** 		   const __c_locale&) throw();
  81:/usr/include/c++/9.1.0/bits/locale_facets.h **** 
  82:/usr/include/c++/9.1.0/bits/locale_facets.h ****   template<>
  83:/usr/include/c++/9.1.0/bits/locale_facets.h ****     void
  84:/usr/include/c++/9.1.0/bits/locale_facets.h ****     __convert_to_v(const char*, double&, ios_base::iostate&,
  85:/usr/include/c++/9.1.0/bits/locale_facets.h **** 		   const __c_locale&) throw();
  86:/usr/include/c++/9.1.0/bits/locale_facets.h **** 
  87:/usr/include/c++/9.1.0/bits/locale_facets.h ****   template<>
  88:/usr/include/c++/9.1.0/bits/locale_facets.h ****     void
  89:/usr/include/c++/9.1.0/bits/locale_facets.h ****     __convert_to_v(const char*, long double&, ios_base::iostate&,
  90:/usr/include/c++/9.1.0/bits/locale_facets.h **** 		   const __c_locale&) throw();
  91:/usr/include/c++/9.1.0/bits/locale_facets.h **** 
  92:/usr/include/c++/9.1.0/bits/locale_facets.h ****   // NB: __pad is a struct, rather than a function, so it can be
  93:/usr/include/c++/9.1.0/bits/locale_facets.h ****   // partially-specialized.
  94:/usr/include/c++/9.1.0/bits/locale_facets.h ****   template<typename _CharT, typename _Traits>
  95:/usr/include/c++/9.1.0/bits/locale_facets.h ****     struct __pad
  96:/usr/include/c++/9.1.0/bits/locale_facets.h ****     {
  97:/usr/include/c++/9.1.0/bits/locale_facets.h ****       static void
  98:/usr/include/c++/9.1.0/bits/locale_facets.h ****       _S_pad(ios_base& __io, _CharT __fill, _CharT* __news,
  99:/usr/include/c++/9.1.0/bits/locale_facets.h **** 	     const _CharT* __olds, streamsize __newlen, streamsize __oldlen);
 100:/usr/include/c++/9.1.0/bits/locale_facets.h ****     };
 101:/usr/include/c++/9.1.0/bits/locale_facets.h **** 
 102:/usr/include/c++/9.1.0/bits/locale_facets.h ****   // Used by both numeric and monetary facets.
 103:/usr/include/c++/9.1.0/bits/locale_facets.h ****   // Inserts "group separator" characters into an array of characters.
 104:/usr/include/c++/9.1.0/bits/locale_facets.h ****   // It's recursive, one iteration per group.  It moves the characters
 105:/usr/include/c++/9.1.0/bits/locale_facets.h ****   // in the buffer this way: "xxxx12345" -> "12,345xxx".  Call this
 106:/usr/include/c++/9.1.0/bits/locale_facets.h ****   // only with __gsize != 0.
 107:/usr/include/c++/9.1.0/bits/locale_facets.h ****   template<typename _CharT>
 108:/usr/include/c++/9.1.0/bits/locale_facets.h ****     _CharT*
 109:/usr/include/c++/9.1.0/bits/locale_facets.h ****     __add_grouping(_CharT* __s, _CharT __sep,
 110:/usr/include/c++/9.1.0/bits/locale_facets.h **** 		   const char* __gbeg, size_t __gsize,
 111:/usr/include/c++/9.1.0/bits/locale_facets.h **** 		   const _CharT* __first, const _CharT* __last);
 112:/usr/include/c++/9.1.0/bits/locale_facets.h **** 
 113:/usr/include/c++/9.1.0/bits/locale_facets.h ****   // This template permits specializing facet output code for
GAS LISTING /tmp/cc6iEGVT.s 			page 55


 114:/usr/include/c++/9.1.0/bits/locale_facets.h ****   // ostreambuf_iterator.  For ostreambuf_iterator, sputn is
 115:/usr/include/c++/9.1.0/bits/locale_facets.h ****   // significantly more efficient than incrementing iterators.
 116:/usr/include/c++/9.1.0/bits/locale_facets.h ****   template<typename _CharT>
 117:/usr/include/c++/9.1.0/bits/locale_facets.h ****     inline
 118:/usr/include/c++/9.1.0/bits/locale_facets.h ****     ostreambuf_iterator<_CharT>
 119:/usr/include/c++/9.1.0/bits/locale_facets.h ****     __write(ostreambuf_iterator<_CharT> __s, const _CharT* __ws, int __len)
 120:/usr/include/c++/9.1.0/bits/locale_facets.h ****     {
 121:/usr/include/c++/9.1.0/bits/locale_facets.h ****       __s._M_put(__ws, __len);
 122:/usr/include/c++/9.1.0/bits/locale_facets.h ****       return __s;
 123:/usr/include/c++/9.1.0/bits/locale_facets.h ****     }
 124:/usr/include/c++/9.1.0/bits/locale_facets.h **** 
 125:/usr/include/c++/9.1.0/bits/locale_facets.h ****   // This is the unspecialized form of the template.
 126:/usr/include/c++/9.1.0/bits/locale_facets.h ****   template<typename _CharT, typename _OutIter>
 127:/usr/include/c++/9.1.0/bits/locale_facets.h ****     inline
 128:/usr/include/c++/9.1.0/bits/locale_facets.h ****     _OutIter
 129:/usr/include/c++/9.1.0/bits/locale_facets.h ****     __write(_OutIter __s, const _CharT* __ws, int __len)
 130:/usr/include/c++/9.1.0/bits/locale_facets.h ****     {
 131:/usr/include/c++/9.1.0/bits/locale_facets.h ****       for (int __j = 0; __j < __len; __j++, ++__s)
 132:/usr/include/c++/9.1.0/bits/locale_facets.h **** 	*__s = __ws[__j];
 133:/usr/include/c++/9.1.0/bits/locale_facets.h ****       return __s;
 134:/usr/include/c++/9.1.0/bits/locale_facets.h ****     }
 135:/usr/include/c++/9.1.0/bits/locale_facets.h **** 
 136:/usr/include/c++/9.1.0/bits/locale_facets.h **** 
 137:/usr/include/c++/9.1.0/bits/locale_facets.h ****   // 22.2.1.1  Template class ctype
 138:/usr/include/c++/9.1.0/bits/locale_facets.h ****   // Include host and configuration specific ctype enums for ctype_base.
 139:/usr/include/c++/9.1.0/bits/locale_facets.h **** 
 140:/usr/include/c++/9.1.0/bits/locale_facets.h ****   /**
 141:/usr/include/c++/9.1.0/bits/locale_facets.h ****    *  @brief  Common base for ctype facet
 142:/usr/include/c++/9.1.0/bits/locale_facets.h ****    *
 143:/usr/include/c++/9.1.0/bits/locale_facets.h ****    *  This template class provides implementations of the public functions
 144:/usr/include/c++/9.1.0/bits/locale_facets.h ****    *  that forward to the protected virtual functions.
 145:/usr/include/c++/9.1.0/bits/locale_facets.h ****    *
 146:/usr/include/c++/9.1.0/bits/locale_facets.h ****    *  This template also provides abstract stubs for the protected virtual
 147:/usr/include/c++/9.1.0/bits/locale_facets.h ****    *  functions.
 148:/usr/include/c++/9.1.0/bits/locale_facets.h ****   */
 149:/usr/include/c++/9.1.0/bits/locale_facets.h ****   template<typename _CharT>
 150:/usr/include/c++/9.1.0/bits/locale_facets.h ****     class __ctype_abstract_base : public locale::facet, public ctype_base
 151:/usr/include/c++/9.1.0/bits/locale_facets.h ****     {
 152:/usr/include/c++/9.1.0/bits/locale_facets.h ****     public:
 153:/usr/include/c++/9.1.0/bits/locale_facets.h ****       // Types:
 154:/usr/include/c++/9.1.0/bits/locale_facets.h ****       /// Typedef for the template parameter
 155:/usr/include/c++/9.1.0/bits/locale_facets.h ****       typedef _CharT char_type;
 156:/usr/include/c++/9.1.0/bits/locale_facets.h **** 
 157:/usr/include/c++/9.1.0/bits/locale_facets.h ****       /**
 158:/usr/include/c++/9.1.0/bits/locale_facets.h ****        *  @brief  Test char_type classification.
 159:/usr/include/c++/9.1.0/bits/locale_facets.h ****        *
 160:/usr/include/c++/9.1.0/bits/locale_facets.h ****        *  This function finds a mask M for @a __c and compares it to
 161:/usr/include/c++/9.1.0/bits/locale_facets.h ****        *  mask @a __m.  It does so by returning the value of
 162:/usr/include/c++/9.1.0/bits/locale_facets.h ****        *  ctype<char_type>::do_is().
 163:/usr/include/c++/9.1.0/bits/locale_facets.h ****        *
 164:/usr/include/c++/9.1.0/bits/locale_facets.h ****        *  @param __c  The char_type to compare the mask of.
 165:/usr/include/c++/9.1.0/bits/locale_facets.h ****        *  @param __m  The mask to compare against.
 166:/usr/include/c++/9.1.0/bits/locale_facets.h ****        *  @return  (M & __m) != 0.
 167:/usr/include/c++/9.1.0/bits/locale_facets.h ****       */
 168:/usr/include/c++/9.1.0/bits/locale_facets.h ****       bool
 169:/usr/include/c++/9.1.0/bits/locale_facets.h ****       is(mask __m, char_type __c) const
 170:/usr/include/c++/9.1.0/bits/locale_facets.h ****       { return this->do_is(__m, __c); }
GAS LISTING /tmp/cc6iEGVT.s 			page 56


 171:/usr/include/c++/9.1.0/bits/locale_facets.h **** 
 172:/usr/include/c++/9.1.0/bits/locale_facets.h ****       /**
 173:/usr/include/c++/9.1.0/bits/locale_facets.h ****        *  @brief  Return a mask array.
 174:/usr/include/c++/9.1.0/bits/locale_facets.h ****        *
 175:/usr/include/c++/9.1.0/bits/locale_facets.h ****        *  This function finds the mask for each char_type in the range [lo,hi)
 176:/usr/include/c++/9.1.0/bits/locale_facets.h ****        *  and successively writes it to vec.  vec must have as many elements
 177:/usr/include/c++/9.1.0/bits/locale_facets.h ****        *  as the char array.  It does so by returning the value of
 178:/usr/include/c++/9.1.0/bits/locale_facets.h ****        *  ctype<char_type>::do_is().
 179:/usr/include/c++/9.1.0/bits/locale_facets.h ****        *
 180:/usr/include/c++/9.1.0/bits/locale_facets.h ****        *  @param __lo  Pointer to start of range.
 181:/usr/include/c++/9.1.0/bits/locale_facets.h ****        *  @param __hi  Pointer to end of range.
 182:/usr/include/c++/9.1.0/bits/locale_facets.h ****        *  @param __vec  Pointer to an array of mask storage.
 183:/usr/include/c++/9.1.0/bits/locale_facets.h ****        *  @return  @a __hi.
 184:/usr/include/c++/9.1.0/bits/locale_facets.h ****       */
 185:/usr/include/c++/9.1.0/bits/locale_facets.h ****       const char_type*
 186:/usr/include/c++/9.1.0/bits/locale_facets.h ****       is(const char_type *__lo, const char_type *__hi, mask *__vec) const
 187:/usr/include/c++/9.1.0/bits/locale_facets.h ****       { return this->do_is(__lo, __hi, __vec); }
 188:/usr/include/c++/9.1.0/bits/locale_facets.h **** 
 189:/usr/include/c++/9.1.0/bits/locale_facets.h ****       /**
 190:/usr/include/c++/9.1.0/bits/locale_facets.h ****        *  @brief  Find char_type matching a mask
 191:/usr/include/c++/9.1.0/bits/locale_facets.h ****        *
 192:/usr/include/c++/9.1.0/bits/locale_facets.h ****        *  This function searches for and returns the first char_type c in
 193:/usr/include/c++/9.1.0/bits/locale_facets.h ****        *  [lo,hi) for which is(m,c) is true.  It does so by returning
 194:/usr/include/c++/9.1.0/bits/locale_facets.h ****        *  ctype<char_type>::do_scan_is().
 195:/usr/include/c++/9.1.0/bits/locale_facets.h ****        *
 196:/usr/include/c++/9.1.0/bits/locale_facets.h ****        *  @param __m  The mask to compare against.
 197:/usr/include/c++/9.1.0/bits/locale_facets.h ****        *  @param __lo  Pointer to start of range.
 198:/usr/include/c++/9.1.0/bits/locale_facets.h ****        *  @param __hi  Pointer to end of range.
 199:/usr/include/c++/9.1.0/bits/locale_facets.h ****        *  @return  Pointer to matching char_type if found, else @a __hi.
 200:/usr/include/c++/9.1.0/bits/locale_facets.h ****       */
 201:/usr/include/c++/9.1.0/bits/locale_facets.h ****       const char_type*
 202:/usr/include/c++/9.1.0/bits/locale_facets.h ****       scan_is(mask __m, const char_type* __lo, const char_type* __hi) const
 203:/usr/include/c++/9.1.0/bits/locale_facets.h ****       { return this->do_scan_is(__m, __lo, __hi); }
 204:/usr/include/c++/9.1.0/bits/locale_facets.h **** 
 205:/usr/include/c++/9.1.0/bits/locale_facets.h ****       /**
 206:/usr/include/c++/9.1.0/bits/locale_facets.h ****        *  @brief  Find char_type not matching a mask
 207:/usr/include/c++/9.1.0/bits/locale_facets.h ****        *
 208:/usr/include/c++/9.1.0/bits/locale_facets.h ****        *  This function searches for and returns the first char_type c in
 209:/usr/include/c++/9.1.0/bits/locale_facets.h ****        *  [lo,hi) for which is(m,c) is false.  It does so by returning
 210:/usr/include/c++/9.1.0/bits/locale_facets.h ****        *  ctype<char_type>::do_scan_not().
 211:/usr/include/c++/9.1.0/bits/locale_facets.h ****        *
 212:/usr/include/c++/9.1.0/bits/locale_facets.h ****        *  @param __m  The mask to compare against.
 213:/usr/include/c++/9.1.0/bits/locale_facets.h ****        *  @param __lo  Pointer to first char in range.
 214:/usr/include/c++/9.1.0/bits/locale_facets.h ****        *  @param __hi  Pointer to end of range.
 215:/usr/include/c++/9.1.0/bits/locale_facets.h ****        *  @return  Pointer to non-matching char if found, else @a __hi.
 216:/usr/include/c++/9.1.0/bits/locale_facets.h ****       */
 217:/usr/include/c++/9.1.0/bits/locale_facets.h ****       const char_type*
 218:/usr/include/c++/9.1.0/bits/locale_facets.h ****       scan_not(mask __m, const char_type* __lo, const char_type* __hi) const
 219:/usr/include/c++/9.1.0/bits/locale_facets.h ****       { return this->do_scan_not(__m, __lo, __hi); }
 220:/usr/include/c++/9.1.0/bits/locale_facets.h **** 
 221:/usr/include/c++/9.1.0/bits/locale_facets.h ****       /**
 222:/usr/include/c++/9.1.0/bits/locale_facets.h ****        *  @brief  Convert to uppercase.
 223:/usr/include/c++/9.1.0/bits/locale_facets.h ****        *
 224:/usr/include/c++/9.1.0/bits/locale_facets.h ****        *  This function converts the argument to uppercase if possible.
 225:/usr/include/c++/9.1.0/bits/locale_facets.h ****        *  If not possible (for example, '2'), returns the argument.  It does
 226:/usr/include/c++/9.1.0/bits/locale_facets.h ****        *  so by returning ctype<char_type>::do_toupper().
 227:/usr/include/c++/9.1.0/bits/locale_facets.h ****        *
GAS LISTING /tmp/cc6iEGVT.s 			page 57


 228:/usr/include/c++/9.1.0/bits/locale_facets.h ****        *  @param __c  The char_type to convert.
 229:/usr/include/c++/9.1.0/bits/locale_facets.h ****        *  @return  The uppercase char_type if convertible, else @a __c.
 230:/usr/include/c++/9.1.0/bits/locale_facets.h ****       */
 231:/usr/include/c++/9.1.0/bits/locale_facets.h ****       char_type
 232:/usr/include/c++/9.1.0/bits/locale_facets.h ****       toupper(char_type __c) const
 233:/usr/include/c++/9.1.0/bits/locale_facets.h ****       { return this->do_toupper(__c); }
 234:/usr/include/c++/9.1.0/bits/locale_facets.h **** 
 235:/usr/include/c++/9.1.0/bits/locale_facets.h ****       /**
 236:/usr/include/c++/9.1.0/bits/locale_facets.h ****        *  @brief  Convert array to uppercase.
 237:/usr/include/c++/9.1.0/bits/locale_facets.h ****        *
 238:/usr/include/c++/9.1.0/bits/locale_facets.h ****        *  This function converts each char_type in the range [lo,hi) to
 239:/usr/include/c++/9.1.0/bits/locale_facets.h ****        *  uppercase if possible.  Other elements remain untouched.  It does so
 240:/usr/include/c++/9.1.0/bits/locale_facets.h ****        *  by returning ctype<char_type>:: do_toupper(lo, hi).
 241:/usr/include/c++/9.1.0/bits/locale_facets.h ****        *
 242:/usr/include/c++/9.1.0/bits/locale_facets.h ****        *  @param __lo  Pointer to start of range.
 243:/usr/include/c++/9.1.0/bits/locale_facets.h ****        *  @param __hi  Pointer to end of range.
 244:/usr/include/c++/9.1.0/bits/locale_facets.h ****        *  @return  @a __hi.
 245:/usr/include/c++/9.1.0/bits/locale_facets.h ****       */
 246:/usr/include/c++/9.1.0/bits/locale_facets.h ****       const char_type*
 247:/usr/include/c++/9.1.0/bits/locale_facets.h ****       toupper(char_type *__lo, const char_type* __hi) const
 248:/usr/include/c++/9.1.0/bits/locale_facets.h ****       { return this->do_toupper(__lo, __hi); }
 249:/usr/include/c++/9.1.0/bits/locale_facets.h **** 
 250:/usr/include/c++/9.1.0/bits/locale_facets.h ****       /**
 251:/usr/include/c++/9.1.0/bits/locale_facets.h ****        *  @brief  Convert to lowercase.
 252:/usr/include/c++/9.1.0/bits/locale_facets.h ****        *
 253:/usr/include/c++/9.1.0/bits/locale_facets.h ****        *  This function converts the argument to lowercase if possible.  If
 254:/usr/include/c++/9.1.0/bits/locale_facets.h ****        *  not possible (for example, '2'), returns the argument.  It does so
 255:/usr/include/c++/9.1.0/bits/locale_facets.h ****        *  by returning ctype<char_type>::do_tolower(c).
 256:/usr/include/c++/9.1.0/bits/locale_facets.h ****        *
 257:/usr/include/c++/9.1.0/bits/locale_facets.h ****        *  @param __c  The char_type to convert.
 258:/usr/include/c++/9.1.0/bits/locale_facets.h ****        *  @return  The lowercase char_type if convertible, else @a __c.
 259:/usr/include/c++/9.1.0/bits/locale_facets.h ****       */
 260:/usr/include/c++/9.1.0/bits/locale_facets.h ****       char_type
 261:/usr/include/c++/9.1.0/bits/locale_facets.h ****       tolower(char_type __c) const
 262:/usr/include/c++/9.1.0/bits/locale_facets.h ****       { return this->do_tolower(__c); }
 263:/usr/include/c++/9.1.0/bits/locale_facets.h **** 
 264:/usr/include/c++/9.1.0/bits/locale_facets.h ****       /**
 265:/usr/include/c++/9.1.0/bits/locale_facets.h ****        *  @brief  Convert array to lowercase.
 266:/usr/include/c++/9.1.0/bits/locale_facets.h ****        *
 267:/usr/include/c++/9.1.0/bits/locale_facets.h ****        *  This function converts each char_type in the range [__lo,__hi) to
 268:/usr/include/c++/9.1.0/bits/locale_facets.h ****        *  lowercase if possible.  Other elements remain untouched.  It does so
 269:/usr/include/c++/9.1.0/bits/locale_facets.h ****        *  by returning ctype<char_type>:: do_tolower(__lo, __hi).
 270:/usr/include/c++/9.1.0/bits/locale_facets.h ****        *
 271:/usr/include/c++/9.1.0/bits/locale_facets.h ****        *  @param __lo  Pointer to start of range.
 272:/usr/include/c++/9.1.0/bits/locale_facets.h ****        *  @param __hi  Pointer to end of range.
 273:/usr/include/c++/9.1.0/bits/locale_facets.h ****        *  @return  @a __hi.
 274:/usr/include/c++/9.1.0/bits/locale_facets.h ****       */
 275:/usr/include/c++/9.1.0/bits/locale_facets.h ****       const char_type*
 276:/usr/include/c++/9.1.0/bits/locale_facets.h ****       tolower(char_type* __lo, const char_type* __hi) const
 277:/usr/include/c++/9.1.0/bits/locale_facets.h ****       { return this->do_tolower(__lo, __hi); }
 278:/usr/include/c++/9.1.0/bits/locale_facets.h **** 
 279:/usr/include/c++/9.1.0/bits/locale_facets.h ****       /**
 280:/usr/include/c++/9.1.0/bits/locale_facets.h ****        *  @brief  Widen char to char_type
 281:/usr/include/c++/9.1.0/bits/locale_facets.h ****        *
 282:/usr/include/c++/9.1.0/bits/locale_facets.h ****        *  This function converts the char argument to char_type using the
 283:/usr/include/c++/9.1.0/bits/locale_facets.h ****        *  simplest reasonable transformation.  It does so by returning
 284:/usr/include/c++/9.1.0/bits/locale_facets.h ****        *  ctype<char_type>::do_widen(c).
GAS LISTING /tmp/cc6iEGVT.s 			page 58


 285:/usr/include/c++/9.1.0/bits/locale_facets.h ****        *
 286:/usr/include/c++/9.1.0/bits/locale_facets.h ****        *  Note: this is not what you want for codepage conversions.  See
 287:/usr/include/c++/9.1.0/bits/locale_facets.h ****        *  codecvt for that.
 288:/usr/include/c++/9.1.0/bits/locale_facets.h ****        *
 289:/usr/include/c++/9.1.0/bits/locale_facets.h ****        *  @param __c  The char to convert.
 290:/usr/include/c++/9.1.0/bits/locale_facets.h ****        *  @return  The converted char_type.
 291:/usr/include/c++/9.1.0/bits/locale_facets.h ****       */
 292:/usr/include/c++/9.1.0/bits/locale_facets.h ****       char_type
 293:/usr/include/c++/9.1.0/bits/locale_facets.h ****       widen(char __c) const
 294:/usr/include/c++/9.1.0/bits/locale_facets.h ****       { return this->do_widen(__c); }
 295:/usr/include/c++/9.1.0/bits/locale_facets.h **** 
 296:/usr/include/c++/9.1.0/bits/locale_facets.h ****       /**
 297:/usr/include/c++/9.1.0/bits/locale_facets.h ****        *  @brief  Widen array to char_type
 298:/usr/include/c++/9.1.0/bits/locale_facets.h ****        *
 299:/usr/include/c++/9.1.0/bits/locale_facets.h ****        *  This function converts each char in the input to char_type using the
 300:/usr/include/c++/9.1.0/bits/locale_facets.h ****        *  simplest reasonable transformation.  It does so by returning
 301:/usr/include/c++/9.1.0/bits/locale_facets.h ****        *  ctype<char_type>::do_widen(c).
 302:/usr/include/c++/9.1.0/bits/locale_facets.h ****        *
 303:/usr/include/c++/9.1.0/bits/locale_facets.h ****        *  Note: this is not what you want for codepage conversions.  See
 304:/usr/include/c++/9.1.0/bits/locale_facets.h ****        *  codecvt for that.
 305:/usr/include/c++/9.1.0/bits/locale_facets.h ****        *
 306:/usr/include/c++/9.1.0/bits/locale_facets.h ****        *  @param __lo  Pointer to start of range.
 307:/usr/include/c++/9.1.0/bits/locale_facets.h ****        *  @param __hi  Pointer to end of range.
 308:/usr/include/c++/9.1.0/bits/locale_facets.h ****        *  @param __to  Pointer to the destination array.
 309:/usr/include/c++/9.1.0/bits/locale_facets.h ****        *  @return  @a __hi.
 310:/usr/include/c++/9.1.0/bits/locale_facets.h ****       */
 311:/usr/include/c++/9.1.0/bits/locale_facets.h ****       const char*
 312:/usr/include/c++/9.1.0/bits/locale_facets.h ****       widen(const char* __lo, const char* __hi, char_type* __to) const
 313:/usr/include/c++/9.1.0/bits/locale_facets.h ****       { return this->do_widen(__lo, __hi, __to); }
 314:/usr/include/c++/9.1.0/bits/locale_facets.h **** 
 315:/usr/include/c++/9.1.0/bits/locale_facets.h ****       /**
 316:/usr/include/c++/9.1.0/bits/locale_facets.h ****        *  @brief  Narrow char_type to char
 317:/usr/include/c++/9.1.0/bits/locale_facets.h ****        *
 318:/usr/include/c++/9.1.0/bits/locale_facets.h ****        *  This function converts the char_type to char using the simplest
 319:/usr/include/c++/9.1.0/bits/locale_facets.h ****        *  reasonable transformation.  If the conversion fails, dfault is
 320:/usr/include/c++/9.1.0/bits/locale_facets.h ****        *  returned instead.  It does so by returning
 321:/usr/include/c++/9.1.0/bits/locale_facets.h ****        *  ctype<char_type>::do_narrow(__c).
 322:/usr/include/c++/9.1.0/bits/locale_facets.h ****        *
 323:/usr/include/c++/9.1.0/bits/locale_facets.h ****        *  Note: this is not what you want for codepage conversions.  See
 324:/usr/include/c++/9.1.0/bits/locale_facets.h ****        *  codecvt for that.
 325:/usr/include/c++/9.1.0/bits/locale_facets.h ****        *
 326:/usr/include/c++/9.1.0/bits/locale_facets.h ****        *  @param __c  The char_type to convert.
 327:/usr/include/c++/9.1.0/bits/locale_facets.h ****        *  @param __dfault  Char to return if conversion fails.
 328:/usr/include/c++/9.1.0/bits/locale_facets.h ****        *  @return  The converted char.
 329:/usr/include/c++/9.1.0/bits/locale_facets.h ****       */
 330:/usr/include/c++/9.1.0/bits/locale_facets.h ****       char
 331:/usr/include/c++/9.1.0/bits/locale_facets.h ****       narrow(char_type __c, char __dfault) const
 332:/usr/include/c++/9.1.0/bits/locale_facets.h ****       { return this->do_narrow(__c, __dfault); }
 333:/usr/include/c++/9.1.0/bits/locale_facets.h **** 
 334:/usr/include/c++/9.1.0/bits/locale_facets.h ****       /**
 335:/usr/include/c++/9.1.0/bits/locale_facets.h ****        *  @brief  Narrow array to char array
 336:/usr/include/c++/9.1.0/bits/locale_facets.h ****        *
 337:/usr/include/c++/9.1.0/bits/locale_facets.h ****        *  This function converts each char_type in the input to char using the
 338:/usr/include/c++/9.1.0/bits/locale_facets.h ****        *  simplest reasonable transformation and writes the results to the
 339:/usr/include/c++/9.1.0/bits/locale_facets.h ****        *  destination array.  For any char_type in the input that cannot be
 340:/usr/include/c++/9.1.0/bits/locale_facets.h ****        *  converted, @a dfault is used instead.  It does so by returning
 341:/usr/include/c++/9.1.0/bits/locale_facets.h ****        *  ctype<char_type>::do_narrow(__lo, __hi, __dfault, __to).
GAS LISTING /tmp/cc6iEGVT.s 			page 59


 342:/usr/include/c++/9.1.0/bits/locale_facets.h ****        *
 343:/usr/include/c++/9.1.0/bits/locale_facets.h ****        *  Note: this is not what you want for codepage conversions.  See
 344:/usr/include/c++/9.1.0/bits/locale_facets.h ****        *  codecvt for that.
 345:/usr/include/c++/9.1.0/bits/locale_facets.h ****        *
 346:/usr/include/c++/9.1.0/bits/locale_facets.h ****        *  @param __lo  Pointer to start of range.
 347:/usr/include/c++/9.1.0/bits/locale_facets.h ****        *  @param __hi  Pointer to end of range.
 348:/usr/include/c++/9.1.0/bits/locale_facets.h ****        *  @param __dfault  Char to use if conversion fails.
 349:/usr/include/c++/9.1.0/bits/locale_facets.h ****        *  @param __to  Pointer to the destination array.
 350:/usr/include/c++/9.1.0/bits/locale_facets.h ****        *  @return  @a __hi.
 351:/usr/include/c++/9.1.0/bits/locale_facets.h ****       */
 352:/usr/include/c++/9.1.0/bits/locale_facets.h ****       const char_type*
 353:/usr/include/c++/9.1.0/bits/locale_facets.h ****       narrow(const char_type* __lo, const char_type* __hi,
 354:/usr/include/c++/9.1.0/bits/locale_facets.h **** 	      char __dfault, char* __to) const
 355:/usr/include/c++/9.1.0/bits/locale_facets.h ****       { return this->do_narrow(__lo, __hi, __dfault, __to); }
 356:/usr/include/c++/9.1.0/bits/locale_facets.h **** 
 357:/usr/include/c++/9.1.0/bits/locale_facets.h ****     protected:
 358:/usr/include/c++/9.1.0/bits/locale_facets.h ****       explicit
 359:/usr/include/c++/9.1.0/bits/locale_facets.h ****       __ctype_abstract_base(size_t __refs = 0): facet(__refs) { }
 360:/usr/include/c++/9.1.0/bits/locale_facets.h **** 
 361:/usr/include/c++/9.1.0/bits/locale_facets.h ****       virtual
 362:/usr/include/c++/9.1.0/bits/locale_facets.h ****       ~__ctype_abstract_base() { }
 363:/usr/include/c++/9.1.0/bits/locale_facets.h **** 
 364:/usr/include/c++/9.1.0/bits/locale_facets.h ****       /**
 365:/usr/include/c++/9.1.0/bits/locale_facets.h ****        *  @brief  Test char_type classification.
 366:/usr/include/c++/9.1.0/bits/locale_facets.h ****        *
 367:/usr/include/c++/9.1.0/bits/locale_facets.h ****        *  This function finds a mask M for @a c and compares it to mask @a m.
 368:/usr/include/c++/9.1.0/bits/locale_facets.h ****        *
 369:/usr/include/c++/9.1.0/bits/locale_facets.h ****        *  do_is() is a hook for a derived facet to change the behavior of
 370:/usr/include/c++/9.1.0/bits/locale_facets.h ****        *  classifying.  do_is() must always return the same result for the
 371:/usr/include/c++/9.1.0/bits/locale_facets.h ****        *  same input.
 372:/usr/include/c++/9.1.0/bits/locale_facets.h ****        *
 373:/usr/include/c++/9.1.0/bits/locale_facets.h ****        *  @param __c  The char_type to find the mask of.
 374:/usr/include/c++/9.1.0/bits/locale_facets.h ****        *  @param __m  The mask to compare against.
 375:/usr/include/c++/9.1.0/bits/locale_facets.h ****        *  @return  (M & __m) != 0.
 376:/usr/include/c++/9.1.0/bits/locale_facets.h ****       */
 377:/usr/include/c++/9.1.0/bits/locale_facets.h ****       virtual bool
 378:/usr/include/c++/9.1.0/bits/locale_facets.h ****       do_is(mask __m, char_type __c) const = 0;
 379:/usr/include/c++/9.1.0/bits/locale_facets.h **** 
 380:/usr/include/c++/9.1.0/bits/locale_facets.h ****       /**
 381:/usr/include/c++/9.1.0/bits/locale_facets.h ****        *  @brief  Return a mask array.
 382:/usr/include/c++/9.1.0/bits/locale_facets.h ****        *
 383:/usr/include/c++/9.1.0/bits/locale_facets.h ****        *  This function finds the mask for each char_type in the range [lo,hi)
 384:/usr/include/c++/9.1.0/bits/locale_facets.h ****        *  and successively writes it to vec.  vec must have as many elements
 385:/usr/include/c++/9.1.0/bits/locale_facets.h ****        *  as the input.
 386:/usr/include/c++/9.1.0/bits/locale_facets.h ****        *
 387:/usr/include/c++/9.1.0/bits/locale_facets.h ****        *  do_is() is a hook for a derived facet to change the behavior of
 388:/usr/include/c++/9.1.0/bits/locale_facets.h ****        *  classifying.  do_is() must always return the same result for the
 389:/usr/include/c++/9.1.0/bits/locale_facets.h ****        *  same input.
 390:/usr/include/c++/9.1.0/bits/locale_facets.h ****        *
 391:/usr/include/c++/9.1.0/bits/locale_facets.h ****        *  @param __lo  Pointer to start of range.
 392:/usr/include/c++/9.1.0/bits/locale_facets.h ****        *  @param __hi  Pointer to end of range.
 393:/usr/include/c++/9.1.0/bits/locale_facets.h ****        *  @param __vec  Pointer to an array of mask storage.
 394:/usr/include/c++/9.1.0/bits/locale_facets.h ****        *  @return  @a __hi.
 395:/usr/include/c++/9.1.0/bits/locale_facets.h ****       */
 396:/usr/include/c++/9.1.0/bits/locale_facets.h ****       virtual const char_type*
 397:/usr/include/c++/9.1.0/bits/locale_facets.h ****       do_is(const char_type* __lo, const char_type* __hi,
 398:/usr/include/c++/9.1.0/bits/locale_facets.h **** 	    mask* __vec) const = 0;
GAS LISTING /tmp/cc6iEGVT.s 			page 60


 399:/usr/include/c++/9.1.0/bits/locale_facets.h **** 
 400:/usr/include/c++/9.1.0/bits/locale_facets.h ****       /**
 401:/usr/include/c++/9.1.0/bits/locale_facets.h ****        *  @brief  Find char_type matching mask
 402:/usr/include/c++/9.1.0/bits/locale_facets.h ****        *
 403:/usr/include/c++/9.1.0/bits/locale_facets.h ****        *  This function searches for and returns the first char_type c in
 404:/usr/include/c++/9.1.0/bits/locale_facets.h ****        *  [__lo,__hi) for which is(__m,c) is true.
 405:/usr/include/c++/9.1.0/bits/locale_facets.h ****        *
 406:/usr/include/c++/9.1.0/bits/locale_facets.h ****        *  do_scan_is() is a hook for a derived facet to change the behavior of
 407:/usr/include/c++/9.1.0/bits/locale_facets.h ****        *  match searching.  do_is() must always return the same result for the
 408:/usr/include/c++/9.1.0/bits/locale_facets.h ****        *  same input.
 409:/usr/include/c++/9.1.0/bits/locale_facets.h ****        *
 410:/usr/include/c++/9.1.0/bits/locale_facets.h ****        *  @param __m  The mask to compare against.
 411:/usr/include/c++/9.1.0/bits/locale_facets.h ****        *  @param __lo  Pointer to start of range.
 412:/usr/include/c++/9.1.0/bits/locale_facets.h ****        *  @param __hi  Pointer to end of range.
 413:/usr/include/c++/9.1.0/bits/locale_facets.h ****        *  @return  Pointer to a matching char_type if found, else @a __hi.
 414:/usr/include/c++/9.1.0/bits/locale_facets.h ****       */
 415:/usr/include/c++/9.1.0/bits/locale_facets.h ****       virtual const char_type*
 416:/usr/include/c++/9.1.0/bits/locale_facets.h ****       do_scan_is(mask __m, const char_type* __lo,
 417:/usr/include/c++/9.1.0/bits/locale_facets.h **** 		 const char_type* __hi) const = 0;
 418:/usr/include/c++/9.1.0/bits/locale_facets.h **** 
 419:/usr/include/c++/9.1.0/bits/locale_facets.h ****       /**
 420:/usr/include/c++/9.1.0/bits/locale_facets.h ****        *  @brief  Find char_type not matching mask
 421:/usr/include/c++/9.1.0/bits/locale_facets.h ****        *
 422:/usr/include/c++/9.1.0/bits/locale_facets.h ****        *  This function searches for and returns a pointer to the first
 423:/usr/include/c++/9.1.0/bits/locale_facets.h ****        *  char_type c of [lo,hi) for which is(m,c) is false.
 424:/usr/include/c++/9.1.0/bits/locale_facets.h ****        *
 425:/usr/include/c++/9.1.0/bits/locale_facets.h ****        *  do_scan_is() is a hook for a derived facet to change the behavior of
 426:/usr/include/c++/9.1.0/bits/locale_facets.h ****        *  match searching.  do_is() must always return the same result for the
 427:/usr/include/c++/9.1.0/bits/locale_facets.h ****        *  same input.
 428:/usr/include/c++/9.1.0/bits/locale_facets.h ****        *
 429:/usr/include/c++/9.1.0/bits/locale_facets.h ****        *  @param __m  The mask to compare against.
 430:/usr/include/c++/9.1.0/bits/locale_facets.h ****        *  @param __lo  Pointer to start of range.
 431:/usr/include/c++/9.1.0/bits/locale_facets.h ****        *  @param __hi  Pointer to end of range.
 432:/usr/include/c++/9.1.0/bits/locale_facets.h ****        *  @return  Pointer to a non-matching char_type if found, else @a __hi.
 433:/usr/include/c++/9.1.0/bits/locale_facets.h ****       */
 434:/usr/include/c++/9.1.0/bits/locale_facets.h ****       virtual const char_type*
 435:/usr/include/c++/9.1.0/bits/locale_facets.h ****       do_scan_not(mask __m, const char_type* __lo,
 436:/usr/include/c++/9.1.0/bits/locale_facets.h **** 		  const char_type* __hi) const = 0;
 437:/usr/include/c++/9.1.0/bits/locale_facets.h **** 
 438:/usr/include/c++/9.1.0/bits/locale_facets.h ****       /**
 439:/usr/include/c++/9.1.0/bits/locale_facets.h ****        *  @brief  Convert to uppercase.
 440:/usr/include/c++/9.1.0/bits/locale_facets.h ****        *
 441:/usr/include/c++/9.1.0/bits/locale_facets.h ****        *  This virtual function converts the char_type argument to uppercase
 442:/usr/include/c++/9.1.0/bits/locale_facets.h ****        *  if possible.  If not possible (for example, '2'), returns the
 443:/usr/include/c++/9.1.0/bits/locale_facets.h ****        *  argument.
 444:/usr/include/c++/9.1.0/bits/locale_facets.h ****        *
 445:/usr/include/c++/9.1.0/bits/locale_facets.h ****        *  do_toupper() is a hook for a derived facet to change the behavior of
 446:/usr/include/c++/9.1.0/bits/locale_facets.h ****        *  uppercasing.  do_toupper() must always return the same result for
 447:/usr/include/c++/9.1.0/bits/locale_facets.h ****        *  the same input.
 448:/usr/include/c++/9.1.0/bits/locale_facets.h ****        *
 449:/usr/include/c++/9.1.0/bits/locale_facets.h ****        *  @param __c  The char_type to convert.
 450:/usr/include/c++/9.1.0/bits/locale_facets.h ****        *  @return  The uppercase char_type if convertible, else @a __c.
 451:/usr/include/c++/9.1.0/bits/locale_facets.h ****       */
 452:/usr/include/c++/9.1.0/bits/locale_facets.h ****       virtual char_type
 453:/usr/include/c++/9.1.0/bits/locale_facets.h ****       do_toupper(char_type __c) const = 0;
 454:/usr/include/c++/9.1.0/bits/locale_facets.h **** 
 455:/usr/include/c++/9.1.0/bits/locale_facets.h ****       /**
GAS LISTING /tmp/cc6iEGVT.s 			page 61


 456:/usr/include/c++/9.1.0/bits/locale_facets.h ****        *  @brief  Convert array to uppercase.
 457:/usr/include/c++/9.1.0/bits/locale_facets.h ****        *
 458:/usr/include/c++/9.1.0/bits/locale_facets.h ****        *  This virtual function converts each char_type in the range [__lo,__hi)
 459:/usr/include/c++/9.1.0/bits/locale_facets.h ****        *  to uppercase if possible.  Other elements remain untouched.
 460:/usr/include/c++/9.1.0/bits/locale_facets.h ****        *
 461:/usr/include/c++/9.1.0/bits/locale_facets.h ****        *  do_toupper() is a hook for a derived facet to change the behavior of
 462:/usr/include/c++/9.1.0/bits/locale_facets.h ****        *  uppercasing.  do_toupper() must always return the same result for
 463:/usr/include/c++/9.1.0/bits/locale_facets.h ****        *  the same input.
 464:/usr/include/c++/9.1.0/bits/locale_facets.h ****        *
 465:/usr/include/c++/9.1.0/bits/locale_facets.h ****        *  @param __lo  Pointer to start of range.
 466:/usr/include/c++/9.1.0/bits/locale_facets.h ****        *  @param __hi  Pointer to end of range.
 467:/usr/include/c++/9.1.0/bits/locale_facets.h ****        *  @return  @a __hi.
 468:/usr/include/c++/9.1.0/bits/locale_facets.h ****       */
 469:/usr/include/c++/9.1.0/bits/locale_facets.h ****       virtual const char_type*
 470:/usr/include/c++/9.1.0/bits/locale_facets.h ****       do_toupper(char_type* __lo, const char_type* __hi) const = 0;
 471:/usr/include/c++/9.1.0/bits/locale_facets.h **** 
 472:/usr/include/c++/9.1.0/bits/locale_facets.h ****       /**
 473:/usr/include/c++/9.1.0/bits/locale_facets.h ****        *  @brief  Convert to lowercase.
 474:/usr/include/c++/9.1.0/bits/locale_facets.h ****        *
 475:/usr/include/c++/9.1.0/bits/locale_facets.h ****        *  This virtual function converts the argument to lowercase if
 476:/usr/include/c++/9.1.0/bits/locale_facets.h ****        *  possible.  If not possible (for example, '2'), returns the argument.
 477:/usr/include/c++/9.1.0/bits/locale_facets.h ****        *
 478:/usr/include/c++/9.1.0/bits/locale_facets.h ****        *  do_tolower() is a hook for a derived facet to change the behavior of
 479:/usr/include/c++/9.1.0/bits/locale_facets.h ****        *  lowercasing.  do_tolower() must always return the same result for
 480:/usr/include/c++/9.1.0/bits/locale_facets.h ****        *  the same input.
 481:/usr/include/c++/9.1.0/bits/locale_facets.h ****        *
 482:/usr/include/c++/9.1.0/bits/locale_facets.h ****        *  @param __c  The char_type to convert.
 483:/usr/include/c++/9.1.0/bits/locale_facets.h ****        *  @return  The lowercase char_type if convertible, else @a __c.
 484:/usr/include/c++/9.1.0/bits/locale_facets.h ****       */
 485:/usr/include/c++/9.1.0/bits/locale_facets.h ****       virtual char_type
 486:/usr/include/c++/9.1.0/bits/locale_facets.h ****       do_tolower(char_type __c) const = 0;
 487:/usr/include/c++/9.1.0/bits/locale_facets.h **** 
 488:/usr/include/c++/9.1.0/bits/locale_facets.h ****       /**
 489:/usr/include/c++/9.1.0/bits/locale_facets.h ****        *  @brief  Convert array to lowercase.
 490:/usr/include/c++/9.1.0/bits/locale_facets.h ****        *
 491:/usr/include/c++/9.1.0/bits/locale_facets.h ****        *  This virtual function converts each char_type in the range [__lo,__hi)
 492:/usr/include/c++/9.1.0/bits/locale_facets.h ****        *  to lowercase if possible.  Other elements remain untouched.
 493:/usr/include/c++/9.1.0/bits/locale_facets.h ****        *
 494:/usr/include/c++/9.1.0/bits/locale_facets.h ****        *  do_tolower() is a hook for a derived facet to change the behavior of
 495:/usr/include/c++/9.1.0/bits/locale_facets.h ****        *  lowercasing.  do_tolower() must always return the same result for
 496:/usr/include/c++/9.1.0/bits/locale_facets.h ****        *  the same input.
 497:/usr/include/c++/9.1.0/bits/locale_facets.h ****        *
 498:/usr/include/c++/9.1.0/bits/locale_facets.h ****        *  @param __lo  Pointer to start of range.
 499:/usr/include/c++/9.1.0/bits/locale_facets.h ****        *  @param __hi  Pointer to end of range.
 500:/usr/include/c++/9.1.0/bits/locale_facets.h ****        *  @return  @a __hi.
 501:/usr/include/c++/9.1.0/bits/locale_facets.h ****       */
 502:/usr/include/c++/9.1.0/bits/locale_facets.h ****       virtual const char_type*
 503:/usr/include/c++/9.1.0/bits/locale_facets.h ****       do_tolower(char_type* __lo, const char_type* __hi) const = 0;
 504:/usr/include/c++/9.1.0/bits/locale_facets.h **** 
 505:/usr/include/c++/9.1.0/bits/locale_facets.h ****       /**
 506:/usr/include/c++/9.1.0/bits/locale_facets.h ****        *  @brief  Widen char
 507:/usr/include/c++/9.1.0/bits/locale_facets.h ****        *
 508:/usr/include/c++/9.1.0/bits/locale_facets.h ****        *  This virtual function converts the char to char_type using the
 509:/usr/include/c++/9.1.0/bits/locale_facets.h ****        *  simplest reasonable transformation.
 510:/usr/include/c++/9.1.0/bits/locale_facets.h ****        *
 511:/usr/include/c++/9.1.0/bits/locale_facets.h ****        *  do_widen() is a hook for a derived facet to change the behavior of
 512:/usr/include/c++/9.1.0/bits/locale_facets.h ****        *  widening.  do_widen() must always return the same result for the
GAS LISTING /tmp/cc6iEGVT.s 			page 62


 513:/usr/include/c++/9.1.0/bits/locale_facets.h ****        *  same input.
 514:/usr/include/c++/9.1.0/bits/locale_facets.h ****        *
 515:/usr/include/c++/9.1.0/bits/locale_facets.h ****        *  Note: this is not what you want for codepage conversions.  See
 516:/usr/include/c++/9.1.0/bits/locale_facets.h ****        *  codecvt for that.
 517:/usr/include/c++/9.1.0/bits/locale_facets.h ****        *
 518:/usr/include/c++/9.1.0/bits/locale_facets.h ****        *  @param __c  The char to convert.
 519:/usr/include/c++/9.1.0/bits/locale_facets.h ****        *  @return  The converted char_type
 520:/usr/include/c++/9.1.0/bits/locale_facets.h ****       */
 521:/usr/include/c++/9.1.0/bits/locale_facets.h ****       virtual char_type
 522:/usr/include/c++/9.1.0/bits/locale_facets.h ****       do_widen(char __c) const = 0;
 523:/usr/include/c++/9.1.0/bits/locale_facets.h **** 
 524:/usr/include/c++/9.1.0/bits/locale_facets.h ****       /**
 525:/usr/include/c++/9.1.0/bits/locale_facets.h ****        *  @brief  Widen char array
 526:/usr/include/c++/9.1.0/bits/locale_facets.h ****        *
 527:/usr/include/c++/9.1.0/bits/locale_facets.h ****        *  This function converts each char in the input to char_type using the
 528:/usr/include/c++/9.1.0/bits/locale_facets.h ****        *  simplest reasonable transformation.
 529:/usr/include/c++/9.1.0/bits/locale_facets.h ****        *
 530:/usr/include/c++/9.1.0/bits/locale_facets.h ****        *  do_widen() is a hook for a derived facet to change the behavior of
 531:/usr/include/c++/9.1.0/bits/locale_facets.h ****        *  widening.  do_widen() must always return the same result for the
 532:/usr/include/c++/9.1.0/bits/locale_facets.h ****        *  same input.
 533:/usr/include/c++/9.1.0/bits/locale_facets.h ****        *
 534:/usr/include/c++/9.1.0/bits/locale_facets.h ****        *  Note: this is not what you want for codepage conversions.  See
 535:/usr/include/c++/9.1.0/bits/locale_facets.h ****        *  codecvt for that.
 536:/usr/include/c++/9.1.0/bits/locale_facets.h ****        *
 537:/usr/include/c++/9.1.0/bits/locale_facets.h ****        *  @param __lo  Pointer to start range.
 538:/usr/include/c++/9.1.0/bits/locale_facets.h ****        *  @param __hi  Pointer to end of range.
 539:/usr/include/c++/9.1.0/bits/locale_facets.h ****        *  @param __to  Pointer to the destination array.
 540:/usr/include/c++/9.1.0/bits/locale_facets.h ****        *  @return  @a __hi.
 541:/usr/include/c++/9.1.0/bits/locale_facets.h ****       */
 542:/usr/include/c++/9.1.0/bits/locale_facets.h ****       virtual const char*
 543:/usr/include/c++/9.1.0/bits/locale_facets.h ****       do_widen(const char* __lo, const char* __hi, char_type* __to) const = 0;
 544:/usr/include/c++/9.1.0/bits/locale_facets.h **** 
 545:/usr/include/c++/9.1.0/bits/locale_facets.h ****       /**
 546:/usr/include/c++/9.1.0/bits/locale_facets.h ****        *  @brief  Narrow char_type to char
 547:/usr/include/c++/9.1.0/bits/locale_facets.h ****        *
 548:/usr/include/c++/9.1.0/bits/locale_facets.h ****        *  This virtual function converts the argument to char using the
 549:/usr/include/c++/9.1.0/bits/locale_facets.h ****        *  simplest reasonable transformation.  If the conversion fails, dfault
 550:/usr/include/c++/9.1.0/bits/locale_facets.h ****        *  is returned instead.
 551:/usr/include/c++/9.1.0/bits/locale_facets.h ****        *
 552:/usr/include/c++/9.1.0/bits/locale_facets.h ****        *  do_narrow() is a hook for a derived facet to change the behavior of
 553:/usr/include/c++/9.1.0/bits/locale_facets.h ****        *  narrowing.  do_narrow() must always return the same result for the
 554:/usr/include/c++/9.1.0/bits/locale_facets.h ****        *  same input.
 555:/usr/include/c++/9.1.0/bits/locale_facets.h ****        *
 556:/usr/include/c++/9.1.0/bits/locale_facets.h ****        *  Note: this is not what you want for codepage conversions.  See
 557:/usr/include/c++/9.1.0/bits/locale_facets.h ****        *  codecvt for that.
 558:/usr/include/c++/9.1.0/bits/locale_facets.h ****        *
 559:/usr/include/c++/9.1.0/bits/locale_facets.h ****        *  @param __c  The char_type to convert.
 560:/usr/include/c++/9.1.0/bits/locale_facets.h ****        *  @param __dfault  Char to return if conversion fails.
 561:/usr/include/c++/9.1.0/bits/locale_facets.h ****        *  @return  The converted char.
 562:/usr/include/c++/9.1.0/bits/locale_facets.h ****       */
 563:/usr/include/c++/9.1.0/bits/locale_facets.h ****       virtual char
 564:/usr/include/c++/9.1.0/bits/locale_facets.h ****       do_narrow(char_type __c, char __dfault) const = 0;
 565:/usr/include/c++/9.1.0/bits/locale_facets.h **** 
 566:/usr/include/c++/9.1.0/bits/locale_facets.h ****       /**
 567:/usr/include/c++/9.1.0/bits/locale_facets.h ****        *  @brief  Narrow char_type array to char
 568:/usr/include/c++/9.1.0/bits/locale_facets.h ****        *
 569:/usr/include/c++/9.1.0/bits/locale_facets.h ****        *  This virtual function converts each char_type in the range
GAS LISTING /tmp/cc6iEGVT.s 			page 63


 570:/usr/include/c++/9.1.0/bits/locale_facets.h ****        *  [__lo,__hi) to char using the simplest reasonable
 571:/usr/include/c++/9.1.0/bits/locale_facets.h ****        *  transformation and writes the results to the destination
 572:/usr/include/c++/9.1.0/bits/locale_facets.h ****        *  array.  For any element in the input that cannot be
 573:/usr/include/c++/9.1.0/bits/locale_facets.h ****        *  converted, @a __dfault is used instead.
 574:/usr/include/c++/9.1.0/bits/locale_facets.h ****        *
 575:/usr/include/c++/9.1.0/bits/locale_facets.h ****        *  do_narrow() is a hook for a derived facet to change the behavior of
 576:/usr/include/c++/9.1.0/bits/locale_facets.h ****        *  narrowing.  do_narrow() must always return the same result for the
 577:/usr/include/c++/9.1.0/bits/locale_facets.h ****        *  same input.
 578:/usr/include/c++/9.1.0/bits/locale_facets.h ****        *
 579:/usr/include/c++/9.1.0/bits/locale_facets.h ****        *  Note: this is not what you want for codepage conversions.  See
 580:/usr/include/c++/9.1.0/bits/locale_facets.h ****        *  codecvt for that.
 581:/usr/include/c++/9.1.0/bits/locale_facets.h ****        *
 582:/usr/include/c++/9.1.0/bits/locale_facets.h ****        *  @param __lo  Pointer to start of range.
 583:/usr/include/c++/9.1.0/bits/locale_facets.h ****        *  @param __hi  Pointer to end of range.
 584:/usr/include/c++/9.1.0/bits/locale_facets.h ****        *  @param __dfault  Char to use if conversion fails.
 585:/usr/include/c++/9.1.0/bits/locale_facets.h ****        *  @param __to  Pointer to the destination array.
 586:/usr/include/c++/9.1.0/bits/locale_facets.h ****        *  @return  @a __hi.
 587:/usr/include/c++/9.1.0/bits/locale_facets.h ****       */
 588:/usr/include/c++/9.1.0/bits/locale_facets.h ****       virtual const char_type*
 589:/usr/include/c++/9.1.0/bits/locale_facets.h ****       do_narrow(const char_type* __lo, const char_type* __hi,
 590:/usr/include/c++/9.1.0/bits/locale_facets.h **** 		char __dfault, char* __to) const = 0;
 591:/usr/include/c++/9.1.0/bits/locale_facets.h ****     };
 592:/usr/include/c++/9.1.0/bits/locale_facets.h **** 
 593:/usr/include/c++/9.1.0/bits/locale_facets.h ****   /**
 594:/usr/include/c++/9.1.0/bits/locale_facets.h ****    *  @brief  Primary class template ctype facet.
 595:/usr/include/c++/9.1.0/bits/locale_facets.h ****    *  @ingroup locales
 596:/usr/include/c++/9.1.0/bits/locale_facets.h ****    *
 597:/usr/include/c++/9.1.0/bits/locale_facets.h ****    *  This template class defines classification and conversion functions for
 598:/usr/include/c++/9.1.0/bits/locale_facets.h ****    *  character sets.  It wraps cctype functionality.  Ctype gets used by
 599:/usr/include/c++/9.1.0/bits/locale_facets.h ****    *  streams for many I/O operations.
 600:/usr/include/c++/9.1.0/bits/locale_facets.h ****    *
 601:/usr/include/c++/9.1.0/bits/locale_facets.h ****    *  This template provides the protected virtual functions the developer
 602:/usr/include/c++/9.1.0/bits/locale_facets.h ****    *  will have to replace in a derived class or specialization to make a
 603:/usr/include/c++/9.1.0/bits/locale_facets.h ****    *  working facet.  The public functions that access them are defined in
 604:/usr/include/c++/9.1.0/bits/locale_facets.h ****    *  __ctype_abstract_base, to allow for implementation flexibility.  See
 605:/usr/include/c++/9.1.0/bits/locale_facets.h ****    *  ctype<wchar_t> for an example.  The functions are documented in
 606:/usr/include/c++/9.1.0/bits/locale_facets.h ****    *  __ctype_abstract_base.
 607:/usr/include/c++/9.1.0/bits/locale_facets.h ****    *
 608:/usr/include/c++/9.1.0/bits/locale_facets.h ****    *  Note: implementations are provided for all the protected virtual
 609:/usr/include/c++/9.1.0/bits/locale_facets.h ****    *  functions, but will likely not be useful.
 610:/usr/include/c++/9.1.0/bits/locale_facets.h ****   */
 611:/usr/include/c++/9.1.0/bits/locale_facets.h ****   template<typename _CharT>
 612:/usr/include/c++/9.1.0/bits/locale_facets.h ****     class ctype : public __ctype_abstract_base<_CharT>
 613:/usr/include/c++/9.1.0/bits/locale_facets.h ****     {
 614:/usr/include/c++/9.1.0/bits/locale_facets.h ****     public:
 615:/usr/include/c++/9.1.0/bits/locale_facets.h ****       // Types:
 616:/usr/include/c++/9.1.0/bits/locale_facets.h ****       typedef _CharT			char_type;
 617:/usr/include/c++/9.1.0/bits/locale_facets.h ****       typedef typename __ctype_abstract_base<_CharT>::mask mask;
 618:/usr/include/c++/9.1.0/bits/locale_facets.h **** 
 619:/usr/include/c++/9.1.0/bits/locale_facets.h ****       /// The facet id for ctype<char_type>
 620:/usr/include/c++/9.1.0/bits/locale_facets.h ****       static locale::id			id;
 621:/usr/include/c++/9.1.0/bits/locale_facets.h **** 
 622:/usr/include/c++/9.1.0/bits/locale_facets.h ****       explicit
 623:/usr/include/c++/9.1.0/bits/locale_facets.h ****       ctype(size_t __refs = 0) : __ctype_abstract_base<_CharT>(__refs) { }
 624:/usr/include/c++/9.1.0/bits/locale_facets.h **** 
 625:/usr/include/c++/9.1.0/bits/locale_facets.h ****    protected:
 626:/usr/include/c++/9.1.0/bits/locale_facets.h ****       virtual
GAS LISTING /tmp/cc6iEGVT.s 			page 64


 627:/usr/include/c++/9.1.0/bits/locale_facets.h ****       ~ctype();
 628:/usr/include/c++/9.1.0/bits/locale_facets.h **** 
 629:/usr/include/c++/9.1.0/bits/locale_facets.h ****       virtual bool
 630:/usr/include/c++/9.1.0/bits/locale_facets.h ****       do_is(mask __m, char_type __c) const;
 631:/usr/include/c++/9.1.0/bits/locale_facets.h **** 
 632:/usr/include/c++/9.1.0/bits/locale_facets.h ****       virtual const char_type*
 633:/usr/include/c++/9.1.0/bits/locale_facets.h ****       do_is(const char_type* __lo, const char_type* __hi, mask* __vec) const;
 634:/usr/include/c++/9.1.0/bits/locale_facets.h **** 
 635:/usr/include/c++/9.1.0/bits/locale_facets.h ****       virtual const char_type*
 636:/usr/include/c++/9.1.0/bits/locale_facets.h ****       do_scan_is(mask __m, const char_type* __lo, const char_type* __hi) const;
 637:/usr/include/c++/9.1.0/bits/locale_facets.h **** 
 638:/usr/include/c++/9.1.0/bits/locale_facets.h ****       virtual const char_type*
 639:/usr/include/c++/9.1.0/bits/locale_facets.h ****       do_scan_not(mask __m, const char_type* __lo,
 640:/usr/include/c++/9.1.0/bits/locale_facets.h **** 		  const char_type* __hi) const;
 641:/usr/include/c++/9.1.0/bits/locale_facets.h **** 
 642:/usr/include/c++/9.1.0/bits/locale_facets.h ****       virtual char_type
 643:/usr/include/c++/9.1.0/bits/locale_facets.h ****       do_toupper(char_type __c) const;
 644:/usr/include/c++/9.1.0/bits/locale_facets.h **** 
 645:/usr/include/c++/9.1.0/bits/locale_facets.h ****       virtual const char_type*
 646:/usr/include/c++/9.1.0/bits/locale_facets.h ****       do_toupper(char_type* __lo, const char_type* __hi) const;
 647:/usr/include/c++/9.1.0/bits/locale_facets.h **** 
 648:/usr/include/c++/9.1.0/bits/locale_facets.h ****       virtual char_type
 649:/usr/include/c++/9.1.0/bits/locale_facets.h ****       do_tolower(char_type __c) const;
 650:/usr/include/c++/9.1.0/bits/locale_facets.h **** 
 651:/usr/include/c++/9.1.0/bits/locale_facets.h ****       virtual const char_type*
 652:/usr/include/c++/9.1.0/bits/locale_facets.h ****       do_tolower(char_type* __lo, const char_type* __hi) const;
 653:/usr/include/c++/9.1.0/bits/locale_facets.h **** 
 654:/usr/include/c++/9.1.0/bits/locale_facets.h ****       virtual char_type
 655:/usr/include/c++/9.1.0/bits/locale_facets.h ****       do_widen(char __c) const;
 656:/usr/include/c++/9.1.0/bits/locale_facets.h **** 
 657:/usr/include/c++/9.1.0/bits/locale_facets.h ****       virtual const char*
 658:/usr/include/c++/9.1.0/bits/locale_facets.h ****       do_widen(const char* __lo, const char* __hi, char_type* __dest) const;
 659:/usr/include/c++/9.1.0/bits/locale_facets.h **** 
 660:/usr/include/c++/9.1.0/bits/locale_facets.h ****       virtual char
 661:/usr/include/c++/9.1.0/bits/locale_facets.h ****       do_narrow(char_type, char __dfault) const;
 662:/usr/include/c++/9.1.0/bits/locale_facets.h **** 
 663:/usr/include/c++/9.1.0/bits/locale_facets.h ****       virtual const char_type*
 664:/usr/include/c++/9.1.0/bits/locale_facets.h ****       do_narrow(const char_type* __lo, const char_type* __hi,
 665:/usr/include/c++/9.1.0/bits/locale_facets.h **** 		char __dfault, char* __to) const;
 666:/usr/include/c++/9.1.0/bits/locale_facets.h ****     };
 667:/usr/include/c++/9.1.0/bits/locale_facets.h **** 
 668:/usr/include/c++/9.1.0/bits/locale_facets.h ****   template<typename _CharT>
 669:/usr/include/c++/9.1.0/bits/locale_facets.h ****     locale::id ctype<_CharT>::id;
 670:/usr/include/c++/9.1.0/bits/locale_facets.h **** 
 671:/usr/include/c++/9.1.0/bits/locale_facets.h ****   /**
 672:/usr/include/c++/9.1.0/bits/locale_facets.h ****    *  @brief  The ctype<char> specialization.
 673:/usr/include/c++/9.1.0/bits/locale_facets.h ****    *  @ingroup locales
 674:/usr/include/c++/9.1.0/bits/locale_facets.h ****    *
 675:/usr/include/c++/9.1.0/bits/locale_facets.h ****    *  This class defines classification and conversion functions for
 676:/usr/include/c++/9.1.0/bits/locale_facets.h ****    *  the char type.  It gets used by char streams for many I/O
 677:/usr/include/c++/9.1.0/bits/locale_facets.h ****    *  operations.  The char specialization provides a number of
 678:/usr/include/c++/9.1.0/bits/locale_facets.h ****    *  optimizations as well.
 679:/usr/include/c++/9.1.0/bits/locale_facets.h ****   */
 680:/usr/include/c++/9.1.0/bits/locale_facets.h ****   template<>
 681:/usr/include/c++/9.1.0/bits/locale_facets.h ****     class ctype<char> : public locale::facet, public ctype_base
 682:/usr/include/c++/9.1.0/bits/locale_facets.h ****     {
 683:/usr/include/c++/9.1.0/bits/locale_facets.h ****     public:
GAS LISTING /tmp/cc6iEGVT.s 			page 65


 684:/usr/include/c++/9.1.0/bits/locale_facets.h ****       // Types:
 685:/usr/include/c++/9.1.0/bits/locale_facets.h ****       /// Typedef for the template parameter char.
 686:/usr/include/c++/9.1.0/bits/locale_facets.h ****       typedef char		char_type;
 687:/usr/include/c++/9.1.0/bits/locale_facets.h **** 
 688:/usr/include/c++/9.1.0/bits/locale_facets.h ****     protected:
 689:/usr/include/c++/9.1.0/bits/locale_facets.h ****       // Data Members:
 690:/usr/include/c++/9.1.0/bits/locale_facets.h ****       __c_locale		_M_c_locale_ctype;
 691:/usr/include/c++/9.1.0/bits/locale_facets.h ****       bool			_M_del;
 692:/usr/include/c++/9.1.0/bits/locale_facets.h ****       __to_type			_M_toupper;
 693:/usr/include/c++/9.1.0/bits/locale_facets.h ****       __to_type			_M_tolower;
 694:/usr/include/c++/9.1.0/bits/locale_facets.h ****       const mask*		_M_table;
 695:/usr/include/c++/9.1.0/bits/locale_facets.h ****       mutable char		_M_widen_ok;
 696:/usr/include/c++/9.1.0/bits/locale_facets.h ****       mutable char		_M_widen[1 + static_cast<unsigned char>(-1)];
 697:/usr/include/c++/9.1.0/bits/locale_facets.h ****       mutable char		_M_narrow[1 + static_cast<unsigned char>(-1)];
 698:/usr/include/c++/9.1.0/bits/locale_facets.h ****       mutable char		_M_narrow_ok;	// 0 uninitialized, 1 init,
 699:/usr/include/c++/9.1.0/bits/locale_facets.h **** 						// 2 memcpy can't be used
 700:/usr/include/c++/9.1.0/bits/locale_facets.h **** 
 701:/usr/include/c++/9.1.0/bits/locale_facets.h ****     public:
 702:/usr/include/c++/9.1.0/bits/locale_facets.h ****       /// The facet id for ctype<char>
 703:/usr/include/c++/9.1.0/bits/locale_facets.h ****       static locale::id        id;
 704:/usr/include/c++/9.1.0/bits/locale_facets.h ****       /// The size of the mask table.  It is SCHAR_MAX + 1.
 705:/usr/include/c++/9.1.0/bits/locale_facets.h ****       static const size_t      table_size = 1 + static_cast<unsigned char>(-1);
 706:/usr/include/c++/9.1.0/bits/locale_facets.h **** 
 707:/usr/include/c++/9.1.0/bits/locale_facets.h ****       /**
 708:/usr/include/c++/9.1.0/bits/locale_facets.h ****        *  @brief  Constructor performs initialization.
 709:/usr/include/c++/9.1.0/bits/locale_facets.h ****        *
 710:/usr/include/c++/9.1.0/bits/locale_facets.h ****        *  This is the constructor provided by the standard.
 711:/usr/include/c++/9.1.0/bits/locale_facets.h ****        *
 712:/usr/include/c++/9.1.0/bits/locale_facets.h ****        *  @param __table If non-zero, table is used as the per-char mask.
 713:/usr/include/c++/9.1.0/bits/locale_facets.h ****        *               Else classic_table() is used.
 714:/usr/include/c++/9.1.0/bits/locale_facets.h ****        *  @param __del   If true, passes ownership of table to this facet.
 715:/usr/include/c++/9.1.0/bits/locale_facets.h ****        *  @param __refs  Passed to the base facet class.
 716:/usr/include/c++/9.1.0/bits/locale_facets.h ****       */
 717:/usr/include/c++/9.1.0/bits/locale_facets.h ****       explicit
 718:/usr/include/c++/9.1.0/bits/locale_facets.h ****       ctype(const mask* __table = 0, bool __del = false, size_t __refs = 0);
 719:/usr/include/c++/9.1.0/bits/locale_facets.h **** 
 720:/usr/include/c++/9.1.0/bits/locale_facets.h ****       /**
 721:/usr/include/c++/9.1.0/bits/locale_facets.h ****        *  @brief  Constructor performs static initialization.
 722:/usr/include/c++/9.1.0/bits/locale_facets.h ****        *
 723:/usr/include/c++/9.1.0/bits/locale_facets.h ****        *  This constructor is used to construct the initial C locale facet.
 724:/usr/include/c++/9.1.0/bits/locale_facets.h ****        *
 725:/usr/include/c++/9.1.0/bits/locale_facets.h ****        *  @param __cloc  Handle to C locale data.
 726:/usr/include/c++/9.1.0/bits/locale_facets.h ****        *  @param __table If non-zero, table is used as the per-char mask.
 727:/usr/include/c++/9.1.0/bits/locale_facets.h ****        *  @param __del   If true, passes ownership of table to this facet.
 728:/usr/include/c++/9.1.0/bits/locale_facets.h ****        *  @param __refs  Passed to the base facet class.
 729:/usr/include/c++/9.1.0/bits/locale_facets.h ****       */
 730:/usr/include/c++/9.1.0/bits/locale_facets.h ****       explicit
 731:/usr/include/c++/9.1.0/bits/locale_facets.h ****       ctype(__c_locale __cloc, const mask* __table = 0, bool __del = false,
 732:/usr/include/c++/9.1.0/bits/locale_facets.h **** 	    size_t __refs = 0);
 733:/usr/include/c++/9.1.0/bits/locale_facets.h **** 
 734:/usr/include/c++/9.1.0/bits/locale_facets.h ****       /**
 735:/usr/include/c++/9.1.0/bits/locale_facets.h ****        *  @brief  Test char classification.
 736:/usr/include/c++/9.1.0/bits/locale_facets.h ****        *
 737:/usr/include/c++/9.1.0/bits/locale_facets.h ****        *  This function compares the mask table[c] to @a __m.
 738:/usr/include/c++/9.1.0/bits/locale_facets.h ****        *
 739:/usr/include/c++/9.1.0/bits/locale_facets.h ****        *  @param __c  The char to compare the mask of.
 740:/usr/include/c++/9.1.0/bits/locale_facets.h ****        *  @param __m  The mask to compare against.
GAS LISTING /tmp/cc6iEGVT.s 			page 66


 741:/usr/include/c++/9.1.0/bits/locale_facets.h ****        *  @return  True if __m & table[__c] is true, false otherwise.
 742:/usr/include/c++/9.1.0/bits/locale_facets.h ****       */
 743:/usr/include/c++/9.1.0/bits/locale_facets.h ****       inline bool
 744:/usr/include/c++/9.1.0/bits/locale_facets.h ****       is(mask __m, char __c) const;
 745:/usr/include/c++/9.1.0/bits/locale_facets.h **** 
 746:/usr/include/c++/9.1.0/bits/locale_facets.h ****       /**
 747:/usr/include/c++/9.1.0/bits/locale_facets.h ****        *  @brief  Return a mask array.
 748:/usr/include/c++/9.1.0/bits/locale_facets.h ****        *
 749:/usr/include/c++/9.1.0/bits/locale_facets.h ****        *  This function finds the mask for each char in the range [lo, hi) and
 750:/usr/include/c++/9.1.0/bits/locale_facets.h ****        *  successively writes it to vec.  vec must have as many elements as
 751:/usr/include/c++/9.1.0/bits/locale_facets.h ****        *  the char array.
 752:/usr/include/c++/9.1.0/bits/locale_facets.h ****        *
 753:/usr/include/c++/9.1.0/bits/locale_facets.h ****        *  @param __lo  Pointer to start of range.
 754:/usr/include/c++/9.1.0/bits/locale_facets.h ****        *  @param __hi  Pointer to end of range.
 755:/usr/include/c++/9.1.0/bits/locale_facets.h ****        *  @param __vec  Pointer to an array of mask storage.
 756:/usr/include/c++/9.1.0/bits/locale_facets.h ****        *  @return  @a __hi.
 757:/usr/include/c++/9.1.0/bits/locale_facets.h ****       */
 758:/usr/include/c++/9.1.0/bits/locale_facets.h ****       inline const char*
 759:/usr/include/c++/9.1.0/bits/locale_facets.h ****       is(const char* __lo, const char* __hi, mask* __vec) const;
 760:/usr/include/c++/9.1.0/bits/locale_facets.h **** 
 761:/usr/include/c++/9.1.0/bits/locale_facets.h ****       /**
 762:/usr/include/c++/9.1.0/bits/locale_facets.h ****        *  @brief  Find char matching a mask
 763:/usr/include/c++/9.1.0/bits/locale_facets.h ****        *
 764:/usr/include/c++/9.1.0/bits/locale_facets.h ****        *  This function searches for and returns the first char in [lo,hi) for
 765:/usr/include/c++/9.1.0/bits/locale_facets.h ****        *  which is(m,char) is true.
 766:/usr/include/c++/9.1.0/bits/locale_facets.h ****        *
 767:/usr/include/c++/9.1.0/bits/locale_facets.h ****        *  @param __m  The mask to compare against.
 768:/usr/include/c++/9.1.0/bits/locale_facets.h ****        *  @param __lo  Pointer to start of range.
 769:/usr/include/c++/9.1.0/bits/locale_facets.h ****        *  @param __hi  Pointer to end of range.
 770:/usr/include/c++/9.1.0/bits/locale_facets.h ****        *  @return  Pointer to a matching char if found, else @a __hi.
 771:/usr/include/c++/9.1.0/bits/locale_facets.h ****       */
 772:/usr/include/c++/9.1.0/bits/locale_facets.h ****       inline const char*
 773:/usr/include/c++/9.1.0/bits/locale_facets.h ****       scan_is(mask __m, const char* __lo, const char* __hi) const;
 774:/usr/include/c++/9.1.0/bits/locale_facets.h **** 
 775:/usr/include/c++/9.1.0/bits/locale_facets.h ****       /**
 776:/usr/include/c++/9.1.0/bits/locale_facets.h ****        *  @brief  Find char not matching a mask
 777:/usr/include/c++/9.1.0/bits/locale_facets.h ****        *
 778:/usr/include/c++/9.1.0/bits/locale_facets.h ****        *  This function searches for and returns a pointer to the first char
 779:/usr/include/c++/9.1.0/bits/locale_facets.h ****        *  in [__lo,__hi) for which is(m,char) is false.
 780:/usr/include/c++/9.1.0/bits/locale_facets.h ****        *
 781:/usr/include/c++/9.1.0/bits/locale_facets.h ****        *  @param __m  The mask to compare against.
 782:/usr/include/c++/9.1.0/bits/locale_facets.h ****        *  @param __lo  Pointer to start of range.
 783:/usr/include/c++/9.1.0/bits/locale_facets.h ****        *  @param __hi  Pointer to end of range.
 784:/usr/include/c++/9.1.0/bits/locale_facets.h ****        *  @return  Pointer to a non-matching char if found, else @a __hi.
 785:/usr/include/c++/9.1.0/bits/locale_facets.h ****       */
 786:/usr/include/c++/9.1.0/bits/locale_facets.h ****       inline const char*
 787:/usr/include/c++/9.1.0/bits/locale_facets.h ****       scan_not(mask __m, const char* __lo, const char* __hi) const;
 788:/usr/include/c++/9.1.0/bits/locale_facets.h **** 
 789:/usr/include/c++/9.1.0/bits/locale_facets.h ****       /**
 790:/usr/include/c++/9.1.0/bits/locale_facets.h ****        *  @brief  Convert to uppercase.
 791:/usr/include/c++/9.1.0/bits/locale_facets.h ****        *
 792:/usr/include/c++/9.1.0/bits/locale_facets.h ****        *  This function converts the char argument to uppercase if possible.
 793:/usr/include/c++/9.1.0/bits/locale_facets.h ****        *  If not possible (for example, '2'), returns the argument.
 794:/usr/include/c++/9.1.0/bits/locale_facets.h ****        *
 795:/usr/include/c++/9.1.0/bits/locale_facets.h ****        *  toupper() acts as if it returns ctype<char>::do_toupper(c).
 796:/usr/include/c++/9.1.0/bits/locale_facets.h ****        *  do_toupper() must always return the same result for the same input.
 797:/usr/include/c++/9.1.0/bits/locale_facets.h ****        *
GAS LISTING /tmp/cc6iEGVT.s 			page 67


 798:/usr/include/c++/9.1.0/bits/locale_facets.h ****        *  @param __c  The char to convert.
 799:/usr/include/c++/9.1.0/bits/locale_facets.h ****        *  @return  The uppercase char if convertible, else @a __c.
 800:/usr/include/c++/9.1.0/bits/locale_facets.h ****       */
 801:/usr/include/c++/9.1.0/bits/locale_facets.h ****       char_type
 802:/usr/include/c++/9.1.0/bits/locale_facets.h ****       toupper(char_type __c) const
 803:/usr/include/c++/9.1.0/bits/locale_facets.h ****       { return this->do_toupper(__c); }
 804:/usr/include/c++/9.1.0/bits/locale_facets.h **** 
 805:/usr/include/c++/9.1.0/bits/locale_facets.h ****       /**
 806:/usr/include/c++/9.1.0/bits/locale_facets.h ****        *  @brief  Convert array to uppercase.
 807:/usr/include/c++/9.1.0/bits/locale_facets.h ****        *
 808:/usr/include/c++/9.1.0/bits/locale_facets.h ****        *  This function converts each char in the range [__lo,__hi) to uppercase
 809:/usr/include/c++/9.1.0/bits/locale_facets.h ****        *  if possible.  Other chars remain untouched.
 810:/usr/include/c++/9.1.0/bits/locale_facets.h ****        *
 811:/usr/include/c++/9.1.0/bits/locale_facets.h ****        *  toupper() acts as if it returns ctype<char>:: do_toupper(__lo, __hi).
 812:/usr/include/c++/9.1.0/bits/locale_facets.h ****        *  do_toupper() must always return the same result for the same input.
 813:/usr/include/c++/9.1.0/bits/locale_facets.h ****        *
 814:/usr/include/c++/9.1.0/bits/locale_facets.h ****        *  @param __lo  Pointer to first char in range.
 815:/usr/include/c++/9.1.0/bits/locale_facets.h ****        *  @param __hi  Pointer to end of range.
 816:/usr/include/c++/9.1.0/bits/locale_facets.h ****        *  @return  @a __hi.
 817:/usr/include/c++/9.1.0/bits/locale_facets.h ****       */
 818:/usr/include/c++/9.1.0/bits/locale_facets.h ****       const char_type*
 819:/usr/include/c++/9.1.0/bits/locale_facets.h ****       toupper(char_type *__lo, const char_type* __hi) const
 820:/usr/include/c++/9.1.0/bits/locale_facets.h ****       { return this->do_toupper(__lo, __hi); }
 821:/usr/include/c++/9.1.0/bits/locale_facets.h **** 
 822:/usr/include/c++/9.1.0/bits/locale_facets.h ****       /**
 823:/usr/include/c++/9.1.0/bits/locale_facets.h ****        *  @brief  Convert to lowercase.
 824:/usr/include/c++/9.1.0/bits/locale_facets.h ****        *
 825:/usr/include/c++/9.1.0/bits/locale_facets.h ****        *  This function converts the char argument to lowercase if possible.
 826:/usr/include/c++/9.1.0/bits/locale_facets.h ****        *  If not possible (for example, '2'), returns the argument.
 827:/usr/include/c++/9.1.0/bits/locale_facets.h ****        *
 828:/usr/include/c++/9.1.0/bits/locale_facets.h ****        *  tolower() acts as if it returns ctype<char>::do_tolower(__c).
 829:/usr/include/c++/9.1.0/bits/locale_facets.h ****        *  do_tolower() must always return the same result for the same input.
 830:/usr/include/c++/9.1.0/bits/locale_facets.h ****        *
 831:/usr/include/c++/9.1.0/bits/locale_facets.h ****        *  @param __c  The char to convert.
 832:/usr/include/c++/9.1.0/bits/locale_facets.h ****        *  @return  The lowercase char if convertible, else @a __c.
 833:/usr/include/c++/9.1.0/bits/locale_facets.h ****       */
 834:/usr/include/c++/9.1.0/bits/locale_facets.h ****       char_type
 835:/usr/include/c++/9.1.0/bits/locale_facets.h ****       tolower(char_type __c) const
 836:/usr/include/c++/9.1.0/bits/locale_facets.h ****       { return this->do_tolower(__c); }
 837:/usr/include/c++/9.1.0/bits/locale_facets.h **** 
 838:/usr/include/c++/9.1.0/bits/locale_facets.h ****       /**
 839:/usr/include/c++/9.1.0/bits/locale_facets.h ****        *  @brief  Convert array to lowercase.
 840:/usr/include/c++/9.1.0/bits/locale_facets.h ****        *
 841:/usr/include/c++/9.1.0/bits/locale_facets.h ****        *  This function converts each char in the range [lo,hi) to lowercase
 842:/usr/include/c++/9.1.0/bits/locale_facets.h ****        *  if possible.  Other chars remain untouched.
 843:/usr/include/c++/9.1.0/bits/locale_facets.h ****        *
 844:/usr/include/c++/9.1.0/bits/locale_facets.h ****        *  tolower() acts as if it returns ctype<char>:: do_tolower(__lo, __hi).
 845:/usr/include/c++/9.1.0/bits/locale_facets.h ****        *  do_tolower() must always return the same result for the same input.
 846:/usr/include/c++/9.1.0/bits/locale_facets.h ****        *
 847:/usr/include/c++/9.1.0/bits/locale_facets.h ****        *  @param __lo  Pointer to first char in range.
 848:/usr/include/c++/9.1.0/bits/locale_facets.h ****        *  @param __hi  Pointer to end of range.
 849:/usr/include/c++/9.1.0/bits/locale_facets.h ****        *  @return  @a __hi.
 850:/usr/include/c++/9.1.0/bits/locale_facets.h ****       */
 851:/usr/include/c++/9.1.0/bits/locale_facets.h ****       const char_type*
 852:/usr/include/c++/9.1.0/bits/locale_facets.h ****       tolower(char_type* __lo, const char_type* __hi) const
 853:/usr/include/c++/9.1.0/bits/locale_facets.h ****       { return this->do_tolower(__lo, __hi); }
 854:/usr/include/c++/9.1.0/bits/locale_facets.h **** 
GAS LISTING /tmp/cc6iEGVT.s 			page 68


 855:/usr/include/c++/9.1.0/bits/locale_facets.h ****       /**
 856:/usr/include/c++/9.1.0/bits/locale_facets.h ****        *  @brief  Widen char
 857:/usr/include/c++/9.1.0/bits/locale_facets.h ****        *
 858:/usr/include/c++/9.1.0/bits/locale_facets.h ****        *  This function converts the char to char_type using the simplest
 859:/usr/include/c++/9.1.0/bits/locale_facets.h ****        *  reasonable transformation.  For an underived ctype<char> facet, the
 860:/usr/include/c++/9.1.0/bits/locale_facets.h ****        *  argument will be returned unchanged.
 861:/usr/include/c++/9.1.0/bits/locale_facets.h ****        *
 862:/usr/include/c++/9.1.0/bits/locale_facets.h ****        *  This function works as if it returns ctype<char>::do_widen(c).
 863:/usr/include/c++/9.1.0/bits/locale_facets.h ****        *  do_widen() must always return the same result for the same input.
 864:/usr/include/c++/9.1.0/bits/locale_facets.h ****        *
 865:/usr/include/c++/9.1.0/bits/locale_facets.h ****        *  Note: this is not what you want for codepage conversions.  See
 866:/usr/include/c++/9.1.0/bits/locale_facets.h ****        *  codecvt for that.
 867:/usr/include/c++/9.1.0/bits/locale_facets.h ****        *
 868:/usr/include/c++/9.1.0/bits/locale_facets.h ****        *  @param __c  The char to convert.
 869:/usr/include/c++/9.1.0/bits/locale_facets.h ****        *  @return  The converted character.
 870:/usr/include/c++/9.1.0/bits/locale_facets.h ****       */
 871:/usr/include/c++/9.1.0/bits/locale_facets.h ****       char_type
 872:/usr/include/c++/9.1.0/bits/locale_facets.h ****       widen(char __c) const
 649              		.loc 7 872 7 is_stmt 1 view .LVU179
 650              	.LBB224:
 873:/usr/include/c++/9.1.0/bits/locale_facets.h ****       {
 874:/usr/include/c++/9.1.0/bits/locale_facets.h **** 	if (_M_widen_ok)
 651              		.loc 7 874 2 view .LVU180
 652 03cc 41807D38 		cmpb	$0, 56(%r13)
 652      00
 653 03d1 743A     		je	.L45
 875:/usr/include/c++/9.1.0/bits/locale_facets.h **** 	  return _M_widen[static_cast<unsigned char>(__c)];
 654              		.loc 7 875 4 view .LVU181
 655              		.loc 7 875 51 is_stmt 0 view .LVU182
 656 03d3 410FB645 		movzbl	67(%r13), %eax
 656      43
 657              	.LVL51:
 658              	.L46:
 659              		.loc 7 875 51 view .LVU183
 660              	.LBE224:
 661              	.LBE223:
 662              	.LBE219:
 663              	.LBE218:
 664              		.loc 4 600 19 view .LVU184
 665 03d8 0FBEF0   		movsbl	%al, %esi
 666 03db 4C89E7   		movq	%r12, %rdi
 667 03de E8000000 		call	_ZNSo3putEc@PLT
 667      00
 668              	.LVL52:
 669 03e3 4889C7   		movq	%rax, %rdi
 670              	.LVL53:
 671              	.LBB229:
 672              	.LBI229:
 601:/usr/include/c++/9.1.0/ostream **** 
 602:/usr/include/c++/9.1.0/ostream ****   /**
 603:/usr/include/c++/9.1.0/ostream ****    *  @brief  Write a null character into the output sequence.
 604:/usr/include/c++/9.1.0/ostream ****    *
 605:/usr/include/c++/9.1.0/ostream ****    *  <em>Null character</em> is @c CharT() by definition.  For CharT
 606:/usr/include/c++/9.1.0/ostream ****    *  of @c char, this correctly writes the ASCII @c NUL character
 607:/usr/include/c++/9.1.0/ostream ****    *  string terminator.
 608:/usr/include/c++/9.1.0/ostream ****   */
 609:/usr/include/c++/9.1.0/ostream ****   template<typename _CharT, typename _Traits>
GAS LISTING /tmp/cc6iEGVT.s 			page 69


 610:/usr/include/c++/9.1.0/ostream ****     inline basic_ostream<_CharT, _Traits>&
 611:/usr/include/c++/9.1.0/ostream ****     ends(basic_ostream<_CharT, _Traits>& __os)
 612:/usr/include/c++/9.1.0/ostream ****     { return __os.put(_CharT()); }
 613:/usr/include/c++/9.1.0/ostream **** 
 614:/usr/include/c++/9.1.0/ostream ****   /**
 615:/usr/include/c++/9.1.0/ostream ****    *  @brief  Flushes the output stream.
 616:/usr/include/c++/9.1.0/ostream ****    *
 617:/usr/include/c++/9.1.0/ostream ****    *  This manipulator simply calls the stream's @c flush() member function.
 618:/usr/include/c++/9.1.0/ostream ****   */
 619:/usr/include/c++/9.1.0/ostream ****   template<typename _CharT, typename _Traits>
 620:/usr/include/c++/9.1.0/ostream ****     inline basic_ostream<_CharT, _Traits>&
 621:/usr/include/c++/9.1.0/ostream ****     flush(basic_ostream<_CharT, _Traits>& __os)
 673              		.loc 4 621 5 is_stmt 1 view .LVU185
 674              	.LBB230:
 622:/usr/include/c++/9.1.0/ostream ****     { return __os.flush(); }
 675              		.loc 4 622 25 is_stmt 0 view .LVU186
 676 03e6 E8000000 		call	_ZNSo5flushEv@PLT
 676      00
 677              	.LVL54:
 678              		.loc 4 622 25 view .LVU187
 679              	.LBE230:
 680              	.LBE229:
 681              	.LBE217:
 682              	.LBE216:
 683              	.LBE215:
 141:Src/main.cpp  **** 	struct obstacle **obsts = (struct obstacle**)malloc(sizeof(struct obstacle*) * size);
 684              		.loc 1 141 2 is_stmt 1 view .LVU188
 142:Src/main.cpp  **** 	for(size_t i = 0; i < numOfObstacles; i++)
 685              		.loc 1 142 2 view .LVU189
 142:Src/main.cpp  **** 	for(size_t i = 0; i < numOfObstacles; i++)
 686              		.loc 1 142 53 is_stmt 0 view .LVU190
 687 03eb 488D3CED 		leaq	0(,%rbp,8), %rdi
 687      00000000 
 688 03f3 E8000000 		call	malloc@PLT
 688      00
 689              	.LVL55:
 690 03f8 4989C4   		movq	%rax, %r12
 691              	.LVL56:
 143:Src/main.cpp  **** 	{
 692              		.loc 1 143 2 is_stmt 1 view .LVU191
 693              	.LBB234:
 143:Src/main.cpp  **** 	{
 694              		.loc 1 143 13 is_stmt 0 view .LVU192
 695 03fb B9000000 		movl	$0, %ecx
 695      00
 696              	.LBE234:
 141:Src/main.cpp  **** 	struct obstacle **obsts = (struct obstacle**)malloc(sizeof(struct obstacle*) * size);
 697              		.loc 1 141 9 view .LVU193
 698 0400 41B80000 		movl	$0, %r8d
 698      0000
 699 0406 EB3D     		jmp	.L55
 700              	.LVL57:
 701              	.L66:
 702              	.LBB235:
 703              	.LBB233:
 704              	.LBB232:
 705              	.LBB231:
GAS LISTING /tmp/cc6iEGVT.s 			page 70


 706              	.LBB228:
 707              	.LBB226:
 708              	.LBB222:
  50:/usr/include/c++/9.1.0/bits/basic_ios.h ****       return *__f;
 709              		.loc 6 50 18 view .LVU194
 710 0408 E8000000 		call	_ZSt16__throw_bad_castv@PLT
 710      00
 711              	.LVL58:
 712              	.L45:
  50:/usr/include/c++/9.1.0/bits/basic_ios.h ****       return *__f;
 713              		.loc 6 50 18 view .LVU195
 714              	.LBE222:
 715              	.LBE226:
 716              	.LBB227:
 717              	.LBB225:
 876:/usr/include/c++/9.1.0/bits/locale_facets.h **** 	this->_M_widen_init();
 718              		.loc 7 876 2 is_stmt 1 view .LVU196
 719              		.loc 7 876 21 is_stmt 0 view .LVU197
 720 040d 4C89EF   		movq	%r13, %rdi
 721              	.LVL59:
 722              		.loc 7 876 21 view .LVU198
 723 0410 E8000000 		call	_ZNKSt5ctypeIcE13_M_widen_initEv@PLT
 723      00
 724              	.LVL60:
 877:/usr/include/c++/9.1.0/bits/locale_facets.h **** 	return this->do_widen(__c);
 725              		.loc 7 877 2 is_stmt 1 view .LVU199
 726              		.loc 7 877 27 is_stmt 0 view .LVU200
 727 0415 498B4500 		movq	0(%r13), %rax
 728              		.loc 7 877 23 view .LVU201
 729 0419 BE0A0000 		movl	$10, %esi
 729      00
 730 041e 4C89EF   		movq	%r13, %rdi
 731 0421 FF5030   		call	*48(%rax)
 732              	.LVL61:
 733              		.loc 7 877 27 view .LVU202
 734 0424 EBB2     		jmp	.L46
 735              	.LVL62:
 736              	.L48:
 737              		.loc 7 877 27 view .LVU203
 738              	.LBE225:
 739              	.LBE227:
 740              	.LBE228:
 741              	.LBE231:
 742              	.LBE232:
 743              	.LBE233:
 744              	.LBE235:
 745              	.LBB236:
 146:Src/main.cpp  **** 		&& obstacles[i].c->x <= c->x + obstacles[i].a + QUAD_CHECK_SIDE
 746              		.loc 1 146 49 view .LVU204
 747 0426 4889C7   		movq	%rax, %rdi
 748 0429 48D1EF   		shrq	%rdi
 749 042c 83E001   		andl	$1, %eax
 750 042f 4809C7   		orq	%rax, %rdi
 751 0432 660FEFC0 		pxor	%xmm0, %xmm0
 752 0436 F3480F2A 		cvtsi2ssq	%rdi, %xmm0
 752      C7
 753 043b F30F58C0 		addss	%xmm0, %xmm0
GAS LISTING /tmp/cc6iEGVT.s 			page 71


 754 043f EB4C     		jmp	.L49
 755              	.L50:
 143:Src/main.cpp  **** 	{
 756              		.loc 1 143 2 discriminator 2 view .LVU205
 757 0441 4883C101 		addq	$1, %rcx
 758              	.LVL63:
 759              	.L55:
 143:Src/main.cpp  **** 	{
 760              		.loc 1 143 22 discriminator 1 view .LVU206
 761 0445 48390D00 		cmpq	%rcx, numOfObstacles(%rip)
 761      000000
 762 044c 0F869300 		jbe	.L47
 762      0000
 146:Src/main.cpp  **** 		&& obstacles[i].c->x <= c->x + obstacles[i].a + QUAD_CHECK_SIDE
 763              		.loc 1 146 3 is_stmt 1 view .LVU207
 146:Src/main.cpp  **** 		&& obstacles[i].c->x <= c->x + obstacles[i].a + QUAD_CHECK_SIDE
 764              		.loc 1 146 17 is_stmt 0 view .LVU208
 765 0452 488D1449 		leaq	(%rcx,%rcx,2), %rdx
 766 0456 48C1E204 		salq	$4, %rdx
 767 045a 48031500 		addq	obstacles(%rip), %rdx
 767      000000
 146:Src/main.cpp  **** 		&& obstacles[i].c->x <= c->x + obstacles[i].a + QUAD_CHECK_SIDE
 768              		.loc 1 146 19 view .LVU209
 769 0461 488B32   		movq	(%rdx), %rsi
 146:Src/main.cpp  **** 		&& obstacles[i].c->x <= c->x + obstacles[i].a + QUAD_CHECK_SIDE
 770              		.loc 1 146 22 view .LVU210
 771 0464 F30F101E 		movss	(%rsi), %xmm3
 146:Src/main.cpp  **** 		&& obstacles[i].c->x <= c->x + obstacles[i].a + QUAD_CHECK_SIDE
 772              		.loc 1 146 39 view .LVU211
 773 0468 F30F1052 		movss	40(%rdx), %xmm2
 773      28
 146:Src/main.cpp  **** 		&& obstacles[i].c->x <= c->x + obstacles[i].a + QUAD_CHECK_SIDE
 774              		.loc 1 146 24 view .LVU212
 775 046d 0F28EB   		movaps	%xmm3, %xmm5
 776 0470 F30F58EA 		addss	%xmm2, %xmm5
 146:Src/main.cpp  **** 		&& obstacles[i].c->x <= c->x + obstacles[i].a + QUAD_CHECK_SIDE
 777              		.loc 1 146 47 view .LVU213
 778 0474 F30F100B 		movss	(%rbx), %xmm1
 146:Src/main.cpp  **** 		&& obstacles[i].c->x <= c->x + obstacles[i].a + QUAD_CHECK_SIDE
 779              		.loc 1 146 49 view .LVU214
 780 0478 488B0500 		movq	QUAD_CHECK_SIDE(%rip), %rax
 780      000000
 781 047f 4885C0   		testq	%rax, %rax
 782 0482 78A2     		js	.L48
 783 0484 660FEFC0 		pxor	%xmm0, %xmm0
 784 0488 F3480F2A 		cvtsi2ssq	%rax, %xmm0
 784      C0
 785              	.L49:
 786 048d 0F28E1   		movaps	%xmm1, %xmm4
 787 0490 F30F5CE0 		subss	%xmm0, %xmm4
 146:Src/main.cpp  **** 		&& obstacles[i].c->x <= c->x + obstacles[i].a + QUAD_CHECK_SIDE
 788              		.loc 1 146 3 view .LVU215
 789 0494 0F2FEC   		comiss	%xmm4, %xmm5
 790 0497 72A8     		jb	.L50
 147:Src/main.cpp  **** 		&& obstacles[i].c->y + obstacles[i].a >= c->y - QUAD_CHECK_SIDE
 791              		.loc 1 147 32 view .LVU216
 792 0499 F30F58CA 		addss	%xmm2, %xmm1
GAS LISTING /tmp/cc6iEGVT.s 			page 72


 147:Src/main.cpp  **** 		&& obstacles[i].c->y + obstacles[i].a >= c->y - QUAD_CHECK_SIDE
 793              		.loc 1 147 49 view .LVU217
 794 049d F30F58C8 		addss	%xmm0, %xmm1
 147:Src/main.cpp  **** 		&& obstacles[i].c->y + obstacles[i].a >= c->y - QUAD_CHECK_SIDE
 795              		.loc 1 147 3 view .LVU218
 796 04a1 0F2FCB   		comiss	%xmm3, %xmm1
 797 04a4 729B     		jb	.L50
 148:Src/main.cpp  **** 		&& obstacles[i].c->y <= c->y + obstacles[i].a + QUAD_CHECK_SIDE)
 798              		.loc 1 148 22 view .LVU219
 799 04a6 F30F104E 		movss	4(%rsi), %xmm1
 799      04
 148:Src/main.cpp  **** 		&& obstacles[i].c->y <= c->y + obstacles[i].a + QUAD_CHECK_SIDE)
 800              		.loc 1 148 24 view .LVU220
 801 04ab 0F28EA   		movaps	%xmm2, %xmm5
 802 04ae F30F58E9 		addss	%xmm1, %xmm5
 148:Src/main.cpp  **** 		&& obstacles[i].c->y <= c->y + obstacles[i].a + QUAD_CHECK_SIDE)
 803              		.loc 1 148 47 view .LVU221
 804 04b2 F30F105B 		movss	4(%rbx), %xmm3
 804      04
 148:Src/main.cpp  **** 		&& obstacles[i].c->y <= c->y + obstacles[i].a + QUAD_CHECK_SIDE)
 805              		.loc 1 148 49 view .LVU222
 806 04b7 0F28E3   		movaps	%xmm3, %xmm4
 807 04ba F30F5CE0 		subss	%xmm0, %xmm4
 148:Src/main.cpp  **** 		&& obstacles[i].c->y <= c->y + obstacles[i].a + QUAD_CHECK_SIDE)
 808              		.loc 1 148 3 view .LVU223
 809 04be 0F2FEC   		comiss	%xmm4, %xmm5
 810 04c1 0F827AFF 		jb	.L50
 810      FFFF
 149:Src/main.cpp  **** 		obsts[iter++] = &(obstacles[i]);
 811              		.loc 1 149 32 view .LVU224
 812 04c7 F30F58D3 		addss	%xmm3, %xmm2
 149:Src/main.cpp  **** 		obsts[iter++] = &(obstacles[i]);
 813              		.loc 1 149 49 view .LVU225
 814 04cb F30F58C2 		addss	%xmm2, %xmm0
 149:Src/main.cpp  **** 		obsts[iter++] = &(obstacles[i]);
 815              		.loc 1 149 3 view .LVU226
 816 04cf 0F2FC1   		comiss	%xmm1, %xmm0
 817 04d2 0F8269FF 		jb	.L50
 817      FFFF
 150:Src/main.cpp  **** 	}
 818              		.loc 1 150 3 is_stmt 1 view .LVU227
 819              	.LVL64:
 150:Src/main.cpp  **** 	}
 820              		.loc 1 150 17 is_stmt 0 view .LVU228
 821 04d8 4B8914C4 		movq	%rdx, (%r12,%r8,8)
 150:Src/main.cpp  **** 	}
 822              		.loc 1 150 13 view .LVU229
 823 04dc 4D8D4001 		leaq	1(%r8), %r8
 824              	.LVL65:
 150:Src/main.cpp  **** 	}
 825              		.loc 1 150 13 view .LVU230
 826 04e0 E95CFFFF 		jmp	.L50
 826      FF
 827              	.L47:
 150:Src/main.cpp  **** 	}
 828              		.loc 1 150 13 view .LVU231
 829              	.LBE236:
GAS LISTING /tmp/cc6iEGVT.s 			page 73


 152:Src/main.cpp  **** 	ret->items = *obsts;
 830              		.loc 1 152 2 is_stmt 1 view .LVU232
 152:Src/main.cpp  **** 	ret->items = *obsts;
 831              		.loc 1 152 43 is_stmt 0 view .LVU233
 832 04e5 BF100000 		movl	$16, %edi
 832      00
 833 04ea E8000000 		call	malloc@PLT
 833      00
 834              	.LVL66:
 153:Src/main.cpp  **** 	ret->size = size;
 835              		.loc 1 153 2 is_stmt 1 view .LVU234
 153:Src/main.cpp  **** 	ret->size = size;
 836              		.loc 1 153 15 is_stmt 0 view .LVU235
 837 04ef 498B1424 		movq	(%r12), %rdx
 153:Src/main.cpp  **** 	ret->size = size;
 838              		.loc 1 153 13 view .LVU236
 839 04f3 488910   		movq	%rdx, (%rax)
 154:Src/main.cpp  **** 	return ret;
 840              		.loc 1 154 2 is_stmt 1 view .LVU237
 154:Src/main.cpp  **** 	return ret;
 841              		.loc 1 154 12 is_stmt 0 view .LVU238
 842 04f6 48896808 		movq	%rbp, 8(%rax)
 155:Src/main.cpp  **** }
 843              		.loc 1 155 2 is_stmt 1 view .LVU239
 156:Src/main.cpp  **** 
 844              		.loc 1 156 1 is_stmt 0 view .LVU240
 845 04fa 4883C408 		addq	$8, %rsp
 846              		.cfi_def_cfa_offset 40
 847 04fe 5B       		popq	%rbx
 848              		.cfi_def_cfa_offset 32
 849              	.LVL67:
 156:Src/main.cpp  **** 
 850              		.loc 1 156 1 view .LVU241
 851 04ff 5D       		popq	%rbp
 852              		.cfi_def_cfa_offset 24
 853              	.LVL68:
 156:Src/main.cpp  **** 
 854              		.loc 1 156 1 view .LVU242
 855 0500 415C     		popq	%r12
 856              		.cfi_def_cfa_offset 16
 857              	.LVL69:
 156:Src/main.cpp  **** 
 858              		.loc 1 156 1 view .LVU243
 859 0502 415D     		popq	%r13
 860              		.cfi_def_cfa_offset 8
 861 0504 C3       		ret
 862              		.cfi_endproc
 863              	.LFE2477:
 865              		.globl	_Z10getDataSetPK8obstacleh
 867              	_Z10getDataSetPK8obstacleh:
 868              	.LVL70:
 869              	.LFB2478:
 160:Src/main.cpp  **** 	struct graphPoint *p = getPoint(obst, corner);
 870              		.loc 1 160 1 is_stmt 1 view -0
 871              		.cfi_startproc
 160:Src/main.cpp  **** 	struct graphPoint *p = getPoint(obst, corner);
 872              		.loc 1 160 1 is_stmt 0 view .LVU245
GAS LISTING /tmp/cc6iEGVT.s 			page 74


 873 0505 55       		pushq	%rbp
 874              		.cfi_def_cfa_offset 16
 875              		.cfi_offset 6, -16
 876 0506 53       		pushq	%rbx
 877              		.cfi_def_cfa_offset 24
 878              		.cfi_offset 3, -24
 879 0507 4883EC08 		subq	$8, %rsp
 880              		.cfi_def_cfa_offset 32
 881 050b 4889FB   		movq	%rdi, %rbx
 161:Src/main.cpp  **** 	struct coords *c = getCoordsOfCorner(obst, corner);
 882              		.loc 1 161 2 is_stmt 1 view .LVU246
 161:Src/main.cpp  **** 	struct coords *c = getCoordsOfCorner(obst, corner);
 883              		.loc 1 161 33 is_stmt 0 view .LVU247
 884 050e 400FB6EE 		movzbl	%sil, %ebp
 885 0512 89EE     		movl	%ebp, %esi
 161:Src/main.cpp  **** 	struct coords *c = getCoordsOfCorner(obst, corner);
 886              		.loc 1 161 33 view .LVU248
 887 0514 E8000000 		call	_Z8getPointPK8obstacleh@PLT
 887      00
 888              	.LVL71:
 162:Src/main.cpp  **** 
 889              		.loc 1 162 2 is_stmt 1 view .LVU249
 162:Src/main.cpp  **** 
 890              		.loc 1 162 38 is_stmt 0 view .LVU250
 891 0519 89EE     		movl	%ebp, %esi
 892 051b 4889DF   		movq	%rbx, %rdi
 893 051e E8000000 		call	_Z17getCoordsOfCornerPK8obstacleh@PLT
 893      00
 894              	.LVL72:
 895 0523 4889C3   		movq	%rax, %rbx
 896              	.LVL73:
 164:Src/main.cpp  **** 
 897              		.loc 1 164 2 is_stmt 1 view .LVU251
 164:Src/main.cpp  **** 
 898              		.loc 1 164 32 is_stmt 0 view .LVU252
 899 0526 4889C7   		movq	%rax, %rdi
 900 0529 E8000000 		call	_Z10getDataSetPK6coords
 900      00
 901              	.LVL74:
 164:Src/main.cpp  **** 
 902              		.loc 1 164 32 view .LVU253
 903 052e 4889C5   		movq	%rax, %rbp
 904              	.LVL75:
 166:Src/main.cpp  **** 
 905              		.loc 1 166 2 is_stmt 1 view .LVU254
 166:Src/main.cpp  **** 
 906              		.loc 1 166 6 is_stmt 0 view .LVU255
 907 0531 4889DF   		movq	%rbx, %rdi
 908 0534 E8000000 		call	free@PLT
 908      00
 909              	.LVL76:
 168:Src/main.cpp  **** }
 910              		.loc 1 168 2 is_stmt 1 view .LVU256
 169:Src/main.cpp  **** 
 911              		.loc 1 169 1 is_stmt 0 view .LVU257
 912 0539 4889E8   		movq	%rbp, %rax
 913 053c 4883C408 		addq	$8, %rsp
GAS LISTING /tmp/cc6iEGVT.s 			page 75


 914              		.cfi_def_cfa_offset 24
 915 0540 5B       		popq	%rbx
 916              		.cfi_def_cfa_offset 16
 917              	.LVL77:
 169:Src/main.cpp  **** 
 918              		.loc 1 169 1 view .LVU258
 919 0541 5D       		popq	%rbp
 920              		.cfi_def_cfa_offset 8
 921              	.LVL78:
 169:Src/main.cpp  **** 
 922              		.loc 1 169 1 view .LVU259
 923 0542 C3       		ret
 924              		.cfi_endproc
 925              	.LFE2478:
 927              		.globl	_Z16hasIntersectionsPK5arrayPK4vect
 929              	_Z16hasIntersectionsPK5arrayPK4vect:
 930              	.LVL79:
 931              	.LFB2479:
 173:Src/main.cpp  **** 	for(size_t i = 0; i < dataset->size; i++)
 932              		.loc 1 173 1 is_stmt 1 view -0
 933              		.cfi_startproc
 173:Src/main.cpp  **** 	for(size_t i = 0; i < dataset->size; i++)
 934              		.loc 1 173 1 is_stmt 0 view .LVU261
 935 0543 4154     		pushq	%r12
 936              		.cfi_def_cfa_offset 16
 937              		.cfi_offset 12, -16
 938 0545 55       		pushq	%rbp
 939              		.cfi_def_cfa_offset 24
 940              		.cfi_offset 6, -24
 941 0546 53       		pushq	%rbx
 942              		.cfi_def_cfa_offset 32
 943              		.cfi_offset 3, -32
 944 0547 4889FD   		movq	%rdi, %rbp
 945 054a 4989F4   		movq	%rsi, %r12
 174:Src/main.cpp  **** 	{
 946              		.loc 1 174 2 is_stmt 1 view .LVU262
 947              	.LVL80:
 948              	.LBB237:
 174:Src/main.cpp  **** 	{
 949              		.loc 1 174 13 is_stmt 0 view .LVU263
 950 054d BB000000 		movl	$0, %ebx
 950      00
 951              	.LVL81:
 952              	.L71:
 174:Src/main.cpp  **** 	{
 953              		.loc 1 174 22 discriminator 1 view .LVU264
 954 0552 48395D08 		cmpq	%rbx, 8(%rbp)
 955 0556 761E     		jbe	.L72
 176:Src/main.cpp  **** 			return true;
 956              		.loc 1 176 3 is_stmt 1 view .LVU265
 176:Src/main.cpp  **** 			return true;
 957              		.loc 1 176 59 is_stmt 0 view .LVU266
 958 0558 488D3C5B 		leaq	(%rbx,%rbx,2), %rdi
 959 055c 48C1E704 		salq	$4, %rdi
 176:Src/main.cpp  **** 			return true;
 960              		.loc 1 176 21 view .LVU267
 961 0560 48037D00 		addq	0(%rbp), %rdi
GAS LISTING /tmp/cc6iEGVT.s 			page 76


 962 0564 4C89E6   		movq	%r12, %rsi
 963 0567 E8000000 		call	_Z15hasIntersectionPK8obstaclePK4vect@PLT
 963      00
 964              	.LVL82:
 176:Src/main.cpp  **** 			return true;
 965              		.loc 1 176 3 view .LVU268
 966 056c 84C0     		testb	%al, %al
 967 056e 750B     		jne	.L69
 174:Src/main.cpp  **** 	{
 968              		.loc 1 174 2 discriminator 2 view .LVU269
 969 0570 4883C301 		addq	$1, %rbx
 970              	.LVL83:
 174:Src/main.cpp  **** 	{
 971              		.loc 1 174 2 discriminator 2 view .LVU270
 972 0574 EBDC     		jmp	.L71
 973              	.L72:
 174:Src/main.cpp  **** 	{
 974              		.loc 1 174 2 discriminator 2 view .LVU271
 975              	.LBE237:
 179:Src/main.cpp  **** }
 976              		.loc 1 179 9 view .LVU272
 977 0576 B8000000 		movl	$0, %eax
 977      00
 978              	.L69:
 180:Src/main.cpp  **** 
 979              		.loc 1 180 1 view .LVU273
 980 057b 5B       		popq	%rbx
 981              		.cfi_def_cfa_offset 24
 982              	.LVL84:
 180:Src/main.cpp  **** 
 983              		.loc 1 180 1 view .LVU274
 984 057c 5D       		popq	%rbp
 985              		.cfi_def_cfa_offset 16
 986              	.LVL85:
 180:Src/main.cpp  **** 
 987              		.loc 1 180 1 view .LVU275
 988 057d 415C     		popq	%r12
 989              		.cfi_def_cfa_offset 8
 990              	.LVL86:
 180:Src/main.cpp  **** 
 991              		.loc 1 180 1 view .LVU276
 992 057f C3       		ret
 993              		.cfi_endproc
 994              	.LFE2479:
 996              		.globl	_Z16hasIntersectionsPK4vect
 998              	_Z16hasIntersectionsPK4vect:
 999              	.LVL87:
 1000              	.LFB2480:
 183:Src/main.cpp  **** 	for(size_t i = 0; i < numOfObstacles; i++)
 1001              		.loc 1 183 1 is_stmt 1 view -0
 1002              		.cfi_startproc
 183:Src/main.cpp  **** 	for(size_t i = 0; i < numOfObstacles; i++)
 1003              		.loc 1 183 1 is_stmt 0 view .LVU278
 1004 0580 55       		pushq	%rbp
 1005              		.cfi_def_cfa_offset 16
 1006              		.cfi_offset 6, -16
 1007 0581 53       		pushq	%rbx
GAS LISTING /tmp/cc6iEGVT.s 			page 77


 1008              		.cfi_def_cfa_offset 24
 1009              		.cfi_offset 3, -24
 1010 0582 4883EC08 		subq	$8, %rsp
 1011              		.cfi_def_cfa_offset 32
 1012 0586 4889FD   		movq	%rdi, %rbp
 184:Src/main.cpp  **** 	{
 1013              		.loc 1 184 2 is_stmt 1 view .LVU279
 1014              	.LVL88:
 1015              	.LBB238:
 184:Src/main.cpp  **** 	{
 1016              		.loc 1 184 13 is_stmt 0 view .LVU280
 1017 0589 BB000000 		movl	$0, %ebx
 1017      00
 1018              	.LVL89:
 1019              	.L76:
 184:Src/main.cpp  **** 	{
 1020              		.loc 1 184 22 discriminator 1 view .LVU281
 1021 058e 48391D00 		cmpq	%rbx, numOfObstacles(%rip)
 1021      000000
 1022 0595 7621     		jbe	.L77
 186:Src/main.cpp  **** 			return true;
 1023              		.loc 1 186 3 is_stmt 1 view .LVU282
 186:Src/main.cpp  **** 			return true;
 1024              		.loc 1 186 34 is_stmt 0 view .LVU283
 1025 0597 488D3C5B 		leaq	(%rbx,%rbx,2), %rdi
 1026 059b 48C1E704 		salq	$4, %rdi
 186:Src/main.cpp  **** 			return true;
 1027              		.loc 1 186 22 view .LVU284
 1028 059f 48033D00 		addq	obstacles(%rip), %rdi
 1028      000000
 186:Src/main.cpp  **** 			return true;
 1029              		.loc 1 186 21 view .LVU285
 1030 05a6 4889EE   		movq	%rbp, %rsi
 1031 05a9 E8000000 		call	_Z15hasIntersectionPK8obstaclePK4vect@PLT
 1031      00
 1032              	.LVL90:
 186:Src/main.cpp  **** 			return true;
 1033              		.loc 1 186 3 view .LVU286
 1034 05ae 84C0     		testb	%al, %al
 1035 05b0 750B     		jne	.L74
 184:Src/main.cpp  **** 	{
 1036              		.loc 1 184 2 discriminator 2 view .LVU287
 1037 05b2 4883C301 		addq	$1, %rbx
 1038              	.LVL91:
 184:Src/main.cpp  **** 	{
 1039              		.loc 1 184 2 discriminator 2 view .LVU288
 1040 05b6 EBD6     		jmp	.L76
 1041              	.L77:
 184:Src/main.cpp  **** 	{
 1042              		.loc 1 184 2 discriminator 2 view .LVU289
 1043              	.LBE238:
 189:Src/main.cpp  **** }
 1044              		.loc 1 189 9 view .LVU290
 1045 05b8 B8000000 		movl	$0, %eax
 1045      00
 1046              	.L74:
 190:Src/main.cpp  **** 
GAS LISTING /tmp/cc6iEGVT.s 			page 78


 1047              		.loc 1 190 1 view .LVU291
 1048 05bd 4883C408 		addq	$8, %rsp
 1049              		.cfi_def_cfa_offset 24
 1050 05c1 5B       		popq	%rbx
 1051              		.cfi_def_cfa_offset 16
 1052              	.LVL92:
 190:Src/main.cpp  **** 
 1053              		.loc 1 190 1 view .LVU292
 1054 05c2 5D       		popq	%rbp
 1055              		.cfi_def_cfa_offset 8
 1056              	.LVL93:
 190:Src/main.cpp  **** 
 1057              		.loc 1 190 1 view .LVU293
 1058 05c3 C3       		ret
 1059              		.cfi_endproc
 1060              	.LFE2480:
 1062              		.globl	_Z15getIntersectionPK5arrayPK4vect
 1064              	_Z15getIntersectionPK5arrayPK4vect:
 1065              	.LVL94:
 1066              	.LFB2481:
 193:Src/main.cpp  **** 	struct obstacle *o = NULL;
 1067              		.loc 1 193 1 is_stmt 1 view -0
 1068              		.cfi_startproc
 193:Src/main.cpp  **** 	struct obstacle *o = NULL;
 1069              		.loc 1 193 1 is_stmt 0 view .LVU295
 1070 05c4 4155     		pushq	%r13
 1071              		.cfi_def_cfa_offset 16
 1072              		.cfi_offset 13, -16
 1073 05c6 4154     		pushq	%r12
 1074              		.cfi_def_cfa_offset 24
 1075              		.cfi_offset 12, -24
 1076 05c8 55       		pushq	%rbp
 1077              		.cfi_def_cfa_offset 32
 1078              		.cfi_offset 6, -32
 1079 05c9 53       		pushq	%rbx
 1080              		.cfi_def_cfa_offset 40
 1081              		.cfi_offset 3, -40
 1082 05ca 4883EC08 		subq	$8, %rsp
 1083              		.cfi_def_cfa_offset 48
 1084 05ce 4889FD   		movq	%rdi, %rbp
 1085 05d1 4989F4   		movq	%rsi, %r12
 194:Src/main.cpp  **** 	for(size_t i = 0; i < dataset->size; i++)
 1086              		.loc 1 194 2 is_stmt 1 view .LVU296
 1087              	.LVL95:
 195:Src/main.cpp  **** 	{
 1088              		.loc 1 195 2 view .LVU297
 1089              	.LBB239:
 195:Src/main.cpp  **** 	{
 1090              		.loc 1 195 13 is_stmt 0 view .LVU298
 1091 05d4 BB000000 		movl	$0, %ebx
 1091      00
 1092              	.LVL96:
 1093              	.L82:
 195:Src/main.cpp  **** 	{
 1094              		.loc 1 195 22 discriminator 1 view .LVU299
 1095 05d9 48395D08 		cmpq	%rbx, 8(%rbp)
 1096 05dd 762A     		jbe	.L85
GAS LISTING /tmp/cc6iEGVT.s 			page 79


 197:Src/main.cpp  **** 		{
 1097              		.loc 1 197 3 is_stmt 1 view .LVU300
 197:Src/main.cpp  **** 		{
 1098              		.loc 1 197 59 is_stmt 0 view .LVU301
 1099 05df 488D3C5B 		leaq	(%rbx,%rbx,2), %rdi
 1100 05e3 48C1E704 		salq	$4, %rdi
 1101 05e7 4989FD   		movq	%rdi, %r13
 197:Src/main.cpp  **** 		{
 1102              		.loc 1 197 21 view .LVU302
 1103 05ea 48037D00 		addq	0(%rbp), %rdi
 1104 05ee 4C89E6   		movq	%r12, %rsi
 1105 05f1 E8000000 		call	_Z15hasIntersectionPK8obstaclePK4vect@PLT
 1105      00
 1106              	.LVL97:
 197:Src/main.cpp  **** 		{
 1107              		.loc 1 197 3 view .LVU303
 1108 05f6 84C0     		testb	%al, %al
 1109 05f8 7506     		jne	.L87
 195:Src/main.cpp  **** 	{
 1110              		.loc 1 195 2 discriminator 2 view .LVU304
 1111 05fa 4883C301 		addq	$1, %rbx
 1112              	.LVL98:
 195:Src/main.cpp  **** 	{
 1113              		.loc 1 195 2 discriminator 2 view .LVU305
 1114 05fe EBD9     		jmp	.L82
 1115              	.L87:
 199:Src/main.cpp  **** 			break;
 1116              		.loc 1 199 4 is_stmt 1 view .LVU306
 199:Src/main.cpp  **** 			break;
 1117              		.loc 1 199 6 is_stmt 0 view .LVU307
 1118 0600 4C89EF   		movq	%r13, %rdi
 1119 0603 48037D00 		addq	0(%rbp), %rdi
 1120              	.LVL99:
 200:Src/main.cpp  **** 		}
 1121              		.loc 1 200 4 is_stmt 1 view .LVU308
 1122 0607 EB05     		jmp	.L80
 1123              	.LVL100:
 1124              	.L85:
 200:Src/main.cpp  **** 		}
 1125              		.loc 1 200 4 is_stmt 0 view .LVU309
 1126              	.LBE239:
 194:Src/main.cpp  **** 	for(size_t i = 0; i < dataset->size; i++)
 1127              		.loc 1 194 19 view .LVU310
 1128 0609 BF000000 		movl	$0, %edi
 1128      00
 1129              	.LVL101:
 1130              	.L80:
 203:Src/main.cpp  **** 		return {-1, -1};
 1131              		.loc 1 203 2 is_stmt 1 view .LVU311
 1132 060e 4885FF   		testq	%rdi, %rdi
 1133 0611 7422     		je	.L83
 204:Src/main.cpp  **** 
 1134              		.loc 1 204 3 view .LVU312
 204:Src/main.cpp  **** 
 1135              		.loc 1 204 17 is_stmt 0 view .LVU313
 1136 0613 48BA0000 		movabsq	$-4647714815446351872, %rdx
 1136      00000000 
GAS LISTING /tmp/cc6iEGVT.s 			page 80


 1136      80BF
 1137 061d B8000080 		movl	$3212836864, %eax
 1137      BF
 1138 0622 4809D0   		orq	%rdx, %rax
 1139 0625 66480F6E 		movq	%rax, %xmm0
 1139      C0
 1140              	.LVL102:
 1141              	.L84:
 207:Src/main.cpp  **** 
 1142              		.loc 1 207 1 view .LVU314
 1143 062a 4883C408 		addq	$8, %rsp
 1144              		.cfi_remember_state
 1145              		.cfi_def_cfa_offset 40
 1146 062e 5B       		popq	%rbx
 1147              		.cfi_def_cfa_offset 32
 1148              	.LVL103:
 207:Src/main.cpp  **** 
 1149              		.loc 1 207 1 view .LVU315
 1150 062f 5D       		popq	%rbp
 1151              		.cfi_def_cfa_offset 24
 1152              	.LVL104:
 207:Src/main.cpp  **** 
 1153              		.loc 1 207 1 view .LVU316
 1154 0630 415C     		popq	%r12
 1155              		.cfi_def_cfa_offset 16
 1156              	.LVL105:
 207:Src/main.cpp  **** 
 1157              		.loc 1 207 1 view .LVU317
 1158 0632 415D     		popq	%r13
 1159              		.cfi_def_cfa_offset 8
 1160 0634 C3       		ret
 1161              	.LVL106:
 1162              	.L83:
 1163              		.cfi_restore_state
 206:Src/main.cpp  **** }
 1164              		.loc 1 206 2 is_stmt 1 view .LVU318
 206:Src/main.cpp  **** }
 1165              		.loc 1 206 29 is_stmt 0 view .LVU319
 1166 0635 4C89E6   		movq	%r12, %rsi
 1167 0638 E8000000 		call	_Z15getIntersectionPK8obstaclePK4vect@PLT
 1167      00
 1168              	.LVL107:
 206:Src/main.cpp  **** }
 1169              		.loc 1 206 29 view .LVU320
 1170 063d EBEB     		jmp	.L84
 1171              		.cfi_endproc
 1172              	.LFE2481:
 1174              		.globl	_Z14getIntersectedPK5arrayPK4vect
 1176              	_Z14getIntersectedPK5arrayPK4vect:
 1177              	.LVL108:
 1178              	.LFB2482:
 211:Src/main.cpp  **** 	struct obstacle *o = NULL;
 1179              		.loc 1 211 1 is_stmt 1 view -0
 1180              		.cfi_startproc
 211:Src/main.cpp  **** 	struct obstacle *o = NULL;
 1181              		.loc 1 211 1 is_stmt 0 view .LVU322
 1182 063f 4156     		pushq	%r14
GAS LISTING /tmp/cc6iEGVT.s 			page 81


 1183              		.cfi_def_cfa_offset 16
 1184              		.cfi_offset 14, -16
 1185 0641 4155     		pushq	%r13
 1186              		.cfi_def_cfa_offset 24
 1187              		.cfi_offset 13, -24
 1188 0643 4154     		pushq	%r12
 1189              		.cfi_def_cfa_offset 32
 1190              		.cfi_offset 12, -32
 1191 0645 55       		pushq	%rbp
 1192              		.cfi_def_cfa_offset 40
 1193              		.cfi_offset 6, -40
 1194 0646 53       		pushq	%rbx
 1195              		.cfi_def_cfa_offset 48
 1196              		.cfi_offset 3, -48
 1197 0647 4883EC20 		subq	$32, %rsp
 1198              		.cfi_def_cfa_offset 80
 1199 064b 4989FC   		movq	%rdi, %r12
 1200 064e 4989F5   		movq	%rsi, %r13
 211:Src/main.cpp  **** 	struct obstacle *o = NULL;
 1201              		.loc 1 211 1 view .LVU323
 1202 0651 64488B04 		movq	%fs:40, %rax
 1202      25280000 
 1202      00
 1203 065a 48894424 		movq	%rax, 24(%rsp)
 1203      18
 1204 065f 31C0     		xorl	%eax, %eax
 212:Src/main.cpp  **** 	struct coords	inter;
 1205              		.loc 1 212 2 is_stmt 1 view .LVU324
 1206              	.LVL109:
 213:Src/main.cpp  **** 	COORDS_DATATYPE l = INF;
 1207              		.loc 1 213 2 view .LVU325
 214:Src/main.cpp  **** 	// cout << "Watching for vect " << v->c->x << ":" << v->c->y << "; d" << v->dx << ":d" << v->dy <<
 1208              		.loc 1 214 2 view .LVU326
 214:Src/main.cpp  **** 	// cout << "Watching for vect " << v->c->x << ":" << v->c->y << "; d" << v->dx << ":d" << v->dy <<
 1209              		.loc 1 214 18 is_stmt 0 view .LVU327
 1210 0661 F30F1005 		movss	.LC14(%rip), %xmm0
 1210      00000000 
 1211 0669 F30F5E05 		divss	.LC5(%rip), %xmm0
 1211      00000000 
 1212 0671 F30F1144 		movss	%xmm0, 12(%rsp)
 1212      240C
 1213              	.LVL110:
 216:Src/main.cpp  **** 	{
 1214              		.loc 1 216 2 is_stmt 1 view .LVU328
 1215              	.LBB240:
 216:Src/main.cpp  **** 	{
 1216              		.loc 1 216 13 is_stmt 0 view .LVU329
 1217 0677 BB000000 		movl	$0, %ebx
 1217      00
 1218              	.LBE240:
 212:Src/main.cpp  **** 	struct coords	inter;
 1219              		.loc 1 212 19 view .LVU330
 1220 067c 41BE0000 		movl	$0, %r14d
 1220      0000
 1221 0682 EB04     		jmp	.L94
 1222              	.LVL111:
 1223              	.L90:
GAS LISTING /tmp/cc6iEGVT.s 			page 82


 1224              	.LBB242:
 216:Src/main.cpp  **** 	{
 1225              		.loc 1 216 2 discriminator 2 view .LVU331
 1226 0684 4883C301 		addq	$1, %rbx
 1227              	.LVL112:
 1228              	.L94:
 216:Src/main.cpp  **** 	{
 1229              		.loc 1 216 22 discriminator 1 view .LVU332
 1230 0688 49395C24 		cmpq	%rbx, 8(%r12)
 1230      08
 1231 068d 7667     		jbe	.L88
 1232              	.LBB241:
 219:Src/main.cpp  **** 		COORDS_DATATYPE _l = getLen(v->c, &inter);
 1233              		.loc 1 219 3 is_stmt 1 view .LVU333
 219:Src/main.cpp  **** 		COORDS_DATATYPE _l = getLen(v->c, &inter);
 1234              		.loc 1 219 64 is_stmt 0 view .LVU334
 1235 068f 488D2C5B 		leaq	(%rbx,%rbx,2), %rbp
 1236 0693 48C1E504 		salq	$4, %rbp
 219:Src/main.cpp  **** 		COORDS_DATATYPE _l = getLen(v->c, &inter);
 1237              		.loc 1 219 68 view .LVU335
 1238 0697 4889EF   		movq	%rbp, %rdi
 1239 069a 49033C24 		addq	(%r12), %rdi
 1240 069e 4C89EE   		movq	%r13, %rsi
 1241 06a1 E8000000 		call	_Z15getIntersectionPK8obstaclePK4vect@PLT
 1241      00
 1242              	.LVL113:
 1243 06a6 660FD644 		movq	%xmm0, 16(%rsp)
 1243      2410
 220:Src/main.cpp  **** 		if(inter.x != -1 && inter.y != -1 && _l < l)
 1244              		.loc 1 220 3 is_stmt 1 view .LVU336
 220:Src/main.cpp  **** 		if(inter.x != -1 && inter.y != -1 && _l < l)
 1245              		.loc 1 220 34 is_stmt 0 view .LVU337
 1246 06ac 498B7D00 		movq	0(%r13), %rdi
 220:Src/main.cpp  **** 		if(inter.x != -1 && inter.y != -1 && _l < l)
 1247              		.loc 1 220 30 view .LVU338
 1248 06b0 488D7424 		leaq	16(%rsp), %rsi
 1248      10
 1249 06b5 E8000000 		call	_Z6getLenPK6coordsS1_@PLT
 1249      00
 1250              	.LVL114:
 221:Src/main.cpp  **** 		{
 1251              		.loc 1 221 3 is_stmt 1 view .LVU339
 221:Src/main.cpp  **** 		{
 1252              		.loc 1 221 12 is_stmt 0 view .LVU340
 1253 06ba F30F104C 		movss	16(%rsp), %xmm1
 1253      2410
 221:Src/main.cpp  **** 		{
 1254              		.loc 1 221 3 view .LVU341
 1255 06c0 0F2E0D00 		ucomiss	.LC13(%rip), %xmm1
 1255      000000
 1256 06c7 7A02     		jp	.L96
 1257 06c9 74B9     		je	.L90
 1258              	.L96:
 221:Src/main.cpp  **** 		{
 1259              		.loc 1 221 29 discriminator 1 view .LVU342
 1260 06cb F30F104C 		movss	20(%rsp), %xmm1
 1260      2414
GAS LISTING /tmp/cc6iEGVT.s 			page 83


 221:Src/main.cpp  **** 		{
 1261              		.loc 1 221 20 discriminator 1 view .LVU343
 1262 06d1 0F2E0D00 		ucomiss	.LC13(%rip), %xmm1
 1262      000000
 1263 06d8 7A02     		jp	.L97
 1264 06da 74A8     		je	.L90
 1265              	.L97:
 221:Src/main.cpp  **** 		{
 1266              		.loc 1 221 37 discriminator 2 view .LVU344
 1267 06dc F30F1054 		movss	12(%rsp), %xmm2
 1267      240C
 1268 06e2 0F2FD0   		comiss	%xmm0, %xmm2
 1269 06e5 769D     		jbe	.L90
 224:Src/main.cpp  **** 			l = _l;
 1270              		.loc 1 224 4 is_stmt 1 view .LVU345
 224:Src/main.cpp  **** 			l = _l;
 1271              		.loc 1 224 6 is_stmt 0 view .LVU346
 1272 06e7 4989EE   		movq	%rbp, %r14
 1273              	.LVL115:
 224:Src/main.cpp  **** 			l = _l;
 1274              		.loc 1 224 6 view .LVU347
 1275 06ea 4D033424 		addq	(%r12), %r14
 1276              	.LVL116:
 225:Src/main.cpp  **** 		}
 1277              		.loc 1 225 4 is_stmt 1 view .LVU348
 225:Src/main.cpp  **** 		}
 1278              		.loc 1 225 6 is_stmt 0 view .LVU349
 1279 06ee F30F1144 		movss	%xmm0, 12(%rsp)
 1279      240C
 1280 06f4 EB8E     		jmp	.L90
 1281              	.LVL117:
 1282              	.L88:
 225:Src/main.cpp  **** 		}
 1283              		.loc 1 225 6 view .LVU350
 1284              	.LBE241:
 1285              	.LBE242:
 229:Src/main.cpp  **** 
 1286              		.loc 1 229 1 view .LVU351
 1287 06f6 488B4424 		movq	24(%rsp), %rax
 1287      18
 1288 06fb 64483304 		xorq	%fs:40, %rax
 1288      25280000 
 1288      00
 1289 0704 7510     		jne	.L100
 1290 0706 4C89F0   		movq	%r14, %rax
 1291 0709 4883C420 		addq	$32, %rsp
 1292              		.cfi_remember_state
 1293              		.cfi_def_cfa_offset 48
 1294 070d 5B       		popq	%rbx
 1295              		.cfi_def_cfa_offset 40
 1296              	.LVL118:
 229:Src/main.cpp  **** 
 1297              		.loc 1 229 1 view .LVU352
 1298 070e 5D       		popq	%rbp
 1299              		.cfi_def_cfa_offset 32
 1300 070f 415C     		popq	%r12
 1301              		.cfi_def_cfa_offset 24
GAS LISTING /tmp/cc6iEGVT.s 			page 84


 1302              	.LVL119:
 229:Src/main.cpp  **** 
 1303              		.loc 1 229 1 view .LVU353
 1304 0711 415D     		popq	%r13
 1305              		.cfi_def_cfa_offset 16
 1306              	.LVL120:
 229:Src/main.cpp  **** 
 1307              		.loc 1 229 1 view .LVU354
 1308 0713 415E     		popq	%r14
 1309              		.cfi_def_cfa_offset 8
 1310              	.LVL121:
 229:Src/main.cpp  **** 
 1311              		.loc 1 229 1 view .LVU355
 1312 0715 C3       		ret
 1313              	.LVL122:
 1314              	.L100:
 1315              		.cfi_restore_state
 229:Src/main.cpp  **** 
 1316              		.loc 1 229 1 view .LVU356
 1317 0716 E8000000 		call	__stack_chk_fail@PLT
 1317      00
 1318              	.LVL123:
 1319              		.cfi_endproc
 1320              	.LFE2482:
 1322              		.globl	_Z9initPointP10graphPointPK6coords
 1324              	_Z9initPointP10graphPointPK6coords:
 1325              	.LVL124:
 1326              	.LFB2484:
 286:Src/main.cpp  **** 	struct array *obsts = getDataSet(c);
 1327              		.loc 1 286 1 is_stmt 1 view -0
 1328              		.cfi_startproc
 286:Src/main.cpp  **** 	struct array *obsts = getDataSet(c);
 1329              		.loc 1 286 1 is_stmt 0 view .LVU358
 1330 071b 4154     		pushq	%r12
 1331              		.cfi_def_cfa_offset 16
 1332              		.cfi_offset 12, -16
 1333 071d 55       		pushq	%rbp
 1334              		.cfi_def_cfa_offset 24
 1335              		.cfi_offset 6, -24
 1336 071e 53       		pushq	%rbx
 1337              		.cfi_def_cfa_offset 32
 1338              		.cfi_offset 3, -32
 1339 071f 4989FC   		movq	%rdi, %r12
 1340 0722 4889F5   		movq	%rsi, %rbp
 287:Src/main.cpp  **** 	initPoint(p, c, obsts);
 1341              		.loc 1 287 2 is_stmt 1 view .LVU359
 287:Src/main.cpp  **** 	initPoint(p, c, obsts);
 1342              		.loc 1 287 34 is_stmt 0 view .LVU360
 1343 0725 4889F7   		movq	%rsi, %rdi
 1344              	.LVL125:
 287:Src/main.cpp  **** 	initPoint(p, c, obsts);
 1345              		.loc 1 287 34 view .LVU361
 1346 0728 E8000000 		call	_Z10getDataSetPK6coords
 1346      00
 1347              	.LVL126:
 287:Src/main.cpp  **** 	initPoint(p, c, obsts);
 1348              		.loc 1 287 34 view .LVU362
GAS LISTING /tmp/cc6iEGVT.s 			page 85


 1349 072d 4889C3   		movq	%rax, %rbx
 1350              	.LVL127:
 288:Src/main.cpp  **** 	free(obsts);
 1351              		.loc 1 288 2 is_stmt 1 view .LVU363
 288:Src/main.cpp  **** 	free(obsts);
 1352              		.loc 1 288 11 is_stmt 0 view .LVU364
 1353 0730 4889C2   		movq	%rax, %rdx
 1354 0733 4889EE   		movq	%rbp, %rsi
 1355 0736 4C89E7   		movq	%r12, %rdi
 1356 0739 E8000000 		call	_Z9initPointP10graphPointPK6coordsPK5array
 1356      00
 1357              	.LVL128:
 289:Src/main.cpp  **** }
 1358              		.loc 1 289 2 is_stmt 1 view .LVU365
 289:Src/main.cpp  **** }
 1359              		.loc 1 289 6 is_stmt 0 view .LVU366
 1360 073e 4889DF   		movq	%rbx, %rdi
 1361 0741 E8000000 		call	free@PLT
 1361      00
 1362              	.LVL129:
 290:Src/main.cpp  **** 
 1363              		.loc 1 290 1 view .LVU367
 1364 0746 5B       		popq	%rbx
 1365              		.cfi_def_cfa_offset 24
 1366              	.LVL130:
 290:Src/main.cpp  **** 
 1367              		.loc 1 290 1 view .LVU368
 1368 0747 5D       		popq	%rbp
 1369              		.cfi_def_cfa_offset 16
 1370              	.LVL131:
 290:Src/main.cpp  **** 
 1371              		.loc 1 290 1 view .LVU369
 1372 0748 415C     		popq	%r12
 1373              		.cfi_def_cfa_offset 8
 1374              	.LVL132:
 290:Src/main.cpp  **** 
 1375              		.loc 1 290 1 view .LVU370
 1376 074a C3       		ret
 1377              		.cfi_endproc
 1378              	.LFE2484:
 1380              		.section	.rodata.str1.1
 1381              	.LC15:
 1382 001a 43726561 		.string	"Creating tgt\n"
 1382      74696E67 
 1382      20746774 
 1382      0A00
 1383              		.text
 1384              		.globl	_Z9initPointP10graphPointPK6coordsPK5array
 1386              	_Z9initPointP10graphPointPK6coordsPK5array:
 1387              	.LVL133:
 1388              	.LFB2483:
 232:Src/main.cpp  **** 	struct vect v;
 1389              		.loc 1 232 1 is_stmt 1 view -0
 1390              		.cfi_startproc
 232:Src/main.cpp  **** 	struct vect v;
 1391              		.loc 1 232 1 is_stmt 0 view .LVU372
 1392 074b 4157     		pushq	%r15
GAS LISTING /tmp/cc6iEGVT.s 			page 86


 1393              		.cfi_def_cfa_offset 16
 1394              		.cfi_offset 15, -16
 1395 074d 4156     		pushq	%r14
 1396              		.cfi_def_cfa_offset 24
 1397              		.cfi_offset 14, -24
 1398 074f 4155     		pushq	%r13
 1399              		.cfi_def_cfa_offset 32
 1400              		.cfi_offset 13, -32
 1401 0751 4154     		pushq	%r12
 1402              		.cfi_def_cfa_offset 40
 1403              		.cfi_offset 12, -40
 1404 0753 55       		pushq	%rbp
 1405              		.cfi_def_cfa_offset 48
 1406              		.cfi_offset 6, -48
 1407 0754 53       		pushq	%rbx
 1408              		.cfi_def_cfa_offset 56
 1409              		.cfi_offset 3, -56
 1410 0755 4883EC48 		subq	$72, %rsp
 1411              		.cfi_def_cfa_offset 128
 1412 0759 48897C24 		movq	%rdi, 24(%rsp)
 1412      18
 1413 075e 48897424 		movq	%rsi, 16(%rsp)
 1413      10
 1414 0763 4989D7   		movq	%rdx, %r15
 232:Src/main.cpp  **** 	struct vect v;
 1415              		.loc 1 232 1 view .LVU373
 1416 0766 64488B04 		movq	%fs:40, %rax
 1416      25280000 
 1416      00
 1417 076f 48894424 		movq	%rax, 56(%rsp)
 1417      38
 1418 0774 31C0     		xorl	%eax, %eax
 233:Src/main.cpp  **** 	// for(uint8_t i = 0; i < VECTORS_PER_CHECK; i++)
 1419              		.loc 1 233 2 is_stmt 1 view .LVU374
 233:Src/main.cpp  **** 	// for(uint8_t i = 0; i < VECTORS_PER_CHECK; i++)
 1420              		.loc 1 233 14 is_stmt 0 view .LVU375
 1421 0776 48C74424 		movq	$0, 32(%rsp)
 1421      20000000 
 1421      00
 1422 077f C7442428 		movl	$0x00000000, 40(%rsp)
 1422      00000000 
 1423 0787 C744242C 		movl	$0x00000000, 44(%rsp)
 1423      00000000 
 258:Src/main.cpp  **** 	for(size_t i = 0; i < obsts->size; i++)
 1424              		.loc 1 258 2 is_stmt 1 view .LVU376
 259:Src/main.cpp  **** 	{
 1425              		.loc 1 259 2 view .LVU377
 1426              	.LVL134:
 1427              	.LBB259:
 259:Src/main.cpp  **** 	{
 1428              		.loc 1 259 13 is_stmt 0 view .LVU378
 1429 078f 41BD0000 		movl	$0, %r13d
 1429      0000
 1430 0795 E9380100 		jmp	.L114
 1430      00
 1431              	.LVL135:
 1432              	.L106:
GAS LISTING /tmp/cc6iEGVT.s 			page 87


 1433              	.LBB260:
 1434              	.LBB261:
 1435              	.LBB262:
 265:Src/main.cpp  **** 			{
 1436              		.loc 1 265 52 discriminator 3 view .LVU379
 1437 079a 488D7C24 		leaq	32(%rsp), %rdi
 1437      20
 1438 079f E8000000 		call	_Z16hasIntersectionsPK4vect
 1438      00
 1439              	.LVL136:
 265:Src/main.cpp  **** 			{
 1440              		.loc 1 265 32 discriminator 3 view .LVU380
 1441 07a4 84C0     		testb	%al, %al
 1442 07a6 7478     		je	.L117
 1443              	.L107:
 1444              	.LBE262:
 278:Src/main.cpp  **** 		}
 1445              		.loc 1 278 4 is_stmt 1 discriminator 2 view .LVU381
 278:Src/main.cpp  **** 		}
 1446              		.loc 1 278 8 is_stmt 0 discriminator 2 view .LVU382
 1447 07a8 4889EF   		movq	%rbp, %rdi
 1448 07ab E8000000 		call	free@PLT
 1448      00
 1449              	.LVL137:
 1450              	.LBE261:
 261:Src/main.cpp  **** 		{
 1451              		.loc 1 261 3 discriminator 2 view .LVU383
 1452 07b0 4183C401 		addl	$1, %r12d
 1453              	.LVL138:
 1454              	.L113:
 261:Src/main.cpp  **** 		{
 1455              		.loc 1 261 24 discriminator 1 view .LVU384
 1456 07b4 4180FC03 		cmpb	$3, %r12b
 1457 07b8 0F871001 		ja	.L105
 1457      0000
 1458              	.LBB271:
 263:Src/main.cpp  **** 			v = createVect(c, tgt);
 1459              		.loc 1 263 4 is_stmt 1 view .LVU385
 263:Src/main.cpp  **** 			v = createVect(c, tgt);
 1460              		.loc 1 263 27 is_stmt 0 view .LVU386
 1461 07be 450FB6F4 		movzbl	%r12b, %r14d
 263:Src/main.cpp  **** 			v = createVect(c, tgt);
 1462              		.loc 1 263 63 view .LVU387
 1463 07c2 4B8D5C6D 		leaq	0(%r13,%r13,2), %rbx
 1463      00
 1464 07c7 48C1E304 		salq	$4, %rbx
 1465 07cb 48895C24 		movq	%rbx, 8(%rsp)
 1465      08
 263:Src/main.cpp  **** 			v = createVect(c, tgt);
 1466              		.loc 1 263 27 view .LVU388
 1467 07d0 4889DF   		movq	%rbx, %rdi
 1468 07d3 49033F   		addq	(%r15), %rdi
 1469 07d6 4489F6   		movl	%r14d, %esi
 1470 07d9 E8000000 		call	_Z17getCoordsOfCornerPK8obstacleh@PLT
 1470      00
 1471              	.LVL139:
 1472 07de 4889C5   		movq	%rax, %rbp
GAS LISTING /tmp/cc6iEGVT.s 			page 88


 1473              	.LVL140:
 264:Src/main.cpp  **** 			if((v.dx != 0 || v.dy != 0) && !hasIntersections(&v))
 1474              		.loc 1 264 4 is_stmt 1 view .LVU389
 264:Src/main.cpp  **** 			if((v.dx != 0 || v.dy != 0) && !hasIntersections(&v))
 1475              		.loc 1 264 25 is_stmt 0 view .LVU390
 1476 07e1 4889C6   		movq	%rax, %rsi
 1477 07e4 488B7C24 		movq	16(%rsp), %rdi
 1477      10
 1478 07e9 E8000000 		call	_Z10createVectPK6coordsS1_
 1478      00
 1479              	.LVL141:
 264:Src/main.cpp  **** 			if((v.dx != 0 || v.dy != 0) && !hasIntersections(&v))
 1480              		.loc 1 264 25 view .LVU391
 1481 07ee 48894424 		movq	%rax, 32(%rsp)
 1481      20
 1482 07f3 660FD644 		movq	%xmm0, 40(%rsp)
 1482      2428
 265:Src/main.cpp  **** 			{
 1483              		.loc 1 265 4 is_stmt 1 view .LVU392
 1484              	.LBB269:
 265:Src/main.cpp  **** 			{
 1485              		.loc 1 265 10 is_stmt 0 view .LVU393
 1486 07f9 F30F1044 		movss	40(%rsp), %xmm0
 1486      2428
 265:Src/main.cpp  **** 			{
 1487              		.loc 1 265 32 view .LVU394
 1488 07ff 0F2E0500 		ucomiss	.LC5(%rip), %xmm0
 1488      000000
 1489 0806 7A92     		jp	.L106
 265:Src/main.cpp  **** 			{
 1490              		.loc 1 265 32 view .LVU395
 1491 0808 7590     		jne	.L106
 265:Src/main.cpp  **** 			{
 1492              		.loc 1 265 23 discriminator 2 view .LVU396
 1493 080a F30F1044 		movss	44(%rsp), %xmm0
 1493      242C
 265:Src/main.cpp  **** 			{
 1494              		.loc 1 265 18 discriminator 2 view .LVU397
 1495 0810 0F2E0500 		ucomiss	.LC5(%rip), %xmm0
 1495      000000
 1496 0817 7A81     		jp	.L106
 1497 0819 748D     		je	.L107
 1498 081b E97AFFFF 		jmp	.L106
 1498      FF
 1499              	.L117:
 1500              	.LBB263:
 267:Src/main.cpp  **** 				if(p->numOfTargets == 0)
 1501              		.loc 1 267 5 is_stmt 1 view .LVU398
 1502              	.LVL142:
 1503              	.LBB264:
 1504              	.LBI264:
 565:/usr/include/c++/9.1.0/ostream ****     {
 1505              		.loc 4 565 5 view .LVU399
 565:/usr/include/c++/9.1.0/ostream ****     {
 1506              		.loc 4 565 5 is_stmt 0 view .LVU400
 1507              	.LBE264:
 1508              	.LBE263:
GAS LISTING /tmp/cc6iEGVT.s 			page 89


 1509              	.LBE269:
 1510              	.LBE271:
 1511              	.LBE260:
 1512              	.LBE259:
 1513              		.loc 5 335 2 is_stmt 1 view .LVU401
 1514              	.LBB275:
 1515              	.LBB273:
 1516              	.LBB272:
 1517              	.LBB270:
 1518              	.LBB268:
 1519              	.LBB266:
 1520              	.LBB265:
 570:/usr/include/c++/9.1.0/ostream **** 			 static_cast<streamsize>(_Traits::length(__s)));
 1521              		.loc 4 570 18 is_stmt 0 view .LVU402
 1522 0820 BA0D0000 		movl	$13, %edx
 1522      00
 1523 0825 488D3500 		leaq	.LC15(%rip), %rsi
 1523      000000
 1524 082c 488D3D00 		leaq	_ZSt4cout(%rip), %rdi
 1524      000000
 1525 0833 E8000000 		call	_ZSt16__ostream_insertIcSt11char_traitsIcEERSt13basic_ostreamIT_T0_ES6_PKS3_l@PLT
 1525      00
 1526              	.LVL143:
 570:/usr/include/c++/9.1.0/ostream **** 			 static_cast<streamsize>(_Traits::length(__s)));
 1527              		.loc 4 570 18 view .LVU403
 1528              	.LBE265:
 1529              	.LBE266:
 268:Src/main.cpp  **** 					calculatedPoints++;
 1530              		.loc 1 268 5 is_stmt 1 view .LVU404
 1531 0838 488B4424 		movq	24(%rsp), %rax
 1531      18
 1532 083d 48837808 		cmpq	$0, 8(%rax)
 1532      00
 1533 0842 7508     		jne	.L109
 269:Src/main.cpp  **** 				if(((struct obstacle*)obsts->items)[i].corners[j]->numOfTargets == 0)
 1534              		.loc 1 269 6 view .LVU405
 269:Src/main.cpp  **** 				if(((struct obstacle*)obsts->items)[i].corners[j]->numOfTargets == 0)
 1535              		.loc 1 269 22 is_stmt 0 view .LVU406
 1536 0844 48830500 		addq	$1, calculatedPoints(%rip)
 1536      00000001 
 1537              	.L109:
 270:Src/main.cpp  **** 					calculatedPoints++;
 1538              		.loc 1 270 5 is_stmt 1 view .LVU407
 270:Src/main.cpp  **** 					calculatedPoints++;
 1539              		.loc 1 270 42 is_stmt 0 view .LVU408
 1540 084c 4889D8   		movq	%rbx, %rax
 1541 084f 490307   		addq	(%r15), %rax
 270:Src/main.cpp  **** 					calculatedPoints++;
 1542              		.loc 1 270 53 view .LVU409
 1543 0852 4963D6   		movslq	%r14d, %rdx
 1544 0855 488B44D0 		movq	8(%rax,%rdx,8), %rax
 1544      08
 270:Src/main.cpp  **** 					calculatedPoints++;
 1545              		.loc 1 270 5 view .LVU410
 1546 085a 48837808 		cmpq	$0, 8(%rax)
 1546      00
 1547 085f 7508     		jne	.L110
GAS LISTING /tmp/cc6iEGVT.s 			page 90


 271:Src/main.cpp  **** 				addTarget(p, ((struct obstacle*)obsts->items)[i].corners[j]);
 1548              		.loc 1 271 6 is_stmt 1 view .LVU411
 271:Src/main.cpp  **** 				addTarget(p, ((struct obstacle*)obsts->items)[i].corners[j]);
 1549              		.loc 1 271 22 is_stmt 0 view .LVU412
 1550 0861 48830500 		addq	$1, calculatedPoints(%rip)
 1550      00000001 
 1551              	.L110:
 272:Src/main.cpp  **** 				for(uint8_t h = 0; h < 4; h++)
 1552              		.loc 1 272 5 is_stmt 1 view .LVU413
 272:Src/main.cpp  **** 				for(uint8_t h = 0; h < 4; h++)
 1553              		.loc 1 272 52 is_stmt 0 view .LVU414
 1554 0869 49031F   		addq	(%r15), %rbx
 272:Src/main.cpp  **** 				for(uint8_t h = 0; h < 4; h++)
 1555              		.loc 1 272 14 view .LVU415
 1556 086c 4D63F6   		movslq	%r14d, %r14
 1557 086f 4A8B74F3 		movq	8(%rbx,%r14,8), %rsi
 1557      08
 1558 0874 488B7C24 		movq	24(%rsp), %rdi
 1558      18
 1559 0879 E8000000 		call	_Z9addTargetP10graphPointS0_@PLT
 1559      00
 1560              	.LVL144:
 1561              	.LBB267:
 273:Src/main.cpp  **** 					if(((struct obstacle*)obsts->items)[i].corners[h]->numOfTargets == 0)
 1562              		.loc 1 273 17 view .LVU416
 1563 087e BB000000 		movl	$0, %ebx
 1563      00
 1564 0883 EB03     		jmp	.L112
 1565              	.LVL145:
 1566              	.L111:
 273:Src/main.cpp  **** 					if(((struct obstacle*)obsts->items)[i].corners[h]->numOfTargets == 0)
 1567              		.loc 1 273 5 discriminator 2 view .LVU417
 1568 0885 83C301   		addl	$1, %ebx
 1569              	.LVL146:
 1570              	.L112:
 273:Src/main.cpp  **** 					if(((struct obstacle*)obsts->items)[i].corners[h]->numOfTargets == 0)
 1571              		.loc 1 273 26 discriminator 1 view .LVU418
 1572 0888 80FB03   		cmpb	$3, %bl
 1573 088b 0F8717FF 		ja	.L107
 1573      FFFF
 274:Src/main.cpp  **** 						initPoint(((struct obstacle*)obsts->items)[i].corners[h], getCoordsOfCorner(&((struct obstacl
 1574              		.loc 1 274 6 is_stmt 1 view .LVU419
 274:Src/main.cpp  **** 						initPoint(((struct obstacle*)obsts->items)[i].corners[h], getCoordsOfCorner(&((struct obstacl
 1575              		.loc 1 274 43 is_stmt 0 view .LVU420
 1576 0891 488B7C24 		movq	8(%rsp), %rdi
 1576      08
 1577 0896 49033F   		addq	(%r15), %rdi
 274:Src/main.cpp  **** 						initPoint(((struct obstacle*)obsts->items)[i].corners[h], getCoordsOfCorner(&((struct obstacl
 1578              		.loc 1 274 53 view .LVU421
 1579 0899 440FB6F3 		movzbl	%bl, %r14d
 274:Src/main.cpp  **** 						initPoint(((struct obstacle*)obsts->items)[i].corners[h], getCoordsOfCorner(&((struct obstacl
 1580              		.loc 1 274 54 view .LVU422
 1581 089d 0FB6C3   		movzbl	%bl, %eax
 1582 08a0 488B44C7 		movq	8(%rdi,%rax,8), %rax
 1582      08
 274:Src/main.cpp  **** 						initPoint(((struct obstacle*)obsts->items)[i].corners[h], getCoordsOfCorner(&((struct obstacl
 1583              		.loc 1 274 6 view .LVU423
GAS LISTING /tmp/cc6iEGVT.s 			page 91


 1584 08a5 48837808 		cmpq	$0, 8(%rax)
 1584      00
 1585 08aa 75D9     		jne	.L111
 275:Src/main.cpp  **** 				// initObst(&((struct obstacle*)obsts->items)[i]);
 1586              		.loc 1 275 7 is_stmt 1 view .LVU424
 275:Src/main.cpp  **** 				// initObst(&((struct obstacle*)obsts->items)[i]);
 1587              		.loc 1 275 82 is_stmt 0 view .LVU425
 1588 08ac 4489F6   		movl	%r14d, %esi
 1589 08af E8000000 		call	_Z17getCoordsOfCornerPK8obstacleh@PLT
 1589      00
 1590              	.LVL147:
 1591 08b4 4889C6   		movq	%rax, %rsi
 275:Src/main.cpp  **** 				// initObst(&((struct obstacle*)obsts->items)[i]);
 1592              		.loc 1 275 51 view .LVU426
 1593 08b7 488B4424 		movq	8(%rsp), %rax
 1593      08
 1594 08bc 490307   		addq	(%r15), %rax
 275:Src/main.cpp  **** 				// initObst(&((struct obstacle*)obsts->items)[i]);
 1595              		.loc 1 275 16 view .LVU427
 1596 08bf 4D63F6   		movslq	%r14d, %r14
 1597 08c2 4A8B7CF0 		movq	8(%rax,%r14,8), %rdi
 1597      08
 1598 08c7 E8000000 		call	_Z9initPointP10graphPointPK6coords
 1598      00
 1599              	.LVL148:
 1600 08cc EBB7     		jmp	.L111
 1601              	.LVL149:
 1602              	.L105:
 275:Src/main.cpp  **** 				// initObst(&((struct obstacle*)obsts->items)[i]);
 1603              		.loc 1 275 16 view .LVU428
 1604              	.LBE267:
 1605              	.LBE268:
 1606              	.LBE270:
 1607              	.LBE272:
 1608              	.LBE273:
 259:Src/main.cpp  **** 	{
 1609              		.loc 1 259 2 discriminator 2 view .LVU429
 1610 08ce 4983C501 		addq	$1, %r13
 1611              	.LVL150:
 1612              	.L114:
 259:Src/main.cpp  **** 	{
 1613              		.loc 1 259 22 discriminator 1 view .LVU430
 1614 08d2 4D396F08 		cmpq	%r13, 8(%r15)
 1615 08d6 760B     		jbe	.L103
 1616              	.LBB274:
 261:Src/main.cpp  **** 		{
 1617              		.loc 1 261 15 view .LVU431
 1618 08d8 41BC0000 		movl	$0, %r12d
 1618      0000
 1619 08de E9D1FEFF 		jmp	.L113
 1619      FF
 1620              	.L103:
 1621              	.LBE274:
 1622              	.LBE275:
 281:Src/main.cpp  **** 
 1623              		.loc 1 281 1 view .LVU432
 1624 08e3 488B4424 		movq	56(%rsp), %rax
GAS LISTING /tmp/cc6iEGVT.s 			page 92


 1624      38
 1625 08e8 64483304 		xorq	%fs:40, %rax
 1625      25280000 
 1625      00
 1626 08f1 750F     		jne	.L118
 1627 08f3 4883C448 		addq	$72, %rsp
 1628              		.cfi_remember_state
 1629              		.cfi_def_cfa_offset 56
 1630 08f7 5B       		popq	%rbx
 1631              		.cfi_def_cfa_offset 48
 1632 08f8 5D       		popq	%rbp
 1633              		.cfi_def_cfa_offset 40
 1634 08f9 415C     		popq	%r12
 1635              		.cfi_def_cfa_offset 32
 1636 08fb 415D     		popq	%r13
 1637              		.cfi_def_cfa_offset 24
 1638              	.LVL151:
 281:Src/main.cpp  **** 
 1639              		.loc 1 281 1 view .LVU433
 1640 08fd 415E     		popq	%r14
 1641              		.cfi_def_cfa_offset 16
 1642 08ff 415F     		popq	%r15
 1643              		.cfi_def_cfa_offset 8
 1644              	.LVL152:
 281:Src/main.cpp  **** 
 1645              		.loc 1 281 1 view .LVU434
 1646 0901 C3       		ret
 1647              	.LVL153:
 1648              	.L118:
 1649              		.cfi_restore_state
 281:Src/main.cpp  **** 
 1650              		.loc 1 281 1 view .LVU435
 1651 0902 E8000000 		call	__stack_chk_fail@PLT
 1651      00
 1652              	.LVL154:
 1653              		.cfi_endproc
 1654              	.LFE2483:
 1656              		.section	.rodata.str1.1
 1657              	.LC16:
 1658 0028 57617463 		.string	"Watching corner "
 1658      68696E67 
 1658      20636F72 
 1658      6E657220 
 1658      00
 1659              	.LC17:
 1660 0039 206F6620 		.string	" of obstacle "
 1660      6F627374 
 1660      61636C65 
 1660      2000
 1661              		.text
 1662              		.globl	_Z14initObstCornerPK8obstacleh
 1664              	_Z14initObstCornerPK8obstacleh:
 1665              	.LVL155:
 1666              	.LFB2485:
 294:Src/main.cpp  **** 	cout << "Watching corner " << (int)corner << " of obstacle " << obst << endl;
 1667              		.loc 1 294 1 is_stmt 1 view -0
 1668              		.cfi_startproc
GAS LISTING /tmp/cc6iEGVT.s 			page 93


 294:Src/main.cpp  **** 	cout << "Watching corner " << (int)corner << " of obstacle " << obst << endl;
 1669              		.loc 1 294 1 is_stmt 0 view .LVU437
 1670 0907 4155     		pushq	%r13
 1671              		.cfi_def_cfa_offset 16
 1672              		.cfi_offset 13, -16
 1673 0909 4154     		pushq	%r12
 1674              		.cfi_def_cfa_offset 24
 1675              		.cfi_offset 12, -24
 1676 090b 55       		pushq	%rbp
 1677              		.cfi_def_cfa_offset 32
 1678              		.cfi_offset 6, -32
 1679 090c 53       		pushq	%rbx
 1680              		.cfi_def_cfa_offset 40
 1681              		.cfi_offset 3, -40
 1682 090d 4883EC08 		subq	$8, %rsp
 1683              		.cfi_def_cfa_offset 48
 1684 0911 4989FC   		movq	%rdi, %r12
 1685 0914 89F3     		movl	%esi, %ebx
 295:Src/main.cpp  **** 	struct graphPoint *point = getPoint(obst, corner);
 1686              		.loc 1 295 2 is_stmt 1 view .LVU438
 1687              	.LVL156:
 1688              	.LBB294:
 1689              	.LBI294:
 565:/usr/include/c++/9.1.0/ostream ****     {
 1690              		.loc 4 565 5 view .LVU439
 565:/usr/include/c++/9.1.0/ostream ****     {
 1691              		.loc 4 565 5 is_stmt 0 view .LVU440
 1692              	.LBE294:
 1693              		.loc 5 335 2 is_stmt 1 view .LVU441
 1694              	.LBB296:
 1695              	.LBB295:
 570:/usr/include/c++/9.1.0/ostream **** 			 static_cast<streamsize>(_Traits::length(__s)));
 1696              		.loc 4 570 18 is_stmt 0 view .LVU442
 1697 0916 BA100000 		movl	$16, %edx
 1697      00
 1698 091b 488D3500 		leaq	.LC16(%rip), %rsi
 1698      000000
 1699              	.LVL157:
 570:/usr/include/c++/9.1.0/ostream **** 			 static_cast<streamsize>(_Traits::length(__s)));
 1700              		.loc 4 570 18 view .LVU443
 1701 0922 488D3D00 		leaq	_ZSt4cout(%rip), %rdi
 1701      000000
 1702              	.LVL158:
 570:/usr/include/c++/9.1.0/ostream **** 			 static_cast<streamsize>(_Traits::length(__s)));
 1703              		.loc 4 570 18 view .LVU444
 1704 0929 E8000000 		call	_ZSt16__ostream_insertIcSt11char_traitsIcEERSt13basic_ostreamIT_T0_ES6_PKS3_l@PLT
 1704      00
 1705              	.LVL159:
 570:/usr/include/c++/9.1.0/ostream **** 			 static_cast<streamsize>(_Traits::length(__s)));
 1706              		.loc 4 570 18 view .LVU445
 1707              	.LBE295:
 1708              	.LBE296:
 295:Src/main.cpp  **** 	struct graphPoint *point = getPoint(obst, corner);
 1709              		.loc 1 295 47 view .LVU446
 1710 092e 0FB6DB   		movzbl	%bl, %ebx
 1711 0931 89DE     		movl	%ebx, %esi
 1712 0933 488D3D00 		leaq	_ZSt4cout(%rip), %rdi
GAS LISTING /tmp/cc6iEGVT.s 			page 94


 1712      000000
 1713 093a E8000000 		call	_ZNSolsEi@PLT
 1713      00
 1714              	.LVL160:
 1715 093f 4889C5   		movq	%rax, %rbp
 1716              	.LVL161:
 1717              	.LBB297:
 1718              	.LBI297:
 565:/usr/include/c++/9.1.0/ostream ****     {
 1719              		.loc 4 565 5 is_stmt 1 view .LVU447
 565:/usr/include/c++/9.1.0/ostream ****     {
 1720              		.loc 4 565 5 is_stmt 0 view .LVU448
 1721              	.LBE297:
 1722              		.loc 5 335 2 is_stmt 1 view .LVU449
 1723              	.LBB299:
 1724              	.LBB298:
 570:/usr/include/c++/9.1.0/ostream **** 			 static_cast<streamsize>(_Traits::length(__s)));
 1725              		.loc 4 570 18 is_stmt 0 view .LVU450
 1726 0942 BA0D0000 		movl	$13, %edx
 1726      00
 1727 0947 488D3500 		leaq	.LC17(%rip), %rsi
 1727      000000
 1728 094e 4889C7   		movq	%rax, %rdi
 1729 0951 E8000000 		call	_ZSt16__ostream_insertIcSt11char_traitsIcEERSt13basic_ostreamIT_T0_ES6_PKS3_l@PLT
 1729      00
 1730              	.LVL162:
 570:/usr/include/c++/9.1.0/ostream **** 			 static_cast<streamsize>(_Traits::length(__s)));
 1731              		.loc 4 570 18 view .LVU451
 1732              	.LBE298:
 1733              	.LBE299:
 1734              	.LBB300:
 1735              	.LBI300:
 245:/usr/include/c++/9.1.0/ostream ****       { return _M_insert(__p); }
 1736              		.loc 4 245 7 is_stmt 1 view .LVU452
 1737              	.LBB301:
 246:/usr/include/c++/9.1.0/ostream **** 
 1738              		.loc 4 246 29 is_stmt 0 view .LVU453
 1739 0956 4C89E6   		movq	%r12, %rsi
 1740 0959 4889EF   		movq	%rbp, %rdi
 1741 095c E8000000 		call	_ZNSo9_M_insertIPKvEERSoT_@PLT
 1741      00
 1742              	.LVL163:
 1743 0961 4889C5   		movq	%rax, %rbp
 1744              	.LVL164:
 246:/usr/include/c++/9.1.0/ostream **** 
 1745              		.loc 4 246 29 view .LVU454
 1746              	.LBE301:
 1747              	.LBE300:
 1748              	.LBB302:
 1749              	.LBI302:
 108:/usr/include/c++/9.1.0/ostream ****       {
 1750              		.loc 4 108 7 is_stmt 1 view .LVU455
 1751              	.LBB303:
 1752              	.LBI303:
 599:/usr/include/c++/9.1.0/ostream ****     { return flush(__os.put(__os.widen('\n'))); }
 1753              		.loc 4 599 5 view .LVU456
 1754              	.LBB304:
GAS LISTING /tmp/cc6iEGVT.s 			page 95


 600:/usr/include/c++/9.1.0/ostream **** 
 1755              		.loc 4 600 19 is_stmt 0 view .LVU457
 1756 0964 488B00   		movq	(%rax), %rax
 1757              	.LVL165:
 600:/usr/include/c++/9.1.0/ostream **** 
 1758              		.loc 4 600 19 view .LVU458
 1759 0967 4889E9   		movq	%rbp, %rcx
 1760 096a 480348E8 		addq	-24(%rax), %rcx
 1761              	.LVL166:
 1762              	.LBB305:
 1763              	.LBI305:
 449:/usr/include/c++/9.1.0/bits/basic_ios.h ****       { return __check_facet(_M_ctype).widen(__c); }
 1764              		.loc 6 449 7 is_stmt 1 view .LVU459
 1765              	.LBB306:
 1766              		.loc 6 450 30 is_stmt 0 view .LVU460
 1767 096e 4C8BA9F0 		movq	240(%rcx), %r13
 1767      000000
 1768              	.LVL167:
 1769              	.LBB307:
 1770              	.LBI307:
  47:/usr/include/c++/9.1.0/bits/basic_ios.h ****     {
 1771              		.loc 6 47 5 is_stmt 1 view .LVU461
 1772              	.LBB308:
  49:/usr/include/c++/9.1.0/bits/basic_ios.h **** 	__throw_bad_cast();
 1773              		.loc 6 49 7 is_stmt 0 view .LVU462
 1774 0975 4D85ED   		testq	%r13, %r13
 1775 0978 744D     		je	.L124
 1776              	.LVL168:
  49:/usr/include/c++/9.1.0/bits/basic_ios.h **** 	__throw_bad_cast();
 1777              		.loc 6 49 7 view .LVU463
 1778              	.LBE308:
 1779              	.LBE307:
 1780              	.LBB310:
 1781              	.LBI310:
 872:/usr/include/c++/9.1.0/bits/locale_facets.h ****       {
 1782              		.loc 7 872 7 is_stmt 1 view .LVU464
 1783              	.LBB311:
 874:/usr/include/c++/9.1.0/bits/locale_facets.h **** 	  return _M_widen[static_cast<unsigned char>(__c)];
 1784              		.loc 7 874 2 view .LVU465
 1785 097a 41807D38 		cmpb	$0, 56(%r13)
 1785      00
 1786 097f 744B     		je	.L121
 875:/usr/include/c++/9.1.0/bits/locale_facets.h **** 	this->_M_widen_init();
 1787              		.loc 7 875 4 view .LVU466
 875:/usr/include/c++/9.1.0/bits/locale_facets.h **** 	this->_M_widen_init();
 1788              		.loc 7 875 51 is_stmt 0 view .LVU467
 1789 0981 410FB675 		movzbl	67(%r13), %esi
 1789      43
 1790              	.LVL169:
 1791              	.L122:
 875:/usr/include/c++/9.1.0/bits/locale_facets.h **** 	this->_M_widen_init();
 1792              		.loc 7 875 51 view .LVU468
 1793              	.LBE311:
 1794              	.LBE310:
 1795              	.LBE306:
 1796              	.LBE305:
 600:/usr/include/c++/9.1.0/ostream **** 
GAS LISTING /tmp/cc6iEGVT.s 			page 96


 1797              		.loc 4 600 19 view .LVU469
 1798 0986 400FBEF6 		movsbl	%sil, %esi
 1799 098a 4889EF   		movq	%rbp, %rdi
 1800 098d E8000000 		call	_ZNSo3putEc@PLT
 1800      00
 1801              	.LVL170:
 1802 0992 4889C7   		movq	%rax, %rdi
 1803              	.LVL171:
 1804              	.LBB316:
 1805              	.LBI316:
 621:/usr/include/c++/9.1.0/ostream ****     { return __os.flush(); }
 1806              		.loc 4 621 5 is_stmt 1 view .LVU470
 1807              	.LBB317:
 1808              		.loc 4 622 25 is_stmt 0 view .LVU471
 1809 0995 E8000000 		call	_ZNSo5flushEv@PLT
 1809      00
 1810              	.LVL172:
 1811              		.loc 4 622 25 view .LVU472
 1812              	.LBE317:
 1813              	.LBE316:
 1814              	.LBE304:
 1815              	.LBE303:
 1816              	.LBE302:
 296:Src/main.cpp  **** 	struct coords *c = getCoordsOfCorner(obst, corner);
 1817              		.loc 1 296 2 is_stmt 1 view .LVU473
 296:Src/main.cpp  **** 	struct coords *c = getCoordsOfCorner(obst, corner);
 1818              		.loc 1 296 37 is_stmt 0 view .LVU474
 1819 099a 89DE     		movl	%ebx, %esi
 1820 099c 4C89E7   		movq	%r12, %rdi
 1821 099f E8000000 		call	_Z8getPointPK8obstacleh@PLT
 1821      00
 1822              	.LVL173:
 1823 09a4 4889C5   		movq	%rax, %rbp
 1824              	.LVL174:
 297:Src/main.cpp  **** 	initPoint(point, c);
 1825              		.loc 1 297 2 is_stmt 1 view .LVU475
 297:Src/main.cpp  **** 	initPoint(point, c);
 1826              		.loc 1 297 38 is_stmt 0 view .LVU476
 1827 09a7 89DE     		movl	%ebx, %esi
 1828 09a9 4C89E7   		movq	%r12, %rdi
 1829 09ac E8000000 		call	_Z17getCoordsOfCornerPK8obstacleh@PLT
 1829      00
 1830              	.LVL175:
 297:Src/main.cpp  **** 	initPoint(point, c);
 1831              		.loc 1 297 38 view .LVU477
 1832 09b1 4889C6   		movq	%rax, %rsi
 1833              	.LVL176:
 298:Src/main.cpp  **** }
 1834              		.loc 1 298 2 is_stmt 1 view .LVU478
 298:Src/main.cpp  **** }
 1835              		.loc 1 298 11 is_stmt 0 view .LVU479
 1836 09b4 4889EF   		movq	%rbp, %rdi
 1837 09b7 E8000000 		call	_Z9initPointP10graphPointPK6coords
 1837      00
 1838              	.LVL177:
 299:Src/main.cpp  **** 
 1839              		.loc 1 299 1 view .LVU480
GAS LISTING /tmp/cc6iEGVT.s 			page 97


 1840 09bc 4883C408 		addq	$8, %rsp
 1841              		.cfi_remember_state
 1842              		.cfi_def_cfa_offset 40
 1843 09c0 5B       		popq	%rbx
 1844              		.cfi_def_cfa_offset 32
 1845 09c1 5D       		popq	%rbp
 1846              		.cfi_def_cfa_offset 24
 1847              	.LVL178:
 299:Src/main.cpp  **** 
 1848              		.loc 1 299 1 view .LVU481
 1849 09c2 415C     		popq	%r12
 1850              		.cfi_def_cfa_offset 16
 1851              	.LVL179:
 299:Src/main.cpp  **** 
 1852              		.loc 1 299 1 view .LVU482
 1853 09c4 415D     		popq	%r13
 1854              		.cfi_def_cfa_offset 8
 1855 09c6 C3       		ret
 1856              	.LVL180:
 1857              	.L124:
 1858              		.cfi_restore_state
 1859              	.LBB321:
 1860              	.LBB320:
 1861              	.LBB319:
 1862              	.LBB318:
 1863              	.LBB315:
 1864              	.LBB313:
 1865              	.LBB309:
  50:/usr/include/c++/9.1.0/bits/basic_ios.h ****       return *__f;
 1866              		.loc 6 50 18 view .LVU483
 1867 09c7 E8000000 		call	_ZSt16__throw_bad_castv@PLT
 1867      00
 1868              	.LVL181:
 1869              	.L121:
  50:/usr/include/c++/9.1.0/bits/basic_ios.h ****       return *__f;
 1870              		.loc 6 50 18 view .LVU484
 1871              	.LBE309:
 1872              	.LBE313:
 1873              	.LBB314:
 1874              	.LBB312:
 876:/usr/include/c++/9.1.0/bits/locale_facets.h **** 	return this->do_widen(__c);
 1875              		.loc 7 876 2 is_stmt 1 view .LVU485
 876:/usr/include/c++/9.1.0/bits/locale_facets.h **** 	return this->do_widen(__c);
 1876              		.loc 7 876 21 is_stmt 0 view .LVU486
 1877 09cc 4C89EF   		movq	%r13, %rdi
 1878 09cf E8000000 		call	_ZNKSt5ctypeIcE13_M_widen_initEv@PLT
 1878      00
 1879              	.LVL182:
 1880              		.loc 7 877 2 is_stmt 1 view .LVU487
 1881              		.loc 7 877 27 is_stmt 0 view .LVU488
 1882 09d4 498B4500 		movq	0(%r13), %rax
 1883              		.loc 7 877 23 view .LVU489
 1884 09d8 BE0A0000 		movl	$10, %esi
 1884      00
 1885 09dd 4C89EF   		movq	%r13, %rdi
 1886 09e0 FF5030   		call	*48(%rax)
 1887              	.LVL183:
GAS LISTING /tmp/cc6iEGVT.s 			page 98


 1888 09e3 89C6     		movl	%eax, %esi
 1889              		.loc 7 877 27 view .LVU490
 1890 09e5 EB9F     		jmp	.L122
 1891              	.LBE312:
 1892              	.LBE314:
 1893              	.LBE315:
 1894              	.LBE318:
 1895              	.LBE319:
 1896              	.LBE320:
 1897              	.LBE321:
 1898              		.cfi_endproc
 1899              	.LFE2485:
 1901              		.globl	_Z8initObstPK8obstacle
 1903              	_Z8initObstPK8obstacle:
 1904              	.LVL184:
 1905              	.LFB2486:
 304:Src/main.cpp  **** 	for(uint8_t i = 0; i < 4; i++)
 1906              		.loc 1 304 1 is_stmt 1 view -0
 1907              		.cfi_startproc
 304:Src/main.cpp  **** 	for(uint8_t i = 0; i < 4; i++)
 1908              		.loc 1 304 1 is_stmt 0 view .LVU492
 1909 09e7 55       		pushq	%rbp
 1910              		.cfi_def_cfa_offset 16
 1911              		.cfi_offset 6, -16
 1912 09e8 53       		pushq	%rbx
 1913              		.cfi_def_cfa_offset 24
 1914              		.cfi_offset 3, -24
 1915 09e9 4883EC08 		subq	$8, %rsp
 1916              		.cfi_def_cfa_offset 32
 1917 09ed 4889FD   		movq	%rdi, %rbp
 305:Src/main.cpp  **** 		initObstCorner(obst, i);
 1918              		.loc 1 305 2 is_stmt 1 view .LVU493
 1919              	.LVL185:
 1920              	.LBB322:
 305:Src/main.cpp  **** 		initObstCorner(obst, i);
 1921              		.loc 1 305 14 is_stmt 0 view .LVU494
 1922 09f0 BB000000 		movl	$0, %ebx
 1922      00
 1923 09f5 EB0E     		jmp	.L127
 1924              	.LVL186:
 1925              	.L129:
 306:Src/main.cpp  **** }
 1926              		.loc 1 306 3 is_stmt 1 discriminator 2 view .LVU495
 306:Src/main.cpp  **** }
 1927              		.loc 1 306 17 is_stmt 0 discriminator 2 view .LVU496
 1928 09f7 0FB6F3   		movzbl	%bl, %esi
 1929 09fa 4889EF   		movq	%rbp, %rdi
 1930 09fd E8000000 		call	_Z14initObstCornerPK8obstacleh
 1930      00
 1931              	.LVL187:
 305:Src/main.cpp  **** 		initObstCorner(obst, i);
 1932              		.loc 1 305 2 discriminator 2 view .LVU497
 1933 0a02 83C301   		addl	$1, %ebx
 1934              	.LVL188:
 1935              	.L127:
 305:Src/main.cpp  **** 		initObstCorner(obst, i);
 1936              		.loc 1 305 23 discriminator 3 view .LVU498
GAS LISTING /tmp/cc6iEGVT.s 			page 99


 1937 0a05 80FB03   		cmpb	$3, %bl
 1938 0a08 76ED     		jbe	.L129
 1939              	.LBE322:
 307:Src/main.cpp  **** 
 1940              		.loc 1 307 1 view .LVU499
 1941 0a0a 4883C408 		addq	$8, %rsp
 1942              		.cfi_def_cfa_offset 24
 1943 0a0e 5B       		popq	%rbx
 1944              		.cfi_def_cfa_offset 16
 1945              	.LVL189:
 307:Src/main.cpp  **** 
 1946              		.loc 1 307 1 view .LVU500
 1947 0a0f 5D       		popq	%rbp
 1948              		.cfi_def_cfa_offset 8
 1949              	.LVL190:
 307:Src/main.cpp  **** 
 1950              		.loc 1 307 1 view .LVU501
 1951 0a10 C3       		ret
 1952              		.cfi_endproc
 1953              	.LFE2486:
 1955              		.globl	_Z9initGraphP10graphPointPK6coords
 1957              	_Z9initGraphP10graphPointPK6coords:
 1958              	.LVL191:
 1959              	.LFB2487:
 312:Src/main.cpp  **** 	struct array *ar = getDataSet(startc);
 1960              		.loc 1 312 1 is_stmt 1 view -0
 1961              		.cfi_startproc
 312:Src/main.cpp  **** 	struct array *ar = getDataSet(startc);
 1962              		.loc 1 312 1 is_stmt 0 view .LVU503
 1963 0a11 55       		pushq	%rbp
 1964              		.cfi_def_cfa_offset 16
 1965              		.cfi_offset 6, -16
 1966 0a12 53       		pushq	%rbx
 1967              		.cfi_def_cfa_offset 24
 1968              		.cfi_offset 3, -24
 1969 0a13 4883EC08 		subq	$8, %rsp
 1970              		.cfi_def_cfa_offset 32
 1971 0a17 4889FD   		movq	%rdi, %rbp
 1972 0a1a 4889F3   		movq	%rsi, %rbx
 313:Src/main.cpp  **** 	initPoint(startp, startc, ar);
 1973              		.loc 1 313 2 is_stmt 1 view .LVU504
 313:Src/main.cpp  **** 	initPoint(startp, startc, ar);
 1974              		.loc 1 313 31 is_stmt 0 view .LVU505
 1975 0a1d 4889F7   		movq	%rsi, %rdi
 1976              	.LVL192:
 313:Src/main.cpp  **** 	initPoint(startp, startc, ar);
 1977              		.loc 1 313 31 view .LVU506
 1978 0a20 E8000000 		call	_Z10getDataSetPK6coords
 1978      00
 1979              	.LVL193:
 313:Src/main.cpp  **** 	initPoint(startp, startc, ar);
 1980              		.loc 1 313 31 view .LVU507
 1981 0a25 4889C2   		movq	%rax, %rdx
 1982              	.LVL194:
 314:Src/main.cpp  **** }
 1983              		.loc 1 314 2 is_stmt 1 view .LVU508
 314:Src/main.cpp  **** }
GAS LISTING /tmp/cc6iEGVT.s 			page 100


 1984              		.loc 1 314 11 is_stmt 0 view .LVU509
 1985 0a28 4889DE   		movq	%rbx, %rsi
 1986 0a2b 4889EF   		movq	%rbp, %rdi
 1987 0a2e E8000000 		call	_Z9initPointP10graphPointPK6coordsPK5array
 1987      00
 1988              	.LVL195:
 315:Src/main.cpp  **** 
 1989              		.loc 1 315 1 view .LVU510
 1990 0a33 4883C408 		addq	$8, %rsp
 1991              		.cfi_def_cfa_offset 24
 1992 0a37 5B       		popq	%rbx
 1993              		.cfi_def_cfa_offset 16
 1994              	.LVL196:
 315:Src/main.cpp  **** 
 1995              		.loc 1 315 1 view .LVU511
 1996 0a38 5D       		popq	%rbp
 1997              		.cfi_def_cfa_offset 8
 1998              	.LVL197:
 315:Src/main.cpp  **** 
 1999              		.loc 1 315 1 view .LVU512
 2000 0a39 C3       		ret
 2001              		.cfi_endproc
 2002              	.LFE2487:
 2004              		.globl	_Z16getCoordsOfPointPK10graphPoint
 2006              	_Z16getCoordsOfPointPK10graphPoint:
 2007              	.LVL198:
 2008              	.LFB2488:
 328:Src/main.cpp  **** 	return p->c;
 2009              		.loc 1 328 1 is_stmt 1 view -0
 2010              		.cfi_startproc
 329:Src/main.cpp  **** 
 2011              		.loc 1 329 2 view .LVU514
 329:Src/main.cpp  **** 
 2012              		.loc 1 329 12 is_stmt 0 view .LVU515
 2013 0a3a F30F7E47 		movq	16(%rdi), %xmm0
 2013      10
 349:Src/main.cpp  **** 
 2014              		.loc 1 349 1 view .LVU516
 2015 0a3f C3       		ret
 2016              		.cfi_endproc
 2017              	.LFE2488:
 2019              		.section	.rodata.str1.1
 2020              	.LC18:
 2021 0047 094C696E 		.string	"\tLine: "
 2021      653A2000 
 2022              	.LC19:
 2023 004f 090900   		.string	"\t\t"
 2024              	.LC20:
 2025 0052 3A00     		.string	":"
 2026              	.LC21:
 2027 0054 202D3E20 		.string	" -> "
 2027      00
 2028              		.text
 2029              		.globl	_Z9drawEdgesPK10graphPoint
 2031              	_Z9drawEdgesPK10graphPoint:
 2032              	.LVL199:
 2033              	.LFB2489:
GAS LISTING /tmp/cc6iEGVT.s 			page 101


 354:Src/main.cpp  **** 	if(p == NULL || p->numOfTargets == 0)
 2034              		.loc 1 354 1 is_stmt 1 view -0
 2035              		.cfi_startproc
 355:Src/main.cpp  **** 		return;
 2036              		.loc 1 355 2 view .LVU518
 2037 0a40 4885FF   		testq	%rdi, %rdi
 2038 0a43 0F841D02 		je	.L146
 2038      0000
 354:Src/main.cpp  **** 	if(p == NULL || p->numOfTargets == 0)
 2039              		.loc 1 354 1 is_stmt 0 discriminator 1 view .LVU519
 2040 0a49 4156     		pushq	%r14
 2041              		.cfi_def_cfa_offset 16
 2042              		.cfi_offset 14, -16
 2043 0a4b 4155     		pushq	%r13
 2044              		.cfi_def_cfa_offset 24
 2045              		.cfi_offset 13, -24
 2046 0a4d 4154     		pushq	%r12
 2047              		.cfi_def_cfa_offset 32
 2048              		.cfi_offset 12, -32
 2049 0a4f 55       		pushq	%rbp
 2050              		.cfi_def_cfa_offset 40
 2051              		.cfi_offset 6, -40
 2052 0a50 53       		pushq	%rbx
 2053              		.cfi_def_cfa_offset 48
 2054              		.cfi_offset 3, -48
 2055 0a51 4883EC10 		subq	$16, %rsp
 2056              		.cfi_def_cfa_offset 64
 2057 0a55 4989FC   		movq	%rdi, %r12
 355:Src/main.cpp  **** 		return;
 2058              		.loc 1 355 15 discriminator 1 view .LVU520
 2059 0a58 48837F08 		cmpq	$0, 8(%rdi)
 2059      00
 2060 0a5d 0F84F601 		je	.L133
 2060      0000
 358:Src/main.cpp  **** 	start = getCoordsOfPoint(p);
 2061              		.loc 1 358 2 is_stmt 1 view .LVU521
 359:Src/main.cpp  **** 	for(size_t i = 0; i < p->numOfTargets; i++)
 2062              		.loc 1 359 2 view .LVU522
 359:Src/main.cpp  **** 	for(size_t i = 0; i < p->numOfTargets; i++)
 2063              		.loc 1 359 28 is_stmt 0 view .LVU523
 2064 0a63 E8000000 		call	_Z16getCoordsOfPointPK10graphPoint
 2064      00
 2065              	.LVL200:
 359:Src/main.cpp  **** 	for(size_t i = 0; i < p->numOfTargets; i++)
 2066              		.loc 1 359 28 view .LVU524
 2067 0a68 66490F7E 		movq	%xmm0, %r13
 2067      C5
 2068              	.LVL201:
 360:Src/main.cpp  **** 	{
 2069              		.loc 1 360 2 is_stmt 1 view .LVU525
 2070              	.LBB366:
 360:Src/main.cpp  **** 	{
 2071              		.loc 1 360 13 is_stmt 0 view .LVU526
 2072 0a6d BD000000 		movl	$0, %ebp
 2072      00
 2073 0a72 EB57     		jmp	.L144
 2074              	.LVL202:
GAS LISTING /tmp/cc6iEGVT.s 			page 102


 2075              	.L149:
 2076              	.LBB367:
 2077              	.LBB368:
 2078              	.LBB369:
 2079              	.LBB370:
 2080              	.LBB371:
 2081              	.LBB372:
 2082              	.LBB373:
  50:/usr/include/c++/9.1.0/bits/basic_ios.h ****       return *__f;
 2083              		.loc 6 50 18 view .LVU527
 2084 0a74 E8000000 		call	_ZSt16__throw_bad_castv@PLT
 2084      00
 2085              	.LVL203:
 2086              	.L139:
  50:/usr/include/c++/9.1.0/bits/basic_ios.h ****       return *__f;
 2087              		.loc 6 50 18 view .LVU528
 2088              	.LBE373:
 2089              	.LBE372:
 2090              	.LBB375:
 2091              	.LBB376:
 876:/usr/include/c++/9.1.0/bits/locale_facets.h **** 	return this->do_widen(__c);
 2092              		.loc 7 876 2 is_stmt 1 view .LVU529
 876:/usr/include/c++/9.1.0/bits/locale_facets.h **** 	return this->do_widen(__c);
 2093              		.loc 7 876 21 is_stmt 0 view .LVU530
 2094 0a79 4889DF   		movq	%rbx, %rdi
 2095 0a7c E8000000 		call	_ZNKSt5ctypeIcE13_M_widen_initEv@PLT
 2095      00
 2096              	.LVL204:
 2097              		.loc 7 877 2 is_stmt 1 view .LVU531
 2098              		.loc 7 877 27 is_stmt 0 view .LVU532
 2099 0a81 488B03   		movq	(%rbx), %rax
 2100              		.loc 7 877 23 view .LVU533
 2101 0a84 BE0A0000 		movl	$10, %esi
 2101      00
 2102 0a89 4889DF   		movq	%rbx, %rdi
 2103 0a8c FF5030   		call	*48(%rax)
 2104              	.LVL205:
 2105 0a8f 89C6     		movl	%eax, %esi
 2106              		.loc 7 877 27 view .LVU534
 2107 0a91 E9D60000 		jmp	.L140
 2107      00
 2108              	.LVL206:
 2109              	.L150:
 2110              		.loc 7 877 27 view .LVU535
 2111              	.LBE376:
 2112              	.LBE375:
 2113              	.LBE371:
 2114              	.LBE370:
 2115              	.LBE369:
 2116              	.LBE368:
 2117              	.LBE367:
 2118              	.LBB386:
 2119              	.LBB387:
 2120              	.LBB388:
 2121              	.LBB389:
 2122              	.LBB390:
 2123              	.LBB391:
GAS LISTING /tmp/cc6iEGVT.s 			page 103


 2124              	.LBB392:
  50:/usr/include/c++/9.1.0/bits/basic_ios.h ****       return *__f;
 2125              		.loc 6 50 18 view .LVU536
 2126 0a96 E8000000 		call	_ZSt16__throw_bad_castv@PLT
 2126      00
 2127              	.LVL207:
 2128              	.L142:
  50:/usr/include/c++/9.1.0/bits/basic_ios.h ****       return *__f;
 2129              		.loc 6 50 18 view .LVU537
 2130              	.LBE392:
 2131              	.LBE391:
 2132              	.LBB394:
 2133              	.LBB395:
 876:/usr/include/c++/9.1.0/bits/locale_facets.h **** 	return this->do_widen(__c);
 2134              		.loc 7 876 2 is_stmt 1 view .LVU538
 876:/usr/include/c++/9.1.0/bits/locale_facets.h **** 	return this->do_widen(__c);
 2135              		.loc 7 876 21 is_stmt 0 view .LVU539
 2136 0a9b 4C89F7   		movq	%r14, %rdi
 2137 0a9e E8000000 		call	_ZNKSt5ctypeIcE13_M_widen_initEv@PLT
 2137      00
 2138              	.LVL208:
 2139              		.loc 7 877 2 is_stmt 1 view .LVU540
 2140              		.loc 7 877 27 is_stmt 0 view .LVU541
 2141 0aa3 498B06   		movq	(%r14), %rax
 2142              		.loc 7 877 23 view .LVU542
 2143 0aa6 BE0A0000 		movl	$10, %esi
 2143      00
 2144 0aab 4C89F7   		movq	%r14, %rdi
 2145 0aae FF5030   		call	*48(%rax)
 2146              	.LVL209:
 2147 0ab1 89C6     		movl	%eax, %esi
 2148              	.L143:
 2149              	.LVL210:
 2150              		.loc 7 877 23 view .LVU543
 2151              	.LBE395:
 2152              	.LBE394:
 2153              	.LBE390:
 2154              	.LBE389:
 600:/usr/include/c++/9.1.0/ostream **** 
 2155              		.loc 4 600 19 view .LVU544
 2156 0ab3 400FBEF6 		movsbl	%sil, %esi
 2157 0ab7 4889DF   		movq	%rbx, %rdi
 2158 0aba E8000000 		call	_ZNSo3putEc@PLT
 2158      00
 2159              	.LVL211:
 2160 0abf 4889C7   		movq	%rax, %rdi
 2161              	.LVL212:
 2162              	.LBB400:
 2163              	.LBI400:
 621:/usr/include/c++/9.1.0/ostream ****     { return __os.flush(); }
 2164              		.loc 4 621 5 is_stmt 1 view .LVU545
 2165              	.LBB401:
 2166              		.loc 4 622 25 is_stmt 0 view .LVU546
 2167 0ac2 E8000000 		call	_ZNSo5flushEv@PLT
 2167      00
 2168              	.LVL213:
 2169              		.loc 4 622 25 view .LVU547
GAS LISTING /tmp/cc6iEGVT.s 			page 104


 2170              	.LBE401:
 2171              	.LBE400:
 2172              	.LBE388:
 2173              	.LBE387:
 2174              	.LBE386:
 360:Src/main.cpp  **** 	{
 2175              		.loc 1 360 2 view .LVU548
 2176 0ac7 4883C501 		addq	$1, %rbp
 2177              	.LVL214:
 2178              	.L144:
 360:Src/main.cpp  **** 	{
 2179              		.loc 1 360 22 discriminator 1 view .LVU549
 2180 0acb 49396C24 		cmpq	%rbp, 8(%r12)
 2180      08
 2181 0ad0 0F868301 		jbe	.L133
 2181      0000
 362:Src/main.cpp  **** 		drawLine(start.x, start.y, end.x, end.y);
 2182              		.loc 1 362 3 is_stmt 1 view .LVU550
 362:Src/main.cpp  **** 		drawLine(start.x, start.y, end.x, end.y);
 2183              		.loc 1 362 38 is_stmt 0 view .LVU551
 2184 0ad6 488D04ED 		leaq	0(,%rbp,8), %rax
 2184      00000000 
 2185 0ade 49030424 		addq	(%r12), %rax
 362:Src/main.cpp  **** 		drawLine(start.x, start.y, end.x, end.y);
 2186              		.loc 1 362 39 view .LVU552
 2187 0ae2 488B38   		movq	(%rax), %rdi
 2188 0ae5 E8000000 		call	_Z16getCoordsOfPointPK10graphPoint
 2188      00
 2189              	.LVL215:
 363:Src/main.cpp  **** 		cout 	<< "\tLine: " << endl
 2190              		.loc 1 363 3 is_stmt 1 view .LVU553
 363:Src/main.cpp  **** 		cout 	<< "\tLine: " << endl
 2191              		.loc 1 363 11 is_stmt 0 view .LVU554
 2192 0aea 66480F7E 		movq	%xmm0, %rcx
 2192      C1
 2193 0aef 48C1E920 		shrq	$32, %rcx
 2194 0af3 660F6ED9 		movd	%ecx, %xmm3
 2195 0af7 894C2408 		movl	%ecx, 8(%rsp)
 2196 0afb 660F7E04 		movd	%xmm0, (%rsp)
 2196      24
 2197 0b00 4C89E8   		movq	%r13, %rax
 2198 0b03 48C1E820 		shrq	$32, %rax
 2199 0b07 660F6EC8 		movd	%eax, %xmm1
 2200 0b0b 8944240C 		movl	%eax, 12(%rsp)
 2201 0b0f 44896C24 		movl	%r13d, 4(%rsp)
 2201      04
 2202 0b14 F30F1014 		movss	(%rsp), %xmm2
 2202      24
 2203 0b19 F30F1044 		movss	4(%rsp), %xmm0
 2203      2404
 2204              	.LVL216:
 363:Src/main.cpp  **** 		cout 	<< "\tLine: " << endl
 2205              		.loc 1 363 11 view .LVU555
 2206 0b1f E8000000 		call	_Z8drawLineffff@PLT
 2206      00
 2207              	.LVL217:
 364:Src/main.cpp  **** 				<< "\t\t" << start.x << ":" << start.y << " -> " << end.x << ":" << end.y << endl;
GAS LISTING /tmp/cc6iEGVT.s 			page 105


 2208              		.loc 1 364 3 is_stmt 1 view .LVU556
 2209              	.LBB405:
 2210              	.LBI405:
 565:/usr/include/c++/9.1.0/ostream ****     {
 2211              		.loc 4 565 5 view .LVU557
 565:/usr/include/c++/9.1.0/ostream ****     {
 2212              		.loc 4 565 5 is_stmt 0 view .LVU558
 2213              	.LBE405:
 2214              	.LBE366:
 2215              		.loc 5 335 2 is_stmt 1 view .LVU559
 2216              	.LBB430:
 2217              	.LBB407:
 2218              	.LBB406:
 570:/usr/include/c++/9.1.0/ostream **** 			 static_cast<streamsize>(_Traits::length(__s)));
 2219              		.loc 4 570 18 is_stmt 0 view .LVU560
 2220 0b24 BA070000 		movl	$7, %edx
 2220      00
 2221 0b29 488D3500 		leaq	.LC18(%rip), %rsi
 2221      000000
 2222 0b30 488D3D00 		leaq	_ZSt4cout(%rip), %rdi
 2222      000000
 2223 0b37 E8000000 		call	_ZSt16__ostream_insertIcSt11char_traitsIcEERSt13basic_ostreamIT_T0_ES6_PKS3_l@PLT
 2223      00
 2224              	.LVL218:
 570:/usr/include/c++/9.1.0/ostream **** 			 static_cast<streamsize>(_Traits::length(__s)));
 2225              		.loc 4 570 18 view .LVU561
 2226              	.LBE406:
 2227              	.LBE407:
 2228              	.LBB408:
 2229              	.LBI367:
 108:/usr/include/c++/9.1.0/ostream ****       {
 2230              		.loc 4 108 7 is_stmt 1 view .LVU562
 2231              	.LBB385:
 2232              	.LBI368:
 599:/usr/include/c++/9.1.0/ostream ****     { return flush(__os.put(__os.widen('\n'))); }
 2233              		.loc 4 599 5 view .LVU563
 2234              	.LBB384:
 600:/usr/include/c++/9.1.0/ostream **** 
 2235              		.loc 4 600 19 is_stmt 0 view .LVU564
 2236 0b3c 488D0500 		leaq	_ZSt4cout(%rip), %rax
 2236      000000
 2237 0b43 488B1500 		movq	_ZSt4cout(%rip), %rdx
 2237      000000
 2238 0b4a 480342E8 		addq	-24(%rdx), %rax
 2239              	.LVL219:
 2240              	.LBB381:
 2241              	.LBI370:
 449:/usr/include/c++/9.1.0/bits/basic_ios.h ****       { return __check_facet(_M_ctype).widen(__c); }
 2242              		.loc 6 449 7 is_stmt 1 view .LVU565
 2243              	.LBB380:
 2244              		.loc 6 450 30 is_stmt 0 view .LVU566
 2245 0b4e 488B98F0 		movq	240(%rax), %rbx
 2245      000000
 2246              	.LVL220:
 2247              	.LBB378:
 2248              	.LBI372:
  47:/usr/include/c++/9.1.0/bits/basic_ios.h ****     {
GAS LISTING /tmp/cc6iEGVT.s 			page 106


 2249              		.loc 6 47 5 is_stmt 1 view .LVU567
 2250              	.LBB374:
  49:/usr/include/c++/9.1.0/bits/basic_ios.h **** 	__throw_bad_cast();
 2251              		.loc 6 49 7 is_stmt 0 view .LVU568
 2252 0b55 4885DB   		testq	%rbx, %rbx
 2253 0b58 0F8416FF 		je	.L149
 2253      FFFF
 2254              	.LVL221:
  49:/usr/include/c++/9.1.0/bits/basic_ios.h **** 	__throw_bad_cast();
 2255              		.loc 6 49 7 view .LVU569
 2256              	.LBE374:
 2257              	.LBE378:
 2258              	.LBB379:
 2259              	.LBI375:
 872:/usr/include/c++/9.1.0/bits/locale_facets.h ****       {
 2260              		.loc 7 872 7 is_stmt 1 view .LVU570
 2261              	.LBB377:
 874:/usr/include/c++/9.1.0/bits/locale_facets.h **** 	  return _M_widen[static_cast<unsigned char>(__c)];
 2262              		.loc 7 874 2 view .LVU571
 2263 0b5e 807B3800 		cmpb	$0, 56(%rbx)
 2264 0b62 0F8411FF 		je	.L139
 2264      FFFF
 875:/usr/include/c++/9.1.0/bits/locale_facets.h **** 	this->_M_widen_init();
 2265              		.loc 7 875 4 view .LVU572
 875:/usr/include/c++/9.1.0/bits/locale_facets.h **** 	this->_M_widen_init();
 2266              		.loc 7 875 51 is_stmt 0 view .LVU573
 2267 0b68 0FB67343 		movzbl	67(%rbx), %esi
 2268              	.LVL222:
 2269              	.L140:
 875:/usr/include/c++/9.1.0/bits/locale_facets.h **** 	this->_M_widen_init();
 2270              		.loc 7 875 51 view .LVU574
 2271              	.LBE377:
 2272              	.LBE379:
 2273              	.LBE380:
 2274              	.LBE381:
 600:/usr/include/c++/9.1.0/ostream **** 
 2275              		.loc 4 600 19 view .LVU575
 2276 0b6c 400FBEF6 		movsbl	%sil, %esi
 2277 0b70 488D3D00 		leaq	_ZSt4cout(%rip), %rdi
 2277      000000
 2278 0b77 E8000000 		call	_ZNSo3putEc@PLT
 2278      00
 2279              	.LVL223:
 2280 0b7c 4889C7   		movq	%rax, %rdi
 2281              	.LVL224:
 2282              	.LBB382:
 2283              	.LBI382:
 621:/usr/include/c++/9.1.0/ostream ****     { return __os.flush(); }
 2284              		.loc 4 621 5 is_stmt 1 view .LVU576
 2285              	.LBB383:
 2286              		.loc 4 622 25 is_stmt 0 view .LVU577
 2287 0b7f E8000000 		call	_ZNSo5flushEv@PLT
 2287      00
 2288              	.LVL225:
 2289              		.loc 4 622 25 view .LVU578
 2290 0b84 4889C3   		movq	%rax, %rbx
 2291              	.LVL226:
GAS LISTING /tmp/cc6iEGVT.s 			page 107


 2292              		.loc 4 622 25 view .LVU579
 2293              	.LBE383:
 2294              	.LBE382:
 2295              	.LBE384:
 2296              	.LBE385:
 2297              	.LBE408:
 2298              	.LBB409:
 2299              	.LBI409:
 565:/usr/include/c++/9.1.0/ostream ****     {
 2300              		.loc 4 565 5 is_stmt 1 view .LVU580
 565:/usr/include/c++/9.1.0/ostream ****     {
 2301              		.loc 4 565 5 is_stmt 0 view .LVU581
 2302              	.LBE409:
 2303              	.LBE430:
 2304              		.loc 5 335 2 is_stmt 1 view .LVU582
 2305              	.LBB431:
 2306              	.LBB411:
 2307              	.LBB410:
 570:/usr/include/c++/9.1.0/ostream **** 			 static_cast<streamsize>(_Traits::length(__s)));
 2308              		.loc 4 570 18 is_stmt 0 view .LVU583
 2309 0b87 BA020000 		movl	$2, %edx
 2309      00
 2310 0b8c 488D3500 		leaq	.LC19(%rip), %rsi
 2310      000000
 2311 0b93 4889C7   		movq	%rax, %rdi
 2312 0b96 E8000000 		call	_ZSt16__ostream_insertIcSt11char_traitsIcEERSt13basic_ostreamIT_T0_ES6_PKS3_l@PLT
 2312      00
 2313              	.LVL227:
 570:/usr/include/c++/9.1.0/ostream **** 			 static_cast<streamsize>(_Traits::length(__s)));
 2314              		.loc 4 570 18 view .LVU584
 2315              	.LBE410:
 2316              	.LBE411:
 2317              	.LBB412:
 2318              	.LBI412:
 224:/usr/include/c++/9.1.0/ostream ****       {
 2319              		.loc 4 224 7 is_stmt 1 view .LVU585
 2320              	.LBB413:
 228:/usr/include/c++/9.1.0/ostream ****       }
 2321              		.loc 4 228 43 is_stmt 0 view .LVU586
 2322 0b9b 660FEFC0 		pxor	%xmm0, %xmm0
 2323 0b9f F30F5A44 		cvtss2sd	4(%rsp), %xmm0
 2323      2404
 2324 0ba5 4889DF   		movq	%rbx, %rdi
 2325 0ba8 E8000000 		call	_ZNSo9_M_insertIdEERSoT_@PLT
 2325      00
 2326              	.LVL228:
 2327 0bad 4889C3   		movq	%rax, %rbx
 2328              	.LVL229:
 228:/usr/include/c++/9.1.0/ostream ****       }
 2329              		.loc 4 228 43 view .LVU587
 2330              	.LBE413:
 2331              	.LBE412:
 2332              	.LBB414:
 2333              	.LBI414:
 565:/usr/include/c++/9.1.0/ostream ****     {
 2334              		.loc 4 565 5 is_stmt 1 view .LVU588
 565:/usr/include/c++/9.1.0/ostream ****     {
GAS LISTING /tmp/cc6iEGVT.s 			page 108


 2335              		.loc 4 565 5 is_stmt 0 view .LVU589
 2336              	.LBE414:
 2337              	.LBE431:
 2338              		.loc 5 335 2 is_stmt 1 view .LVU590
 2339              	.LBB432:
 2340              	.LBB416:
 2341              	.LBB415:
 570:/usr/include/c++/9.1.0/ostream **** 			 static_cast<streamsize>(_Traits::length(__s)));
 2342              		.loc 4 570 18 is_stmt 0 view .LVU591
 2343 0bb0 BA010000 		movl	$1, %edx
 2343      00
 2344 0bb5 488D3500 		leaq	.LC20(%rip), %rsi
 2344      000000
 2345 0bbc 4889C7   		movq	%rax, %rdi
 2346 0bbf E8000000 		call	_ZSt16__ostream_insertIcSt11char_traitsIcEERSt13basic_ostreamIT_T0_ES6_PKS3_l@PLT
 2346      00
 2347              	.LVL230:
 570:/usr/include/c++/9.1.0/ostream **** 			 static_cast<streamsize>(_Traits::length(__s)));
 2348              		.loc 4 570 18 view .LVU592
 2349              	.LBE415:
 2350              	.LBE416:
 2351              	.LBB417:
 2352              	.LBI417:
 224:/usr/include/c++/9.1.0/ostream ****       {
 2353              		.loc 4 224 7 is_stmt 1 view .LVU593
 2354              	.LBB418:
 228:/usr/include/c++/9.1.0/ostream ****       }
 2355              		.loc 4 228 43 is_stmt 0 view .LVU594
 2356 0bc4 660FEFC0 		pxor	%xmm0, %xmm0
 2357 0bc8 F30F5A44 		cvtss2sd	12(%rsp), %xmm0
 2357      240C
 2358 0bce 4889DF   		movq	%rbx, %rdi
 2359 0bd1 E8000000 		call	_ZNSo9_M_insertIdEERSoT_@PLT
 2359      00
 2360              	.LVL231:
 2361 0bd6 4889C3   		movq	%rax, %rbx
 2362              	.LVL232:
 228:/usr/include/c++/9.1.0/ostream ****       }
 2363              		.loc 4 228 43 view .LVU595
 2364              	.LBE418:
 2365              	.LBE417:
 2366              	.LBB419:
 2367              	.LBI419:
 565:/usr/include/c++/9.1.0/ostream ****     {
 2368              		.loc 4 565 5 is_stmt 1 view .LVU596
 565:/usr/include/c++/9.1.0/ostream ****     {
 2369              		.loc 4 565 5 is_stmt 0 view .LVU597
 2370              	.LBE419:
 2371              	.LBE432:
 2372              		.loc 5 335 2 is_stmt 1 view .LVU598
 2373              	.LBB433:
 2374              	.LBB421:
 2375              	.LBB420:
 570:/usr/include/c++/9.1.0/ostream **** 			 static_cast<streamsize>(_Traits::length(__s)));
 2376              		.loc 4 570 18 is_stmt 0 view .LVU599
 2377 0bd9 BA040000 		movl	$4, %edx
 2377      00
GAS LISTING /tmp/cc6iEGVT.s 			page 109


 2378 0bde 488D3500 		leaq	.LC21(%rip), %rsi
 2378      000000
 2379 0be5 4889C7   		movq	%rax, %rdi
 2380 0be8 E8000000 		call	_ZSt16__ostream_insertIcSt11char_traitsIcEERSt13basic_ostreamIT_T0_ES6_PKS3_l@PLT
 2380      00
 2381              	.LVL233:
 570:/usr/include/c++/9.1.0/ostream **** 			 static_cast<streamsize>(_Traits::length(__s)));
 2382              		.loc 4 570 18 view .LVU600
 2383              	.LBE420:
 2384              	.LBE421:
 2385              	.LBB422:
 2386              	.LBI422:
 224:/usr/include/c++/9.1.0/ostream ****       {
 2387              		.loc 4 224 7 is_stmt 1 view .LVU601
 2388              	.LBB423:
 228:/usr/include/c++/9.1.0/ostream ****       }
 2389              		.loc 4 228 43 is_stmt 0 view .LVU602
 2390 0bed 660FEFC0 		pxor	%xmm0, %xmm0
 2391 0bf1 F30F5A04 		cvtss2sd	(%rsp), %xmm0
 2391      24
 2392 0bf6 4889DF   		movq	%rbx, %rdi
 2393 0bf9 E8000000 		call	_ZNSo9_M_insertIdEERSoT_@PLT
 2393      00
 2394              	.LVL234:
 2395 0bfe 4889C3   		movq	%rax, %rbx
 2396              	.LVL235:
 228:/usr/include/c++/9.1.0/ostream ****       }
 2397              		.loc 4 228 43 view .LVU603
 2398              	.LBE423:
 2399              	.LBE422:
 2400              	.LBB424:
 2401              	.LBI424:
 565:/usr/include/c++/9.1.0/ostream ****     {
 2402              		.loc 4 565 5 is_stmt 1 view .LVU604
 565:/usr/include/c++/9.1.0/ostream ****     {
 2403              		.loc 4 565 5 is_stmt 0 view .LVU605
 2404              	.LBE424:
 2405              	.LBE433:
 2406              		.loc 5 335 2 is_stmt 1 view .LVU606
 2407              	.LBB434:
 2408              	.LBB426:
 2409              	.LBB425:
 570:/usr/include/c++/9.1.0/ostream **** 			 static_cast<streamsize>(_Traits::length(__s)));
 2410              		.loc 4 570 18 is_stmt 0 view .LVU607
 2411 0c01 BA010000 		movl	$1, %edx
 2411      00
 2412 0c06 488D3500 		leaq	.LC20(%rip), %rsi
 2412      000000
 2413 0c0d 4889C7   		movq	%rax, %rdi
 2414 0c10 E8000000 		call	_ZSt16__ostream_insertIcSt11char_traitsIcEERSt13basic_ostreamIT_T0_ES6_PKS3_l@PLT
 2414      00
 2415              	.LVL236:
 570:/usr/include/c++/9.1.0/ostream **** 			 static_cast<streamsize>(_Traits::length(__s)));
 2416              		.loc 4 570 18 view .LVU608
 2417              	.LBE425:
 2418              	.LBE426:
 2419              	.LBB427:
GAS LISTING /tmp/cc6iEGVT.s 			page 110


 2420              	.LBI427:
 224:/usr/include/c++/9.1.0/ostream ****       {
 2421              		.loc 4 224 7 is_stmt 1 view .LVU609
 2422              	.LBB428:
 228:/usr/include/c++/9.1.0/ostream ****       }
 2423              		.loc 4 228 43 is_stmt 0 view .LVU610
 2424 0c15 660FEFC0 		pxor	%xmm0, %xmm0
 2425 0c19 F30F5A44 		cvtss2sd	8(%rsp), %xmm0
 2425      2408
 2426 0c1f 4889DF   		movq	%rbx, %rdi
 2427 0c22 E8000000 		call	_ZNSo9_M_insertIdEERSoT_@PLT
 2427      00
 2428              	.LVL237:
 2429 0c27 4889C3   		movq	%rax, %rbx
 2430              	.LVL238:
 228:/usr/include/c++/9.1.0/ostream ****       }
 2431              		.loc 4 228 43 view .LVU611
 2432              	.LBE428:
 2433              	.LBE427:
 2434              	.LBB429:
 2435              	.LBI386:
 108:/usr/include/c++/9.1.0/ostream ****       {
 2436              		.loc 4 108 7 is_stmt 1 view .LVU612
 2437              	.LBB404:
 2438              	.LBI387:
 599:/usr/include/c++/9.1.0/ostream ****     { return flush(__os.put(__os.widen('\n'))); }
 2439              		.loc 4 599 5 view .LVU613
 2440              	.LBB403:
 600:/usr/include/c++/9.1.0/ostream **** 
 2441              		.loc 4 600 19 is_stmt 0 view .LVU614
 2442 0c2a 488B00   		movq	(%rax), %rax
 2443              	.LVL239:
 600:/usr/include/c++/9.1.0/ostream **** 
 2444              		.loc 4 600 19 view .LVU615
 2445 0c2d 4889D9   		movq	%rbx, %rcx
 2446 0c30 480348E8 		addq	-24(%rax), %rcx
 2447              	.LVL240:
 2448              	.LBB402:
 2449              	.LBI389:
 449:/usr/include/c++/9.1.0/bits/basic_ios.h ****       { return __check_facet(_M_ctype).widen(__c); }
 2450              		.loc 6 449 7 is_stmt 1 view .LVU616
 2451              	.LBB399:
 2452              		.loc 6 450 30 is_stmt 0 view .LVU617
 2453 0c34 4C8BB1F0 		movq	240(%rcx), %r14
 2453      000000
 2454              	.LVL241:
 2455              	.LBB397:
 2456              	.LBI391:
  47:/usr/include/c++/9.1.0/bits/basic_ios.h ****     {
 2457              		.loc 6 47 5 is_stmt 1 view .LVU618
 2458              	.LBB393:
  49:/usr/include/c++/9.1.0/bits/basic_ios.h **** 	__throw_bad_cast();
 2459              		.loc 6 49 7 is_stmt 0 view .LVU619
 2460 0c3b 4D85F6   		testq	%r14, %r14
 2461 0c3e 0F8452FE 		je	.L150
 2461      FFFF
 2462              	.LVL242:
GAS LISTING /tmp/cc6iEGVT.s 			page 111


  49:/usr/include/c++/9.1.0/bits/basic_ios.h **** 	__throw_bad_cast();
 2463              		.loc 6 49 7 view .LVU620
 2464              	.LBE393:
 2465              	.LBE397:
 2466              	.LBB398:
 2467              	.LBI394:
 872:/usr/include/c++/9.1.0/bits/locale_facets.h ****       {
 2468              		.loc 7 872 7 is_stmt 1 view .LVU621
 2469              	.LBB396:
 874:/usr/include/c++/9.1.0/bits/locale_facets.h **** 	  return _M_widen[static_cast<unsigned char>(__c)];
 2470              		.loc 7 874 2 view .LVU622
 2471 0c44 41807E38 		cmpb	$0, 56(%r14)
 2471      00
 2472 0c49 0F844CFE 		je	.L142
 2472      FFFF
 875:/usr/include/c++/9.1.0/bits/locale_facets.h **** 	this->_M_widen_init();
 2473              		.loc 7 875 4 view .LVU623
 875:/usr/include/c++/9.1.0/bits/locale_facets.h **** 	this->_M_widen_init();
 2474              		.loc 7 875 51 is_stmt 0 view .LVU624
 2475 0c4f 410FB676 		movzbl	67(%r14), %esi
 2475      43
 2476 0c54 E95AFEFF 		jmp	.L143
 2476      FF
 2477              	.LVL243:
 2478              	.L133:
 875:/usr/include/c++/9.1.0/bits/locale_facets.h **** 	this->_M_widen_init();
 2479              		.loc 7 875 51 view .LVU625
 2480              	.LBE396:
 2481              	.LBE398:
 2482              	.LBE399:
 2483              	.LBE402:
 2484              	.LBE403:
 2485              	.LBE404:
 2486              	.LBE429:
 2487              	.LBE434:
 367:Src/main.cpp  **** 
 2488              		.loc 1 367 1 view .LVU626
 2489 0c59 4883C410 		addq	$16, %rsp
 2490              		.cfi_def_cfa_offset 48
 2491 0c5d 5B       		popq	%rbx
 2492              		.cfi_def_cfa_offset 40
 2493 0c5e 5D       		popq	%rbp
 2494              		.cfi_def_cfa_offset 32
 2495 0c5f 415C     		popq	%r12
 2496              		.cfi_def_cfa_offset 24
 2497              	.LVL244:
 367:Src/main.cpp  **** 
 2498              		.loc 1 367 1 view .LVU627
 2499 0c61 415D     		popq	%r13
 2500              		.cfi_def_cfa_offset 16
 2501              	.LVL245:
 367:Src/main.cpp  **** 
 2502              		.loc 1 367 1 view .LVU628
 2503 0c63 415E     		popq	%r14
 2504              		.cfi_def_cfa_offset 8
 2505 0c65 C3       		ret
 2506              	.LVL246:
GAS LISTING /tmp/cc6iEGVT.s 			page 112


 2507              	.L146:
 2508              		.cfi_restore 3
 2509              		.cfi_restore 6
 2510              		.cfi_restore 12
 2511              		.cfi_restore 13
 2512              		.cfi_restore 14
 367:Src/main.cpp  **** 
 2513              		.loc 1 367 1 view .LVU629
 2514 0c66 C3       		ret
 2515              		.cfi_endproc
 2516              	.LFE2489:
 2518              		.globl	_Z12drawObstaclePK8obstacle
 2520              	_Z12drawObstaclePK8obstacle:
 2521              	.LVL247:
 2522              	.LFB2490:
 373:Src/main.cpp  **** 	glSetColor(OBST_COLOR);
 2523              		.loc 1 373 1 is_stmt 1 view -0
 2524              		.cfi_startproc
 373:Src/main.cpp  **** 	glSetColor(OBST_COLOR);
 2525              		.loc 1 373 1 is_stmt 0 view .LVU631
 2526 0c67 53       		pushq	%rbx
 2527              		.cfi_def_cfa_offset 16
 2528              		.cfi_offset 3, -16
 2529 0c68 4889FB   		movq	%rdi, %rbx
 374:Src/main.cpp  **** 	drawQuad(o->c->x, o->c->y, o->a);
 2530              		.loc 1 374 2 is_stmt 1 view .LVU632
 374:Src/main.cpp  **** 	drawQuad(o->c->x, o->c->y, o->a);
 2531              		.loc 1 374 12 is_stmt 0 view .LVU633
 2532 0c6b BF0000FF 		movl	$16711680, %edi
 2532      00
 2533              	.LVL248:
 374:Src/main.cpp  **** 	drawQuad(o->c->x, o->c->y, o->a);
 2534              		.loc 1 374 12 view .LVU634
 2535 0c70 E8000000 		call	_Z10glSetColorj@PLT
 2535      00
 2536              	.LVL249:
 375:Src/main.cpp  **** 	glSetColor(GRAPH_COLOR);
 2537              		.loc 1 375 2 is_stmt 1 view .LVU635
 375:Src/main.cpp  **** 	glSetColor(GRAPH_COLOR);
 2538              		.loc 1 375 23 is_stmt 0 view .LVU636
 2539 0c75 488B03   		movq	(%rbx), %rax
 375:Src/main.cpp  **** 	glSetColor(GRAPH_COLOR);
 2540              		.loc 1 375 10 view .LVU637
 2541 0c78 F30F1053 		movss	40(%rbx), %xmm2
 2541      28
 2542 0c7d F30F1048 		movss	4(%rax), %xmm1
 2542      04
 2543 0c82 F30F1000 		movss	(%rax), %xmm0
 2544 0c86 E8000000 		call	_Z8drawQuadfff@PLT
 2544      00
 2545              	.LVL250:
 376:Src/main.cpp  **** 	// for(int i = 0; i < 4; i++)
 2546              		.loc 1 376 2 is_stmt 1 view .LVU638
 376:Src/main.cpp  **** 	// for(int i = 0; i < 4; i++)
 2547              		.loc 1 376 12 is_stmt 0 view .LVU639
 2548 0c8b BFFFFF00 		movl	$65535, %edi
 2548      00
GAS LISTING /tmp/cc6iEGVT.s 			page 113


 2549 0c90 E8000000 		call	_Z10glSetColorj@PLT
 2549      00
 2550              	.LVL251:
 379:Src/main.cpp  **** 
 2551              		.loc 1 379 1 view .LVU640
 2552 0c95 5B       		popq	%rbx
 2553              		.cfi_def_cfa_offset 8
 2554              	.LVL252:
 379:Src/main.cpp  **** 
 2555              		.loc 1 379 1 view .LVU641
 2556 0c96 C3       		ret
 2557              		.cfi_endproc
 2558              	.LFE2490:
 2560              		.globl	_Z11renderScenev
 2562              	_Z11renderScenev:
 2563              	.LFB2491:
 382:Src/main.cpp  **** 	glClear(GL_COLOR_BUFFER_BIT);
 2564              		.loc 1 382 1 is_stmt 1 view -0
 2565              		.cfi_startproc
 2566 0c97 53       		pushq	%rbx
 2567              		.cfi_def_cfa_offset 16
 2568              		.cfi_offset 3, -16
 383:Src/main.cpp  **** 
 2569              		.loc 1 383 2 view .LVU643
 383:Src/main.cpp  **** 
 2570              		.loc 1 383 9 is_stmt 0 view .LVU644
 2571 0c98 BF004000 		movl	$16384, %edi
 2571      00
 2572 0c9d E8000000 		call	glClear@PLT
 2572      00
 2573              	.LVL253:
 387:Src/main.cpp  **** 		{
 2574              		.loc 1 387 3 is_stmt 1 view .LVU645
 2575              	.LBB435:
 387:Src/main.cpp  **** 		{
 2576              		.loc 1 387 14 is_stmt 0 view .LVU646
 2577 0ca2 BB000000 		movl	$0, %ebx
 2577      00
 2578              	.LVL254:
 2579              	.L155:
 387:Src/main.cpp  **** 		{
 2580              		.loc 1 387 23 discriminator 3 view .LVU647
 2581 0ca7 48391D00 		cmpq	%rbx, numOfObstacles(%rip)
 2581      000000
 2582 0cae 761D     		jbe	.L157
 389:Src/main.cpp  **** 		}
 2583              		.loc 1 389 4 is_stmt 1 discriminator 2 view .LVU648
 389:Src/main.cpp  **** 		}
 2584              		.loc 1 389 29 is_stmt 0 discriminator 2 view .LVU649
 2585 0cb0 488D045B 		leaq	(%rbx,%rbx,2), %rax
 2586 0cb4 48C1E004 		salq	$4, %rax
 2587 0cb8 4889C7   		movq	%rax, %rdi
 389:Src/main.cpp  **** 		}
 2588              		.loc 1 389 17 discriminator 2 view .LVU650
 2589 0cbb 48033D00 		addq	obstacles(%rip), %rdi
 2589      000000
 389:Src/main.cpp  **** 		}
GAS LISTING /tmp/cc6iEGVT.s 			page 114


 2590              		.loc 1 389 16 discriminator 2 view .LVU651
 2591 0cc2 E8000000 		call	_Z12drawObstaclePK8obstacle
 2591      00
 2592              	.LVL255:
 387:Src/main.cpp  **** 		{
 2593              		.loc 1 387 3 discriminator 2 view .LVU652
 2594 0cc7 4883C301 		addq	$1, %rbx
 2595              	.LVL256:
 387:Src/main.cpp  **** 		{
 2596              		.loc 1 387 3 discriminator 2 view .LVU653
 2597 0ccb EBDA     		jmp	.L155
 2598              	.L157:
 387:Src/main.cpp  **** 		{
 2599              		.loc 1 387 3 discriminator 2 view .LVU654
 2600              	.LBE435:
 2601              	.LBB436:
 391:Src/main.cpp  **** 		{
 2602              		.loc 1 391 14 view .LVU655
 2603 0ccd BB000000 		movl	$0, %ebx
 2603      00
 2604              	.LVL257:
 2605              	.L154:
 391:Src/main.cpp  **** 		{
 2606              		.loc 1 391 23 discriminator 3 view .LVU656
 2607 0cd2 48391D00 		cmpq	%rbx, graphSize(%rip)
 2607      000000
 2608 0cd9 7616     		jbe	.L156
 393:Src/main.cpp  **** 		}
 2609              		.loc 1 393 4 is_stmt 1 discriminator 2 view .LVU657
 393:Src/main.cpp  **** 		}
 2610              		.loc 1 393 13 is_stmt 0 discriminator 2 view .LVU658
 2611 0cdb 488B0500 		movq	graph(%rip), %rax
 2611      000000
 2612 0ce2 488B3CD8 		movq	(%rax,%rbx,8), %rdi
 2613 0ce6 E8000000 		call	_Z9drawEdgesPK10graphPoint
 2613      00
 2614              	.LVL258:
 391:Src/main.cpp  **** 		{
 2615              		.loc 1 391 3 discriminator 2 view .LVU659
 2616 0ceb 4883C301 		addq	$1, %rbx
 2617              	.LVL259:
 391:Src/main.cpp  **** 		{
 2618              		.loc 1 391 3 discriminator 2 view .LVU660
 2619 0cef EBE1     		jmp	.L154
 2620              	.L156:
 391:Src/main.cpp  **** 		{
 2621              		.loc 1 391 3 discriminator 2 view .LVU661
 2622              	.LBE436:
 400:Src/main.cpp  **** }
 2623              		.loc 1 400 5 is_stmt 1 view .LVU662
 400:Src/main.cpp  **** }
 2624              		.loc 1 400 20 is_stmt 0 view .LVU663
 2625 0cf1 E8000000 		call	glutSwapBuffers@PLT
 2625      00
 2626              	.LVL260:
 401:Src/main.cpp  **** 
 2627              		.loc 1 401 1 view .LVU664
GAS LISTING /tmp/cc6iEGVT.s 			page 115


 2628 0cf6 5B       		popq	%rbx
 2629              		.cfi_def_cfa_offset 8
 2630              	.LVL261:
 401:Src/main.cpp  **** 
 2631              		.loc 1 401 1 view .LVU665
 2632 0cf7 C3       		ret
 2633              		.cfi_endproc
 2634              	.LFE2491:
 2636              		.section	.rodata.str1.1
 2637              	.LC22:
 2638 0059 50524553 		.string	"PRESSED\n"
 2638      5345440A 
 2638      00
 2639              	.LC23:
 2640 0062 4553430A 		.string	"ESC\n"
 2640      00
 2641              		.text
 2642              		.globl	_Z14handleKeypresshii
 2644              	_Z14handleKeypresshii:
 2645              	.LVL262:
 2646              	.LFB2492:
 406:Src/main.cpp  ****     cout << "PRESSED\n" << (int)key << endl;
 2647              		.loc 1 406 1 is_stmt 1 view -0
 2648              		.cfi_startproc
 406:Src/main.cpp  ****     cout << "PRESSED\n" << (int)key << endl;
 2649              		.loc 1 406 1 is_stmt 0 view .LVU667
 2650 0cf8 4154     		pushq	%r12
 2651              		.cfi_def_cfa_offset 16
 2652              		.cfi_offset 12, -16
 2653 0cfa 55       		pushq	%rbp
 2654              		.cfi_def_cfa_offset 24
 2655              		.cfi_offset 6, -24
 2656 0cfb 53       		pushq	%rbx
 2657              		.cfi_def_cfa_offset 32
 2658              		.cfi_offset 3, -32
 2659 0cfc 89FD     		movl	%edi, %ebp
 407:Src/main.cpp  ****     if(key == 27) //ESC
 2660              		.loc 1 407 5 is_stmt 1 view .LVU668
 2661              	.LVL263:
 2662              	.LBB461:
 2663              	.LBI461:
 565:/usr/include/c++/9.1.0/ostream ****     {
 2664              		.loc 4 565 5 view .LVU669
 565:/usr/include/c++/9.1.0/ostream ****     {
 2665              		.loc 4 565 5 is_stmt 0 view .LVU670
 2666              	.LBE461:
 2667              		.loc 5 335 2 is_stmt 1 view .LVU671
 2668              	.LBB463:
 2669              	.LBB462:
 570:/usr/include/c++/9.1.0/ostream **** 			 static_cast<streamsize>(_Traits::length(__s)));
 2670              		.loc 4 570 18 is_stmt 0 view .LVU672
 2671 0cfe BA080000 		movl	$8, %edx
 2671      00
 2672              	.LVL264:
 570:/usr/include/c++/9.1.0/ostream **** 			 static_cast<streamsize>(_Traits::length(__s)));
 2673              		.loc 4 570 18 view .LVU673
 2674 0d03 488D3500 		leaq	.LC22(%rip), %rsi
GAS LISTING /tmp/cc6iEGVT.s 			page 116


 2674      000000
 2675              	.LVL265:
 570:/usr/include/c++/9.1.0/ostream **** 			 static_cast<streamsize>(_Traits::length(__s)));
 2676              		.loc 4 570 18 view .LVU674
 2677 0d0a 488D3D00 		leaq	_ZSt4cout(%rip), %rdi
 2677      000000
 2678              	.LVL266:
 570:/usr/include/c++/9.1.0/ostream **** 			 static_cast<streamsize>(_Traits::length(__s)));
 2679              		.loc 4 570 18 view .LVU675
 2680 0d11 E8000000 		call	_ZSt16__ostream_insertIcSt11char_traitsIcEERSt13basic_ostreamIT_T0_ES6_PKS3_l@PLT
 2680      00
 2681              	.LVL267:
 570:/usr/include/c++/9.1.0/ostream **** 			 static_cast<streamsize>(_Traits::length(__s)));
 2682              		.loc 4 570 18 view .LVU676
 2683              	.LBE462:
 2684              	.LBE463:
 407:Src/main.cpp  ****     if(key == 27) //ESC
 2685              		.loc 1 407 33 view .LVU677
 2686 0d16 400FB6F5 		movzbl	%bpl, %esi
 2687 0d1a 488D3D00 		leaq	_ZSt4cout(%rip), %rdi
 2687      000000
 2688 0d21 E8000000 		call	_ZNSolsEi@PLT
 2688      00
 2689              	.LVL268:
 2690 0d26 4889C3   		movq	%rax, %rbx
 2691              	.LVL269:
 2692              	.LBB464:
 2693              	.LBI464:
 108:/usr/include/c++/9.1.0/ostream ****       {
 2694              		.loc 4 108 7 is_stmt 1 view .LVU678
 2695              	.LBB465:
 2696              	.LBI465:
 599:/usr/include/c++/9.1.0/ostream ****     { return flush(__os.put(__os.widen('\n'))); }
 2697              		.loc 4 599 5 view .LVU679
 2698              	.LBB466:
 600:/usr/include/c++/9.1.0/ostream **** 
 2699              		.loc 4 600 19 is_stmt 0 view .LVU680
 2700 0d29 488B00   		movq	(%rax), %rax
 2701              	.LVL270:
 600:/usr/include/c++/9.1.0/ostream **** 
 2702              		.loc 4 600 19 view .LVU681
 2703 0d2c 4889D9   		movq	%rbx, %rcx
 2704 0d2f 480348E8 		addq	-24(%rax), %rcx
 2705              	.LVL271:
 2706              	.LBB467:
 2707              	.LBI467:
 449:/usr/include/c++/9.1.0/bits/basic_ios.h ****       { return __check_facet(_M_ctype).widen(__c); }
 2708              		.loc 6 449 7 is_stmt 1 view .LVU682
 2709              	.LBB468:
 2710              		.loc 6 450 30 is_stmt 0 view .LVU683
 2711 0d33 4C8BA1F0 		movq	240(%rcx), %r12
 2711      000000
 2712              	.LVL272:
 2713              	.LBB469:
 2714              	.LBI469:
  47:/usr/include/c++/9.1.0/bits/basic_ios.h ****     {
 2715              		.loc 6 47 5 is_stmt 1 view .LVU684
GAS LISTING /tmp/cc6iEGVT.s 			page 117


 2716              	.LBB470:
  49:/usr/include/c++/9.1.0/bits/basic_ios.h **** 	__throw_bad_cast();
 2717              		.loc 6 49 7 is_stmt 0 view .LVU685
 2718 0d3a 4D85E4   		testq	%r12, %r12
 2719 0d3d 742D     		je	.L165
 2720              	.LVL273:
  49:/usr/include/c++/9.1.0/bits/basic_ios.h **** 	__throw_bad_cast();
 2721              		.loc 6 49 7 view .LVU686
 2722              	.LBE470:
 2723              	.LBE469:
 2724              	.LBB472:
 2725              	.LBI472:
 872:/usr/include/c++/9.1.0/bits/locale_facets.h ****       {
 2726              		.loc 7 872 7 is_stmt 1 view .LVU687
 2727              	.LBB473:
 874:/usr/include/c++/9.1.0/bits/locale_facets.h **** 	  return _M_widen[static_cast<unsigned char>(__c)];
 2728              		.loc 7 874 2 view .LVU688
 2729 0d3f 41807C24 		cmpb	$0, 56(%r12)
 2729      3800
 2730 0d45 742A     		je	.L161
 875:/usr/include/c++/9.1.0/bits/locale_facets.h **** 	this->_M_widen_init();
 2731              		.loc 7 875 4 view .LVU689
 875:/usr/include/c++/9.1.0/bits/locale_facets.h **** 	this->_M_widen_init();
 2732              		.loc 7 875 51 is_stmt 0 view .LVU690
 2733 0d47 410FB674 		movzbl	67(%r12), %esi
 2733      2443
 2734              	.LVL274:
 2735              	.L162:
 875:/usr/include/c++/9.1.0/bits/locale_facets.h **** 	this->_M_widen_init();
 2736              		.loc 7 875 51 view .LVU691
 2737              	.LBE473:
 2738              	.LBE472:
 2739              	.LBE468:
 2740              	.LBE467:
 600:/usr/include/c++/9.1.0/ostream **** 
 2741              		.loc 4 600 19 view .LVU692
 2742 0d4d 400FBEF6 		movsbl	%sil, %esi
 2743 0d51 4889DF   		movq	%rbx, %rdi
 2744 0d54 E8000000 		call	_ZNSo3putEc@PLT
 2744      00
 2745              	.LVL275:
 2746 0d59 4889C7   		movq	%rax, %rdi
 2747              	.LVL276:
 2748              	.LBB478:
 2749              	.LBI478:
 621:/usr/include/c++/9.1.0/ostream ****     { return __os.flush(); }
 2750              		.loc 4 621 5 is_stmt 1 view .LVU693
 2751              	.LBB479:
 2752              		.loc 4 622 25 is_stmt 0 view .LVU694
 2753 0d5c E8000000 		call	_ZNSo5flushEv@PLT
 2753      00
 2754              	.LVL277:
 2755              		.loc 4 622 25 view .LVU695
 2756              	.LBE479:
 2757              	.LBE478:
 2758              	.LBE466:
 2759              	.LBE465:
GAS LISTING /tmp/cc6iEGVT.s 			page 118


 2760              	.LBE464:
 408:Src/main.cpp  ****     {
 2761              		.loc 1 408 5 is_stmt 1 view .LVU696
 2762 0d61 4080FD1B 		cmpb	$27, %bpl
 2763 0d65 7425     		je	.L166
 2764              	.L159:
 413:Src/main.cpp  **** 
 2765              		.loc 1 413 1 is_stmt 0 view .LVU697
 2766 0d67 5B       		popq	%rbx
 2767              		.cfi_remember_state
 2768              		.cfi_def_cfa_offset 24
 2769 0d68 5D       		popq	%rbp
 2770              		.cfi_def_cfa_offset 16
 2771 0d69 415C     		popq	%r12
 2772              		.cfi_def_cfa_offset 8
 2773 0d6b C3       		ret
 2774              	.LVL278:
 2775              	.L165:
 2776              		.cfi_restore_state
 2777              	.LBB483:
 2778              	.LBB482:
 2779              	.LBB481:
 2780              	.LBB480:
 2781              	.LBB477:
 2782              	.LBB475:
 2783              	.LBB471:
  50:/usr/include/c++/9.1.0/bits/basic_ios.h ****       return *__f;
 2784              		.loc 6 50 18 view .LVU698
 2785 0d6c E8000000 		call	_ZSt16__throw_bad_castv@PLT
 2785      00
 2786              	.LVL279:
 2787              	.L161:
  50:/usr/include/c++/9.1.0/bits/basic_ios.h ****       return *__f;
 2788              		.loc 6 50 18 view .LVU699
 2789              	.LBE471:
 2790              	.LBE475:
 2791              	.LBB476:
 2792              	.LBB474:
 876:/usr/include/c++/9.1.0/bits/locale_facets.h **** 	return this->do_widen(__c);
 2793              		.loc 7 876 2 is_stmt 1 view .LVU700
 876:/usr/include/c++/9.1.0/bits/locale_facets.h **** 	return this->do_widen(__c);
 2794              		.loc 7 876 21 is_stmt 0 view .LVU701
 2795 0d71 4C89E7   		movq	%r12, %rdi
 2796 0d74 E8000000 		call	_ZNKSt5ctypeIcE13_M_widen_initEv@PLT
 2796      00
 2797              	.LVL280:
 2798              		.loc 7 877 2 is_stmt 1 view .LVU702
 2799              		.loc 7 877 27 is_stmt 0 view .LVU703
 2800 0d79 498B0424 		movq	(%r12), %rax
 2801              		.loc 7 877 23 view .LVU704
 2802 0d7d BE0A0000 		movl	$10, %esi
 2802      00
 2803 0d82 4C89E7   		movq	%r12, %rdi
 2804 0d85 FF5030   		call	*48(%rax)
 2805              	.LVL281:
 2806 0d88 89C6     		movl	%eax, %esi
 2807              		.loc 7 877 27 view .LVU705
GAS LISTING /tmp/cc6iEGVT.s 			page 119


 2808 0d8a EBC1     		jmp	.L162
 2809              	.LVL282:
 2810              	.L166:
 2811              		.loc 7 877 27 view .LVU706
 2812              	.LBE474:
 2813              	.LBE476:
 2814              	.LBE477:
 2815              	.LBE480:
 2816              	.LBE481:
 2817              	.LBE482:
 2818              	.LBE483:
 410:Src/main.cpp  **** 		terminated = true;
 2819              		.loc 1 410 6 is_stmt 1 view .LVU707
 2820              	.LBB484:
 2821              	.LBI484:
 565:/usr/include/c++/9.1.0/ostream ****     {
 2822              		.loc 4 565 5 view .LVU708
 565:/usr/include/c++/9.1.0/ostream ****     {
 2823              		.loc 4 565 5 is_stmt 0 view .LVU709
 2824              	.LBE484:
 2825              		.loc 5 335 2 is_stmt 1 view .LVU710
 2826              	.LBB486:
 2827              	.LBB485:
 570:/usr/include/c++/9.1.0/ostream **** 			 static_cast<streamsize>(_Traits::length(__s)));
 2828              		.loc 4 570 18 is_stmt 0 view .LVU711
 2829 0d8c BA040000 		movl	$4, %edx
 2829      00
 2830 0d91 488D3500 		leaq	.LC23(%rip), %rsi
 2830      000000
 2831 0d98 488D3D00 		leaq	_ZSt4cout(%rip), %rdi
 2831      000000
 2832 0d9f E8000000 		call	_ZSt16__ostream_insertIcSt11char_traitsIcEERSt13basic_ostreamIT_T0_ES6_PKS3_l@PLT
 2832      00
 2833              	.LVL283:
 570:/usr/include/c++/9.1.0/ostream **** 			 static_cast<streamsize>(_Traits::length(__s)));
 2834              		.loc 4 570 18 view .LVU712
 2835              	.LBE485:
 2836              	.LBE486:
 411:Src/main.cpp  ****     }
 2837              		.loc 1 411 3 is_stmt 1 view .LVU713
 411:Src/main.cpp  ****     }
 2838              		.loc 1 411 14 is_stmt 0 view .LVU714
 2839 0da4 C6050000 		movb	$1, terminated(%rip)
 2839      000001
 413:Src/main.cpp  **** 
 2840              		.loc 1 413 1 view .LVU715
 2841 0dab EBBA     		jmp	.L159
 2842              		.cfi_endproc
 2843              	.LFE2492:
 2845              		.globl	_Z7reshapeii
 2847              	_Z7reshapeii:
 2848              	.LVL284:
 2849              	.LFB2493:
 420:Src/main.cpp  **** 	glViewport(0, 0, w, h);
 2850              		.loc 1 420 1 is_stmt 1 view -0
 2851              		.cfi_startproc
 420:Src/main.cpp  **** 	glViewport(0, 0, w, h);
GAS LISTING /tmp/cc6iEGVT.s 			page 120


 2852              		.loc 1 420 1 is_stmt 0 view .LVU717
 2853 0dad 55       		pushq	%rbp
 2854              		.cfi_def_cfa_offset 16
 2855              		.cfi_offset 6, -16
 2856 0dae 53       		pushq	%rbx
 2857              		.cfi_def_cfa_offset 24
 2858              		.cfi_offset 3, -24
 2859 0daf 4883EC08 		subq	$8, %rsp
 2860              		.cfi_def_cfa_offset 32
 2861 0db3 89FB     		movl	%edi, %ebx
 2862 0db5 89F5     		movl	%esi, %ebp
 421:Src/main.cpp  **** 
 2863              		.loc 1 421 2 is_stmt 1 view .LVU718
 421:Src/main.cpp  **** 
 2864              		.loc 1 421 12 is_stmt 0 view .LVU719
 2865 0db7 89F1     		movl	%esi, %ecx
 2866 0db9 89FA     		movl	%edi, %edx
 2867 0dbb BE000000 		movl	$0, %esi
 2867      00
 2868              	.LVL285:
 421:Src/main.cpp  **** 
 2869              		.loc 1 421 12 view .LVU720
 2870 0dc0 BF000000 		movl	$0, %edi
 2870      00
 2871              	.LVL286:
 421:Src/main.cpp  **** 
 2872              		.loc 1 421 12 view .LVU721
 2873 0dc5 E8000000 		call	glViewport@PLT
 2873      00
 2874              	.LVL287:
 423:Src/main.cpp  **** 	glLoadIdentity();
 2875              		.loc 1 423 2 is_stmt 1 view .LVU722
 423:Src/main.cpp  **** 	glLoadIdentity();
 2876              		.loc 1 423 14 is_stmt 0 view .LVU723
 2877 0dca BF011700 		movl	$5889, %edi
 2877      00
 2878 0dcf E8000000 		call	glMatrixMode@PLT
 2878      00
 2879              	.LVL288:
 424:Src/main.cpp  **** 	gluOrtho2D(0, w, 0, h);
 2880              		.loc 1 424 2 is_stmt 1 view .LVU724
 424:Src/main.cpp  **** 	gluOrtho2D(0, w, 0, h);
 2881              		.loc 1 424 16 is_stmt 0 view .LVU725
 2882 0dd4 E8000000 		call	glLoadIdentity@PLT
 2882      00
 2883              	.LVL289:
 425:Src/main.cpp  **** 
 2884              		.loc 1 425 2 is_stmt 1 view .LVU726
 425:Src/main.cpp  **** 
 2885              		.loc 1 425 12 is_stmt 0 view .LVU727
 2886 0dd9 660FEFDB 		pxor	%xmm3, %xmm3
 2887 0ddd F20F2ADD 		cvtsi2sdl	%ebp, %xmm3
 2888 0de1 660FEFD2 		pxor	%xmm2, %xmm2
 2889 0de5 660FEFC9 		pxor	%xmm1, %xmm1
 2890 0de9 F20F2ACB 		cvtsi2sdl	%ebx, %xmm1
 2891 0ded 660F28C2 		movapd	%xmm2, %xmm0
 2892 0df1 E8000000 		call	gluOrtho2D@PLT
GAS LISTING /tmp/cc6iEGVT.s 			page 121


 2892      00
 2893              	.LVL290:
 427:Src/main.cpp  **** 	glLoadIdentity();
 2894              		.loc 1 427 2 is_stmt 1 view .LVU728
 427:Src/main.cpp  **** 	glLoadIdentity();
 2895              		.loc 1 427 14 is_stmt 0 view .LVU729
 2896 0df6 BF001700 		movl	$5888, %edi
 2896      00
 2897 0dfb E8000000 		call	glMatrixMode@PLT
 2897      00
 2898              	.LVL291:
 428:Src/main.cpp  **** }
 2899              		.loc 1 428 2 is_stmt 1 view .LVU730
 428:Src/main.cpp  **** }
 2900              		.loc 1 428 16 is_stmt 0 view .LVU731
 2901 0e00 E8000000 		call	glLoadIdentity@PLT
 2901      00
 2902              	.LVL292:
 429:Src/main.cpp  **** 
 2903              		.loc 1 429 1 view .LVU732
 2904 0e05 4883C408 		addq	$8, %rsp
 2905              		.cfi_def_cfa_offset 24
 2906 0e09 5B       		popq	%rbx
 2907              		.cfi_def_cfa_offset 16
 2908              	.LVL293:
 429:Src/main.cpp  **** 
 2909              		.loc 1 429 1 view .LVU733
 2910 0e0a 5D       		popq	%rbp
 2911              		.cfi_def_cfa_offset 8
 2912              	.LVL294:
 429:Src/main.cpp  **** 
 2913              		.loc 1 429 1 view .LVU734
 2914 0e0b C3       		ret
 2915              		.cfi_endproc
 2916              	.LFE2493:
 2918              		.section	.rodata.str1.1
 2919              	.LC30:
 2920 0067 706F696E 		.string	"points: "
 2920      74733A20 
 2920      00
 2921              	.LC31:
 2922 0070 3B206361 		.string	"; calculated: "
 2922      6C63756C 
 2922      61746564 
 2922      3A2000
 2923              		.text
 2924              		.globl	main
 2926              	main:
 2927              	.LVL295:
 2928              	.LFB2495:
 452:Src/main.cpp  **** 	numOfObstacles = 10;
 2929              		.loc 1 452 1 is_stmt 1 view -0
 2930              		.cfi_startproc
 452:Src/main.cpp  **** 	numOfObstacles = 10;
 2931              		.loc 1 452 1 is_stmt 0 view .LVU736
 2932 0e0c 55       		pushq	%rbp
 2933              		.cfi_def_cfa_offset 16
GAS LISTING /tmp/cc6iEGVT.s 			page 122


 2934              		.cfi_offset 6, -16
 2935 0e0d 53       		pushq	%rbx
 2936              		.cfi_def_cfa_offset 24
 2937              		.cfi_offset 3, -24
 2938 0e0e 4883EC58 		subq	$88, %rsp
 2939              		.cfi_def_cfa_offset 112
 452:Src/main.cpp  **** 	numOfObstacles = 10;
 2940              		.loc 1 452 1 view .LVU737
 2941 0e12 64488B04 		movq	%fs:40, %rax
 2941      25280000 
 2941      00
 2942 0e1b 48894424 		movq	%rax, 72(%rsp)
 2942      48
 2943 0e20 31C0     		xorl	%eax, %eax
 453:Src/main.cpp  **** 	size_t iter = 0;
 2944              		.loc 1 453 2 is_stmt 1 view .LVU738
 453:Src/main.cpp  **** 	size_t iter = 0;
 2945              		.loc 1 453 17 is_stmt 0 view .LVU739
 2946 0e22 48C70500 		movq	$10, numOfObstacles(%rip)
 2946      0000000A 
 2946      000000
 454:Src/main.cpp  **** 	obstacles = (struct obstacle*)malloc(sizeof(struct obstacle) * numOfObstacles);
 2947              		.loc 1 454 2 is_stmt 1 view .LVU740
 2948              	.LVL296:
 455:Src/main.cpp  **** 	obstacles[iter++] = createObstacle(200, 200, 20);
 2949              		.loc 1 455 2 view .LVU741
 455:Src/main.cpp  **** 	obstacles[iter++] = createObstacle(200, 200, 20);
 2950              		.loc 1 455 38 is_stmt 0 view .LVU742
 2951 0e2d BFE00100 		movl	$480, %edi
 2951      00
 2952              	.LVL297:
 455:Src/main.cpp  **** 	obstacles[iter++] = createObstacle(200, 200, 20);
 2953              		.loc 1 455 38 view .LVU743
 2954 0e32 E8000000 		call	malloc@PLT
 2954      00
 2955              	.LVL298:
 455:Src/main.cpp  **** 	obstacles[iter++] = createObstacle(200, 200, 20);
 2956              		.loc 1 455 12 view .LVU744
 2957 0e37 48890500 		movq	%rax, obstacles(%rip)
 2957      000000
 456:Src/main.cpp  **** 	obstacles[iter++] = createObstacle(45, 55, 20);
 2958              		.loc 1 456 2 is_stmt 1 view .LVU745
 456:Src/main.cpp  **** 	obstacles[iter++] = createObstacle(45, 55, 20);
 2959              		.loc 1 456 49 is_stmt 0 view .LVU746
 2960 0e3e 488D5C24 		leaq	16(%rsp), %rbx
 2960      10
 2961 0e43 F30F1015 		movss	.LC25(%rip), %xmm2
 2961      00000000 
 2962 0e4b F30F100D 		movss	.LC26(%rip), %xmm1
 2962      00000000 
 2963 0e53 0F28C1   		movaps	%xmm1, %xmm0
 2964 0e56 4889DF   		movq	%rbx, %rdi
 2965 0e59 E8000000 		call	_Z14createObstaclefff@PLT
 2965      00
 2966              	.LVL299:
 456:Src/main.cpp  **** 	obstacles[iter++] = createObstacle(45, 55, 20);
 2967              		.loc 1 456 20 view .LVU747
GAS LISTING /tmp/cc6iEGVT.s 			page 123


 2968 0e5e 488B0500 		movq	obstacles(%rip), %rax
 2968      000000
 2969              	.LVL300:
 456:Src/main.cpp  **** 	obstacles[iter++] = createObstacle(45, 55, 20);
 2970              		.loc 1 456 20 view .LVU748
 2971 0e65 660F6F5C 		movdqa	16(%rsp), %xmm3
 2971      2410
 2972 0e6b 0F1118   		movups	%xmm3, (%rax)
 2973 0e6e 660F6F64 		movdqa	32(%rsp), %xmm4
 2973      2420
 2974 0e74 0F116010 		movups	%xmm4, 16(%rax)
 2975 0e78 488B5424 		movq	48(%rsp), %rdx
 2975      30
 2976 0e7d 48895020 		movq	%rdx, 32(%rax)
 2977 0e81 8B542438 		movl	56(%rsp), %edx
 2978 0e85 895028   		movl	%edx, 40(%rax)
 457:Src/main.cpp  **** 	// obstacles[iter++] = createObstacle(70, 20, 20);
 2979              		.loc 1 457 2 is_stmt 1 view .LVU749
 457:Src/main.cpp  **** 	// obstacles[iter++] = createObstacle(70, 20, 20);
 2980              		.loc 1 457 47 is_stmt 0 view .LVU750
 2981 0e88 F30F1015 		movss	.LC25(%rip), %xmm2
 2981      00000000 
 2982 0e90 F30F100D 		movss	.LC27(%rip), %xmm1
 2982      00000000 
 2983 0e98 F30F1005 		movss	.LC28(%rip), %xmm0
 2983      00000000 
 2984 0ea0 4889DF   		movq	%rbx, %rdi
 2985 0ea3 E8000000 		call	_Z14createObstaclefff@PLT
 2985      00
 2986              	.LVL301:
 457:Src/main.cpp  **** 	// obstacles[iter++] = createObstacle(70, 20, 20);
 2987              		.loc 1 457 20 view .LVU751
 2988 0ea8 488B0500 		movq	obstacles(%rip), %rax
 2988      000000
 2989 0eaf 660F6F6C 		movdqa	16(%rsp), %xmm5
 2989      2410
 2990 0eb5 0F116830 		movups	%xmm5, 48(%rax)
 2991 0eb9 660F6F74 		movdqa	32(%rsp), %xmm6
 2991      2420
 2992 0ebf 0F117040 		movups	%xmm6, 64(%rax)
 2993 0ec3 488B5424 		movq	48(%rsp), %rdx
 2993      30
 2994 0ec8 48895050 		movq	%rdx, 80(%rax)
 2995 0ecc 8B542438 		movl	56(%rsp), %edx
 2996 0ed0 895058   		movl	%edx, 88(%rax)
 464:Src/main.cpp  **** 	numOfObstacles = iter;
 2997              		.loc 1 464 2 is_stmt 1 view .LVU752
 464:Src/main.cpp  **** 	numOfObstacles = iter;
 2998              		.loc 1 464 48 is_stmt 0 view .LVU753
 2999 0ed3 F30F1015 		movss	.LC25(%rip), %xmm2
 2999      00000000 
 3000 0edb F30F100D 		movss	.LC9(%rip), %xmm1
 3000      00000000 
 3001 0ee3 0F28C2   		movaps	%xmm2, %xmm0
 3002 0ee6 4889DF   		movq	%rbx, %rdi
 3003 0ee9 E8000000 		call	_Z14createObstaclefff@PLT
 3003      00
GAS LISTING /tmp/cc6iEGVT.s 			page 124


 3004              	.LVL302:
 464:Src/main.cpp  **** 	numOfObstacles = iter;
 3005              		.loc 1 464 20 view .LVU754
 3006 0eee 488B0500 		movq	obstacles(%rip), %rax
 3006      000000
 3007 0ef5 660F6F7C 		movdqa	16(%rsp), %xmm7
 3007      2410
 3008 0efb 0F117860 		movups	%xmm7, 96(%rax)
 3009 0eff 660F6F5C 		movdqa	32(%rsp), %xmm3
 3009      2420
 3010 0f05 0F115870 		movups	%xmm3, 112(%rax)
 3011 0f09 488B5424 		movq	48(%rsp), %rdx
 3011      30
 3012 0f0e 48899080 		movq	%rdx, 128(%rax)
 3012      000000
 3013 0f15 8B542438 		movl	56(%rsp), %edx
 3014 0f19 89908800 		movl	%edx, 136(%rax)
 3014      0000
 465:Src/main.cpp  **** 
 3015              		.loc 1 465 2 is_stmt 1 view .LVU755
 465:Src/main.cpp  **** 
 3016              		.loc 1 465 17 is_stmt 0 view .LVU756
 3017 0f1f 48C70500 		movq	$3, numOfObstacles(%rip)
 3017      00000003 
 3017      000000
 467:Src/main.cpp  **** 
 3018              		.loc 1 467 2 is_stmt 1 view .LVU757
 467:Src/main.cpp  **** 
 3019              		.loc 1 467 12 is_stmt 0 view .LVU758
 3020 0f2a 48C70500 		movq	$14, graphSize(%rip)
 3020      0000000E 
 3020      000000
 469:Src/main.cpp  **** 
 3021              		.loc 1 469 2 is_stmt 1 view .LVU759
 469:Src/main.cpp  **** 
 3022              		.loc 1 469 51 is_stmt 0 view .LVU760
 3023 0f35 BF180000 		movl	$24, %edi
 3023      00
 3024 0f3a E8000000 		call	malloc@PLT
 3024      00
 3025              	.LVL303:
 3026 0f3f 4889C5   		movq	%rax, %rbp
 3027              	.LVL304:
 471:Src/main.cpp  **** 	c.x = 200;
 3028              		.loc 1 471 2 is_stmt 1 view .LVU761
 472:Src/main.cpp  **** 	c.y = 0;
 3029              		.loc 1 472 2 view .LVU762
 472:Src/main.cpp  **** 	c.y = 0;
 3030              		.loc 1 472 6 is_stmt 0 view .LVU763
 3031 0f42 C7442408 		movl	$0x43480000, 8(%rsp)
 3031      00004843 
 473:Src/main.cpp  **** 	p->c = c;
 3032              		.loc 1 473 2 is_stmt 1 view .LVU764
 473:Src/main.cpp  **** 	p->c = c;
 3033              		.loc 1 473 6 is_stmt 0 view .LVU765
 3034 0f4a C744240C 		movl	$0x00000000, 12(%rsp)
 3034      00000000 
GAS LISTING /tmp/cc6iEGVT.s 			page 125


 474:Src/main.cpp  **** 	struct graphPoint *p2 = (struct graphPoint*)malloc(sizeof(struct graphPoint));
 3035              		.loc 1 474 2 is_stmt 1 view .LVU766
 474:Src/main.cpp  **** 	struct graphPoint *p2 = (struct graphPoint*)malloc(sizeof(struct graphPoint));
 3036              		.loc 1 474 7 is_stmt 0 view .LVU767
 3037 0f52 488B4424 		movq	8(%rsp), %rax
 3037      08
 3038              	.LVL305:
 474:Src/main.cpp  **** 	struct graphPoint *p2 = (struct graphPoint*)malloc(sizeof(struct graphPoint));
 3039              		.loc 1 474 7 view .LVU768
 3040 0f57 48894510 		movq	%rax, 16(%rbp)
 475:Src/main.cpp  **** 
 3041              		.loc 1 475 2 is_stmt 1 view .LVU769
 475:Src/main.cpp  **** 
 3042              		.loc 1 475 52 is_stmt 0 view .LVU770
 3043 0f5b BF180000 		movl	$24, %edi
 3043      00
 3044 0f60 E8000000 		call	malloc@PLT
 3044      00
 3045              	.LVL306:
 3046 0f65 4889C3   		movq	%rax, %rbx
 3047              	.LVL307:
 477:Src/main.cpp  **** 	c2.x = 0;
 3048              		.loc 1 477 2 is_stmt 1 view .LVU771
 478:Src/main.cpp  **** 	c2.y = 200;
 3049              		.loc 1 478 2 view .LVU772
 479:Src/main.cpp  **** 	p2->c = c2;
 3050              		.loc 1 479 2 view .LVU773
 480:Src/main.cpp  **** 
 3051              		.loc 1 480 2 view .LVU774
 480:Src/main.cpp  **** 
 3052              		.loc 1 480 8 is_stmt 0 view .LVU775
 3053 0f68 48B80000 		movabsq	$4848124998864338944, %rax
 3053      00000000 
 3053      4843
 3054              	.LVL308:
 480:Src/main.cpp  **** 
 3055              		.loc 1 480 8 view .LVU776
 3056 0f72 48894310 		movq	%rax, 16(%rbx)
 482:Src/main.cpp  **** 	graph[numOfObstacles * 4] = p;
 3057              		.loc 1 482 2 is_stmt 1 view .LVU777
 482:Src/main.cpp  **** 	graph[numOfObstacles * 4] = p;
 3058              		.loc 1 482 37 is_stmt 0 view .LVU778
 3059 0f76 BF700000 		movl	$112, %edi
 3059      00
 3060 0f7b E8000000 		call	malloc@PLT
 3060      00
 3061              	.LVL309:
 482:Src/main.cpp  **** 	graph[numOfObstacles * 4] = p;
 3062              		.loc 1 482 8 view .LVU779
 3063 0f80 48890500 		movq	%rax, graph(%rip)
 3063      000000
 483:Src/main.cpp  **** 	graph[numOfObstacles * 4 + 1] = p2;
 3064              		.loc 1 483 2 is_stmt 1 view .LVU780
 483:Src/main.cpp  **** 	graph[numOfObstacles * 4 + 1] = p2;
 3065              		.loc 1 483 28 is_stmt 0 view .LVU781
 3066 0f87 48896860 		movq	%rbp, 96(%rax)
 484:Src/main.cpp  **** 	for(size_t i = 0; i < numOfObstacles * 4; i++)
GAS LISTING /tmp/cc6iEGVT.s 			page 126


 3067              		.loc 1 484 2 is_stmt 1 view .LVU782
 484:Src/main.cpp  **** 	for(size_t i = 0; i < numOfObstacles * 4; i++)
 3068              		.loc 1 484 32 is_stmt 0 view .LVU783
 3069 0f8b 48895868 		movq	%rbx, 104(%rax)
 485:Src/main.cpp  **** 	{
 3070              		.loc 1 485 2 is_stmt 1 view .LVU784
 3071              	.LVL310:
 3072              	.LBB487:
 485:Src/main.cpp  **** 	{
 3073              		.loc 1 485 13 is_stmt 0 view .LVU785
 3074 0f8f B8000000 		movl	$0, %eax
 3074      00
 3075              	.LVL311:
 3076              	.L171:
 485:Src/main.cpp  **** 	{
 3077              		.loc 1 485 39 discriminator 3 view .LVU786
 3078 0f94 488B1500 		movq	numOfObstacles(%rip), %rdx
 3078      000000
 3079 0f9b 488D0C95 		leaq	0(,%rdx,4), %rcx
 3079      00000000 
 485:Src/main.cpp  **** 	{
 3080              		.loc 1 485 22 discriminator 3 view .LVU787
 3081 0fa3 4839C1   		cmpq	%rax, %rcx
 3082 0fa6 7632     		jbe	.L170
 487:Src/main.cpp  **** 	}
 3083              		.loc 1 487 3 is_stmt 1 discriminator 2 view .LVU788
 487:Src/main.cpp  **** 	}
 3084              		.loc 1 487 26 is_stmt 0 discriminator 2 view .LVU789
 3085 0fa8 4889C2   		movq	%rax, %rdx
 3086 0fab 48C1EA02 		shrq	$2, %rdx
 487:Src/main.cpp  **** 	}
 3087              		.loc 1 487 29 discriminator 2 view .LVU790
 3088 0faf 488D1452 		leaq	(%rdx,%rdx,2), %rdx
 3089 0fb3 48C1E204 		salq	$4, %rdx
 3090 0fb7 48031500 		addq	obstacles(%rip), %rdx
 3090      000000
 487:Src/main.cpp  **** 	}
 3091              		.loc 1 487 41 discriminator 2 view .LVU791
 3092 0fbe 4889C1   		movq	%rax, %rcx
 3093 0fc1 83E103   		andl	$3, %ecx
 487:Src/main.cpp  **** 	}
 3094              		.loc 1 487 44 discriminator 2 view .LVU792
 3095 0fc4 488B4CCA 		movq	8(%rdx,%rcx,8), %rcx
 3095      08
 487:Src/main.cpp  **** 	}
 3096              		.loc 1 487 12 discriminator 2 view .LVU793
 3097 0fc9 488B1500 		movq	graph(%rip), %rdx
 3097      000000
 3098 0fd0 48890CC2 		movq	%rcx, (%rdx,%rax,8)
 485:Src/main.cpp  **** 	{
 3099              		.loc 1 485 2 discriminator 2 view .LVU794
 3100 0fd4 4883C001 		addq	$1, %rax
 3101              	.LVL312:
 485:Src/main.cpp  **** 	{
 3102              		.loc 1 485 2 discriminator 2 view .LVU795
 3103 0fd8 EBBA     		jmp	.L171
 3104              	.L170:
GAS LISTING /tmp/cc6iEGVT.s 			page 127


 485:Src/main.cpp  **** 	{
 3105              		.loc 1 485 2 discriminator 2 view .LVU796
 3106              	.LBE487:
 490:Src/main.cpp  **** 	startway.y 	= 0;
 3107              		.loc 1 490 2 is_stmt 1 view .LVU797
 490:Src/main.cpp  **** 	startway.y 	= 0;
 3108              		.loc 1 490 14 is_stmt 0 view .LVU798
 3109 0fda C7050000 		movl	$0x00000000, startway(%rip)
 3109      00000000 
 3109      0000
 491:Src/main.cpp  **** 	endway.x	= 150;
 3110              		.loc 1 491 2 is_stmt 1 view .LVU799
 491:Src/main.cpp  **** 	endway.x	= 150;
 3111              		.loc 1 491 14 is_stmt 0 view .LVU800
 3112 0fe4 C7050000 		movl	$0x00000000, 4+startway(%rip)
 3112      00000000 
 3112      0000
 492:Src/main.cpp  **** 	endway.y	= 150;
 3113              		.loc 1 492 2 is_stmt 1 view .LVU801
 492:Src/main.cpp  **** 	endway.y	= 150;
 3114              		.loc 1 492 11 is_stmt 0 view .LVU802
 3115 0fee F30F1005 		movss	.LC29(%rip), %xmm0
 3115      00000000 
 3116 0ff6 F30F1105 		movss	%xmm0, endway(%rip)
 3116      00000000 
 493:Src/main.cpp  **** 
 3117              		.loc 1 493 2 is_stmt 1 view .LVU803
 493:Src/main.cpp  **** 
 3118              		.loc 1 493 11 is_stmt 0 view .LVU804
 3119 0ffe F30F1105 		movss	%xmm0, 4+endway(%rip)
 3119      00000000 
 501:Src/main.cpp  **** 
 3120              		.loc 1 501 2 is_stmt 1 view .LVU805
 501:Src/main.cpp  **** 
 3121              		.loc 1 501 36 is_stmt 0 view .LVU806
 3122 1006 48C1E205 		salq	$5, %rdx
 3123 100a 48031500 		addq	graph(%rip), %rdx
 3123      000000
 501:Src/main.cpp  **** 
 3124              		.loc 1 501 11 view .LVU807
 3125 1011 488D7424 		leaq	8(%rsp), %rsi
 3125      08
 3126 1016 488B3A   		movq	(%rdx), %rdi
 3127 1019 E8000000 		call	_Z9initGraphP10graphPointPK6coords
 3127      00
 3128              	.LVL313:
 537:Src/main.cpp  **** return 0;
 3129              		.loc 1 537 1 is_stmt 1 view .LVU808
 3130              	.LBB488:
 3131              	.LBI488:
 565:/usr/include/c++/9.1.0/ostream ****     {
 3132              		.loc 4 565 5 view .LVU809
 565:/usr/include/c++/9.1.0/ostream ****     {
 3133              		.loc 4 565 5 is_stmt 0 view .LVU810
 3134              	.LBE488:
 3135              		.loc 5 335 2 is_stmt 1 view .LVU811
 3136              	.LBB490:
GAS LISTING /tmp/cc6iEGVT.s 			page 128


 3137              	.LBB489:
 570:/usr/include/c++/9.1.0/ostream **** 			 static_cast<streamsize>(_Traits::length(__s)));
 3138              		.loc 4 570 18 is_stmt 0 view .LVU812
 3139 101e BA080000 		movl	$8, %edx
 3139      00
 3140 1023 488D3500 		leaq	.LC30(%rip), %rsi
 3140      000000
 3141 102a 488D3D00 		leaq	_ZSt4cout(%rip), %rdi
 3141      000000
 3142 1031 E8000000 		call	_ZSt16__ostream_insertIcSt11char_traitsIcEERSt13basic_ostreamIT_T0_ES6_PKS3_l@PLT
 3142      00
 3143              	.LVL314:
 570:/usr/include/c++/9.1.0/ostream **** 			 static_cast<streamsize>(_Traits::length(__s)));
 3144              		.loc 4 570 18 view .LVU813
 3145              	.LBE489:
 3146              	.LBE490:
 3147              	.LBB491:
 3148              	.LBI491:
 170:/usr/include/c++/9.1.0/ostream ****       { return _M_insert(__n); }
 3149              		.loc 4 170 7 is_stmt 1 view .LVU814
 3150              	.LBB492:
 171:/usr/include/c++/9.1.0/ostream **** 
 3151              		.loc 4 171 29 is_stmt 0 view .LVU815
 3152 1036 488B3500 		movq	graphSize(%rip), %rsi
 3152      000000
 3153 103d 488D3D00 		leaq	_ZSt4cout(%rip), %rdi
 3153      000000
 3154 1044 E8000000 		call	_ZNSo9_M_insertImEERSoT_@PLT
 3154      00
 3155              	.LVL315:
 171:/usr/include/c++/9.1.0/ostream **** 
 3156              		.loc 4 171 29 view .LVU816
 3157 1049 4889C3   		movq	%rax, %rbx
 3158              	.LVL316:
 171:/usr/include/c++/9.1.0/ostream **** 
 3159              		.loc 4 171 29 view .LVU817
 3160              	.LBE492:
 3161              	.LBE491:
 3162              	.LBB493:
 3163              	.LBI493:
 565:/usr/include/c++/9.1.0/ostream ****     {
 3164              		.loc 4 565 5 is_stmt 1 view .LVU818
 565:/usr/include/c++/9.1.0/ostream ****     {
 3165              		.loc 4 565 5 is_stmt 0 view .LVU819
 3166              	.LBE493:
 3167              		.loc 5 335 2 is_stmt 1 view .LVU820
 3168              	.LBB495:
 3169              	.LBB494:
 570:/usr/include/c++/9.1.0/ostream **** 			 static_cast<streamsize>(_Traits::length(__s)));
 3170              		.loc 4 570 18 is_stmt 0 view .LVU821
 3171 104c BA0E0000 		movl	$14, %edx
 3171      00
 3172 1051 488D3500 		leaq	.LC31(%rip), %rsi
 3172      000000
 3173 1058 4889C7   		movq	%rax, %rdi
 3174 105b E8000000 		call	_ZSt16__ostream_insertIcSt11char_traitsIcEERSt13basic_ostreamIT_T0_ES6_PKS3_l@PLT
 3174      00
GAS LISTING /tmp/cc6iEGVT.s 			page 129


 3175              	.LVL317:
 570:/usr/include/c++/9.1.0/ostream **** 			 static_cast<streamsize>(_Traits::length(__s)));
 3176              		.loc 4 570 18 view .LVU822
 3177              	.LBE494:
 3178              	.LBE495:
 3179              	.LBB496:
 3180              	.LBI496:
 170:/usr/include/c++/9.1.0/ostream ****       { return _M_insert(__n); }
 3181              		.loc 4 170 7 is_stmt 1 view .LVU823
 3182              	.LBB497:
 171:/usr/include/c++/9.1.0/ostream **** 
 3183              		.loc 4 171 29 is_stmt 0 view .LVU824
 3184 1060 488B3500 		movq	calculatedPoints(%rip), %rsi
 3184      000000
 3185 1067 4889DF   		movq	%rbx, %rdi
 3186 106a E8000000 		call	_ZNSo9_M_insertImEERSoT_@PLT
 3186      00
 3187              	.LVL318:
 171:/usr/include/c++/9.1.0/ostream **** 
 3188              		.loc 4 171 29 view .LVU825
 3189 106f 4889C7   		movq	%rax, %rdi
 3190              	.LVL319:
 171:/usr/include/c++/9.1.0/ostream **** 
 3191              		.loc 4 171 29 view .LVU826
 3192              	.LBE497:
 3193              	.LBE496:
 3194              	.LBB498:
 3195              	.LBI498:
 108:/usr/include/c++/9.1.0/ostream ****       {
 3196              		.loc 4 108 7 is_stmt 1 view .LVU827
 3197              	.LBB499:
 113:/usr/include/c++/9.1.0/ostream ****       }
 3198              		.loc 4 113 13 is_stmt 0 view .LVU828
 3199 1072 E8000000 		call	_ZSt4endlIcSt11char_traitsIcEERSt13basic_ostreamIT_T0_ES6_@PLT
 3199      00
 3200              	.LVL320:
 113:/usr/include/c++/9.1.0/ostream ****       }
 3201              		.loc 4 113 13 view .LVU829
 3202              	.LBE499:
 3203              	.LBE498:
 538:Src/main.cpp  ****  	cout << "glut init\n";
 3204              		.loc 1 538 1 is_stmt 1 view .LVU830
 3205              		.loc 1 557 1 is_stmt 0 view .LVU831
 3206 1077 488B4424 		movq	72(%rsp), %rax
 3206      48
 3207 107c 64483304 		xorq	%fs:40, %rax
 3207      25280000 
 3207      00
 3208 1085 750C     		jne	.L174
 3209 1087 B8000000 		movl	$0, %eax
 3209      00
 3210 108c 4883C458 		addq	$88, %rsp
 3211              		.cfi_remember_state
 3212              		.cfi_def_cfa_offset 24
 3213 1090 5B       		popq	%rbx
 3214              		.cfi_def_cfa_offset 16
 3215 1091 5D       		popq	%rbp
GAS LISTING /tmp/cc6iEGVT.s 			page 130


 3216              		.cfi_def_cfa_offset 8
 3217              	.LVL321:
 3218              		.loc 1 557 1 view .LVU832
 3219 1092 C3       		ret
 3220              	.LVL322:
 3221              	.L174:
 3222              		.cfi_restore_state
 3223              		.loc 1 557 1 view .LVU833
 3224 1093 E8000000 		call	__stack_chk_fail@PLT
 3224      00
 3225              	.LVL323:
 3226              		.cfi_endproc
 3227              	.LFE2495:
 3230              	_GLOBAL__sub_I_QUAD_CHECK_SIDE:
 3231              	.LFB2844:
 3232              		.loc 1 557 1 is_stmt 1 view -0
 3233              		.cfi_startproc
 3234 1098 4883EC08 		subq	$8, %rsp
 3235              		.cfi_def_cfa_offset 16
 3236              		.loc 1 557 1 is_stmt 0 view .LVU835
 3237 109c BEFFFF00 		movl	$65535, %esi
 3237      00
 3238 10a1 BF010000 		movl	$1, %edi
 3238      00
 3239 10a6 E893EFFF 		call	_Z41__static_initialization_and_destruction_0ii
 3239      FF
 3240              	.LVL324:
 3241 10ab 4883C408 		addq	$8, %rsp
 3242              		.cfi_def_cfa_offset 8
 3243 10af C3       		ret
 3244              		.cfi_endproc
 3245              	.LFE2844:
 3247              		.section	.init_array,"aw"
 3248              		.align 8
 3249 0000 00000000 		.quad	_GLOBAL__sub_I_QUAD_CHECK_SIDE
 3249      00000000 
 3250              		.globl	graph
 3251              		.bss
 3252              		.align 8
 3255              	graph:
 3256 0000 00000000 		.zero	8
 3256      00000000 
 3257              		.globl	endway
 3258              		.align 8
 3261              	endway:
 3262 0008 00000000 		.zero	8
 3262      00000000 
 3263              		.globl	startway
 3264              		.align 8
 3267              	startway:
 3268 0010 00000000 		.zero	8
 3268      00000000 
 3269              		.globl	obstacles
 3270              		.align 8
 3273              	obstacles:
 3274 0018 00000000 		.zero	8
 3274      00000000 
GAS LISTING /tmp/cc6iEGVT.s 			page 131


 3275              		.globl	calculatedPoints
 3276              		.align 8
 3279              	calculatedPoints:
 3280 0020 00000000 		.zero	8
 3280      00000000 
 3281              		.globl	graphSize
 3282              		.align 8
 3285              	graphSize:
 3286 0028 00000000 		.zero	8
 3286      00000000 
 3287              		.globl	numOfObstacles
 3288              		.align 8
 3291              	numOfObstacles:
 3292 0030 00000000 		.zero	8
 3292      00000000 
 3293              		.globl	terminated
 3296              	terminated:
 3297 0038 00       		.zero	1
 3298              		.globl	QUAD_CHECK_SIDE
 3299              		.data
 3300              		.align 8
 3303              	QUAD_CHECK_SIDE:
 3304 0000 05000000 		.quad	5
 3304      00000000 
 3305              		.local	_ZStL8__ioinit
 3306              		.comm	_ZStL8__ioinit,1,1
 3307              		.section	.rodata.cst8,"aM",@progbits,8
 3308              		.align 8
 3309              	.LC0:
 3310 0000 00000000 		.long	0
 3311 0004 00002440 		.long	1076101120
 3312              		.align 8
 3313              	.LC1:
 3314 0008 00000000 		.long	0
 3315 000c 00806640 		.long	1080459264
 3316              		.align 8
 3317              	.LC2:
 3318 0010 6E861BF0 		.long	4028335726
 3319 0014 F9210940 		.long	1074340345
 3320              		.section	.rodata.cst16,"aM",@progbits,16
 3321              		.align 16
 3322              	.LC3:
 3323 0000 FFFFFF7F 		.long	2147483647
 3324 0004 00000000 		.long	0
 3325 0008 00000000 		.long	0
 3326 000c 00000000 		.long	0
 3327              		.section	.rodata.cst4,"aM",@progbits,4
 3328              		.align 4
 3329              	.LC4:
 3330 0000 00003443 		.long	1127481344
 3331              		.align 4
 3332              	.LC5:
 3333 0004 00000000 		.long	0
 3334              		.section	.rodata.cst16
 3335              		.align 16
 3336              	.LC6:
 3337 0010 00000080 		.long	2147483648
GAS LISTING /tmp/cc6iEGVT.s 			page 132


 3338 0014 00000000 		.long	0
 3339 0018 00000000 		.long	0
 3340 001c 00000000 		.long	0
 3341              		.section	.rodata.cst4
 3342              		.align 4
 3343              	.LC7:
 3344 0008 0000B4C2 		.long	3266576384
 3345              		.align 4
 3346              	.LC8:
 3347 000c 0000B442 		.long	1119092736
 3348              		.align 4
 3349              	.LC9:
 3350 0010 00008C43 		.long	1133248512
 3351              		.align 4
 3352              	.LC10:
 3353 0014 0000E143 		.long	1138819072
 3354              		.align 4
 3355              	.LC13:
 3356 0018 000080BF 		.long	3212836864
 3357              		.align 4
 3358              	.LC14:
 3359 001c 0000803F 		.long	1065353216
 3360              		.align 4
 3361              	.LC25:
 3362 0020 0000A041 		.long	1101004800
 3363              		.align 4
 3364              	.LC26:
 3365 0024 00004843 		.long	1128792064
 3366              		.align 4
 3367              	.LC27:
 3368 0028 00005C42 		.long	1113325568
 3369              		.align 4
 3370              	.LC28:
 3371 002c 00003442 		.long	1110704128
 3372              		.align 4
 3373              	.LC29:
 3374 0030 00001643 		.long	1125515264
 3375              		.text
 3376              	.Letext0:
 3377              		.file 8 "/usr/include/c++/9.1.0/cwchar"
 3378              		.file 9 "/usr/include/c++/9.1.0/new"
 3379              		.file 10 "/usr/include/c++/9.1.0/bits/exception_ptr.h"
 3380              		.file 11 "/usr/include/c++/9.1.0/type_traits"
 3381              		.file 12 "/usr/include/c++/9.1.0/x86_64-pc-linux-gnu/bits/c++config.h"
 3382              		.file 13 "/usr/include/c++/9.1.0/bits/stl_pair.h"
 3383              		.file 14 "/usr/include/c++/9.1.0/debug/debug.h"
 3384              		.file 15 "/usr/include/c++/9.1.0/cstdint"
 3385              		.file 16 "/usr/include/c++/9.1.0/clocale"
 3386              		.file 17 "/usr/include/c++/9.1.0/cstdlib"
 3387              		.file 18 "/usr/include/c++/9.1.0/cstdio"
 3388              		.file 19 "/usr/include/c++/9.1.0/system_error"
 3389              		.file 20 "/usr/include/c++/9.1.0/bits/ios_base.h"
 3390              		.file 21 "/usr/include/c++/9.1.0/cwctype"
 3391              		.file 22 "/usr/include/c++/9.1.0/bits/ostream.tcc"
 3392              		.file 23 "/usr/include/c++/9.1.0/iosfwd"
 3393              		.file 24 "/usr/include/c++/9.1.0/cmath"
 3394              		.file 25 "/usr/include/c++/9.1.0/bits/ostream_insert.h"
GAS LISTING /tmp/cc6iEGVT.s 			page 133


 3395              		.file 26 "/usr/include/c++/9.1.0/bits/functexcept.h"
 3396              		.file 27 "/usr/include/c++/9.1.0/bits/predefined_ops.h"
 3397              		.file 28 "/usr/include/c++/9.1.0/ext/new_allocator.h"
 3398              		.file 29 "/usr/include/c++/9.1.0/ext/numeric_traits.h"
 3399              		.file 30 "/usr/lib/gcc/x86_64-pc-linux-gnu/9.1.0/include/stddef.h"
 3400              		.file 31 "<built-in>"
 3401              		.file 32 "/usr/include/bits/types/wint_t.h"
 3402              		.file 33 "/usr/include/bits/types/__mbstate_t.h"
 3403              		.file 34 "/usr/include/bits/types/mbstate_t.h"
 3404              		.file 35 "/usr/include/bits/types/__FILE.h"
 3405              		.file 36 "/usr/include/bits/types/struct_FILE.h"
 3406              		.file 37 "/usr/include/bits/types/FILE.h"
 3407              		.file 38 "/usr/include/wchar.h"
 3408              		.file 39 "/usr/include/bits/types/struct_tm.h"
 3409              		.file 40 "/usr/include/bits/types.h"
 3410              		.file 41 "/usr/include/bits/stdint-intn.h"
 3411              		.file 42 "/usr/include/bits/stdint-uintn.h"
 3412              		.file 43 "/usr/include/stdint.h"
 3413              		.file 44 "/usr/include/locale.h"
 3414              		.file 45 "/usr/include/time.h"
 3415              		.file 46 "/usr/include/c++/9.1.0/x86_64-pc-linux-gnu/bits/atomic_word.h"
 3416              		.file 47 "/usr/include/stdlib.h"
 3417              		.file 48 "/usr/include/bits/stdlib-float.h"
 3418              		.file 49 "/usr/include/bits/stdlib-bsearch.h"
 3419              		.file 50 "/usr/include/bits/types/__fpos_t.h"
 3420              		.file 51 "/usr/include/stdio.h"
 3421              		.file 52 "/usr/include/bits/sys_errlist.h"
 3422              		.file 53 "/usr/include/bits/stdio.h"
 3423              		.file 54 "/usr/include/errno.h"
 3424              		.file 55 "/usr/include/bits/wctype-wchar.h"
 3425              		.file 56 "/usr/include/wctype.h"
 3426              		.file 57 "/usr/include/c++/9.1.0/stdlib.h"
 3427              		.file 58 "/usr/include/unistd.h"
 3428              		.file 59 "/usr/include/bits/getopt_core.h"
 3429              		.file 60 "/usr/include/signal.h"
 3430              		.file 61 "/usr/include/GL/glew.h"
 3431              		.file 62 "/usr/include/GL/freeglut_std.h"
 3432              		.file 63 "/usr/include/FTGL/ftgl.h"
 3433              		.file 64 "/usr/include/math.h"
 3434              		.file 65 "/usr/include/c++/9.1.0/math.h"
 3435              		.file 66 "/usr/include/bits/mathcalls.h"
 3436              		.file 67 "Includes/findwayBases.hpp"
 3437              		.file 68 "/usr/include/GL/glu.h"
 3438              		.file 69 "Includes/routines.hpp"
GAS LISTING /tmp/cc6iEGVT.s 			page 134


DEFINED SYMBOLS
                            *ABS*:0000000000000000 main.cpp
     /tmp/cc6iEGVT.s:6      .text:0000000000000000 _Z4timfi
     /tmp/cc6iEGVT.s:3296   .bss:0000000000000038 terminated
     /tmp/cc6iEGVT.s:51     .text:000000000000003e _Z41__static_initialization_and_destruction_0ii
                             .bss:0000000000000039 _ZStL8__ioinit
     /tmp/cc6iEGVT.s:90     .text:000000000000007b _Z12calculateWayv
     /tmp/cc6iEGVT.s:101    .text:000000000000007c _Z10createVectPK6coordsf
     /tmp/cc6iEGVT.s:3303   .data:0000000000000000 QUAD_CHECK_SIDE
     /tmp/cc6iEGVT.s:281    .text:00000000000001de _Z10createVectPK6coordsS1_
     /tmp/cc6iEGVT.s:351    .text:0000000000000236 _Z10createVectPK8obstaclehf
     /tmp/cc6iEGVT.s:415    .text:000000000000027d _Z10getDataSetPK6coords
     /tmp/cc6iEGVT.s:3291   .bss:0000000000000030 numOfObstacles
     /tmp/cc6iEGVT.s:3273   .bss:0000000000000018 obstacles
     /tmp/cc6iEGVT.s:867    .text:0000000000000505 _Z10getDataSetPK8obstacleh
     /tmp/cc6iEGVT.s:929    .text:0000000000000543 _Z16hasIntersectionsPK5arrayPK4vect
     /tmp/cc6iEGVT.s:998    .text:0000000000000580 _Z16hasIntersectionsPK4vect
     /tmp/cc6iEGVT.s:1064   .text:00000000000005c4 _Z15getIntersectionPK5arrayPK4vect
     /tmp/cc6iEGVT.s:1176   .text:000000000000063f _Z14getIntersectedPK5arrayPK4vect
     /tmp/cc6iEGVT.s:1324   .text:000000000000071b _Z9initPointP10graphPointPK6coords
     /tmp/cc6iEGVT.s:1386   .text:000000000000074b _Z9initPointP10graphPointPK6coordsPK5array
     /tmp/cc6iEGVT.s:3279   .bss:0000000000000020 calculatedPoints
     /tmp/cc6iEGVT.s:1664   .text:0000000000000907 _Z14initObstCornerPK8obstacleh
     /tmp/cc6iEGVT.s:1903   .text:00000000000009e7 _Z8initObstPK8obstacle
     /tmp/cc6iEGVT.s:1957   .text:0000000000000a11 _Z9initGraphP10graphPointPK6coords
     /tmp/cc6iEGVT.s:2006   .text:0000000000000a3a _Z16getCoordsOfPointPK10graphPoint
     /tmp/cc6iEGVT.s:2031   .text:0000000000000a40 _Z9drawEdgesPK10graphPoint
     /tmp/cc6iEGVT.s:2520   .text:0000000000000c67 _Z12drawObstaclePK8obstacle
     /tmp/cc6iEGVT.s:2562   .text:0000000000000c97 _Z11renderScenev
     /tmp/cc6iEGVT.s:3285   .bss:0000000000000028 graphSize
     /tmp/cc6iEGVT.s:3255   .bss:0000000000000000 graph
     /tmp/cc6iEGVT.s:2644   .text:0000000000000cf8 _Z14handleKeypresshii
     /tmp/cc6iEGVT.s:2847   .text:0000000000000dad _Z7reshapeii
     /tmp/cc6iEGVT.s:2926   .text:0000000000000e0c main
     /tmp/cc6iEGVT.s:3267   .bss:0000000000000010 startway
     /tmp/cc6iEGVT.s:3261   .bss:0000000000000008 endway
     /tmp/cc6iEGVT.s:3230   .text:0000000000001098 _GLOBAL__sub_I_QUAD_CHECK_SIDE
     /tmp/cc6iEGVT.s:3309   .rodata.cst8:0000000000000000 .LC0
     /tmp/cc6iEGVT.s:3313   .rodata.cst8:0000000000000008 .LC1
     /tmp/cc6iEGVT.s:3317   .rodata.cst8:0000000000000010 .LC2
     /tmp/cc6iEGVT.s:3322   .rodata.cst16:0000000000000000 .LC3
     /tmp/cc6iEGVT.s:3329   .rodata.cst4:0000000000000000 .LC4
     /tmp/cc6iEGVT.s:3336   .rodata.cst16:0000000000000010 .LC6
     /tmp/cc6iEGVT.s:3343   .rodata.cst4:0000000000000008 .LC7
     /tmp/cc6iEGVT.s:3346   .rodata.cst4:000000000000000c .LC8
     /tmp/cc6iEGVT.s:3349   .rodata.cst4:0000000000000010 .LC9
     /tmp/cc6iEGVT.s:3352   .rodata.cst4:0000000000000014 .LC10
     /tmp/cc6iEGVT.s:408    .rodata.str1.1:0000000000000000 .LC11
     /tmp/cc6iEGVT.s:410    .rodata.str1.1:0000000000000013 .LC12
     /tmp/cc6iEGVT.s:3358   .rodata.cst4:000000000000001c .LC14
     /tmp/cc6iEGVT.s:3332   .rodata.cst4:0000000000000004 .LC5
     /tmp/cc6iEGVT.s:3355   .rodata.cst4:0000000000000018 .LC13
     /tmp/cc6iEGVT.s:1381   .rodata.str1.1:000000000000001a .LC15
     /tmp/cc6iEGVT.s:1657   .rodata.str1.1:0000000000000028 .LC16
     /tmp/cc6iEGVT.s:1659   .rodata.str1.1:0000000000000039 .LC17
     /tmp/cc6iEGVT.s:2020   .rodata.str1.1:0000000000000047 .LC18
     /tmp/cc6iEGVT.s:2022   .rodata.str1.1:000000000000004f .LC19
GAS LISTING /tmp/cc6iEGVT.s 			page 135


     /tmp/cc6iEGVT.s:2024   .rodata.str1.1:0000000000000052 .LC20
     /tmp/cc6iEGVT.s:2026   .rodata.str1.1:0000000000000054 .LC21
     /tmp/cc6iEGVT.s:2637   .rodata.str1.1:0000000000000059 .LC22
     /tmp/cc6iEGVT.s:2639   .rodata.str1.1:0000000000000062 .LC23
     /tmp/cc6iEGVT.s:3361   .rodata.cst4:0000000000000020 .LC25
     /tmp/cc6iEGVT.s:3364   .rodata.cst4:0000000000000024 .LC26
     /tmp/cc6iEGVT.s:3367   .rodata.cst4:0000000000000028 .LC27
     /tmp/cc6iEGVT.s:3370   .rodata.cst4:000000000000002c .LC28
     /tmp/cc6iEGVT.s:3373   .rodata.cst4:0000000000000030 .LC29
     /tmp/cc6iEGVT.s:2919   .rodata.str1.1:0000000000000067 .LC30
     /tmp/cc6iEGVT.s:2921   .rodata.str1.1:0000000000000070 .LC31

UNDEFINED SYMBOLS
_GLOBAL_OFFSET_TABLE_
glutPostRedisplay
glutTimerFunc
exit
_ZNSt8ios_base4InitC1Ev
__dso_handle
_ZNSt8ios_base4InitD1Ev
__cxa_atexit
malloc
tan
_Z17getCoordsOfCornerPK8obstacleh
free
_ZSt4cout
_ZSt16__ostream_insertIcSt11char_traitsIcEERSt13basic_ostreamIT_T0_ES6_PKS3_l
_ZNSo9_M_insertImEERSoT_
_ZNSo3putEc
_ZNSo5flushEv
_ZSt16__throw_bad_castv
_ZNKSt5ctypeIcE13_M_widen_initEv
_Z8getPointPK8obstacleh
_Z15hasIntersectionPK8obstaclePK4vect
_Z15getIntersectionPK8obstaclePK4vect
_Z6getLenPK6coordsS1_
__stack_chk_fail
_Z9addTargetP10graphPointS0_
_ZNSolsEi
_ZNSo9_M_insertIPKvEERSoT_
_Z8drawLineffff
_ZNSo9_M_insertIdEERSoT_
_Z10glSetColorj
_Z8drawQuadfff
glClear
glutSwapBuffers
glViewport
glMatrixMode
glLoadIdentity
gluOrtho2D
_Z14createObstaclefff
_ZSt4endlIcSt11char_traitsIcEERSt13basic_ostreamIT_T0_ES6_
