GAS LISTING /tmp/cc6iEGVT.s 			page 1


   1              		.file	"main.cpp"
   2              		.text
   3              	.Ltext0:
   4              		.globl	_Z4timfi
   6              	_Z4timfi:
   7              	.LVL0:
   8              	.LFB2494:
   9              		.file 1 "Src/main.cpp"
   1:Src/main.cpp  **** #include <iostream>
   2:Src/main.cpp  **** #include <stdio.h>      // standard input / output functions
   3:Src/main.cpp  **** #include <stdlib.h>
   4:Src/main.cpp  **** #include <string.h>     // string function definitions
   5:Src/main.cpp  **** #include <unistd.h>     // UNIX standard function definitions
   6:Src/main.cpp  **** #include <fcntl.h>      // File control definitions
   7:Src/main.cpp  **** #include <errno.h>      // Error number definitions
   8:Src/main.cpp  **** #include <termios.h>    // POSIX terminal control definitions
   9:Src/main.cpp  **** #include <signal.h>
  10:Src/main.cpp  **** #include <GL/glew.h>
  11:Src/main.cpp  **** #include <GL/glut.h>
  12:Src/main.cpp  **** #include <GL/gl.h>
  13:Src/main.cpp  **** #include <GL/glu.h>
  14:Src/main.cpp  **** #include <FTGL/ftgl.h>
  15:Src/main.cpp  **** #include <FTGL/FTGLPixmapFont.h>
  16:Src/main.cpp  **** 
  17:Src/main.cpp  **** #include "routines.hpp"
  18:Src/main.cpp  **** #include "findwayBases.hpp"
  19:Src/main.cpp  **** 
  20:Src/main.cpp  **** #define GL_TIMER_DELAY	400
  21:Src/main.cpp  **** #define RETURN_CODE_OK 0
  22:Src/main.cpp  **** #define OBST_COLOR 0xFF0000
  23:Src/main.cpp  **** #define GRAPH_COLOR 0x00FFFF
  24:Src/main.cpp  **** 
  25:Src/main.cpp  **** #define VECTORS_PER_CHECK	50
  26:Src/main.cpp  **** 
  27:Src/main.cpp  **** size_t QUAD_CHECK_SIDE = 5;
  28:Src/main.cpp  **** 
  29:Src/main.cpp  **** using namespace std;
  30:Src/main.cpp  **** 
  31:Src/main.cpp  **** 
  32:Src/main.cpp  **** bool terminated = false;
  33:Src/main.cpp  **** size_t numOfObstacles = 0;
  34:Src/main.cpp  **** size_t graphSize = 0;
  35:Src/main.cpp  **** size_t calculatedPoints = 0;
  36:Src/main.cpp  **** 
  37:Src/main.cpp  **** 
  38:Src/main.cpp  **** struct obstacle *obstacles;
  39:Src/main.cpp  **** struct coords	startway,
  40:Src/main.cpp  **** 				endway;
  41:Src/main.cpp  **** struct graphPoint **graph;
  42:Src/main.cpp  **** 
  43:Src/main.cpp  **** 
  44:Src/main.cpp  **** 
  45:Src/main.cpp  **** struct array
  46:Src/main.cpp  **** {
  47:Src/main.cpp  **** 	void *items;
  48:Src/main.cpp  **** 	size_t size;
  49:Src/main.cpp  **** };
GAS LISTING /tmp/cc6iEGVT.s 			page 2


  50:Src/main.cpp  **** 
  51:Src/main.cpp  **** 
  52:Src/main.cpp  **** 
  53:Src/main.cpp  **** 
  54:Src/main.cpp  **** 
  55:Src/main.cpp  **** 
  56:Src/main.cpp  **** 
  57:Src/main.cpp  **** void calculateWay()
  58:Src/main.cpp  **** {
  59:Src/main.cpp  **** 
  60:Src/main.cpp  **** }
  61:Src/main.cpp  **** 
  62:Src/main.cpp  **** 
  63:Src/main.cpp  **** void initObst(const struct obstacle *obst);
  64:Src/main.cpp  **** void initPoint(struct graphPoint *p, const struct coords *c);
  65:Src/main.cpp  **** 
  66:Src/main.cpp  **** 
  67:Src/main.cpp  **** 
  68:Src/main.cpp  **** /*
  69:Src/main.cpp  ****  *	-------+----->	0
  70:Src/main.cpp  ****  *	<------+------	180
  71:Src/main.cpp  ****  *		  /|\
  72:Src/main.cpp  ****  *         |		90
  73:Src/main.cpp  ****  *		   +
  74:Src/main.cpp  ****  */
  75:Src/main.cpp  **** struct vect createVect(const struct coords *c, const COORDS_DATATYPE angle)
  76:Src/main.cpp  **** {
  77:Src/main.cpp  **** 	struct vect ret;
  78:Src/main.cpp  **** 	ret.c  = (struct coords*)malloc(sizeof(struct coords));
  79:Src/main.cpp  **** 	ret.c->x = c->x;
  80:Src/main.cpp  **** 	ret.c->y = c->y;
  81:Src/main.cpp  **** 	ret.dx = QUAD_CHECK_SIDE * 10.0 / tan(angle / 180.0 * PI);
  82:Src/main.cpp  **** 	ret.dy = ret.dx * tan(angle / 180.0 * PI);
  83:Src/main.cpp  **** 	ret.dx = abs(ret.dx);
  84:Src/main.cpp  **** 	ret.dy = abs(ret.dy);
  85:Src/main.cpp  **** 	if(angle > 180 || angle < 0)
  86:Src/main.cpp  **** 		ret.dy *= -1;
  87:Src/main.cpp  **** 
  88:Src/main.cpp  **** 	if(!((angle >= -90 && angle <= 90) || (angle >= 190 + 90 && angle <= 360 + 90)))
  89:Src/main.cpp  **** 		ret.dx *= -1;
  90:Src/main.cpp  **** 
  91:Src/main.cpp  **** 	// cout <<  "\tcreate vect:" << endl
  92:Src/main.cpp  **** 	// 	 << "\tdx: " << ret.dx << endl
  93:Src/main.cpp  **** 	// 	 << "\tdy: " << ret.dy << endl
  94:Src/main.cpp  **** 	// 	 << "\tx:  " << ret.c->x << endl
  95:Src/main.cpp  **** 	// 	 << "\ty:  " << ret.c->y << endl;
  96:Src/main.cpp  **** 	return ret;
  97:Src/main.cpp  **** }
  98:Src/main.cpp  **** 
  99:Src/main.cpp  **** struct vect createVect(const struct coords *start, const struct coords *end)
 100:Src/main.cpp  **** {
 101:Src/main.cpp  **** 	struct vect ret;
 102:Src/main.cpp  **** 	ret.c = (struct coords*)malloc(sizeof(struct coords));
 103:Src/main.cpp  **** 	ret.c->x = start->x;
 104:Src/main.cpp  **** 	ret.c->y = start->y;
 105:Src/main.cpp  **** 	ret.dx = end->x - start->x;
 106:Src/main.cpp  **** 	ret.dy = end->y - start->y;
GAS LISTING /tmp/cc6iEGVT.s 			page 3


 107:Src/main.cpp  **** 	return ret;
 108:Src/main.cpp  **** }
 109:Src/main.cpp  **** 
 110:Src/main.cpp  **** 
 111:Src/main.cpp  **** struct vect createVect(const struct obstacle *obst, const uint8_t corner, const COORDS_DATATYPE ang
 112:Src/main.cpp  **** {
 113:Src/main.cpp  **** 	struct vect ret;
 114:Src/main.cpp  **** 	struct coords *c = getCoordsOfCorner(obst, corner);
 115:Src/main.cpp  **** 	ret = createVect(c, angle);
 116:Src/main.cpp  **** 	free(c);
 117:Src/main.cpp  **** 	return ret;
 118:Src/main.cpp  **** }
 119:Src/main.cpp  **** 
 120:Src/main.cpp  **** 
 121:Src/main.cpp  **** struct array* getDataSet(const struct coords *c)
 122:Src/main.cpp  **** {
 123:Src/main.cpp  **** 	size_t size = 0;
 124:Src/main.cpp  **** 	while (size < 2) {
 125:Src/main.cpp  **** 		size = 0;
 126:Src/main.cpp  **** 		for(size_t i = 0; i < numOfObstacles; i++)
 127:Src/main.cpp  **** 		{
 128:Src/main.cpp  **** 			if(obstacles[i].c->x + obstacles[i].a >= c->x - QUAD_CHECK_SIDE
 129:Src/main.cpp  **** 			&& obstacles[i].c->x <= c->x + obstacles[i].a + QUAD_CHECK_SIDE
 130:Src/main.cpp  **** 			&& obstacles[i].c->y + obstacles[i].a >= c->y - QUAD_CHECK_SIDE
 131:Src/main.cpp  **** 			&& obstacles[i].c->y <= c->y + obstacles[i].a + QUAD_CHECK_SIDE)
 132:Src/main.cpp  **** 				size++;
 133:Src/main.cpp  **** 		}
 134:Src/main.cpp  **** 		if(size < 2)
 135:Src/main.cpp  **** 		{
 136:Src/main.cpp  **** 			cout << "Increacing radius\n";
 137:Src/main.cpp  **** 			QUAD_CHECK_SIDE += 100;
 138:Src/main.cpp  **** 		}
 139:Src/main.cpp  **** 	}
 140:Src/main.cpp  **** 	cout << "Size: " << size << endl;
 141:Src/main.cpp  **** 	size_t iter = 0;
 142:Src/main.cpp  **** 	struct obstacle **obsts = (struct obstacle**)malloc(sizeof(struct obstacle*) * size);
 143:Src/main.cpp  **** 	for(size_t i = 0; i < numOfObstacles; i++)
 144:Src/main.cpp  **** 	{
 145:Src/main.cpp  **** 		// struct coords *c = getCoordsOfCorner(obst, corner);
 146:Src/main.cpp  **** 		if(obstacles[i].c->x + obstacles[i].a >= c->x - QUAD_CHECK_SIDE
 147:Src/main.cpp  **** 		&& obstacles[i].c->x <= c->x + obstacles[i].a + QUAD_CHECK_SIDE
 148:Src/main.cpp  **** 		&& obstacles[i].c->y + obstacles[i].a >= c->y - QUAD_CHECK_SIDE
 149:Src/main.cpp  **** 		&& obstacles[i].c->y <= c->y + obstacles[i].a + QUAD_CHECK_SIDE)
 150:Src/main.cpp  **** 		obsts[iter++] = &(obstacles[i]);
 151:Src/main.cpp  **** 	}
 152:Src/main.cpp  **** 	struct array *ret = (struct array*)malloc(sizeof(struct array));
 153:Src/main.cpp  **** 	ret->items = *obsts;
 154:Src/main.cpp  **** 	ret->size = size;
 155:Src/main.cpp  **** 	return ret;
 156:Src/main.cpp  **** }
 157:Src/main.cpp  **** 
 158:Src/main.cpp  **** 
 159:Src/main.cpp  **** struct array* getDataSet(const struct obstacle *obst, const uint8_t corner)
 160:Src/main.cpp  **** {
 161:Src/main.cpp  **** 	struct graphPoint *p = getPoint(obst, corner);
 162:Src/main.cpp  **** 	struct coords *c = getCoordsOfCorner(obst, corner);
 163:Src/main.cpp  **** 
GAS LISTING /tmp/cc6iEGVT.s 			page 4


 164:Src/main.cpp  **** 	struct array *ret = getDataSet(c);
 165:Src/main.cpp  **** 
 166:Src/main.cpp  **** 	free(c);
 167:Src/main.cpp  **** 
 168:Src/main.cpp  **** 	return ret;
 169:Src/main.cpp  **** }
 170:Src/main.cpp  **** 
 171:Src/main.cpp  **** 
 172:Src/main.cpp  **** bool hasIntersections(const struct array *dataset, const struct vect *v)
 173:Src/main.cpp  **** {
 174:Src/main.cpp  **** 	for(size_t i = 0; i < dataset->size; i++)
 175:Src/main.cpp  **** 	{
 176:Src/main.cpp  **** 		if(hasIntersection(&((struct obstacle*)dataset->items)[i], v))
 177:Src/main.cpp  **** 			return true;
 178:Src/main.cpp  **** 	}
 179:Src/main.cpp  **** 	return false;
 180:Src/main.cpp  **** }
 181:Src/main.cpp  **** 
 182:Src/main.cpp  **** bool hasIntersections(const struct vect *v)
 183:Src/main.cpp  **** {
 184:Src/main.cpp  **** 	for(size_t i = 0; i < numOfObstacles; i++)
 185:Src/main.cpp  **** 	{
 186:Src/main.cpp  **** 		if(hasIntersection(&obstacles[i], v))
 187:Src/main.cpp  **** 			return true;
 188:Src/main.cpp  **** 	}
 189:Src/main.cpp  **** 	return false;
 190:Src/main.cpp  **** }
 191:Src/main.cpp  **** 
 192:Src/main.cpp  **** struct coords getIntersection(const struct array *dataset, const struct vect *v)
 193:Src/main.cpp  **** {
 194:Src/main.cpp  **** 	struct obstacle *o = NULL;
 195:Src/main.cpp  **** 	for(size_t i = 0; i < dataset->size; i++)
 196:Src/main.cpp  **** 	{
 197:Src/main.cpp  **** 		if(hasIntersection(&((struct obstacle*)dataset->items)[i], v))
 198:Src/main.cpp  **** 		{
 199:Src/main.cpp  **** 			o = &((struct obstacle*)dataset->items)[i];
 200:Src/main.cpp  **** 			break;
 201:Src/main.cpp  **** 		}
 202:Src/main.cpp  **** 	}
 203:Src/main.cpp  **** 	if(o != NULL)
 204:Src/main.cpp  **** 		return {-1, -1};
 205:Src/main.cpp  **** 
 206:Src/main.cpp  **** 	return getIntersection(o, v);
 207:Src/main.cpp  **** }
 208:Src/main.cpp  **** 
 209:Src/main.cpp  **** 
 210:Src/main.cpp  **** struct obstacle*	getIntersected(const struct array *dataset, const struct vect *v)
 211:Src/main.cpp  **** {
 212:Src/main.cpp  **** 	struct obstacle *o = NULL;
 213:Src/main.cpp  **** 	struct coords	inter;
 214:Src/main.cpp  **** 	COORDS_DATATYPE l = INF;
 215:Src/main.cpp  **** 	// cout << "Watching for vect " << v->c->x << ":" << v->c->y << "; d" << v->dx << ":d" << v->dy <<
 216:Src/main.cpp  **** 	for(size_t i = 0; i < dataset->size; i++)
 217:Src/main.cpp  **** 	{
 218:Src/main.cpp  **** 		// cout << "###Watching for intersection, obst: " << (int)i << "\t\t###" << endl;
 219:Src/main.cpp  **** 		inter = getIntersection(&((struct obstacle*)dataset->items)[i], v);
 220:Src/main.cpp  **** 		COORDS_DATATYPE _l = getLen(v->c, &inter);
GAS LISTING /tmp/cc6iEGVT.s 			page 5


 221:Src/main.cpp  **** 		if(inter.x != -1 && inter.y != -1 && _l < l)
 222:Src/main.cpp  **** 		{
 223:Src/main.cpp  **** 			// cout << "####Found intersection: " << inter.x << ":" << inter.y << " with len " << _l << "\t\
 224:Src/main.cpp  **** 			o = &((struct obstacle*)dataset->items)[i];
 225:Src/main.cpp  **** 			l = _l;
 226:Src/main.cpp  **** 		}
 227:Src/main.cpp  **** 	}
 228:Src/main.cpp  **** 	return o;
 229:Src/main.cpp  **** }
 230:Src/main.cpp  **** 
 231:Src/main.cpp  **** void initPoint(struct graphPoint *p, const struct coords *c, const struct array *obsts)
 232:Src/main.cpp  **** {
 233:Src/main.cpp  **** 	struct vect v;
 234:Src/main.cpp  **** 	// for(uint8_t i = 0; i < VECTORS_PER_CHECK; i++)
 235:Src/main.cpp  **** 	// {
 236:Src/main.cpp  **** 	// 	v = createVect(c, ((360.0 / VECTORS_PER_CHECK) * i));
 237:Src/main.cpp  **** 	// 	struct obstacle *o = getIntersected(obsts, &v);
 238:Src/main.cpp  **** 	// 	if(o != NULL)
 239:Src/main.cpp  **** 	// 	{
 240:Src/main.cpp  **** 	// 		struct coords *c;
 241:Src/main.cpp  **** 	// 		for(uint8_t h = 0; h < 4; h++)
 242:Src/main.cpp  **** 	// 		{
 243:Src/main.cpp  **** 	// 			cout << "->Found intersection" << endl;
 244:Src/main.cpp  **** 	// 			c = getCoordsOfCorner(o, h);
 245:Src/main.cpp  **** 	// 			v.dx = (c->x - v.c->x);
 246:Src/main.cpp  **** 	// 			v.dy = (c->y - v.c->y);
 247:Src/main.cpp  **** 	// 			if((v.dx != 0 || v.dy != 0) && getIntersected(obsts, &v) == NULL)
 248:Src/main.cpp  **** 	// 			{
 249:Src/main.cpp  **** 	// 				addTarget(p, o->corners[h]);
 250:Src/main.cpp  **** 	// 			}
 251:Src/main.cpp  **** 	// 			free(c);
 252:Src/main.cpp  **** 	// 		}
 253:Src/main.cpp  **** 	// 	}
 254:Src/main.cpp  **** 	// }
 255:Src/main.cpp  **** 
 256:Src/main.cpp  **** 
 257:Src/main.cpp  **** 
 258:Src/main.cpp  **** 	struct coords *tgt;
 259:Src/main.cpp  **** 	for(size_t i = 0; i < obsts->size; i++)
 260:Src/main.cpp  **** 	{
 261:Src/main.cpp  **** 		for(uint8_t j = 0; j < 4; j++)
 262:Src/main.cpp  **** 		{
 263:Src/main.cpp  **** 			tgt = getCoordsOfCorner(&((struct obstacle*)obsts->items)[i], j);
 264:Src/main.cpp  **** 			v = createVect(c, tgt);
 265:Src/main.cpp  **** 			if((v.dx != 0 || v.dy != 0) && !hasIntersections(&v))
 266:Src/main.cpp  **** 			{
 267:Src/main.cpp  **** 				cout << "Creating tgt\n";
 268:Src/main.cpp  **** 				if(p->numOfTargets == 0)
 269:Src/main.cpp  **** 					calculatedPoints++;
 270:Src/main.cpp  **** 				if(((struct obstacle*)obsts->items)[i].corners[j]->numOfTargets == 0)
 271:Src/main.cpp  **** 					calculatedPoints++;
 272:Src/main.cpp  **** 				addTarget(p, ((struct obstacle*)obsts->items)[i].corners[j]);
 273:Src/main.cpp  **** 				for(uint8_t h = 0; h < 4; h++)
 274:Src/main.cpp  **** 					if(((struct obstacle*)obsts->items)[i].corners[h]->numOfTargets == 0)
 275:Src/main.cpp  **** 						initPoint(((struct obstacle*)obsts->items)[i].corners[h], getCoordsOfCorner(&((struct obstacl
 276:Src/main.cpp  **** 				// initObst(&((struct obstacle*)obsts->items)[i]);
 277:Src/main.cpp  **** 			}
GAS LISTING /tmp/cc6iEGVT.s 			page 6


 278:Src/main.cpp  **** 			free(tgt);
 279:Src/main.cpp  **** 		}
 280:Src/main.cpp  **** 	}
 281:Src/main.cpp  **** }
 282:Src/main.cpp  **** 
 283:Src/main.cpp  **** 
 284:Src/main.cpp  **** 
 285:Src/main.cpp  **** void initPoint(struct graphPoint *p, const struct coords *c)
 286:Src/main.cpp  **** {
 287:Src/main.cpp  **** 	struct array *obsts = getDataSet(c);
 288:Src/main.cpp  **** 	initPoint(p, c, obsts);
 289:Src/main.cpp  **** 	free(obsts);
 290:Src/main.cpp  **** }
 291:Src/main.cpp  **** 
 292:Src/main.cpp  **** 
 293:Src/main.cpp  **** void initObstCorner(const struct obstacle *obst, const uint8_t corner)
 294:Src/main.cpp  **** {
 295:Src/main.cpp  **** 	cout << "Watching corner " << (int)corner << " of obstacle " << obst << endl;
 296:Src/main.cpp  **** 	struct graphPoint *point = getPoint(obst, corner);
 297:Src/main.cpp  **** 	struct coords *c = getCoordsOfCorner(obst, corner);
 298:Src/main.cpp  **** 	initPoint(point, c);
 299:Src/main.cpp  **** }
 300:Src/main.cpp  **** 
 301:Src/main.cpp  **** 
 302:Src/main.cpp  **** 
 303:Src/main.cpp  **** void initObst(const struct obstacle *obst)
 304:Src/main.cpp  **** {
 305:Src/main.cpp  **** 	for(uint8_t i = 0; i < 4; i++)
 306:Src/main.cpp  **** 		initObstCorner(obst, i);
 307:Src/main.cpp  **** }
 308:Src/main.cpp  **** 
 309:Src/main.cpp  **** 
 310:Src/main.cpp  **** 
 311:Src/main.cpp  **** void initGraph(struct graphPoint *startp, const struct coords *startc)
 312:Src/main.cpp  **** {
 313:Src/main.cpp  **** 	struct array *ar = getDataSet(startc);
 314:Src/main.cpp  **** 	initPoint(startp, startc, ar);
 315:Src/main.cpp  **** }
 316:Src/main.cpp  **** 
 317:Src/main.cpp  **** 
 318:Src/main.cpp  **** 
 319:Src/main.cpp  **** 
 320:Src/main.cpp  **** 
 321:Src/main.cpp  **** 
 322:Src/main.cpp  **** 
 323:Src/main.cpp  **** 
 324:Src/main.cpp  **** 
 325:Src/main.cpp  **** 
 326:Src/main.cpp  **** 
 327:Src/main.cpp  **** struct coords getCoordsOfPoint(const struct graphPoint *p)
 328:Src/main.cpp  **** {
 329:Src/main.cpp  **** 	return p->c;
 330:Src/main.cpp  **** 
 331:Src/main.cpp  **** 	for(size_t i = 0; i < numOfObstacles; i++)
 332:Src/main.cpp  **** 	{
 333:Src/main.cpp  **** 		for(size_t j = 0; j < 4; j++)
 334:Src/main.cpp  **** 		{
GAS LISTING /tmp/cc6iEGVT.s 			page 7


 335:Src/main.cpp  **** 			if(p == getPoint(&obstacles[i], j))
 336:Src/main.cpp  **** 			{
 337:Src/main.cpp  **** 				cout << "\t\t\tPoint found: obst: " << i << endl
 338:Src/main.cpp  **** 					 << "\t\t\tCorner: " << j << endl
 339:Src/main.cpp  **** 					 << "\t\tobst: " << &obstacles[i] << " corners: ";
 340:Src/main.cpp  **** 				for(int s = 0; s < 4; s++)
 341:Src/main.cpp  **** 					cout << obstacles[i].corners[s] << " ";
 342:Src/main.cpp  **** 				cout << endl << "\t\tCurr: " << p << endl;
 343:Src/main.cpp  **** 				return *getCoordsOfCorner(&obstacles[i], j);
 344:Src/main.cpp  **** 			}
 345:Src/main.cpp  **** 		}
 346:Src/main.cpp  **** 	}
 347:Src/main.cpp  **** 
 348:Src/main.cpp  **** 	return {-1, -1};
 349:Src/main.cpp  **** }
 350:Src/main.cpp  **** 
 351:Src/main.cpp  **** 
 352:Src/main.cpp  **** 
 353:Src/main.cpp  **** void drawEdges(const struct graphPoint *p)
 354:Src/main.cpp  **** {
 355:Src/main.cpp  **** 	if(p == NULL || p->numOfTargets == 0)
 356:Src/main.cpp  **** 		return;
 357:Src/main.cpp  **** 
 358:Src/main.cpp  **** 	struct coords start, end;
 359:Src/main.cpp  **** 	start = getCoordsOfPoint(p);
 360:Src/main.cpp  **** 	for(size_t i = 0; i < p->numOfTargets; i++)
 361:Src/main.cpp  **** 	{
 362:Src/main.cpp  **** 		end = getCoordsOfPoint(p->targets[i]);
 363:Src/main.cpp  **** 		drawLine(start.x, start.y, end.x, end.y);
 364:Src/main.cpp  **** 		cout 	<< "\tLine: " << endl
 365:Src/main.cpp  **** 				<< "\t\t" << start.x << ":" << start.y << " -> " << end.x << ":" << end.y << endl;
 366:Src/main.cpp  **** 	}
 367:Src/main.cpp  **** }
 368:Src/main.cpp  **** 
 369:Src/main.cpp  **** 
 370:Src/main.cpp  **** 
 371:Src/main.cpp  **** 
 372:Src/main.cpp  **** void drawObstacle(const struct obstacle *o)
 373:Src/main.cpp  **** {
 374:Src/main.cpp  **** 	glSetColor(OBST_COLOR);
 375:Src/main.cpp  **** 	drawQuad(o->c->x, o->c->y, o->a);
 376:Src/main.cpp  **** 	glSetColor(GRAPH_COLOR);
 377:Src/main.cpp  **** 	// for(int i = 0; i < 4; i++)
 378:Src/main.cpp  **** 	// 	drawEdges(o->corners[i]);
 379:Src/main.cpp  **** }
 380:Src/main.cpp  **** 
 381:Src/main.cpp  **** void renderScene(void)
 382:Src/main.cpp  **** {
 383:Src/main.cpp  **** 	glClear(GL_COLOR_BUFFER_BIT);
 384:Src/main.cpp  **** 
 385:Src/main.cpp  **** 		// glSetColor(0xFF0000);
 386:Src/main.cpp  **** 		// drawTriangle(glutGet(GLUT_WINDOW_WIDTH) / 2 - 200, glutGet(GLUT_WINDOW_HEIGHT) / 2 - 200, 400)
 387:Src/main.cpp  **** 		for(size_t i = 0; i < numOfObstacles; i++)
 388:Src/main.cpp  **** 		{
 389:Src/main.cpp  **** 			drawObstacle(&obstacles[i]);
 390:Src/main.cpp  **** 		}
 391:Src/main.cpp  **** 		for(size_t i = 0; i < graphSize; i++)
GAS LISTING /tmp/cc6iEGVT.s 			page 8


 392:Src/main.cpp  **** 		{
 393:Src/main.cpp  **** 			drawEdges(graph[i]);
 394:Src/main.cpp  **** 		}
 395:Src/main.cpp  **** 		// glSetColor(0x00FF00);
 396:Src/main.cpp  **** 		// drawLine(19, 40, 49, 70);
 397:Src/main.cpp  **** 		// drawLine(startway.x, startway.y, endway.x, endway.y);
 398:Src/main.cpp  **** 
 399:Src/main.cpp  **** 
 400:Src/main.cpp  ****     glutSwapBuffers();
 401:Src/main.cpp  **** }
 402:Src/main.cpp  **** 
 403:Src/main.cpp  **** 
 404:Src/main.cpp  **** void handleKeypress(unsigned char key, //The key that was pressed
 405:Src/main.cpp  ****                                         int x, int y) //The current mouse coordinates
 406:Src/main.cpp  **** {
 407:Src/main.cpp  ****     cout << "PRESSED\n" << (int)key << endl;
 408:Src/main.cpp  ****     if(key == 27) //ESC
 409:Src/main.cpp  ****     {
 410:Src/main.cpp  **** 	    cout << "ESC\n";
 411:Src/main.cpp  **** 		terminated = true;
 412:Src/main.cpp  ****     }
 413:Src/main.cpp  **** }
 414:Src/main.cpp  **** 
 415:Src/main.cpp  **** 
 416:Src/main.cpp  **** 
 417:Src/main.cpp  **** 
 418:Src/main.cpp  **** 
 419:Src/main.cpp  **** void reshape(int w, int h)
 420:Src/main.cpp  **** {
 421:Src/main.cpp  **** 	glViewport(0, 0, w, h);
 422:Src/main.cpp  **** 
 423:Src/main.cpp  **** 	glMatrixMode(GL_PROJECTION);
 424:Src/main.cpp  **** 	glLoadIdentity();
 425:Src/main.cpp  **** 	gluOrtho2D(0, w, 0, h);
 426:Src/main.cpp  **** 
 427:Src/main.cpp  **** 	glMatrixMode(GL_MODELVIEW);
 428:Src/main.cpp  **** 	glLoadIdentity();
 429:Src/main.cpp  **** }
 430:Src/main.cpp  **** 
 431:Src/main.cpp  **** 
 432:Src/main.cpp  **** 
 433:Src/main.cpp  **** 
 434:Src/main.cpp  **** void timf(int value)				// Timer function
 435:Src/main.cpp  **** {
  10              		.loc 1 435 1 view -0
  11              		.cfi_startproc
  12              		.loc 1 435 1 is_stmt 0 view .LVU1
  13 0000 4883EC08 		subq	$8, %rsp
  14              		.cfi_def_cfa_offset 16
 436:Src/main.cpp  **** 	if(!terminated)					//if don't wanna terminate
  15              		.loc 1 436 2 is_stmt 1 view .LVU2
  16 0004 803D0000 		cmpb	$0, terminated(%rip)
  16      000000
  17 000b 7520     		jne	.L2
 437:Src/main.cpp  **** 	{
 438:Src/main.cpp  **** 		glutPostRedisplay();		//Redraw windows
  18              		.loc 1 438 3 view .LVU3
GAS LISTING /tmp/cc6iEGVT.s 			page 9


  19              		.loc 1 438 20 is_stmt 0 view .LVU4
  20 000d E8000000 		call	glutPostRedisplay@PLT
  20      00
  21              	.LVL1:
 439:Src/main.cpp  **** 		glutTimerFunc(GL_TIMER_DELAY, timf, 0);	//Setup next timer
  22              		.loc 1 439 3 is_stmt 1 view .LVU5
  23              		.loc 1 439 16 is_stmt 0 view .LVU6
  24 0012 BA000000 		movl	$0, %edx
  24      00
  25 0017 488D3500 		leaq	_Z4timfi(%rip), %rsi
  25      000000
  26 001e BF900100 		movl	$400, %edi
  26      00
  27 0023 E8000000 		call	glutTimerFunc@PLT
  27      00
  28              	.LVL2:
 440:Src/main.cpp  **** 	}
 441:Src/main.cpp  **** 	else							//if wanna terminate
 442:Src/main.cpp  **** 	{
 443:Src/main.cpp  **** 		terminated = false;			//set terminated flag
 444:Src/main.cpp  **** 		exit(RETURN_CODE_OK);		//terminate thread
 445:Src/main.cpp  **** 	}
 446:Src/main.cpp  **** }
  29              		.loc 1 446 1 view .LVU7
  30 0028 4883C408 		addq	$8, %rsp
  31              		.cfi_remember_state
  32              		.cfi_def_cfa_offset 8
  33 002c C3       		ret
  34              	.LVL3:
  35              	.L2:
  36              		.cfi_restore_state
 443:Src/main.cpp  **** 		exit(RETURN_CODE_OK);		//terminate thread
  37              		.loc 1 443 3 is_stmt 1 view .LVU8
 443:Src/main.cpp  **** 		exit(RETURN_CODE_OK);		//terminate thread
  38              		.loc 1 443 14 is_stmt 0 view .LVU9
  39 002d C6050000 		movb	$0, terminated(%rip)
  39      000000
 444:Src/main.cpp  **** 	}
  40              		.loc 1 444 3 is_stmt 1 view .LVU10
 444:Src/main.cpp  **** 	}
  41              		.loc 1 444 7 is_stmt 0 view .LVU11
  42 0034 BF000000 		movl	$0, %edi
  42      00
  43              	.LVL4:
 444:Src/main.cpp  **** 	}
  44              		.loc 1 444 7 view .LVU12
  45 0039 E8000000 		call	exit@PLT
  45      00
  46              	.LVL5:
  47              		.cfi_endproc
  48              	.LFE2494:
  51              	_Z41__static_initialization_and_destruction_0ii:
  52              	.LVL6:
  53              	.LFB2843:
 447:Src/main.cpp  **** 
 448:Src/main.cpp  **** 
 449:Src/main.cpp  **** 
GAS LISTING /tmp/cc6iEGVT.s 			page 10


 450:Src/main.cpp  **** 
 451:Src/main.cpp  **** int main(int argc, char **argv)
 452:Src/main.cpp  **** {
 453:Src/main.cpp  **** 	numOfObstacles = 10;
 454:Src/main.cpp  **** 	size_t iter = 0;
 455:Src/main.cpp  **** 	obstacles = (struct obstacle*)malloc(sizeof(struct obstacle) * numOfObstacles);
 456:Src/main.cpp  **** 	obstacles[iter++] = createObstacle(200, 200, 20);
 457:Src/main.cpp  **** 	obstacles[iter++] = createObstacle(45, 55, 20);
 458:Src/main.cpp  **** 	// obstacles[iter++] = createObstacle(70, 20, 20);
 459:Src/main.cpp  **** 	// obstacles[iter++] = createObstacle(5, 55, 20);
 460:Src/main.cpp  **** 	// obstacles[iter++] = createObstacle(5, 100, 20);
 461:Src/main.cpp  **** 	// obstacles[iter++] = createObstacle(500, 55, 20);
 462:Src/main.cpp  **** 	// obstacles[iter++] = createObstacle(300, 240, 20);
 463:Src/main.cpp  **** 	// obstacles[iter++] = createObstacle(100, 90, 20);
 464:Src/main.cpp  **** 	obstacles[iter++] = createObstacle(20, 280, 20);
 465:Src/main.cpp  **** 	numOfObstacles = iter;
 466:Src/main.cpp  **** 
 467:Src/main.cpp  **** 	graphSize = numOfObstacles * 4 + 2;
 468:Src/main.cpp  **** 
 469:Src/main.cpp  **** 	struct graphPoint *p = (struct graphPoint*)malloc(sizeof(struct graphPoint));
 470:Src/main.cpp  **** 
 471:Src/main.cpp  **** 	struct coords c;
 472:Src/main.cpp  **** 	c.x = 200;
 473:Src/main.cpp  **** 	c.y = 0;
 474:Src/main.cpp  **** 	p->c = c;
 475:Src/main.cpp  **** 	struct graphPoint *p2 = (struct graphPoint*)malloc(sizeof(struct graphPoint));
 476:Src/main.cpp  **** 
 477:Src/main.cpp  **** 	struct coords c2;
 478:Src/main.cpp  **** 	c2.x = 0;
 479:Src/main.cpp  **** 	c2.y = 200;
 480:Src/main.cpp  **** 	p2->c = c2;
 481:Src/main.cpp  **** 
 482:Src/main.cpp  **** 	graph = (struct graphPoint**)malloc(graphSize * sizeof(struct graphPoint*));
 483:Src/main.cpp  **** 	graph[numOfObstacles * 4] = p;
 484:Src/main.cpp  **** 	graph[numOfObstacles * 4 + 1] = p2;
 485:Src/main.cpp  **** 	for(size_t i = 0; i < numOfObstacles * 4; i++)
 486:Src/main.cpp  **** 	{
 487:Src/main.cpp  **** 		graph[i] = obstacles[i / 4].corners[i % 4];
 488:Src/main.cpp  **** 	}
 489:Src/main.cpp  **** 
 490:Src/main.cpp  **** 	startway.x 	= 0;
 491:Src/main.cpp  **** 	startway.y 	= 0;
 492:Src/main.cpp  **** 	endway.x	= 150;
 493:Src/main.cpp  **** 	endway.y	= 150;
 494:Src/main.cpp  **** 
 495:Src/main.cpp  **** 
 496:Src/main.cpp  **** 	// cout << "AAAAAAAAAAAAAAAA" << endl;
 497:Src/main.cpp  **** 
 498:Src/main.cpp  **** 
 499:Src/main.cpp  **** 	// initObst(&obstacles[0]);
 500:Src/main.cpp  **** 	// initPoint(graph[graphSize - 1], &c);
 501:Src/main.cpp  **** 	initGraph(graph[numOfObstacles * 4], &c);
 502:Src/main.cpp  **** 
 503:Src/main.cpp  **** 	// for(int i = 0; i < 4; i++)
 504:Src/main.cpp  **** 	// {
 505:Src/main.cpp  **** 	// 	if(obstacles[0].corners[i] != NULL)
 506:Src/main.cpp  **** 	// 	{
GAS LISTING /tmp/cc6iEGVT.s 			page 11


 507:Src/main.cpp  **** 	// 		for(int j = 0; j < obstacles[0].corners[i]->numOfTargets; j++)
 508:Src/main.cpp  **** 	// 		{
 509:Src/main.cpp  **** 	// 			cout << "corner: " << obstacles[0].corners[i]->c.x << ":" << obstacles[0].corners[i]->c.y <<
 510:Src/main.cpp  **** 	// 		}
 511:Src/main.cpp  **** 	// 	}
 512:Src/main.cpp  **** 	// }
 513:Src/main.cpp  **** 
 514:Src/main.cpp  **** 	// struct coords sss = getCoordsOfPoint(obstacles[0].corners[0]);
 515:Src/main.cpp  **** 	// cout << sss.x << " " << sss.y << endl;
 516:Src/main.cpp  **** //
 517:Src/main.cpp  **** // 	struct vect v = createVect(&obstacles[0], CORNER_LEFT_BOT, -45);
 518:Src/main.cpp  **** // 	// v.dx = 5;
 519:Src/main.cpp  **** // 	// v.dy = 35;
 520:Src/main.cpp  **** // 	// struct vect v;
 521:Src/main.cpp  **** // 	// v.c = createCoords(19.4, 40.4);
 522:Src/main.cpp  **** // 	// v.dx =
 523:Src/main.cpp  **** // 	// cout << hasIntersection(&obstacles[1], &v) << endl;
 524:Src/main.cpp  **** //
 525:Src/main.cpp  **** // 	struct array ar;
 526:Src/main.cpp  **** // 	ar.items = obstacles;
 527:Src/main.cpp  **** // 	ar.size = numOfObstacles;
 528:Src/main.cpp  **** //
 529:Src/main.cpp  **** // 	struct coords cc = getIntersection(&obstacles[1], &v);
 530:Src/main.cpp  **** // 	cout << cc.x << ":" << cc.y << endl;
 531:Src/main.cpp  **** // 	//
 532:Src/main.cpp  **** // 	// struct obstacle *ob = getIntersected(&ar, &v);
 533:Src/main.cpp  **** // 	//
 534:Src/main.cpp  **** // 	// cout << ob << endl;
 535:Src/main.cpp  **** // 	// struct coords dot = {20, 10};
 536:Src/main.cpp  **** // 	// cout << isDotInside(&dot, &obstacles[0]);
 537:Src/main.cpp  **** cout << "points: " << graphSize << "; calculated: " << calculatedPoints << endl;
 538:Src/main.cpp  **** return 0;
 539:Src/main.cpp  ****  	cout << "glut init\n";
 540:Src/main.cpp  **** 	glutInit(&argc, argv);
 541:Src/main.cpp  **** 	cout << "dispmode\n";
 542:Src/main.cpp  **** 	glutInitDisplayMode(GLUT_DOUBLE | GLUT_RGBA);
 543:Src/main.cpp  **** 	glutCreateWindow("floating");
 544:Src/main.cpp  **** 	cout << "reshape\n";
 545:Src/main.cpp  **** 	glutReshapeFunc(reshape);
 546:Src/main.cpp  **** 	cout << "dispfunc\n";
 547:Src/main.cpp  **** 	glutDisplayFunc(renderScene);
 548:Src/main.cpp  ****     cout << "keyfunc\n";
 549:Src/main.cpp  ****     glutKeyboardFunc(handleKeypress);
 550:Src/main.cpp  **** 	cout << "timer\n";
 551:Src/main.cpp  **** 	glutTimerFunc(GL_TIMER_DELAY, timf, 0);
 552:Src/main.cpp  **** 	cout << "mainloop\n";
 553:Src/main.cpp  **** 	glutMainLoop();
 554:Src/main.cpp  **** 
 555:Src/main.cpp  **** 
 556:Src/main.cpp  **** 	return 1;
 557:Src/main.cpp  **** }
  54              		.loc 1 557 1 is_stmt 1 view -0
  55              		.cfi_startproc
  56              		.loc 1 557 1 is_stmt 0 view .LVU14
  57 003e 83FF01   		cmpl	$1, %edi
  58 0041 7401     		je	.L11
  59              	.L8:
GAS LISTING /tmp/cc6iEGVT.s 			page 12


  60 0043 C3       		ret
  61              	.L11:
  62              		.loc 1 557 1 discriminator 1 view .LVU15
  63 0044 81FEFFFF 		cmpl	$65535, %esi
  63      0000
  64 004a 75F7     		jne	.L8
  65              		.loc 1 557 1 view .LVU16
  66 004c 4883EC08 		subq	$8, %rsp
  67              		.cfi_def_cfa_offset 16
  68              		.file 2 "/usr/include/c++/9.1.0/iostream"
   1:/usr/include/c++/9.1.0/iostream **** // Standard iostream objects -*- C++ -*-
   2:/usr/include/c++/9.1.0/iostream **** 
   3:/usr/include/c++/9.1.0/iostream **** // Copyright (C) 1997-2019 Free Software Foundation, Inc.
   4:/usr/include/c++/9.1.0/iostream **** //
   5:/usr/include/c++/9.1.0/iostream **** // This file is part of the GNU ISO C++ Library.  This library is free
   6:/usr/include/c++/9.1.0/iostream **** // software; you can redistribute it and/or modify it under the
   7:/usr/include/c++/9.1.0/iostream **** // terms of the GNU General Public License as published by the
   8:/usr/include/c++/9.1.0/iostream **** // Free Software Foundation; either version 3, or (at your option)
   9:/usr/include/c++/9.1.0/iostream **** // any later version.
  10:/usr/include/c++/9.1.0/iostream **** 
  11:/usr/include/c++/9.1.0/iostream **** // This library is distributed in the hope that it will be useful,
  12:/usr/include/c++/9.1.0/iostream **** // but WITHOUT ANY WARRANTY; without even the implied warranty of
  13:/usr/include/c++/9.1.0/iostream **** // MERCHANTABILITY or FITNESS FOR A PARTICULAR PURPOSE.  See the
  14:/usr/include/c++/9.1.0/iostream **** // GNU General Public License for more details.
  15:/usr/include/c++/9.1.0/iostream **** 
  16:/usr/include/c++/9.1.0/iostream **** // Under Section 7 of GPL version 3, you are granted additional
  17:/usr/include/c++/9.1.0/iostream **** // permissions described in the GCC Runtime Library Exception, version
  18:/usr/include/c++/9.1.0/iostream **** // 3.1, as published by the Free Software Foundation.
  19:/usr/include/c++/9.1.0/iostream **** 
  20:/usr/include/c++/9.1.0/iostream **** // You should have received a copy of the GNU General Public License and
  21:/usr/include/c++/9.1.0/iostream **** // a copy of the GCC Runtime Library Exception along with this program;
  22:/usr/include/c++/9.1.0/iostream **** // see the files COPYING3 and COPYING.RUNTIME respectively.  If not, see
  23:/usr/include/c++/9.1.0/iostream **** // <http://www.gnu.org/licenses/>.
  24:/usr/include/c++/9.1.0/iostream **** 
  25:/usr/include/c++/9.1.0/iostream **** /** @file include/iostream
  26:/usr/include/c++/9.1.0/iostream ****  *  This is a Standard C++ Library header.
  27:/usr/include/c++/9.1.0/iostream ****  */
  28:/usr/include/c++/9.1.0/iostream **** 
  29:/usr/include/c++/9.1.0/iostream **** //
  30:/usr/include/c++/9.1.0/iostream **** // ISO C++ 14882: 27.3  Standard iostream objects
  31:/usr/include/c++/9.1.0/iostream **** //
  32:/usr/include/c++/9.1.0/iostream **** 
  33:/usr/include/c++/9.1.0/iostream **** #ifndef _GLIBCXX_IOSTREAM
  34:/usr/include/c++/9.1.0/iostream **** #define _GLIBCXX_IOSTREAM 1
  35:/usr/include/c++/9.1.0/iostream **** 
  36:/usr/include/c++/9.1.0/iostream **** #pragma GCC system_header
  37:/usr/include/c++/9.1.0/iostream **** 
  38:/usr/include/c++/9.1.0/iostream **** #include <bits/c++config.h>
  39:/usr/include/c++/9.1.0/iostream **** #include <ostream>
  40:/usr/include/c++/9.1.0/iostream **** #include <istream>
  41:/usr/include/c++/9.1.0/iostream **** 
  42:/usr/include/c++/9.1.0/iostream **** namespace std _GLIBCXX_VISIBILITY(default)
  43:/usr/include/c++/9.1.0/iostream **** {
  44:/usr/include/c++/9.1.0/iostream **** _GLIBCXX_BEGIN_NAMESPACE_VERSION
  45:/usr/include/c++/9.1.0/iostream **** 
  46:/usr/include/c++/9.1.0/iostream ****   /**
  47:/usr/include/c++/9.1.0/iostream ****    *  @name Standard Stream Objects
GAS LISTING /tmp/cc6iEGVT.s 			page 13


  48:/usr/include/c++/9.1.0/iostream ****    *
  49:/usr/include/c++/9.1.0/iostream ****    *  The &lt;iostream&gt; header declares the eight <em>standard stream
  50:/usr/include/c++/9.1.0/iostream ****    *  objects</em>.  For other declarations, see
  51:/usr/include/c++/9.1.0/iostream ****    *  http://gcc.gnu.org/onlinedocs/libstdc++/manual/io.html
  52:/usr/include/c++/9.1.0/iostream ****    *  and the @link iosfwd I/O forward declarations @endlink
  53:/usr/include/c++/9.1.0/iostream ****    *
  54:/usr/include/c++/9.1.0/iostream ****    *  They are required by default to cooperate with the global C
  55:/usr/include/c++/9.1.0/iostream ****    *  library's @c FILE streams, and to be available during program
  56:/usr/include/c++/9.1.0/iostream ****    *  startup and termination. For more information, see the section of the
  57:/usr/include/c++/9.1.0/iostream ****    *  manual linked to above.
  58:/usr/include/c++/9.1.0/iostream ****   */
  59:/usr/include/c++/9.1.0/iostream ****   //@{
  60:/usr/include/c++/9.1.0/iostream ****   extern istream cin;		/// Linked to standard input
  61:/usr/include/c++/9.1.0/iostream ****   extern ostream cout;		/// Linked to standard output
  62:/usr/include/c++/9.1.0/iostream ****   extern ostream cerr;		/// Linked to standard error (unbuffered)
  63:/usr/include/c++/9.1.0/iostream ****   extern ostream clog;		/// Linked to standard error (buffered)
  64:/usr/include/c++/9.1.0/iostream **** 
  65:/usr/include/c++/9.1.0/iostream **** #ifdef _GLIBCXX_USE_WCHAR_T
  66:/usr/include/c++/9.1.0/iostream ****   extern wistream wcin;		/// Linked to standard input
  67:/usr/include/c++/9.1.0/iostream ****   extern wostream wcout;	/// Linked to standard output
  68:/usr/include/c++/9.1.0/iostream ****   extern wostream wcerr;	/// Linked to standard error (unbuffered)
  69:/usr/include/c++/9.1.0/iostream ****   extern wostream wclog;	/// Linked to standard error (buffered)
  70:/usr/include/c++/9.1.0/iostream **** #endif
  71:/usr/include/c++/9.1.0/iostream ****   //@}
  72:/usr/include/c++/9.1.0/iostream **** 
  73:/usr/include/c++/9.1.0/iostream ****   // For construction of filebuffers for cout, cin, cerr, clog et. al.
  74:/usr/include/c++/9.1.0/iostream ****   static ios_base::Init __ioinit;
  69              		.loc 2 74 25 view .LVU17
  70 0050 488D3D00 		leaq	_ZStL8__ioinit(%rip), %rdi
  70      000000
  71              	.LVL7:
  72              		.loc 2 74 25 view .LVU18
  73 0057 E8000000 		call	_ZNSt8ios_base4InitC1Ev@PLT
  73      00
  74              	.LVL8:
  75              		.loc 2 74 25 view .LVU19
  76 005c 488D1500 		leaq	__dso_handle(%rip), %rdx
  76      000000
  77 0063 488D3500 		leaq	_ZStL8__ioinit(%rip), %rsi
  77      000000
  78 006a 488B3D00 		movq	_ZNSt8ios_base4InitD1Ev@GOTPCREL(%rip), %rdi
  78      000000
  79 0071 E8000000 		call	__cxa_atexit@PLT
  79      00
  80              	.LVL9:
  81              		.loc 1 557 1 view .LVU20
  82 0076 4883C408 		addq	$8, %rsp
  83              		.cfi_def_cfa_offset 8
  84 007a C3       		ret
  85              		.cfi_endproc
  86              	.LFE2843:
  88              		.globl	_Z12calculateWayv
  90              	_Z12calculateWayv:
  91              	.LFB2470:
  58:Src/main.cpp  **** 
  92              		.loc 1 58 1 is_stmt 1 view -0
  93              		.cfi_startproc
GAS LISTING /tmp/cc6iEGVT.s 			page 14


  60:Src/main.cpp  **** 
  94              		.loc 1 60 1 is_stmt 0 view .LVU22
  95 007b C3       		ret
  96              		.cfi_endproc
  97              	.LFE2470:
  99              		.globl	_Z10createVectPK6coordsf
 101              	_Z10createVectPK6coordsf:
 102              	.LVL10:
 103              	.LFB2471:
  76:Src/main.cpp  **** 	struct vect ret;
 104              		.loc 1 76 1 is_stmt 1 view -0
 105              		.cfi_startproc
  76:Src/main.cpp  **** 	struct vect ret;
 106              		.loc 1 76 1 is_stmt 0 view .LVU24
 107 007c 55       		pushq	%rbp
 108              		.cfi_def_cfa_offset 16
 109              		.cfi_offset 6, -16
 110 007d 53       		pushq	%rbx
 111              		.cfi_def_cfa_offset 24
 112              		.cfi_offset 3, -24
 113 007e 4883EC18 		subq	$24, %rsp
 114              		.cfi_def_cfa_offset 48
 115 0082 4889FD   		movq	%rdi, %rbp
 116 0085 F30F1144 		movss	%xmm0, 4(%rsp)
 116      2404
  77:Src/main.cpp  **** 	ret.c  = (struct coords*)malloc(sizeof(struct coords));
 117              		.loc 1 77 2 is_stmt 1 view .LVU25
  78:Src/main.cpp  **** 	ret.c->x = c->x;
 118              		.loc 1 78 2 view .LVU26
  78:Src/main.cpp  **** 	ret.c->x = c->x;
 119              		.loc 1 78 33 is_stmt 0 view .LVU27
 120 008b BF080000 		movl	$8, %edi
 120      00
 121              	.LVL11:
  78:Src/main.cpp  **** 	ret.c->x = c->x;
 122              		.loc 1 78 33 view .LVU28
 123 0090 E8000000 		call	malloc@PLT
 123      00
 124              	.LVL12:
  78:Src/main.cpp  **** 	ret.c->x = c->x;
 125              		.loc 1 78 33 view .LVU29
 126 0095 4889C3   		movq	%rax, %rbx
  79:Src/main.cpp  **** 	ret.c->y = c->y;
 127              		.loc 1 79 2 is_stmt 1 view .LVU30
  79:Src/main.cpp  **** 	ret.c->y = c->y;
 128              		.loc 1 79 16 is_stmt 0 view .LVU31
 129 0098 F30F1045 		movss	0(%rbp), %xmm0
 129      00
  79:Src/main.cpp  **** 	ret.c->y = c->y;
 130              		.loc 1 79 11 view .LVU32
 131 009d F30F1100 		movss	%xmm0, (%rax)
  80:Src/main.cpp  **** 	ret.dx = QUAD_CHECK_SIDE * 10.0 / tan(angle / 180.0 * PI);
 132              		.loc 1 80 2 is_stmt 1 view .LVU33
  80:Src/main.cpp  **** 	ret.dx = QUAD_CHECK_SIDE * 10.0 / tan(angle / 180.0 * PI);
 133              		.loc 1 80 16 is_stmt 0 view .LVU34
 134 00a1 F30F1045 		movss	4(%rbp), %xmm0
 134      04
GAS LISTING /tmp/cc6iEGVT.s 			page 15


  80:Src/main.cpp  **** 	ret.dx = QUAD_CHECK_SIDE * 10.0 / tan(angle / 180.0 * PI);
 135              		.loc 1 80 11 view .LVU35
 136 00a6 F30F1140 		movss	%xmm0, 4(%rax)
 136      04
  81:Src/main.cpp  **** 	ret.dy = ret.dx * tan(angle / 180.0 * PI);
 137              		.loc 1 81 2 is_stmt 1 view .LVU36
  81:Src/main.cpp  **** 	ret.dy = ret.dx * tan(angle / 180.0 * PI);
 138              		.loc 1 81 27 is_stmt 0 view .LVU37
 139 00ab 488B0500 		movq	QUAD_CHECK_SIDE(%rip), %rax
 139      000000
 140 00b2 4885C0   		testq	%rax, %rax
 141 00b5 0F880501 		js	.L14
 141      0000
 142 00bb 660FEFC0 		pxor	%xmm0, %xmm0
 143 00bf F2480F2A 		cvtsi2sdq	%rax, %xmm0
 143      C0
 144              	.L15:
 145 00c4 F20F5905 		mulsd	.LC0(%rip), %xmm0
 145      00000000 
 146 00cc F20F1144 		movsd	%xmm0, 8(%rsp)
 146      2408
  81:Src/main.cpp  **** 	ret.dy = ret.dx * tan(angle / 180.0 * PI);
 147              		.loc 1 81 40 view .LVU38
 148 00d2 660FEFC0 		pxor	%xmm0, %xmm0
 149 00d6 F30F5A44 		cvtss2sd	4(%rsp), %xmm0
 149      2404
  81:Src/main.cpp  **** 	ret.dy = ret.dx * tan(angle / 180.0 * PI);
 150              		.loc 1 81 46 view .LVU39
 151 00dc F20F5E05 		divsd	.LC1(%rip), %xmm0
 151      00000000 
  81:Src/main.cpp  **** 	ret.dy = ret.dx * tan(angle / 180.0 * PI);
 152              		.loc 1 81 39 view .LVU40
 153 00e4 F20F5905 		mulsd	.LC2(%rip), %xmm0
 153      00000000 
 154 00ec E8000000 		call	tan@PLT
 154      00
 155              	.LVL13:
  81:Src/main.cpp  **** 	ret.dy = ret.dx * tan(angle / 180.0 * PI);
 156              		.loc 1 81 34 view .LVU41
 157 00f1 F20F104C 		movsd	8(%rsp), %xmm1
 157      2408
 158 00f7 F20F5EC8 		divsd	%xmm0, %xmm1
 159 00fb F20F5AC9 		cvtsd2ss	%xmm1, %xmm1
  82:Src/main.cpp  **** 	ret.dx = abs(ret.dx);
 160              		.loc 1 82 2 is_stmt 1 view .LVU42
  82:Src/main.cpp  **** 	ret.dx = abs(ret.dx);
 161              		.loc 1 82 15 is_stmt 0 view .LVU43
 162 00ff 660FEFD2 		pxor	%xmm2, %xmm2
 163 0103 F30F5AD1 		cvtss2sd	%xmm1, %xmm2
  82:Src/main.cpp  **** 	ret.dx = abs(ret.dx);
 164              		.loc 1 82 18 view .LVU44
 165 0107 F20F59C2 		mulsd	%xmm2, %xmm0
 166 010b F20F5AC0 		cvtsd2ss	%xmm0, %xmm0
  83:Src/main.cpp  **** 	ret.dy = abs(ret.dy);
 167              		.loc 1 83 2 is_stmt 1 view .LVU45
 168              	.LVL14:
 169              	.LBB169:
GAS LISTING /tmp/cc6iEGVT.s 			page 16


 170              	.LBI169:
 171              		.file 3 "/usr/include/c++/9.1.0/bits/std_abs.h"
   1:/usr/include/c++/9.1.0/bits/std_abs.h **** // -*- C++ -*- C library enhancements header.
   2:/usr/include/c++/9.1.0/bits/std_abs.h **** 
   3:/usr/include/c++/9.1.0/bits/std_abs.h **** // Copyright (C) 2016-2019 Free Software Foundation, Inc.
   4:/usr/include/c++/9.1.0/bits/std_abs.h **** //
   5:/usr/include/c++/9.1.0/bits/std_abs.h **** // This file is part of the GNU ISO C++ Library.  This library is free
   6:/usr/include/c++/9.1.0/bits/std_abs.h **** // software; you can redistribute it and/or modify it under the
   7:/usr/include/c++/9.1.0/bits/std_abs.h **** // terms of the GNU General Public License as published by the
   8:/usr/include/c++/9.1.0/bits/std_abs.h **** // Free Software Foundation; either version 3, or (at your option)
   9:/usr/include/c++/9.1.0/bits/std_abs.h **** // any later version.
  10:/usr/include/c++/9.1.0/bits/std_abs.h **** 
  11:/usr/include/c++/9.1.0/bits/std_abs.h **** // This library is distributed in the hope that it will be useful,
  12:/usr/include/c++/9.1.0/bits/std_abs.h **** // but WITHOUT ANY WARRANTY; without even the implied warranty of
  13:/usr/include/c++/9.1.0/bits/std_abs.h **** // MERCHANTABILITY or FITNESS FOR A PARTICULAR PURPOSE.  See the
  14:/usr/include/c++/9.1.0/bits/std_abs.h **** // GNU General Public License for more details.
  15:/usr/include/c++/9.1.0/bits/std_abs.h **** 
  16:/usr/include/c++/9.1.0/bits/std_abs.h **** // Under Section 7 of GPL version 3, you are granted additional
  17:/usr/include/c++/9.1.0/bits/std_abs.h **** // permissions described in the GCC Runtime Library Exception, version
  18:/usr/include/c++/9.1.0/bits/std_abs.h **** // 3.1, as published by the Free Software Foundation.
  19:/usr/include/c++/9.1.0/bits/std_abs.h **** 
  20:/usr/include/c++/9.1.0/bits/std_abs.h **** // You should have received a copy of the GNU General Public License and
  21:/usr/include/c++/9.1.0/bits/std_abs.h **** // a copy of the GCC Runtime Library Exception along with this program;
  22:/usr/include/c++/9.1.0/bits/std_abs.h **** // see the files COPYING3 and COPYING.RUNTIME respectively.  If not, see
  23:/usr/include/c++/9.1.0/bits/std_abs.h **** // <http://www.gnu.org/licenses/>.
  24:/usr/include/c++/9.1.0/bits/std_abs.h **** 
  25:/usr/include/c++/9.1.0/bits/std_abs.h **** /** @file include/bits/std_abs.h
  26:/usr/include/c++/9.1.0/bits/std_abs.h ****  *  This is an internal header file, included by other library headers.
  27:/usr/include/c++/9.1.0/bits/std_abs.h ****  *  Do not attempt to use it directly. @headername{cmath, cstdlib}
  28:/usr/include/c++/9.1.0/bits/std_abs.h ****  */
  29:/usr/include/c++/9.1.0/bits/std_abs.h **** 
  30:/usr/include/c++/9.1.0/bits/std_abs.h **** #ifndef _GLIBCXX_BITS_STD_ABS_H
  31:/usr/include/c++/9.1.0/bits/std_abs.h **** #define _GLIBCXX_BITS_STD_ABS_H
  32:/usr/include/c++/9.1.0/bits/std_abs.h **** 
  33:/usr/include/c++/9.1.0/bits/std_abs.h **** #pragma GCC system_header
  34:/usr/include/c++/9.1.0/bits/std_abs.h **** 
  35:/usr/include/c++/9.1.0/bits/std_abs.h **** #include <bits/c++config.h>
  36:/usr/include/c++/9.1.0/bits/std_abs.h **** 
  37:/usr/include/c++/9.1.0/bits/std_abs.h **** #define _GLIBCXX_INCLUDE_NEXT_C_HEADERS
  38:/usr/include/c++/9.1.0/bits/std_abs.h **** #include_next <stdlib.h>
  39:/usr/include/c++/9.1.0/bits/std_abs.h **** #ifdef __CORRECT_ISO_CPP_MATH_H_PROTO
  40:/usr/include/c++/9.1.0/bits/std_abs.h **** # include_next <math.h>
  41:/usr/include/c++/9.1.0/bits/std_abs.h **** #endif
  42:/usr/include/c++/9.1.0/bits/std_abs.h **** #undef _GLIBCXX_INCLUDE_NEXT_C_HEADERS
  43:/usr/include/c++/9.1.0/bits/std_abs.h **** 
  44:/usr/include/c++/9.1.0/bits/std_abs.h **** #undef abs
  45:/usr/include/c++/9.1.0/bits/std_abs.h **** 
  46:/usr/include/c++/9.1.0/bits/std_abs.h **** extern "C++"
  47:/usr/include/c++/9.1.0/bits/std_abs.h **** {
  48:/usr/include/c++/9.1.0/bits/std_abs.h **** namespace std _GLIBCXX_VISIBILITY(default)
  49:/usr/include/c++/9.1.0/bits/std_abs.h **** {
  50:/usr/include/c++/9.1.0/bits/std_abs.h **** _GLIBCXX_BEGIN_NAMESPACE_VERSION
  51:/usr/include/c++/9.1.0/bits/std_abs.h **** 
  52:/usr/include/c++/9.1.0/bits/std_abs.h ****   using ::abs;
  53:/usr/include/c++/9.1.0/bits/std_abs.h **** 
  54:/usr/include/c++/9.1.0/bits/std_abs.h **** #ifndef __CORRECT_ISO_CPP_STDLIB_H_PROTO
  55:/usr/include/c++/9.1.0/bits/std_abs.h ****   inline long
GAS LISTING /tmp/cc6iEGVT.s 			page 17


  56:/usr/include/c++/9.1.0/bits/std_abs.h ****   abs(long __i) { return __builtin_labs(__i); }
  57:/usr/include/c++/9.1.0/bits/std_abs.h **** #endif
  58:/usr/include/c++/9.1.0/bits/std_abs.h **** 
  59:/usr/include/c++/9.1.0/bits/std_abs.h **** #ifdef _GLIBCXX_USE_LONG_LONG
  60:/usr/include/c++/9.1.0/bits/std_abs.h ****   inline long long
  61:/usr/include/c++/9.1.0/bits/std_abs.h ****   abs(long long __x) { return __builtin_llabs (__x); }
  62:/usr/include/c++/9.1.0/bits/std_abs.h **** #endif
  63:/usr/include/c++/9.1.0/bits/std_abs.h **** 
  64:/usr/include/c++/9.1.0/bits/std_abs.h **** // _GLIBCXX_RESOLVE_LIB_DEFECTS
  65:/usr/include/c++/9.1.0/bits/std_abs.h **** // 2192. Validity and return type of std::abs(0u) is unclear
  66:/usr/include/c++/9.1.0/bits/std_abs.h **** // 2294. <cstdlib> should declare abs(double)
  67:/usr/include/c++/9.1.0/bits/std_abs.h **** // 2735. std::abs(short), std::abs(signed char) and others should return int
  68:/usr/include/c++/9.1.0/bits/std_abs.h **** 
  69:/usr/include/c++/9.1.0/bits/std_abs.h **** #ifndef __CORRECT_ISO_CPP_MATH_H_PROTO
  70:/usr/include/c++/9.1.0/bits/std_abs.h ****   inline _GLIBCXX_CONSTEXPR double
  71:/usr/include/c++/9.1.0/bits/std_abs.h ****   abs(double __x)
  72:/usr/include/c++/9.1.0/bits/std_abs.h ****   { return __builtin_fabs(__x); }
  73:/usr/include/c++/9.1.0/bits/std_abs.h **** 
  74:/usr/include/c++/9.1.0/bits/std_abs.h ****   inline _GLIBCXX_CONSTEXPR float
  75:/usr/include/c++/9.1.0/bits/std_abs.h ****   abs(float __x)
 172              		.loc 3 75 3 view .LVU46
 173              	.LBB170:
  76:/usr/include/c++/9.1.0/bits/std_abs.h ****   { return __builtin_fabsf(__x); }
 174              		.loc 3 76 5 view .LVU47
 175              		.loc 3 76 31 is_stmt 0 view .LVU48
 176 010f F30F1015 		movss	.LC3(%rip), %xmm2
 176      00000000 
 177 0117 0F54CA   		andps	%xmm2, %xmm1
 178              	.LVL15:
 179              		.loc 3 76 31 view .LVU49
 180              	.LBE170:
 181              	.LBE169:
  84:Src/main.cpp  **** 	if(angle > 180 || angle < 0)
 182              		.loc 1 84 2 is_stmt 1 view .LVU50
 183              	.LBB171:
 184              	.LBI171:
  75:/usr/include/c++/9.1.0/bits/std_abs.h ****   { return __builtin_fabsf(__x); }
 185              		.loc 3 75 3 view .LVU51
 186              	.LBB172:
 187              		.loc 3 76 5 view .LVU52
 188              		.loc 3 76 31 is_stmt 0 view .LVU53
 189 011a 0F54C2   		andps	%xmm2, %xmm0
 190              	.LVL16:
 191              		.loc 3 76 31 view .LVU54
 192              	.LBE172:
 193              	.LBE171:
  84:Src/main.cpp  **** 	if(angle > 180 || angle < 0)
 194              		.loc 1 84 9 view .LVU55
 195 011d 660F7EC0 		movd	%xmm0, %eax
 196 0121 48C1E020 		salq	$32, %rax
 197 0125 660F7ECA 		movd	%xmm1, %edx
 198              	.LVL17:
  84:Src/main.cpp  **** 	if(angle > 180 || angle < 0)
 199              		.loc 1 84 9 view .LVU56
 200 0129 4809C2   		orq	%rax, %rdx
  84:Src/main.cpp  **** 	if(angle > 180 || angle < 0)
 201              		.loc 1 84 9 view .LVU57
GAS LISTING /tmp/cc6iEGVT.s 			page 18


 202 012c 4889D1   		movq	%rdx, %rcx
  85:Src/main.cpp  **** 		ret.dy *= -1;
 203              		.loc 1 85 2 is_stmt 1 view .LVU58
 204 012f F30F1064 		movss	4(%rsp), %xmm4
 204      2404
 205 0135 0F2F2500 		comiss	.LC4(%rip), %xmm4
 205      000000
 206 013c 7709     		ja	.L16
  85:Src/main.cpp  **** 		ret.dy *= -1;
 207              		.loc 1 85 17 is_stmt 0 discriminator 1 view .LVU59
 208 013e 660FEFD2 		pxor	%xmm2, %xmm2
 209 0142 0F2FD4   		comiss	%xmm4, %xmm2
 210 0145 7614     		jbe	.L17
 211              	.L16:
  86:Src/main.cpp  **** 
 212              		.loc 1 86 3 is_stmt 1 view .LVU60
  86:Src/main.cpp  **** 
 213              		.loc 1 86 10 is_stmt 0 view .LVU61
 214 0147 0F570500 		xorps	.LC6(%rip), %xmm0
 214      000000
 215 014e 660F7EC0 		movd	%xmm0, %eax
 216 0152 48C1E020 		salq	$32, %rax
 217 0156 89D1     		movl	%edx, %ecx
  86:Src/main.cpp  **** 
 218              		.loc 1 86 10 view .LVU62
 219 0158 4809C1   		orq	%rax, %rcx
 220              	.L17:
  88:Src/main.cpp  **** 		ret.dx *= -1;
 221              		.loc 1 88 2 is_stmt 1 view .LVU63
 222 015b F30F106C 		movss	4(%rsp), %xmm5
 222      2404
 223 0161 0F2F2D00 		comiss	.LC7(%rip), %xmm5
 223      000000
 224 0168 720D     		jb	.L19
  88:Src/main.cpp  **** 		ret.dx *= -1;
 225              		.loc 1 88 21 is_stmt 0 discriminator 2 view .LVU64
 226 016a F30F1005 		movss	.LC8(%rip), %xmm0
 226      00000000 
 227 0172 0F2FC5   		comiss	%xmm5, %xmm0
 228 0175 733A     		jnb	.L21
 229              	.L19:
  88:Src/main.cpp  **** 		ret.dx *= -1;
 230              		.loc 1 88 5 discriminator 3 view .LVU65
 231 0177 F30F1074 		movss	4(%rsp), %xmm6
 231      2404
 232 017d 0F2F3500 		comiss	.LC9(%rip), %xmm6
 232      000000
 233 0184 720D     		jb	.L22
  88:Src/main.cpp  **** 		ret.dx *= -1;
 234              		.loc 1 88 59 discriminator 4 view .LVU66
 235 0186 F30F1005 		movss	.LC10(%rip), %xmm0
 235      00000000 
 236 018e 0F2FC6   		comiss	%xmm6, %xmm0
 237 0191 731E     		jnb	.L21
 238              	.L22:
  89:Src/main.cpp  **** 
 239              		.loc 1 89 3 is_stmt 1 view .LVU67
GAS LISTING /tmp/cc6iEGVT.s 			page 19


  89:Src/main.cpp  **** 
 240              		.loc 1 89 10 is_stmt 0 view .LVU68
 241 0193 0F570D00 		xorps	.LC6(%rip), %xmm1
 241      000000
 242 019a 660F7ECA 		movd	%xmm1, %edx
 243 019e 48B80000 		movabsq	$-4294967296, %rax
 243      0000FFFF 
 243      FFFF
  89:Src/main.cpp  **** 
 244              		.loc 1 89 10 view .LVU69
 245 01a8 4821C8   		andq	%rcx, %rax
 246 01ab 4809D0   		orq	%rdx, %rax
 247 01ae 4889C1   		movq	%rax, %rcx
 248              	.L21:
  96:Src/main.cpp  **** }
 249              		.loc 1 96 2 is_stmt 1 view .LVU70
  97:Src/main.cpp  **** 
 250              		.loc 1 97 1 is_stmt 0 view .LVU71
 251 01b1 4889D8   		movq	%rbx, %rax
  97:Src/main.cpp  **** 
 252              		.loc 1 97 1 view .LVU72
 253 01b4 66480F6E 		movq	%rcx, %xmm0
 253      C1
 254 01b9 4883C418 		addq	$24, %rsp
 255              		.cfi_remember_state
 256              		.cfi_def_cfa_offset 24
 257 01bd 5B       		popq	%rbx
 258              		.cfi_def_cfa_offset 16
 259 01be 5D       		popq	%rbp
 260              		.cfi_def_cfa_offset 8
 261              	.LVL18:
  97:Src/main.cpp  **** 
 262              		.loc 1 97 1 view .LVU73
 263 01bf C3       		ret
 264              	.LVL19:
 265              	.L14:
 266              		.cfi_restore_state
  81:Src/main.cpp  **** 	ret.dy = ret.dx * tan(angle / 180.0 * PI);
 267              		.loc 1 81 27 view .LVU74
 268 01c0 4889C2   		movq	%rax, %rdx
 269 01c3 48D1EA   		shrq	%rdx
 270 01c6 83E001   		andl	$1, %eax
 271 01c9 4809C2   		orq	%rax, %rdx
 272 01cc 660FEFC0 		pxor	%xmm0, %xmm0
 273 01d0 F2480F2A 		cvtsi2sdq	%rdx, %xmm0
 273      C2
 274 01d5 F20F58C0 		addsd	%xmm0, %xmm0
 275 01d9 E9E6FEFF 		jmp	.L15
 275      FF
 276              		.cfi_endproc
 277              	.LFE2471:
 279              		.globl	_Z10createVectPK6coordsS1_
 281              	_Z10createVectPK6coordsS1_:
 282              	.LVL20:
 283              	.LFB2475:
 100:Src/main.cpp  **** 	struct vect ret;
 284              		.loc 1 100 1 is_stmt 1 view -0
GAS LISTING /tmp/cc6iEGVT.s 			page 20


 285              		.cfi_startproc
 100:Src/main.cpp  **** 	struct vect ret;
 286              		.loc 1 100 1 is_stmt 0 view .LVU76
 287 01de 55       		pushq	%rbp
 288              		.cfi_def_cfa_offset 16
 289              		.cfi_offset 6, -16
 290 01df 53       		pushq	%rbx
 291              		.cfi_def_cfa_offset 24
 292              		.cfi_offset 3, -24
 293 01e0 4883EC08 		subq	$8, %rsp
 294              		.cfi_def_cfa_offset 32
 295 01e4 4889FD   		movq	%rdi, %rbp
 296 01e7 4889F3   		movq	%rsi, %rbx
 101:Src/main.cpp  **** 	ret.c = (struct coords*)malloc(sizeof(struct coords));
 297              		.loc 1 101 2 is_stmt 1 view .LVU77
 102:Src/main.cpp  **** 	ret.c->x = start->x;
 298              		.loc 1 102 2 view .LVU78
 102:Src/main.cpp  **** 	ret.c->x = start->x;
 299              		.loc 1 102 32 is_stmt 0 view .LVU79
 300 01ea BF080000 		movl	$8, %edi
 300      00
 301              	.LVL21:
 102:Src/main.cpp  **** 	ret.c->x = start->x;
 302              		.loc 1 102 32 view .LVU80
 303 01ef E8000000 		call	malloc@PLT
 303      00
 304              	.LVL22:
 103:Src/main.cpp  **** 	ret.c->y = start->y;
 305              		.loc 1 103 2 is_stmt 1 view .LVU81
 103:Src/main.cpp  **** 	ret.c->y = start->y;
 306              		.loc 1 103 20 is_stmt 0 view .LVU82
 307 01f4 F30F1055 		movss	0(%rbp), %xmm2
 307      00
 103:Src/main.cpp  **** 	ret.c->y = start->y;
 308              		.loc 1 103 11 view .LVU83
 309 01f9 F30F1110 		movss	%xmm2, (%rax)
 104:Src/main.cpp  **** 	ret.dx = end->x - start->x;
 310              		.loc 1 104 2 is_stmt 1 view .LVU84
 104:Src/main.cpp  **** 	ret.dx = end->x - start->x;
 311              		.loc 1 104 20 is_stmt 0 view .LVU85
 312 01fd F30F104D 		movss	4(%rbp), %xmm1
 312      04
 104:Src/main.cpp  **** 	ret.dx = end->x - start->x;
 313              		.loc 1 104 11 view .LVU86
 314 0202 F30F1148 		movss	%xmm1, 4(%rax)
 314      04
 105:Src/main.cpp  **** 	ret.dy = end->y - start->y;
 315              		.loc 1 105 2 is_stmt 1 view .LVU87
 105:Src/main.cpp  **** 	ret.dy = end->y - start->y;
 316              		.loc 1 105 16 is_stmt 0 view .LVU88
 317 0207 F30F1003 		movss	(%rbx), %xmm0
 105:Src/main.cpp  **** 	ret.dy = end->y - start->y;
 318              		.loc 1 105 9 view .LVU89
 319 020b F30F5CC2 		subss	%xmm2, %xmm0
 106:Src/main.cpp  **** 	return ret;
 320              		.loc 1 106 2 is_stmt 1 view .LVU90
 106:Src/main.cpp  **** 	return ret;
GAS LISTING /tmp/cc6iEGVT.s 			page 21


 321              		.loc 1 106 16 is_stmt 0 view .LVU91
 322 020f F30F1053 		movss	4(%rbx), %xmm2
 322      04
 106:Src/main.cpp  **** 	return ret;
 323              		.loc 1 106 9 view .LVU92
 324 0214 F30F5CD1 		subss	%xmm1, %xmm2
 325 0218 660F7ED2 		movd	%xmm2, %edx
 326 021c 4889D1   		movq	%rdx, %rcx
 327 021f 48C1E120 		salq	$32, %rcx
 328 0223 660F7EC2 		movd	%xmm0, %edx
 329              	.LVL23:
 106:Src/main.cpp  **** 	return ret;
 330              		.loc 1 106 9 view .LVU93
 331 0227 4809CA   		orq	%rcx, %rdx
 107:Src/main.cpp  **** }
 332              		.loc 1 107 2 is_stmt 1 view .LVU94
 108:Src/main.cpp  **** 
 333              		.loc 1 108 1 is_stmt 0 view .LVU95
 334 022a 66480F6E 		movq	%rdx, %xmm0
 334      C2
 335 022f 4883C408 		addq	$8, %rsp
 336              		.cfi_def_cfa_offset 24
 337 0233 5B       		popq	%rbx
 338              		.cfi_def_cfa_offset 16
 339              	.LVL24:
 108:Src/main.cpp  **** 
 340              		.loc 1 108 1 view .LVU96
 341 0234 5D       		popq	%rbp
 342              		.cfi_def_cfa_offset 8
 343              	.LVL25:
 108:Src/main.cpp  **** 
 344              		.loc 1 108 1 view .LVU97
 345 0235 C3       		ret
 346              		.cfi_endproc
 347              	.LFE2475:
 349              		.globl	_Z10createVectPK8obstaclehf
 351              	_Z10createVectPK8obstaclehf:
 352              	.LVL26:
 353              	.LFB2476:
 112:Src/main.cpp  **** 	struct vect ret;
 354              		.loc 1 112 1 is_stmt 1 view -0
 355              		.cfi_startproc
 112:Src/main.cpp  **** 	struct vect ret;
 356              		.loc 1 112 1 is_stmt 0 view .LVU99
 357 0236 55       		pushq	%rbp
 358              		.cfi_def_cfa_offset 16
 359              		.cfi_offset 6, -16
 360 0237 53       		pushq	%rbx
 361              		.cfi_def_cfa_offset 24
 362              		.cfi_offset 3, -24
 363 0238 4883EC18 		subq	$24, %rsp
 364              		.cfi_def_cfa_offset 48
 365 023c F30F1144 		movss	%xmm0, 8(%rsp)
 365      2408
 113:Src/main.cpp  **** 	struct coords *c = getCoordsOfCorner(obst, corner);
 366              		.loc 1 113 2 is_stmt 1 view .LVU100
 114:Src/main.cpp  **** 	ret = createVect(c, angle);
GAS LISTING /tmp/cc6iEGVT.s 			page 22


 367              		.loc 1 114 2 view .LVU101
 114:Src/main.cpp  **** 	ret = createVect(c, angle);
 368              		.loc 1 114 38 is_stmt 0 view .LVU102
 369 0242 400FB6F6 		movzbl	%sil, %esi
 114:Src/main.cpp  **** 	ret = createVect(c, angle);
 370              		.loc 1 114 38 view .LVU103
 371 0246 E8000000 		call	_Z17getCoordsOfCornerPK8obstacleh@PLT
 371      00
 372              	.LVL27:
 114:Src/main.cpp  **** 	ret = createVect(c, angle);
 373              		.loc 1 114 38 view .LVU104
 374 024b 4889C3   		movq	%rax, %rbx
 375              	.LVL28:
 115:Src/main.cpp  **** 	free(c);
 376              		.loc 1 115 2 is_stmt 1 view .LVU105
 115:Src/main.cpp  **** 	free(c);
 377              		.loc 1 115 27 is_stmt 0 view .LVU106
 378 024e F30F1044 		movss	8(%rsp), %xmm0
 378      2408
 379 0254 4889C7   		movq	%rax, %rdi
 380 0257 E8000000 		call	_Z10createVectPK6coordsf
 380      00
 381              	.LVL29:
 115:Src/main.cpp  **** 	free(c);
 382              		.loc 1 115 27 view .LVU107
 383 025c 4889C5   		movq	%rax, %rbp
 384 025f 660FD644 		movq	%xmm0, 8(%rsp)
 384      2408
 385              	.LVL30:
 116:Src/main.cpp  **** 	return ret;
 386              		.loc 1 116 2 is_stmt 1 view .LVU108
 116:Src/main.cpp  **** 	return ret;
 387              		.loc 1 116 6 is_stmt 0 view .LVU109
 388 0265 4889DF   		movq	%rbx, %rdi
 389 0268 E8000000 		call	free@PLT
 389      00
 390              	.LVL31:
 117:Src/main.cpp  **** }
 391              		.loc 1 117 2 is_stmt 1 view .LVU110
 118:Src/main.cpp  **** 
 392              		.loc 1 118 1 is_stmt 0 view .LVU111
 393 026d 4889E8   		movq	%rbp, %rax
 394 0270 F30F7E44 		movq	8(%rsp), %xmm0
 394      2408
 395 0276 4883C418 		addq	$24, %rsp
 396              		.cfi_def_cfa_offset 24
 397 027a 5B       		popq	%rbx
 398              		.cfi_def_cfa_offset 16
 399              	.LVL32:
 118:Src/main.cpp  **** 
 400              		.loc 1 118 1 view .LVU112
 401 027b 5D       		popq	%rbp
 402              		.cfi_def_cfa_offset 8
 403 027c C3       		ret
 404              		.cfi_endproc
 405              	.LFE2476:
 407              		.section	.rodata.str1.1,"aMS",@progbits,1
GAS LISTING /tmp/cc6iEGVT.s 			page 23


 408              	.LC11:
 409 0000 496E6372 		.string	"Increacing radius\n"
 409      65616369 
 409      6E672072 
 409      61646975 
 409      730A00
 410              	.LC12:
 411 0013 53697A65 		.string	"Size: "
 411      3A2000
 412              		.text
 413              		.globl	_Z10getDataSetPK6coords
 415              	_Z10getDataSetPK6coords:
 416              	.LVL33:
 417              	.LFB2477:
 122:Src/main.cpp  **** 	size_t size = 0;
 418              		.loc 1 122 1 is_stmt 1 view -0
 419              		.cfi_startproc
 122:Src/main.cpp  **** 	size_t size = 0;
 420              		.loc 1 122 1 is_stmt 0 view .LVU114
 421 027d 4155     		pushq	%r13
 422              		.cfi_def_cfa_offset 16
 423              		.cfi_offset 13, -16
 424 027f 4154     		pushq	%r12
 425              		.cfi_def_cfa_offset 24
 426              		.cfi_offset 12, -24
 427 0281 55       		pushq	%rbp
 428              		.cfi_def_cfa_offset 32
 429              		.cfi_offset 6, -32
 430 0282 53       		pushq	%rbx
 431              		.cfi_def_cfa_offset 40
 432              		.cfi_offset 3, -40
 433 0283 4883EC08 		subq	$8, %rsp
 434              		.cfi_def_cfa_offset 48
 435 0287 4889FB   		movq	%rdi, %rbx
 123:Src/main.cpp  **** 	while (size < 2) {
 436              		.loc 1 123 2 is_stmt 1 view .LVU115
 437              	.LVL34:
 123:Src/main.cpp  **** 	while (size < 2) {
 438              		.loc 1 123 9 is_stmt 0 view .LVU116
 439 028a BD000000 		movl	$0, %ebp
 439      00
 440 028f E9C10000 		jmp	.L32
 440      00
 441              	.LVL35:
 442              	.L35:
 443              	.LBB202:
 444              	.LBB203:
 128:Src/main.cpp  **** 			&& obstacles[i].c->x <= c->x + obstacles[i].a + QUAD_CHECK_SIDE
 445              		.loc 1 128 50 view .LVU117
 446 0294 4889C6   		movq	%rax, %rsi
 447 0297 48D1EE   		shrq	%rsi
 448 029a 83E001   		andl	$1, %eax
 449 029d 4809C6   		orq	%rax, %rsi
 450 02a0 660FEFC0 		pxor	%xmm0, %xmm0
 451 02a4 F3480F2A 		cvtsi2ssq	%rsi, %xmm0
 451      C6
 452 02a9 F30F58C0 		addss	%xmm0, %xmm0
GAS LISTING /tmp/cc6iEGVT.s 			page 24


 453 02ad EB4C     		jmp	.L36
 454              	.L37:
 126:Src/main.cpp  **** 		{
 455              		.loc 1 126 3 discriminator 2 view .LVU118
 456 02af 4883C201 		addq	$1, %rdx
 457              	.LVL36:
 458              	.L42:
 126:Src/main.cpp  **** 		{
 459              		.loc 1 126 23 discriminator 1 view .LVU119
 460 02b3 48391500 		cmpq	%rdx, numOfObstacles(%rip)
 460      000000
 461 02ba 0F868F00 		jbe	.L34
 461      0000
 128:Src/main.cpp  **** 			&& obstacles[i].c->x <= c->x + obstacles[i].a + QUAD_CHECK_SIDE
 462              		.loc 1 128 4 is_stmt 1 view .LVU120
 128:Src/main.cpp  **** 			&& obstacles[i].c->x <= c->x + obstacles[i].a + QUAD_CHECK_SIDE
 463              		.loc 1 128 18 is_stmt 0 view .LVU121
 464 02c0 488D0452 		leaq	(%rdx,%rdx,2), %rax
 465 02c4 48C1E004 		salq	$4, %rax
 466 02c8 48030500 		addq	obstacles(%rip), %rax
 466      000000
 128:Src/main.cpp  **** 			&& obstacles[i].c->x <= c->x + obstacles[i].a + QUAD_CHECK_SIDE
 467              		.loc 1 128 20 view .LVU122
 468 02cf 488B08   		movq	(%rax), %rcx
 128:Src/main.cpp  **** 			&& obstacles[i].c->x <= c->x + obstacles[i].a + QUAD_CHECK_SIDE
 469              		.loc 1 128 23 view .LVU123
 470 02d2 F30F1019 		movss	(%rcx), %xmm3
 128:Src/main.cpp  **** 			&& obstacles[i].c->x <= c->x + obstacles[i].a + QUAD_CHECK_SIDE
 471              		.loc 1 128 40 view .LVU124
 472 02d6 F30F1050 		movss	40(%rax), %xmm2
 472      28
 128:Src/main.cpp  **** 			&& obstacles[i].c->x <= c->x + obstacles[i].a + QUAD_CHECK_SIDE
 473              		.loc 1 128 25 view .LVU125
 474 02db 0F28EB   		movaps	%xmm3, %xmm5
 475 02de F30F58EA 		addss	%xmm2, %xmm5
 128:Src/main.cpp  **** 			&& obstacles[i].c->x <= c->x + obstacles[i].a + QUAD_CHECK_SIDE
 476              		.loc 1 128 48 view .LVU126
 477 02e2 F30F100B 		movss	(%rbx), %xmm1
 128:Src/main.cpp  **** 			&& obstacles[i].c->x <= c->x + obstacles[i].a + QUAD_CHECK_SIDE
 478              		.loc 1 128 50 view .LVU127
 479 02e6 488B0500 		movq	QUAD_CHECK_SIDE(%rip), %rax
 479      000000
 480 02ed 4885C0   		testq	%rax, %rax
 481 02f0 78A2     		js	.L35
 482 02f2 660FEFC0 		pxor	%xmm0, %xmm0
 483 02f6 F3480F2A 		cvtsi2ssq	%rax, %xmm0
 483      C0
 484              	.L36:
 485 02fb 0F28E1   		movaps	%xmm1, %xmm4
 486 02fe F30F5CE0 		subss	%xmm0, %xmm4
 128:Src/main.cpp  **** 			&& obstacles[i].c->x <= c->x + obstacles[i].a + QUAD_CHECK_SIDE
 487              		.loc 1 128 4 view .LVU128
 488 0302 0F2FEC   		comiss	%xmm4, %xmm5
 489 0305 72A8     		jb	.L37
 129:Src/main.cpp  **** 			&& obstacles[i].c->y + obstacles[i].a >= c->y - QUAD_CHECK_SIDE
 490              		.loc 1 129 33 view .LVU129
 491 0307 F30F58CA 		addss	%xmm2, %xmm1
GAS LISTING /tmp/cc6iEGVT.s 			page 25


 129:Src/main.cpp  **** 			&& obstacles[i].c->y + obstacles[i].a >= c->y - QUAD_CHECK_SIDE
 492              		.loc 1 129 50 view .LVU130
 493 030b F30F58C8 		addss	%xmm0, %xmm1
 129:Src/main.cpp  **** 			&& obstacles[i].c->y + obstacles[i].a >= c->y - QUAD_CHECK_SIDE
 494              		.loc 1 129 4 view .LVU131
 495 030f 0F2FCB   		comiss	%xmm3, %xmm1
 496 0312 729B     		jb	.L37
 130:Src/main.cpp  **** 			&& obstacles[i].c->y <= c->y + obstacles[i].a + QUAD_CHECK_SIDE)
 497              		.loc 1 130 23 view .LVU132
 498 0314 F30F1049 		movss	4(%rcx), %xmm1
 498      04
 130:Src/main.cpp  **** 			&& obstacles[i].c->y <= c->y + obstacles[i].a + QUAD_CHECK_SIDE)
 499              		.loc 1 130 25 view .LVU133
 500 0319 0F28EA   		movaps	%xmm2, %xmm5
 501 031c F30F58E9 		addss	%xmm1, %xmm5
 130:Src/main.cpp  **** 			&& obstacles[i].c->y <= c->y + obstacles[i].a + QUAD_CHECK_SIDE)
 502              		.loc 1 130 48 view .LVU134
 503 0320 F30F105B 		movss	4(%rbx), %xmm3
 503      04
 130:Src/main.cpp  **** 			&& obstacles[i].c->y <= c->y + obstacles[i].a + QUAD_CHECK_SIDE)
 504              		.loc 1 130 50 view .LVU135
 505 0325 0F28E3   		movaps	%xmm3, %xmm4
 506 0328 F30F5CE0 		subss	%xmm0, %xmm4
 130:Src/main.cpp  **** 			&& obstacles[i].c->y <= c->y + obstacles[i].a + QUAD_CHECK_SIDE)
 507              		.loc 1 130 4 view .LVU136
 508 032c 0F2FEC   		comiss	%xmm4, %xmm5
 509 032f 0F827AFF 		jb	.L37
 509      FFFF
 131:Src/main.cpp  **** 				size++;
 510              		.loc 1 131 33 view .LVU137
 511 0335 F30F58D3 		addss	%xmm3, %xmm2
 131:Src/main.cpp  **** 				size++;
 512              		.loc 1 131 50 view .LVU138
 513 0339 F30F58C2 		addss	%xmm2, %xmm0
 131:Src/main.cpp  **** 				size++;
 514              		.loc 1 131 4 view .LVU139
 515 033d 0F2FC1   		comiss	%xmm1, %xmm0
 516 0340 0F8269FF 		jb	.L37
 516      FFFF
 132:Src/main.cpp  **** 		}
 517              		.loc 1 132 5 is_stmt 1 view .LVU140
 132:Src/main.cpp  **** 		}
 518              		.loc 1 132 9 is_stmt 0 view .LVU141
 519 0346 4883C501 		addq	$1, %rbp
 520              	.LVL37:
 132:Src/main.cpp  **** 		}
 521              		.loc 1 132 9 view .LVU142
 522 034a E960FFFF 		jmp	.L37
 522      FF
 523              	.L34:
 132:Src/main.cpp  **** 		}
 524              		.loc 1 132 9 view .LVU143
 525              	.LBE203:
 134:Src/main.cpp  **** 		{
 526              		.loc 1 134 3 is_stmt 1 view .LVU144
 527 034f 4883FD01 		cmpq	$1, %rbp
 528 0353 7615     		jbe	.L65
GAS LISTING /tmp/cc6iEGVT.s 			page 26


 529              	.LVL38:
 530              	.L32:
 134:Src/main.cpp  **** 		{
 531              		.loc 1 134 3 is_stmt 0 view .LVU145
 532              	.LBE202:
 124:Src/main.cpp  **** 		size = 0;
 533              		.loc 1 124 2 is_stmt 1 view .LVU146
 124:Src/main.cpp  **** 		size = 0;
 534              		.loc 1 124 14 is_stmt 0 view .LVU147
 535 0355 4883FD01 		cmpq	$1, %rbp
 536 0359 7731     		ja	.L33
 537              	.LBB208:
 538              	.LBB204:
 126:Src/main.cpp  **** 		{
 539              		.loc 1 126 14 view .LVU148
 540 035b BA000000 		movl	$0, %edx
 540      00
 541              	.LBE204:
 125:Src/main.cpp  **** 		for(size_t i = 0; i < numOfObstacles; i++)
 542              		.loc 1 125 8 view .LVU149
 543 0360 BD000000 		movl	$0, %ebp
 543      00
 544              	.LVL39:
 125:Src/main.cpp  **** 		for(size_t i = 0; i < numOfObstacles; i++)
 545              		.loc 1 125 8 view .LVU150
 546 0365 E949FFFF 		jmp	.L42
 546      FF
 547              	.LVL40:
 548              	.L65:
 136:Src/main.cpp  **** 			QUAD_CHECK_SIDE += 100;
 549              		.loc 1 136 4 is_stmt 1 view .LVU151
 550              	.LBB205:
 551              	.LBI205:
 552              		.file 4 "/usr/include/c++/9.1.0/ostream"
   1:/usr/include/c++/9.1.0/ostream **** // Output streams -*- C++ -*-
   2:/usr/include/c++/9.1.0/ostream **** 
   3:/usr/include/c++/9.1.0/ostream **** // Copyright (C) 1997-2019 Free Software Foundation, Inc.
   4:/usr/include/c++/9.1.0/ostream **** //
   5:/usr/include/c++/9.1.0/ostream **** // This file is part of the GNU ISO C++ Library.  This library is free
   6:/usr/include/c++/9.1.0/ostream **** // software; you can redistribute it and/or modify it under the
   7:/usr/include/c++/9.1.0/ostream **** // terms of the GNU General Public License as published by the
   8:/usr/include/c++/9.1.0/ostream **** // Free Software Foundation; either version 3, or (at your option)
   9:/usr/include/c++/9.1.0/ostream **** // any later version.
  10:/usr/include/c++/9.1.0/ostream **** 
  11:/usr/include/c++/9.1.0/ostream **** // This library is distributed in the hope that it will be useful,
  12:/usr/include/c++/9.1.0/ostream **** // but WITHOUT ANY WARRANTY; without even the implied warranty of
  13:/usr/include/c++/9.1.0/ostream **** // MERCHANTABILITY or FITNESS FOR A PARTICULAR PURPOSE.  See the
  14:/usr/include/c++/9.1.0/ostream **** // GNU General Public License for more details.
  15:/usr/include/c++/9.1.0/ostream **** 
  16:/usr/include/c++/9.1.0/ostream **** // Under Section 7 of GPL version 3, you are granted additional
  17:/usr/include/c++/9.1.0/ostream **** // permissions described in the GCC Runtime Library Exception, version
  18:/usr/include/c++/9.1.0/ostream **** // 3.1, as published by the Free Software Foundation.
  19:/usr/include/c++/9.1.0/ostream **** 
  20:/usr/include/c++/9.1.0/ostream **** // You should have received a copy of the GNU General Public License and
  21:/usr/include/c++/9.1.0/ostream **** // a copy of the GCC Runtime Library Exception along with this program;
  22:/usr/include/c++/9.1.0/ostream **** // see the files COPYING3 and COPYING.RUNTIME respectively.  If not, see
  23:/usr/include/c++/9.1.0/ostream **** // <http://www.gnu.org/licenses/>.
GAS LISTING /tmp/cc6iEGVT.s 			page 27


  24:/usr/include/c++/9.1.0/ostream **** 
  25:/usr/include/c++/9.1.0/ostream **** /** @file include/ostream
  26:/usr/include/c++/9.1.0/ostream ****  *  This is a Standard C++ Library header.
  27:/usr/include/c++/9.1.0/ostream ****  */
  28:/usr/include/c++/9.1.0/ostream **** 
  29:/usr/include/c++/9.1.0/ostream **** //
  30:/usr/include/c++/9.1.0/ostream **** // ISO C++ 14882: 27.6.2  Output streams
  31:/usr/include/c++/9.1.0/ostream **** //
  32:/usr/include/c++/9.1.0/ostream **** 
  33:/usr/include/c++/9.1.0/ostream **** #ifndef _GLIBCXX_OSTREAM
  34:/usr/include/c++/9.1.0/ostream **** #define _GLIBCXX_OSTREAM 1
  35:/usr/include/c++/9.1.0/ostream **** 
  36:/usr/include/c++/9.1.0/ostream **** #pragma GCC system_header
  37:/usr/include/c++/9.1.0/ostream **** 
  38:/usr/include/c++/9.1.0/ostream **** #include <ios>
  39:/usr/include/c++/9.1.0/ostream **** #include <bits/ostream_insert.h>
  40:/usr/include/c++/9.1.0/ostream **** 
  41:/usr/include/c++/9.1.0/ostream **** namespace std _GLIBCXX_VISIBILITY(default)
  42:/usr/include/c++/9.1.0/ostream **** {
  43:/usr/include/c++/9.1.0/ostream **** _GLIBCXX_BEGIN_NAMESPACE_VERSION
  44:/usr/include/c++/9.1.0/ostream **** 
  45:/usr/include/c++/9.1.0/ostream ****   /**
  46:/usr/include/c++/9.1.0/ostream ****    *  @brief  Template class basic_ostream.
  47:/usr/include/c++/9.1.0/ostream ****    *  @ingroup io
  48:/usr/include/c++/9.1.0/ostream ****    *
  49:/usr/include/c++/9.1.0/ostream ****    *  @tparam _CharT  Type of character stream.
  50:/usr/include/c++/9.1.0/ostream ****    *  @tparam _Traits  Traits for character type, defaults to
  51:/usr/include/c++/9.1.0/ostream ****    *                   char_traits<_CharT>.
  52:/usr/include/c++/9.1.0/ostream ****    *
  53:/usr/include/c++/9.1.0/ostream ****    *  This is the base class for all output streams.  It provides text
  54:/usr/include/c++/9.1.0/ostream ****    *  formatting of all builtin types, and communicates with any class
  55:/usr/include/c++/9.1.0/ostream ****    *  derived from basic_streambuf to do the actual output.
  56:/usr/include/c++/9.1.0/ostream ****   */
  57:/usr/include/c++/9.1.0/ostream ****   template<typename _CharT, typename _Traits>
  58:/usr/include/c++/9.1.0/ostream ****     class basic_ostream : virtual public basic_ios<_CharT, _Traits>
  59:/usr/include/c++/9.1.0/ostream ****     {
  60:/usr/include/c++/9.1.0/ostream ****     public:
  61:/usr/include/c++/9.1.0/ostream ****       // Types (inherited from basic_ios):
  62:/usr/include/c++/9.1.0/ostream ****       typedef _CharT			 		char_type;
  63:/usr/include/c++/9.1.0/ostream ****       typedef typename _Traits::int_type 		int_type;
  64:/usr/include/c++/9.1.0/ostream ****       typedef typename _Traits::pos_type 		pos_type;
  65:/usr/include/c++/9.1.0/ostream ****       typedef typename _Traits::off_type 		off_type;
  66:/usr/include/c++/9.1.0/ostream ****       typedef _Traits			 		traits_type;
  67:/usr/include/c++/9.1.0/ostream **** 
  68:/usr/include/c++/9.1.0/ostream ****       // Non-standard Types:
  69:/usr/include/c++/9.1.0/ostream ****       typedef basic_streambuf<_CharT, _Traits> 		__streambuf_type;
  70:/usr/include/c++/9.1.0/ostream ****       typedef basic_ios<_CharT, _Traits>		__ios_type;
  71:/usr/include/c++/9.1.0/ostream ****       typedef basic_ostream<_CharT, _Traits>		__ostream_type;
  72:/usr/include/c++/9.1.0/ostream ****       typedef num_put<_CharT, ostreambuf_iterator<_CharT, _Traits> >
  73:/usr/include/c++/9.1.0/ostream ****       							__num_put_type;
  74:/usr/include/c++/9.1.0/ostream ****       typedef ctype<_CharT>	      			__ctype_type;
  75:/usr/include/c++/9.1.0/ostream **** 
  76:/usr/include/c++/9.1.0/ostream ****       /**
  77:/usr/include/c++/9.1.0/ostream ****        *  @brief  Base constructor.
  78:/usr/include/c++/9.1.0/ostream ****        *
  79:/usr/include/c++/9.1.0/ostream ****        *  This ctor is almost never called by the user directly, rather from
  80:/usr/include/c++/9.1.0/ostream ****        *  derived classes' initialization lists, which pass a pointer to
GAS LISTING /tmp/cc6iEGVT.s 			page 28


  81:/usr/include/c++/9.1.0/ostream ****        *  their own stream buffer.
  82:/usr/include/c++/9.1.0/ostream ****       */
  83:/usr/include/c++/9.1.0/ostream ****       explicit
  84:/usr/include/c++/9.1.0/ostream ****       basic_ostream(__streambuf_type* __sb)
  85:/usr/include/c++/9.1.0/ostream ****       { this->init(__sb); }
  86:/usr/include/c++/9.1.0/ostream **** 
  87:/usr/include/c++/9.1.0/ostream ****       /**
  88:/usr/include/c++/9.1.0/ostream ****        *  @brief  Base destructor.
  89:/usr/include/c++/9.1.0/ostream ****        *
  90:/usr/include/c++/9.1.0/ostream ****        *  This does very little apart from providing a virtual base dtor.
  91:/usr/include/c++/9.1.0/ostream ****       */
  92:/usr/include/c++/9.1.0/ostream ****       virtual
  93:/usr/include/c++/9.1.0/ostream ****       ~basic_ostream() { }
  94:/usr/include/c++/9.1.0/ostream **** 
  95:/usr/include/c++/9.1.0/ostream ****       /// Safe prefix/suffix operations.
  96:/usr/include/c++/9.1.0/ostream ****       class sentry;
  97:/usr/include/c++/9.1.0/ostream ****       friend class sentry;
  98:/usr/include/c++/9.1.0/ostream **** 
  99:/usr/include/c++/9.1.0/ostream ****       //@{
 100:/usr/include/c++/9.1.0/ostream ****       /**
 101:/usr/include/c++/9.1.0/ostream ****        *  @brief  Interface for manipulators.
 102:/usr/include/c++/9.1.0/ostream ****        *
 103:/usr/include/c++/9.1.0/ostream ****        *  Manipulators such as @c std::endl and @c std::hex use these
 104:/usr/include/c++/9.1.0/ostream ****        *  functions in constructs like "std::cout << std::endl".  For more
 105:/usr/include/c++/9.1.0/ostream ****        *  information, see the iomanip header.
 106:/usr/include/c++/9.1.0/ostream ****       */
 107:/usr/include/c++/9.1.0/ostream ****       __ostream_type&
 108:/usr/include/c++/9.1.0/ostream ****       operator<<(__ostream_type& (*__pf)(__ostream_type&))
 109:/usr/include/c++/9.1.0/ostream ****       {
 110:/usr/include/c++/9.1.0/ostream **** 	// _GLIBCXX_RESOLVE_LIB_DEFECTS
 111:/usr/include/c++/9.1.0/ostream **** 	// DR 60. What is a formatted input function?
 112:/usr/include/c++/9.1.0/ostream **** 	// The inserters for manipulators are *not* formatted output functions.
 113:/usr/include/c++/9.1.0/ostream **** 	return __pf(*this);
 114:/usr/include/c++/9.1.0/ostream ****       }
 115:/usr/include/c++/9.1.0/ostream **** 
 116:/usr/include/c++/9.1.0/ostream ****       __ostream_type&
 117:/usr/include/c++/9.1.0/ostream ****       operator<<(__ios_type& (*__pf)(__ios_type&))
 118:/usr/include/c++/9.1.0/ostream ****       {
 119:/usr/include/c++/9.1.0/ostream **** 	// _GLIBCXX_RESOLVE_LIB_DEFECTS
 120:/usr/include/c++/9.1.0/ostream **** 	// DR 60. What is a formatted input function?
 121:/usr/include/c++/9.1.0/ostream **** 	// The inserters for manipulators are *not* formatted output functions.
 122:/usr/include/c++/9.1.0/ostream **** 	__pf(*this);
 123:/usr/include/c++/9.1.0/ostream **** 	return *this;
 124:/usr/include/c++/9.1.0/ostream ****       }
 125:/usr/include/c++/9.1.0/ostream **** 
 126:/usr/include/c++/9.1.0/ostream ****       __ostream_type&
 127:/usr/include/c++/9.1.0/ostream ****       operator<<(ios_base& (*__pf) (ios_base&))
 128:/usr/include/c++/9.1.0/ostream ****       {
 129:/usr/include/c++/9.1.0/ostream **** 	// _GLIBCXX_RESOLVE_LIB_DEFECTS
 130:/usr/include/c++/9.1.0/ostream **** 	// DR 60. What is a formatted input function?
 131:/usr/include/c++/9.1.0/ostream **** 	// The inserters for manipulators are *not* formatted output functions.
 132:/usr/include/c++/9.1.0/ostream **** 	__pf(*this);
 133:/usr/include/c++/9.1.0/ostream **** 	return *this;
 134:/usr/include/c++/9.1.0/ostream ****       }
 135:/usr/include/c++/9.1.0/ostream ****       //@}
 136:/usr/include/c++/9.1.0/ostream **** 
 137:/usr/include/c++/9.1.0/ostream ****       //@{
GAS LISTING /tmp/cc6iEGVT.s 			page 29


 138:/usr/include/c++/9.1.0/ostream ****       /**
 139:/usr/include/c++/9.1.0/ostream ****        *  @name Inserters
 140:/usr/include/c++/9.1.0/ostream ****        *
 141:/usr/include/c++/9.1.0/ostream ****        *  All the @c operator<< functions (aka <em>formatted output
 142:/usr/include/c++/9.1.0/ostream ****        *  functions</em>) have some common behavior.  Each starts by
 143:/usr/include/c++/9.1.0/ostream ****        *  constructing a temporary object of type std::basic_ostream::sentry.
 144:/usr/include/c++/9.1.0/ostream ****        *  This can have several effects, concluding with the setting of a
 145:/usr/include/c++/9.1.0/ostream ****        *  status flag; see the sentry documentation for more.
 146:/usr/include/c++/9.1.0/ostream ****        *
 147:/usr/include/c++/9.1.0/ostream ****        *  If the sentry status is good, the function tries to generate
 148:/usr/include/c++/9.1.0/ostream ****        *  whatever data is appropriate for the type of the argument.
 149:/usr/include/c++/9.1.0/ostream ****        *
 150:/usr/include/c++/9.1.0/ostream ****        *  If an exception is thrown during insertion, ios_base::badbit
 151:/usr/include/c++/9.1.0/ostream ****        *  will be turned on in the stream's error state without causing an
 152:/usr/include/c++/9.1.0/ostream ****        *  ios_base::failure to be thrown.  The original exception will then
 153:/usr/include/c++/9.1.0/ostream ****        *  be rethrown.
 154:/usr/include/c++/9.1.0/ostream ****       */
 155:/usr/include/c++/9.1.0/ostream **** 
 156:/usr/include/c++/9.1.0/ostream ****       //@{
 157:/usr/include/c++/9.1.0/ostream ****       /**
 158:/usr/include/c++/9.1.0/ostream ****        *  @brief Integer arithmetic inserters
 159:/usr/include/c++/9.1.0/ostream ****        *  @param  __n A variable of builtin integral type.
 160:/usr/include/c++/9.1.0/ostream ****        *  @return  @c *this if successful
 161:/usr/include/c++/9.1.0/ostream ****        *
 162:/usr/include/c++/9.1.0/ostream ****        *  These functions use the stream's current locale (specifically, the
 163:/usr/include/c++/9.1.0/ostream ****        *  @c num_get facet) to perform numeric formatting.
 164:/usr/include/c++/9.1.0/ostream ****       */
 165:/usr/include/c++/9.1.0/ostream ****       __ostream_type&
 166:/usr/include/c++/9.1.0/ostream ****       operator<<(long __n)
 167:/usr/include/c++/9.1.0/ostream ****       { return _M_insert(__n); }
 168:/usr/include/c++/9.1.0/ostream **** 
 169:/usr/include/c++/9.1.0/ostream ****       __ostream_type&
 170:/usr/include/c++/9.1.0/ostream ****       operator<<(unsigned long __n)
 171:/usr/include/c++/9.1.0/ostream ****       { return _M_insert(__n); }
 172:/usr/include/c++/9.1.0/ostream **** 
 173:/usr/include/c++/9.1.0/ostream ****       __ostream_type&
 174:/usr/include/c++/9.1.0/ostream ****       operator<<(bool __n)
 175:/usr/include/c++/9.1.0/ostream ****       { return _M_insert(__n); }
 176:/usr/include/c++/9.1.0/ostream **** 
 177:/usr/include/c++/9.1.0/ostream ****       __ostream_type&
 178:/usr/include/c++/9.1.0/ostream ****       operator<<(short __n);
 179:/usr/include/c++/9.1.0/ostream **** 
 180:/usr/include/c++/9.1.0/ostream ****       __ostream_type&
 181:/usr/include/c++/9.1.0/ostream ****       operator<<(unsigned short __n)
 182:/usr/include/c++/9.1.0/ostream ****       {
 183:/usr/include/c++/9.1.0/ostream **** 	// _GLIBCXX_RESOLVE_LIB_DEFECTS
 184:/usr/include/c++/9.1.0/ostream **** 	// 117. basic_ostream uses nonexistent num_put member functions.
 185:/usr/include/c++/9.1.0/ostream **** 	return _M_insert(static_cast<unsigned long>(__n));
 186:/usr/include/c++/9.1.0/ostream ****       }
 187:/usr/include/c++/9.1.0/ostream **** 
 188:/usr/include/c++/9.1.0/ostream ****       __ostream_type&
 189:/usr/include/c++/9.1.0/ostream ****       operator<<(int __n);
 190:/usr/include/c++/9.1.0/ostream **** 
 191:/usr/include/c++/9.1.0/ostream ****       __ostream_type&
 192:/usr/include/c++/9.1.0/ostream ****       operator<<(unsigned int __n)
 193:/usr/include/c++/9.1.0/ostream ****       {
 194:/usr/include/c++/9.1.0/ostream **** 	// _GLIBCXX_RESOLVE_LIB_DEFECTS
GAS LISTING /tmp/cc6iEGVT.s 			page 30


 195:/usr/include/c++/9.1.0/ostream **** 	// 117. basic_ostream uses nonexistent num_put member functions.
 196:/usr/include/c++/9.1.0/ostream **** 	return _M_insert(static_cast<unsigned long>(__n));
 197:/usr/include/c++/9.1.0/ostream ****       }
 198:/usr/include/c++/9.1.0/ostream **** 
 199:/usr/include/c++/9.1.0/ostream **** #ifdef _GLIBCXX_USE_LONG_LONG
 200:/usr/include/c++/9.1.0/ostream ****       __ostream_type&
 201:/usr/include/c++/9.1.0/ostream ****       operator<<(long long __n)
 202:/usr/include/c++/9.1.0/ostream ****       { return _M_insert(__n); }
 203:/usr/include/c++/9.1.0/ostream **** 
 204:/usr/include/c++/9.1.0/ostream ****       __ostream_type&
 205:/usr/include/c++/9.1.0/ostream ****       operator<<(unsigned long long __n)
 206:/usr/include/c++/9.1.0/ostream ****       { return _M_insert(__n); }
 207:/usr/include/c++/9.1.0/ostream **** #endif
 208:/usr/include/c++/9.1.0/ostream ****       //@}
 209:/usr/include/c++/9.1.0/ostream **** 
 210:/usr/include/c++/9.1.0/ostream ****       //@{
 211:/usr/include/c++/9.1.0/ostream ****       /**
 212:/usr/include/c++/9.1.0/ostream ****        *  @brief  Floating point arithmetic inserters
 213:/usr/include/c++/9.1.0/ostream ****        *  @param  __f A variable of builtin floating point type.
 214:/usr/include/c++/9.1.0/ostream ****        *  @return  @c *this if successful
 215:/usr/include/c++/9.1.0/ostream ****        *
 216:/usr/include/c++/9.1.0/ostream ****        *  These functions use the stream's current locale (specifically, the
 217:/usr/include/c++/9.1.0/ostream ****        *  @c num_get facet) to perform numeric formatting.
 218:/usr/include/c++/9.1.0/ostream ****       */
 219:/usr/include/c++/9.1.0/ostream ****       __ostream_type&
 220:/usr/include/c++/9.1.0/ostream ****       operator<<(double __f)
 221:/usr/include/c++/9.1.0/ostream ****       { return _M_insert(__f); }
 222:/usr/include/c++/9.1.0/ostream **** 
 223:/usr/include/c++/9.1.0/ostream ****       __ostream_type&
 224:/usr/include/c++/9.1.0/ostream ****       operator<<(float __f)
 225:/usr/include/c++/9.1.0/ostream ****       {
 226:/usr/include/c++/9.1.0/ostream **** 	// _GLIBCXX_RESOLVE_LIB_DEFECTS
 227:/usr/include/c++/9.1.0/ostream **** 	// 117. basic_ostream uses nonexistent num_put member functions.
 228:/usr/include/c++/9.1.0/ostream **** 	return _M_insert(static_cast<double>(__f));
 229:/usr/include/c++/9.1.0/ostream ****       }
 230:/usr/include/c++/9.1.0/ostream **** 
 231:/usr/include/c++/9.1.0/ostream ****       __ostream_type&
 232:/usr/include/c++/9.1.0/ostream ****       operator<<(long double __f)
 233:/usr/include/c++/9.1.0/ostream ****       { return _M_insert(__f); }
 234:/usr/include/c++/9.1.0/ostream ****       //@}
 235:/usr/include/c++/9.1.0/ostream **** 
 236:/usr/include/c++/9.1.0/ostream ****       /**
 237:/usr/include/c++/9.1.0/ostream ****        *  @brief  Pointer arithmetic inserters
 238:/usr/include/c++/9.1.0/ostream ****        *  @param  __p A variable of pointer type.
 239:/usr/include/c++/9.1.0/ostream ****        *  @return  @c *this if successful
 240:/usr/include/c++/9.1.0/ostream ****        *
 241:/usr/include/c++/9.1.0/ostream ****        *  These functions use the stream's current locale (specifically, the
 242:/usr/include/c++/9.1.0/ostream ****        *  @c num_get facet) to perform numeric formatting.
 243:/usr/include/c++/9.1.0/ostream ****       */
 244:/usr/include/c++/9.1.0/ostream ****       __ostream_type&
 245:/usr/include/c++/9.1.0/ostream ****       operator<<(const void* __p)
 246:/usr/include/c++/9.1.0/ostream ****       { return _M_insert(__p); }
 247:/usr/include/c++/9.1.0/ostream **** 
 248:/usr/include/c++/9.1.0/ostream **** #if __cplusplus >= 201703L
 249:/usr/include/c++/9.1.0/ostream ****       __ostream_type&
 250:/usr/include/c++/9.1.0/ostream ****       operator<<(nullptr_t)
 251:/usr/include/c++/9.1.0/ostream ****       { return *this << "nullptr"; }
GAS LISTING /tmp/cc6iEGVT.s 			page 31


 252:/usr/include/c++/9.1.0/ostream **** #endif
 253:/usr/include/c++/9.1.0/ostream **** 
 254:/usr/include/c++/9.1.0/ostream ****       /**
 255:/usr/include/c++/9.1.0/ostream ****        *  @brief  Extracting from another streambuf.
 256:/usr/include/c++/9.1.0/ostream ****        *  @param  __sb  A pointer to a streambuf
 257:/usr/include/c++/9.1.0/ostream ****        *
 258:/usr/include/c++/9.1.0/ostream ****        *  This function behaves like one of the basic arithmetic extractors,
 259:/usr/include/c++/9.1.0/ostream ****        *  in that it also constructs a sentry object and has the same error
 260:/usr/include/c++/9.1.0/ostream ****        *  handling behavior.
 261:/usr/include/c++/9.1.0/ostream ****        *
 262:/usr/include/c++/9.1.0/ostream ****        *  If @p __sb is NULL, the stream will set failbit in its error state.
 263:/usr/include/c++/9.1.0/ostream ****        *
 264:/usr/include/c++/9.1.0/ostream ****        *  Characters are extracted from @p __sb and inserted into @c *this
 265:/usr/include/c++/9.1.0/ostream ****        *  until one of the following occurs:
 266:/usr/include/c++/9.1.0/ostream ****        *
 267:/usr/include/c++/9.1.0/ostream ****        *  - the input stream reaches end-of-file,
 268:/usr/include/c++/9.1.0/ostream ****        *  - insertion into the output sequence fails (in this case, the
 269:/usr/include/c++/9.1.0/ostream ****        *    character that would have been inserted is not extracted), or
 270:/usr/include/c++/9.1.0/ostream ****        *  - an exception occurs while getting a character from @p __sb, which
 271:/usr/include/c++/9.1.0/ostream ****        *    sets failbit in the error state
 272:/usr/include/c++/9.1.0/ostream ****        *
 273:/usr/include/c++/9.1.0/ostream ****        *  If the function inserts no characters, failbit is set.
 274:/usr/include/c++/9.1.0/ostream ****       */
 275:/usr/include/c++/9.1.0/ostream ****       __ostream_type&
 276:/usr/include/c++/9.1.0/ostream ****       operator<<(__streambuf_type* __sb);
 277:/usr/include/c++/9.1.0/ostream ****       //@}
 278:/usr/include/c++/9.1.0/ostream **** 
 279:/usr/include/c++/9.1.0/ostream ****       //@{
 280:/usr/include/c++/9.1.0/ostream ****       /**
 281:/usr/include/c++/9.1.0/ostream ****        *  @name Unformatted Output Functions
 282:/usr/include/c++/9.1.0/ostream ****        *
 283:/usr/include/c++/9.1.0/ostream ****        *  All the unformatted output functions have some common behavior.
 284:/usr/include/c++/9.1.0/ostream ****        *  Each starts by constructing a temporary object of type
 285:/usr/include/c++/9.1.0/ostream ****        *  std::basic_ostream::sentry.  This has several effects, concluding
 286:/usr/include/c++/9.1.0/ostream ****        *  with the setting of a status flag; see the sentry documentation
 287:/usr/include/c++/9.1.0/ostream ****        *  for more.
 288:/usr/include/c++/9.1.0/ostream ****        *
 289:/usr/include/c++/9.1.0/ostream ****        *  If the sentry status is good, the function tries to generate
 290:/usr/include/c++/9.1.0/ostream ****        *  whatever data is appropriate for the type of the argument.
 291:/usr/include/c++/9.1.0/ostream ****        *
 292:/usr/include/c++/9.1.0/ostream ****        *  If an exception is thrown during insertion, ios_base::badbit
 293:/usr/include/c++/9.1.0/ostream ****        *  will be turned on in the stream's error state.  If badbit is on in
 294:/usr/include/c++/9.1.0/ostream ****        *  the stream's exceptions mask, the exception will be rethrown
 295:/usr/include/c++/9.1.0/ostream ****        *  without completing its actions.
 296:/usr/include/c++/9.1.0/ostream ****       */
 297:/usr/include/c++/9.1.0/ostream **** 
 298:/usr/include/c++/9.1.0/ostream ****       /**
 299:/usr/include/c++/9.1.0/ostream ****        *  @brief  Simple insertion.
 300:/usr/include/c++/9.1.0/ostream ****        *  @param  __c  The character to insert.
 301:/usr/include/c++/9.1.0/ostream ****        *  @return  *this
 302:/usr/include/c++/9.1.0/ostream ****        *
 303:/usr/include/c++/9.1.0/ostream ****        *  Tries to insert @p __c.
 304:/usr/include/c++/9.1.0/ostream ****        *
 305:/usr/include/c++/9.1.0/ostream ****        *  @note  This function is not overloaded on signed char and
 306:/usr/include/c++/9.1.0/ostream ****        *         unsigned char.
 307:/usr/include/c++/9.1.0/ostream ****       */
 308:/usr/include/c++/9.1.0/ostream ****       __ostream_type&
GAS LISTING /tmp/cc6iEGVT.s 			page 32


 309:/usr/include/c++/9.1.0/ostream ****       put(char_type __c);
 310:/usr/include/c++/9.1.0/ostream **** 
 311:/usr/include/c++/9.1.0/ostream ****       /**
 312:/usr/include/c++/9.1.0/ostream ****        *  @brief  Core write functionality, without sentry.
 313:/usr/include/c++/9.1.0/ostream ****        *  @param  __s  The array to insert.
 314:/usr/include/c++/9.1.0/ostream ****        *  @param  __n  Maximum number of characters to insert.
 315:/usr/include/c++/9.1.0/ostream ****       */
 316:/usr/include/c++/9.1.0/ostream ****       void
 317:/usr/include/c++/9.1.0/ostream ****       _M_write(const char_type* __s, streamsize __n)
 318:/usr/include/c++/9.1.0/ostream ****       {
 319:/usr/include/c++/9.1.0/ostream **** 	const streamsize __put = this->rdbuf()->sputn(__s, __n);
 320:/usr/include/c++/9.1.0/ostream **** 	if (__put != __n)
 321:/usr/include/c++/9.1.0/ostream **** 	  this->setstate(ios_base::badbit);
 322:/usr/include/c++/9.1.0/ostream ****       }
 323:/usr/include/c++/9.1.0/ostream **** 
 324:/usr/include/c++/9.1.0/ostream ****       /**
 325:/usr/include/c++/9.1.0/ostream ****        *  @brief  Character string insertion.
 326:/usr/include/c++/9.1.0/ostream ****        *  @param  __s  The array to insert.
 327:/usr/include/c++/9.1.0/ostream ****        *  @param  __n  Maximum number of characters to insert.
 328:/usr/include/c++/9.1.0/ostream ****        *  @return  *this
 329:/usr/include/c++/9.1.0/ostream ****        *
 330:/usr/include/c++/9.1.0/ostream ****        *  Characters are copied from @p __s and inserted into the stream until
 331:/usr/include/c++/9.1.0/ostream ****        *  one of the following happens:
 332:/usr/include/c++/9.1.0/ostream ****        *
 333:/usr/include/c++/9.1.0/ostream ****        *  - @p __n characters are inserted
 334:/usr/include/c++/9.1.0/ostream ****        *  - inserting into the output sequence fails (in this case, badbit
 335:/usr/include/c++/9.1.0/ostream ****        *    will be set in the stream's error state)
 336:/usr/include/c++/9.1.0/ostream ****        *
 337:/usr/include/c++/9.1.0/ostream ****        *  @note  This function is not overloaded on signed char and
 338:/usr/include/c++/9.1.0/ostream ****        *         unsigned char.
 339:/usr/include/c++/9.1.0/ostream ****       */
 340:/usr/include/c++/9.1.0/ostream ****       __ostream_type&
 341:/usr/include/c++/9.1.0/ostream ****       write(const char_type* __s, streamsize __n);
 342:/usr/include/c++/9.1.0/ostream ****       //@}
 343:/usr/include/c++/9.1.0/ostream **** 
 344:/usr/include/c++/9.1.0/ostream ****       /**
 345:/usr/include/c++/9.1.0/ostream ****        *  @brief  Synchronizing the stream buffer.
 346:/usr/include/c++/9.1.0/ostream ****        *  @return  *this
 347:/usr/include/c++/9.1.0/ostream ****        *
 348:/usr/include/c++/9.1.0/ostream ****        *  If @c rdbuf() is a null pointer, changes nothing.
 349:/usr/include/c++/9.1.0/ostream ****        *
 350:/usr/include/c++/9.1.0/ostream ****        *  Otherwise, calls @c rdbuf()->pubsync(), and if that returns -1,
 351:/usr/include/c++/9.1.0/ostream ****        *  sets badbit.
 352:/usr/include/c++/9.1.0/ostream ****       */
 353:/usr/include/c++/9.1.0/ostream ****       __ostream_type&
 354:/usr/include/c++/9.1.0/ostream ****       flush();
 355:/usr/include/c++/9.1.0/ostream **** 
 356:/usr/include/c++/9.1.0/ostream ****       /**
 357:/usr/include/c++/9.1.0/ostream ****        *  @brief  Getting the current write position.
 358:/usr/include/c++/9.1.0/ostream ****        *  @return  A file position object.
 359:/usr/include/c++/9.1.0/ostream ****        *
 360:/usr/include/c++/9.1.0/ostream ****        *  If @c fail() is not false, returns @c pos_type(-1) to indicate
 361:/usr/include/c++/9.1.0/ostream ****        *  failure.  Otherwise returns @c rdbuf()->pubseekoff(0,cur,out).
 362:/usr/include/c++/9.1.0/ostream ****       */
 363:/usr/include/c++/9.1.0/ostream ****       pos_type
 364:/usr/include/c++/9.1.0/ostream ****       tellp();
 365:/usr/include/c++/9.1.0/ostream **** 
GAS LISTING /tmp/cc6iEGVT.s 			page 33


 366:/usr/include/c++/9.1.0/ostream ****       /**
 367:/usr/include/c++/9.1.0/ostream ****        *  @brief  Changing the current write position.
 368:/usr/include/c++/9.1.0/ostream ****        *  @param  __pos  A file position object.
 369:/usr/include/c++/9.1.0/ostream ****        *  @return  *this
 370:/usr/include/c++/9.1.0/ostream ****        *
 371:/usr/include/c++/9.1.0/ostream ****        *  If @c fail() is not true, calls @c rdbuf()->pubseekpos(pos).  If
 372:/usr/include/c++/9.1.0/ostream ****        *  that function fails, sets failbit.
 373:/usr/include/c++/9.1.0/ostream ****       */
 374:/usr/include/c++/9.1.0/ostream ****       __ostream_type&
 375:/usr/include/c++/9.1.0/ostream ****       seekp(pos_type);
 376:/usr/include/c++/9.1.0/ostream **** 
 377:/usr/include/c++/9.1.0/ostream ****       /**
 378:/usr/include/c++/9.1.0/ostream ****        *  @brief  Changing the current write position.
 379:/usr/include/c++/9.1.0/ostream ****        *  @param  __off  A file offset object.
 380:/usr/include/c++/9.1.0/ostream ****        *  @param  __dir  The direction in which to seek.
 381:/usr/include/c++/9.1.0/ostream ****        *  @return  *this
 382:/usr/include/c++/9.1.0/ostream ****        *
 383:/usr/include/c++/9.1.0/ostream ****        *  If @c fail() is not true, calls @c rdbuf()->pubseekoff(off,dir).
 384:/usr/include/c++/9.1.0/ostream ****        *  If that function fails, sets failbit.
 385:/usr/include/c++/9.1.0/ostream ****       */
 386:/usr/include/c++/9.1.0/ostream ****        __ostream_type&
 387:/usr/include/c++/9.1.0/ostream ****       seekp(off_type, ios_base::seekdir);
 388:/usr/include/c++/9.1.0/ostream **** 
 389:/usr/include/c++/9.1.0/ostream ****     protected:
 390:/usr/include/c++/9.1.0/ostream ****       basic_ostream()
 391:/usr/include/c++/9.1.0/ostream ****       { this->init(0); }
 392:/usr/include/c++/9.1.0/ostream **** 
 393:/usr/include/c++/9.1.0/ostream **** #if __cplusplus >= 201103L
 394:/usr/include/c++/9.1.0/ostream ****       // Non-standard constructor that does not call init()
 395:/usr/include/c++/9.1.0/ostream ****       basic_ostream(basic_iostream<_CharT, _Traits>&) { }
 396:/usr/include/c++/9.1.0/ostream **** 
 397:/usr/include/c++/9.1.0/ostream ****       basic_ostream(const basic_ostream&) = delete;
 398:/usr/include/c++/9.1.0/ostream **** 
 399:/usr/include/c++/9.1.0/ostream ****       basic_ostream(basic_ostream&& __rhs)
 400:/usr/include/c++/9.1.0/ostream ****       : __ios_type()
 401:/usr/include/c++/9.1.0/ostream ****       { __ios_type::move(__rhs); }
 402:/usr/include/c++/9.1.0/ostream **** 
 403:/usr/include/c++/9.1.0/ostream ****       // 27.7.3.3 Assign/swap
 404:/usr/include/c++/9.1.0/ostream **** 
 405:/usr/include/c++/9.1.0/ostream ****       basic_ostream& operator=(const basic_ostream&) = delete;
 406:/usr/include/c++/9.1.0/ostream **** 
 407:/usr/include/c++/9.1.0/ostream ****       basic_ostream&
 408:/usr/include/c++/9.1.0/ostream ****       operator=(basic_ostream&& __rhs)
 409:/usr/include/c++/9.1.0/ostream ****       {
 410:/usr/include/c++/9.1.0/ostream **** 	swap(__rhs);
 411:/usr/include/c++/9.1.0/ostream **** 	return *this;
 412:/usr/include/c++/9.1.0/ostream ****       }
 413:/usr/include/c++/9.1.0/ostream **** 
 414:/usr/include/c++/9.1.0/ostream ****       void
 415:/usr/include/c++/9.1.0/ostream ****       swap(basic_ostream& __rhs)
 416:/usr/include/c++/9.1.0/ostream ****       { __ios_type::swap(__rhs); }
 417:/usr/include/c++/9.1.0/ostream **** #endif
 418:/usr/include/c++/9.1.0/ostream **** 
 419:/usr/include/c++/9.1.0/ostream ****       template<typename _ValueT>
 420:/usr/include/c++/9.1.0/ostream **** 	__ostream_type&
 421:/usr/include/c++/9.1.0/ostream **** 	_M_insert(_ValueT __v);
 422:/usr/include/c++/9.1.0/ostream ****     };
GAS LISTING /tmp/cc6iEGVT.s 			page 34


 423:/usr/include/c++/9.1.0/ostream **** 
 424:/usr/include/c++/9.1.0/ostream ****   /**
 425:/usr/include/c++/9.1.0/ostream ****    *  @brief  Performs setup work for output streams.
 426:/usr/include/c++/9.1.0/ostream ****    *
 427:/usr/include/c++/9.1.0/ostream ****    *  Objects of this class are created before all of the standard
 428:/usr/include/c++/9.1.0/ostream ****    *  inserters are run.  It is responsible for <em>exception-safe prefix and
 429:/usr/include/c++/9.1.0/ostream ****    *  suffix operations</em>.
 430:/usr/include/c++/9.1.0/ostream ****   */
 431:/usr/include/c++/9.1.0/ostream ****   template <typename _CharT, typename _Traits>
 432:/usr/include/c++/9.1.0/ostream ****     class basic_ostream<_CharT, _Traits>::sentry
 433:/usr/include/c++/9.1.0/ostream ****     {
 434:/usr/include/c++/9.1.0/ostream ****       // Data Members.
 435:/usr/include/c++/9.1.0/ostream ****       bool 				_M_ok;
 436:/usr/include/c++/9.1.0/ostream ****       basic_ostream<_CharT, _Traits>& 	_M_os;
 437:/usr/include/c++/9.1.0/ostream **** 
 438:/usr/include/c++/9.1.0/ostream ****     public:
 439:/usr/include/c++/9.1.0/ostream ****       /**
 440:/usr/include/c++/9.1.0/ostream ****        *  @brief  The constructor performs preparatory work.
 441:/usr/include/c++/9.1.0/ostream ****        *  @param  __os  The output stream to guard.
 442:/usr/include/c++/9.1.0/ostream ****        *
 443:/usr/include/c++/9.1.0/ostream ****        *  If the stream state is good (@a __os.good() is true), then if the
 444:/usr/include/c++/9.1.0/ostream ****        *  stream is tied to another output stream, @c is.tie()->flush()
 445:/usr/include/c++/9.1.0/ostream ****        *  is called to synchronize the output sequences.
 446:/usr/include/c++/9.1.0/ostream ****        *
 447:/usr/include/c++/9.1.0/ostream ****        *  If the stream state is still good, then the sentry state becomes
 448:/usr/include/c++/9.1.0/ostream ****        *  true (@a okay).
 449:/usr/include/c++/9.1.0/ostream ****       */
 450:/usr/include/c++/9.1.0/ostream ****       explicit
 451:/usr/include/c++/9.1.0/ostream ****       sentry(basic_ostream<_CharT, _Traits>& __os);
 452:/usr/include/c++/9.1.0/ostream **** 
 453:/usr/include/c++/9.1.0/ostream **** #pragma GCC diagnostic push
 454:/usr/include/c++/9.1.0/ostream **** #pragma GCC diagnostic ignored "-Wdeprecated-declarations"
 455:/usr/include/c++/9.1.0/ostream ****       /**
 456:/usr/include/c++/9.1.0/ostream ****        *  @brief  Possibly flushes the stream.
 457:/usr/include/c++/9.1.0/ostream ****        *
 458:/usr/include/c++/9.1.0/ostream ****        *  If @c ios_base::unitbuf is set in @c os.flags(), and
 459:/usr/include/c++/9.1.0/ostream ****        *  @c std::uncaught_exception() is true, the sentry destructor calls
 460:/usr/include/c++/9.1.0/ostream ****        *  @c flush() on the output stream.
 461:/usr/include/c++/9.1.0/ostream ****       */
 462:/usr/include/c++/9.1.0/ostream ****       ~sentry()
 463:/usr/include/c++/9.1.0/ostream ****       {
 464:/usr/include/c++/9.1.0/ostream **** 	// XXX MT
 465:/usr/include/c++/9.1.0/ostream **** 	if (bool(_M_os.flags() & ios_base::unitbuf) && !uncaught_exception())
 466:/usr/include/c++/9.1.0/ostream **** 	  {
 467:/usr/include/c++/9.1.0/ostream **** 	    // Can't call flush directly or else will get into recursive lock.
 468:/usr/include/c++/9.1.0/ostream **** 	    if (_M_os.rdbuf() && _M_os.rdbuf()->pubsync() == -1)
 469:/usr/include/c++/9.1.0/ostream **** 	      _M_os.setstate(ios_base::badbit);
 470:/usr/include/c++/9.1.0/ostream **** 	  }
 471:/usr/include/c++/9.1.0/ostream ****       }
 472:/usr/include/c++/9.1.0/ostream **** #pragma GCC diagnostic pop
 473:/usr/include/c++/9.1.0/ostream **** 
 474:/usr/include/c++/9.1.0/ostream ****       /**
 475:/usr/include/c++/9.1.0/ostream ****        *  @brief  Quick status checking.
 476:/usr/include/c++/9.1.0/ostream ****        *  @return  The sentry state.
 477:/usr/include/c++/9.1.0/ostream ****        *
 478:/usr/include/c++/9.1.0/ostream ****        *  For ease of use, sentries may be converted to booleans.  The
 479:/usr/include/c++/9.1.0/ostream ****        *  return value is that of the sentry state (true == okay).
GAS LISTING /tmp/cc6iEGVT.s 			page 35


 480:/usr/include/c++/9.1.0/ostream ****       */
 481:/usr/include/c++/9.1.0/ostream **** #if __cplusplus >= 201103L
 482:/usr/include/c++/9.1.0/ostream ****       explicit
 483:/usr/include/c++/9.1.0/ostream **** #endif
 484:/usr/include/c++/9.1.0/ostream ****       operator bool() const
 485:/usr/include/c++/9.1.0/ostream ****       { return _M_ok; }
 486:/usr/include/c++/9.1.0/ostream ****     };
 487:/usr/include/c++/9.1.0/ostream **** 
 488:/usr/include/c++/9.1.0/ostream ****   //@{
 489:/usr/include/c++/9.1.0/ostream ****   /**
 490:/usr/include/c++/9.1.0/ostream ****    *  @brief  Character inserters
 491:/usr/include/c++/9.1.0/ostream ****    *  @param  __out  An output stream.
 492:/usr/include/c++/9.1.0/ostream ****    *  @param  __c  A character.
 493:/usr/include/c++/9.1.0/ostream ****    *  @return  out
 494:/usr/include/c++/9.1.0/ostream ****    *
 495:/usr/include/c++/9.1.0/ostream ****    *  Behaves like one of the formatted arithmetic inserters described in
 496:/usr/include/c++/9.1.0/ostream ****    *  std::basic_ostream.  After constructing a sentry object with good
 497:/usr/include/c++/9.1.0/ostream ****    *  status, this function inserts a single character and any required
 498:/usr/include/c++/9.1.0/ostream ****    *  padding (as determined by [22.2.2.2.2]).  @c __out.width(0) is then
 499:/usr/include/c++/9.1.0/ostream ****    *  called.
 500:/usr/include/c++/9.1.0/ostream ****    *
 501:/usr/include/c++/9.1.0/ostream ****    *  If @p __c is of type @c char and the character type of the stream is not
 502:/usr/include/c++/9.1.0/ostream ****    *  @c char, the character is widened before insertion.
 503:/usr/include/c++/9.1.0/ostream ****   */
 504:/usr/include/c++/9.1.0/ostream ****   template<typename _CharT, typename _Traits>
 505:/usr/include/c++/9.1.0/ostream ****     inline basic_ostream<_CharT, _Traits>&
 506:/usr/include/c++/9.1.0/ostream ****     operator<<(basic_ostream<_CharT, _Traits>& __out, _CharT __c)
 507:/usr/include/c++/9.1.0/ostream ****     { return __ostream_insert(__out, &__c, 1); }
 508:/usr/include/c++/9.1.0/ostream **** 
 509:/usr/include/c++/9.1.0/ostream ****   template<typename _CharT, typename _Traits>
 510:/usr/include/c++/9.1.0/ostream ****     inline basic_ostream<_CharT, _Traits>&
 511:/usr/include/c++/9.1.0/ostream ****     operator<<(basic_ostream<_CharT, _Traits>& __out, char __c)
 512:/usr/include/c++/9.1.0/ostream ****     { return (__out << __out.widen(__c)); }
 513:/usr/include/c++/9.1.0/ostream **** 
 514:/usr/include/c++/9.1.0/ostream ****   // Specialization
 515:/usr/include/c++/9.1.0/ostream ****   template <class _Traits>
 516:/usr/include/c++/9.1.0/ostream ****     inline basic_ostream<char, _Traits>&
 517:/usr/include/c++/9.1.0/ostream ****     operator<<(basic_ostream<char, _Traits>& __out, char __c)
 518:/usr/include/c++/9.1.0/ostream ****     { return __ostream_insert(__out, &__c, 1); }
 519:/usr/include/c++/9.1.0/ostream **** 
 520:/usr/include/c++/9.1.0/ostream ****   // Signed and unsigned
 521:/usr/include/c++/9.1.0/ostream ****   template<class _Traits>
 522:/usr/include/c++/9.1.0/ostream ****     inline basic_ostream<char, _Traits>&
 523:/usr/include/c++/9.1.0/ostream ****     operator<<(basic_ostream<char, _Traits>& __out, signed char __c)
 524:/usr/include/c++/9.1.0/ostream ****     { return (__out << static_cast<char>(__c)); }
 525:/usr/include/c++/9.1.0/ostream **** 
 526:/usr/include/c++/9.1.0/ostream ****   template<class _Traits>
 527:/usr/include/c++/9.1.0/ostream ****     inline basic_ostream<char, _Traits>&
 528:/usr/include/c++/9.1.0/ostream ****     operator<<(basic_ostream<char, _Traits>& __out, unsigned char __c)
 529:/usr/include/c++/9.1.0/ostream ****     { return (__out << static_cast<char>(__c)); }
 530:/usr/include/c++/9.1.0/ostream ****   //@}
 531:/usr/include/c++/9.1.0/ostream **** 
 532:/usr/include/c++/9.1.0/ostream ****   //@{
 533:/usr/include/c++/9.1.0/ostream ****   /**
 534:/usr/include/c++/9.1.0/ostream ****    *  @brief  String inserters
 535:/usr/include/c++/9.1.0/ostream ****    *  @param  __out  An output stream.
 536:/usr/include/c++/9.1.0/ostream ****    *  @param  __s  A character string.
GAS LISTING /tmp/cc6iEGVT.s 			page 36


 537:/usr/include/c++/9.1.0/ostream ****    *  @return  out
 538:/usr/include/c++/9.1.0/ostream ****    *  @pre  @p __s must be a non-NULL pointer
 539:/usr/include/c++/9.1.0/ostream ****    *
 540:/usr/include/c++/9.1.0/ostream ****    *  Behaves like one of the formatted arithmetic inserters described in
 541:/usr/include/c++/9.1.0/ostream ****    *  std::basic_ostream.  After constructing a sentry object with good
 542:/usr/include/c++/9.1.0/ostream ****    *  status, this function inserts @c traits::length(__s) characters starting
 543:/usr/include/c++/9.1.0/ostream ****    *  at @p __s, widened if necessary, followed by any required padding (as
 544:/usr/include/c++/9.1.0/ostream ****    *  determined by [22.2.2.2.2]).  @c __out.width(0) is then called.
 545:/usr/include/c++/9.1.0/ostream ****   */
 546:/usr/include/c++/9.1.0/ostream ****   template<typename _CharT, typename _Traits>
 547:/usr/include/c++/9.1.0/ostream ****     inline basic_ostream<_CharT, _Traits>&
 548:/usr/include/c++/9.1.0/ostream ****     operator<<(basic_ostream<_CharT, _Traits>& __out, const _CharT* __s)
 549:/usr/include/c++/9.1.0/ostream ****     {
 550:/usr/include/c++/9.1.0/ostream ****       if (!__s)
 551:/usr/include/c++/9.1.0/ostream **** 	__out.setstate(ios_base::badbit);
 552:/usr/include/c++/9.1.0/ostream ****       else
 553:/usr/include/c++/9.1.0/ostream **** 	__ostream_insert(__out, __s,
 554:/usr/include/c++/9.1.0/ostream **** 			 static_cast<streamsize>(_Traits::length(__s)));
 555:/usr/include/c++/9.1.0/ostream ****       return __out;
 556:/usr/include/c++/9.1.0/ostream ****     }
 557:/usr/include/c++/9.1.0/ostream **** 
 558:/usr/include/c++/9.1.0/ostream ****   template<typename _CharT, typename _Traits>
 559:/usr/include/c++/9.1.0/ostream ****     basic_ostream<_CharT, _Traits> &
 560:/usr/include/c++/9.1.0/ostream ****     operator<<(basic_ostream<_CharT, _Traits>& __out, const char* __s);
 561:/usr/include/c++/9.1.0/ostream **** 
 562:/usr/include/c++/9.1.0/ostream ****   // Partial specializations
 563:/usr/include/c++/9.1.0/ostream ****   template<class _Traits>
 564:/usr/include/c++/9.1.0/ostream ****     inline basic_ostream<char, _Traits>&
 565:/usr/include/c++/9.1.0/ostream ****     operator<<(basic_ostream<char, _Traits>& __out, const char* __s)
 553              		.loc 4 565 5 view .LVU152
 554              		.loc 4 565 5 is_stmt 0 view .LVU153
 555              	.LBE205:
 556              	.LBE208:
 557              		.file 5 "/usr/include/c++/9.1.0/bits/char_traits.h"
   1:/usr/include/c++/9.1.0/bits/char_traits.h **** // Character Traits for use by standard string and iostream -*- C++ -*-
   2:/usr/include/c++/9.1.0/bits/char_traits.h **** 
   3:/usr/include/c++/9.1.0/bits/char_traits.h **** // Copyright (C) 1997-2019 Free Software Foundation, Inc.
   4:/usr/include/c++/9.1.0/bits/char_traits.h **** //
   5:/usr/include/c++/9.1.0/bits/char_traits.h **** // This file is part of the GNU ISO C++ Library.  This library is free
   6:/usr/include/c++/9.1.0/bits/char_traits.h **** // software; you can redistribute it and/or modify it under the
   7:/usr/include/c++/9.1.0/bits/char_traits.h **** // terms of the GNU General Public License as published by the
   8:/usr/include/c++/9.1.0/bits/char_traits.h **** // Free Software Foundation; either version 3, or (at your option)
   9:/usr/include/c++/9.1.0/bits/char_traits.h **** // any later version.
  10:/usr/include/c++/9.1.0/bits/char_traits.h **** 
  11:/usr/include/c++/9.1.0/bits/char_traits.h **** // This library is distributed in the hope that it will be useful,
  12:/usr/include/c++/9.1.0/bits/char_traits.h **** // but WITHOUT ANY WARRANTY; without even the implied warranty of
  13:/usr/include/c++/9.1.0/bits/char_traits.h **** // MERCHANTABILITY or FITNESS FOR A PARTICULAR PURPOSE.  See the
  14:/usr/include/c++/9.1.0/bits/char_traits.h **** // GNU General Public License for more details.
  15:/usr/include/c++/9.1.0/bits/char_traits.h **** 
  16:/usr/include/c++/9.1.0/bits/char_traits.h **** // Under Section 7 of GPL version 3, you are granted additional
  17:/usr/include/c++/9.1.0/bits/char_traits.h **** // permissions described in the GCC Runtime Library Exception, version
  18:/usr/include/c++/9.1.0/bits/char_traits.h **** // 3.1, as published by the Free Software Foundation.
  19:/usr/include/c++/9.1.0/bits/char_traits.h **** 
  20:/usr/include/c++/9.1.0/bits/char_traits.h **** // You should have received a copy of the GNU General Public License and
  21:/usr/include/c++/9.1.0/bits/char_traits.h **** // a copy of the GCC Runtime Library Exception along with this program;
  22:/usr/include/c++/9.1.0/bits/char_traits.h **** // see the files COPYING3 and COPYING.RUNTIME respectively.  If not, see
  23:/usr/include/c++/9.1.0/bits/char_traits.h **** // <http://www.gnu.org/licenses/>.
GAS LISTING /tmp/cc6iEGVT.s 			page 37


  24:/usr/include/c++/9.1.0/bits/char_traits.h **** 
  25:/usr/include/c++/9.1.0/bits/char_traits.h **** /** @file bits/char_traits.h
  26:/usr/include/c++/9.1.0/bits/char_traits.h ****  *  This is an internal header file, included by other library headers.
  27:/usr/include/c++/9.1.0/bits/char_traits.h ****  *  Do not attempt to use it directly. @headername{string}
  28:/usr/include/c++/9.1.0/bits/char_traits.h ****  */
  29:/usr/include/c++/9.1.0/bits/char_traits.h **** 
  30:/usr/include/c++/9.1.0/bits/char_traits.h **** //
  31:/usr/include/c++/9.1.0/bits/char_traits.h **** // ISO C++ 14882: 21  Strings library
  32:/usr/include/c++/9.1.0/bits/char_traits.h **** //
  33:/usr/include/c++/9.1.0/bits/char_traits.h **** 
  34:/usr/include/c++/9.1.0/bits/char_traits.h **** #ifndef _CHAR_TRAITS_H
  35:/usr/include/c++/9.1.0/bits/char_traits.h **** #define _CHAR_TRAITS_H 1
  36:/usr/include/c++/9.1.0/bits/char_traits.h **** 
  37:/usr/include/c++/9.1.0/bits/char_traits.h **** #pragma GCC system_header
  38:/usr/include/c++/9.1.0/bits/char_traits.h **** 
  39:/usr/include/c++/9.1.0/bits/char_traits.h **** #include <bits/stl_algobase.h>  // std::copy, std::fill_n
  40:/usr/include/c++/9.1.0/bits/char_traits.h **** #include <bits/postypes.h>      // For streampos
  41:/usr/include/c++/9.1.0/bits/char_traits.h **** #include <cwchar>               // For WEOF, wmemmove, wmemset, etc.
  42:/usr/include/c++/9.1.0/bits/char_traits.h **** 
  43:/usr/include/c++/9.1.0/bits/char_traits.h **** #ifndef _GLIBCXX_ALWAYS_INLINE
  44:/usr/include/c++/9.1.0/bits/char_traits.h **** # define _GLIBCXX_ALWAYS_INLINE inline __attribute__((__always_inline__))
  45:/usr/include/c++/9.1.0/bits/char_traits.h **** #endif
  46:/usr/include/c++/9.1.0/bits/char_traits.h **** 
  47:/usr/include/c++/9.1.0/bits/char_traits.h **** namespace __gnu_cxx _GLIBCXX_VISIBILITY(default)
  48:/usr/include/c++/9.1.0/bits/char_traits.h **** {
  49:/usr/include/c++/9.1.0/bits/char_traits.h **** _GLIBCXX_BEGIN_NAMESPACE_VERSION
  50:/usr/include/c++/9.1.0/bits/char_traits.h **** 
  51:/usr/include/c++/9.1.0/bits/char_traits.h ****   /**
  52:/usr/include/c++/9.1.0/bits/char_traits.h ****    *  @brief  Mapping from character type to associated types.
  53:/usr/include/c++/9.1.0/bits/char_traits.h ****    *
  54:/usr/include/c++/9.1.0/bits/char_traits.h ****    *  @note This is an implementation class for the generic version
  55:/usr/include/c++/9.1.0/bits/char_traits.h ****    *  of char_traits.  It defines int_type, off_type, pos_type, and
  56:/usr/include/c++/9.1.0/bits/char_traits.h ****    *  state_type.  By default these are unsigned long, streamoff,
  57:/usr/include/c++/9.1.0/bits/char_traits.h ****    *  streampos, and mbstate_t.  Users who need a different set of
  58:/usr/include/c++/9.1.0/bits/char_traits.h ****    *  types, but who don't need to change the definitions of any function
  59:/usr/include/c++/9.1.0/bits/char_traits.h ****    *  defined in char_traits, can specialize __gnu_cxx::_Char_types
  60:/usr/include/c++/9.1.0/bits/char_traits.h ****    *  while leaving __gnu_cxx::char_traits alone. */
  61:/usr/include/c++/9.1.0/bits/char_traits.h ****   template<typename _CharT>
  62:/usr/include/c++/9.1.0/bits/char_traits.h ****     struct _Char_types
  63:/usr/include/c++/9.1.0/bits/char_traits.h ****     {
  64:/usr/include/c++/9.1.0/bits/char_traits.h ****       typedef unsigned long   int_type;
  65:/usr/include/c++/9.1.0/bits/char_traits.h ****       typedef std::streampos  pos_type;
  66:/usr/include/c++/9.1.0/bits/char_traits.h ****       typedef std::streamoff  off_type;
  67:/usr/include/c++/9.1.0/bits/char_traits.h ****       typedef std::mbstate_t  state_type;
  68:/usr/include/c++/9.1.0/bits/char_traits.h ****     };
  69:/usr/include/c++/9.1.0/bits/char_traits.h **** 
  70:/usr/include/c++/9.1.0/bits/char_traits.h **** 
  71:/usr/include/c++/9.1.0/bits/char_traits.h ****   /**
  72:/usr/include/c++/9.1.0/bits/char_traits.h ****    *  @brief  Base class used to implement std::char_traits.
  73:/usr/include/c++/9.1.0/bits/char_traits.h ****    *
  74:/usr/include/c++/9.1.0/bits/char_traits.h ****    *  @note For any given actual character type, this definition is
  75:/usr/include/c++/9.1.0/bits/char_traits.h ****    *  probably wrong.  (Most of the member functions are likely to be
  76:/usr/include/c++/9.1.0/bits/char_traits.h ****    *  right, but the int_type and state_type typedefs, and the eof()
  77:/usr/include/c++/9.1.0/bits/char_traits.h ****    *  member function, are likely to be wrong.)  The reason this class
  78:/usr/include/c++/9.1.0/bits/char_traits.h ****    *  exists is so users can specialize it.  Classes in namespace std
  79:/usr/include/c++/9.1.0/bits/char_traits.h ****    *  may not be specialized for fundamental types, but classes in
  80:/usr/include/c++/9.1.0/bits/char_traits.h ****    *  namespace __gnu_cxx may be.
GAS LISTING /tmp/cc6iEGVT.s 			page 38


  81:/usr/include/c++/9.1.0/bits/char_traits.h ****    *
  82:/usr/include/c++/9.1.0/bits/char_traits.h ****    *  See https://gcc.gnu.org/onlinedocs/libstdc++/manual/strings.html#strings.string.character_typ
  83:/usr/include/c++/9.1.0/bits/char_traits.h ****    *  for advice on how to make use of this class for @a unusual character
  84:/usr/include/c++/9.1.0/bits/char_traits.h ****    *  types. Also, check out include/ext/pod_char_traits.h.  
  85:/usr/include/c++/9.1.0/bits/char_traits.h ****    */
  86:/usr/include/c++/9.1.0/bits/char_traits.h ****   template<typename _CharT>
  87:/usr/include/c++/9.1.0/bits/char_traits.h ****     struct char_traits
  88:/usr/include/c++/9.1.0/bits/char_traits.h ****     {
  89:/usr/include/c++/9.1.0/bits/char_traits.h ****       typedef _CharT                                    char_type;
  90:/usr/include/c++/9.1.0/bits/char_traits.h ****       typedef typename _Char_types<_CharT>::int_type    int_type;
  91:/usr/include/c++/9.1.0/bits/char_traits.h ****       typedef typename _Char_types<_CharT>::pos_type    pos_type;
  92:/usr/include/c++/9.1.0/bits/char_traits.h ****       typedef typename _Char_types<_CharT>::off_type    off_type;
  93:/usr/include/c++/9.1.0/bits/char_traits.h ****       typedef typename _Char_types<_CharT>::state_type  state_type;
  94:/usr/include/c++/9.1.0/bits/char_traits.h **** 
  95:/usr/include/c++/9.1.0/bits/char_traits.h ****       static _GLIBCXX14_CONSTEXPR void
  96:/usr/include/c++/9.1.0/bits/char_traits.h ****       assign(char_type& __c1, const char_type& __c2)
  97:/usr/include/c++/9.1.0/bits/char_traits.h ****       { __c1 = __c2; }
  98:/usr/include/c++/9.1.0/bits/char_traits.h **** 
  99:/usr/include/c++/9.1.0/bits/char_traits.h ****       static _GLIBCXX_CONSTEXPR bool
 100:/usr/include/c++/9.1.0/bits/char_traits.h ****       eq(const char_type& __c1, const char_type& __c2)
 101:/usr/include/c++/9.1.0/bits/char_traits.h ****       { return __c1 == __c2; }
 102:/usr/include/c++/9.1.0/bits/char_traits.h **** 
 103:/usr/include/c++/9.1.0/bits/char_traits.h ****       static _GLIBCXX_CONSTEXPR bool
 104:/usr/include/c++/9.1.0/bits/char_traits.h ****       lt(const char_type& __c1, const char_type& __c2)
 105:/usr/include/c++/9.1.0/bits/char_traits.h ****       { return __c1 < __c2; }
 106:/usr/include/c++/9.1.0/bits/char_traits.h **** 
 107:/usr/include/c++/9.1.0/bits/char_traits.h ****       static _GLIBCXX14_CONSTEXPR int
 108:/usr/include/c++/9.1.0/bits/char_traits.h ****       compare(const char_type* __s1, const char_type* __s2, std::size_t __n);
 109:/usr/include/c++/9.1.0/bits/char_traits.h **** 
 110:/usr/include/c++/9.1.0/bits/char_traits.h ****       static _GLIBCXX14_CONSTEXPR std::size_t
 111:/usr/include/c++/9.1.0/bits/char_traits.h ****       length(const char_type* __s);
 112:/usr/include/c++/9.1.0/bits/char_traits.h **** 
 113:/usr/include/c++/9.1.0/bits/char_traits.h ****       static _GLIBCXX14_CONSTEXPR const char_type*
 114:/usr/include/c++/9.1.0/bits/char_traits.h ****       find(const char_type* __s, std::size_t __n, const char_type& __a);
 115:/usr/include/c++/9.1.0/bits/char_traits.h **** 
 116:/usr/include/c++/9.1.0/bits/char_traits.h ****       static char_type*
 117:/usr/include/c++/9.1.0/bits/char_traits.h ****       move(char_type* __s1, const char_type* __s2, std::size_t __n);
 118:/usr/include/c++/9.1.0/bits/char_traits.h **** 
 119:/usr/include/c++/9.1.0/bits/char_traits.h ****       static char_type*
 120:/usr/include/c++/9.1.0/bits/char_traits.h ****       copy(char_type* __s1, const char_type* __s2, std::size_t __n);
 121:/usr/include/c++/9.1.0/bits/char_traits.h **** 
 122:/usr/include/c++/9.1.0/bits/char_traits.h ****       static char_type*
 123:/usr/include/c++/9.1.0/bits/char_traits.h ****       assign(char_type* __s, std::size_t __n, char_type __a);
 124:/usr/include/c++/9.1.0/bits/char_traits.h **** 
 125:/usr/include/c++/9.1.0/bits/char_traits.h ****       static _GLIBCXX_CONSTEXPR char_type
 126:/usr/include/c++/9.1.0/bits/char_traits.h ****       to_char_type(const int_type& __c)
 127:/usr/include/c++/9.1.0/bits/char_traits.h ****       { return static_cast<char_type>(__c); }
 128:/usr/include/c++/9.1.0/bits/char_traits.h **** 
 129:/usr/include/c++/9.1.0/bits/char_traits.h ****       static _GLIBCXX_CONSTEXPR int_type
 130:/usr/include/c++/9.1.0/bits/char_traits.h ****       to_int_type(const char_type& __c)
 131:/usr/include/c++/9.1.0/bits/char_traits.h ****       { return static_cast<int_type>(__c); }
 132:/usr/include/c++/9.1.0/bits/char_traits.h **** 
 133:/usr/include/c++/9.1.0/bits/char_traits.h ****       static _GLIBCXX_CONSTEXPR bool
 134:/usr/include/c++/9.1.0/bits/char_traits.h ****       eq_int_type(const int_type& __c1, const int_type& __c2)
 135:/usr/include/c++/9.1.0/bits/char_traits.h ****       { return __c1 == __c2; }
 136:/usr/include/c++/9.1.0/bits/char_traits.h **** 
 137:/usr/include/c++/9.1.0/bits/char_traits.h ****       static _GLIBCXX_CONSTEXPR int_type
GAS LISTING /tmp/cc6iEGVT.s 			page 39


 138:/usr/include/c++/9.1.0/bits/char_traits.h ****       eof()
 139:/usr/include/c++/9.1.0/bits/char_traits.h ****       { return static_cast<int_type>(_GLIBCXX_STDIO_EOF); }
 140:/usr/include/c++/9.1.0/bits/char_traits.h **** 
 141:/usr/include/c++/9.1.0/bits/char_traits.h ****       static _GLIBCXX_CONSTEXPR int_type
 142:/usr/include/c++/9.1.0/bits/char_traits.h ****       not_eof(const int_type& __c)
 143:/usr/include/c++/9.1.0/bits/char_traits.h ****       { return !eq_int_type(__c, eof()) ? __c : to_int_type(char_type()); }
 144:/usr/include/c++/9.1.0/bits/char_traits.h ****     };
 145:/usr/include/c++/9.1.0/bits/char_traits.h **** 
 146:/usr/include/c++/9.1.0/bits/char_traits.h ****   template<typename _CharT>
 147:/usr/include/c++/9.1.0/bits/char_traits.h ****     _GLIBCXX14_CONSTEXPR int
 148:/usr/include/c++/9.1.0/bits/char_traits.h ****     char_traits<_CharT>::
 149:/usr/include/c++/9.1.0/bits/char_traits.h ****     compare(const char_type* __s1, const char_type* __s2, std::size_t __n)
 150:/usr/include/c++/9.1.0/bits/char_traits.h ****     {
 151:/usr/include/c++/9.1.0/bits/char_traits.h ****       for (std::size_t __i = 0; __i < __n; ++__i)
 152:/usr/include/c++/9.1.0/bits/char_traits.h **** 	if (lt(__s1[__i], __s2[__i]))
 153:/usr/include/c++/9.1.0/bits/char_traits.h **** 	  return -1;
 154:/usr/include/c++/9.1.0/bits/char_traits.h **** 	else if (lt(__s2[__i], __s1[__i]))
 155:/usr/include/c++/9.1.0/bits/char_traits.h **** 	  return 1;
 156:/usr/include/c++/9.1.0/bits/char_traits.h ****       return 0;
 157:/usr/include/c++/9.1.0/bits/char_traits.h ****     }
 158:/usr/include/c++/9.1.0/bits/char_traits.h **** 
 159:/usr/include/c++/9.1.0/bits/char_traits.h ****   template<typename _CharT>
 160:/usr/include/c++/9.1.0/bits/char_traits.h ****     _GLIBCXX14_CONSTEXPR std::size_t
 161:/usr/include/c++/9.1.0/bits/char_traits.h ****     char_traits<_CharT>::
 162:/usr/include/c++/9.1.0/bits/char_traits.h ****     length(const char_type* __p)
 163:/usr/include/c++/9.1.0/bits/char_traits.h ****     {
 164:/usr/include/c++/9.1.0/bits/char_traits.h ****       std::size_t __i = 0;
 165:/usr/include/c++/9.1.0/bits/char_traits.h ****       while (!eq(__p[__i], char_type()))
 166:/usr/include/c++/9.1.0/bits/char_traits.h ****         ++__i;
 167:/usr/include/c++/9.1.0/bits/char_traits.h ****       return __i;
 168:/usr/include/c++/9.1.0/bits/char_traits.h ****     }
 169:/usr/include/c++/9.1.0/bits/char_traits.h **** 
 170:/usr/include/c++/9.1.0/bits/char_traits.h ****   template<typename _CharT>
 171:/usr/include/c++/9.1.0/bits/char_traits.h ****     _GLIBCXX14_CONSTEXPR const typename char_traits<_CharT>::char_type*
 172:/usr/include/c++/9.1.0/bits/char_traits.h ****     char_traits<_CharT>::
 173:/usr/include/c++/9.1.0/bits/char_traits.h ****     find(const char_type* __s, std::size_t __n, const char_type& __a)
 174:/usr/include/c++/9.1.0/bits/char_traits.h ****     {
 175:/usr/include/c++/9.1.0/bits/char_traits.h ****       for (std::size_t __i = 0; __i < __n; ++__i)
 176:/usr/include/c++/9.1.0/bits/char_traits.h ****         if (eq(__s[__i], __a))
 177:/usr/include/c++/9.1.0/bits/char_traits.h ****           return __s + __i;
 178:/usr/include/c++/9.1.0/bits/char_traits.h ****       return 0;
 179:/usr/include/c++/9.1.0/bits/char_traits.h ****     }
 180:/usr/include/c++/9.1.0/bits/char_traits.h **** 
 181:/usr/include/c++/9.1.0/bits/char_traits.h ****   template<typename _CharT>
 182:/usr/include/c++/9.1.0/bits/char_traits.h ****     typename char_traits<_CharT>::char_type*
 183:/usr/include/c++/9.1.0/bits/char_traits.h ****     char_traits<_CharT>::
 184:/usr/include/c++/9.1.0/bits/char_traits.h ****     move(char_type* __s1, const char_type* __s2, std::size_t __n)
 185:/usr/include/c++/9.1.0/bits/char_traits.h ****     {
 186:/usr/include/c++/9.1.0/bits/char_traits.h ****       if (__n == 0)
 187:/usr/include/c++/9.1.0/bits/char_traits.h **** 	return __s1;
 188:/usr/include/c++/9.1.0/bits/char_traits.h ****       return static_cast<_CharT*>(__builtin_memmove(__s1, __s2,
 189:/usr/include/c++/9.1.0/bits/char_traits.h **** 						    __n * sizeof(char_type)));
 190:/usr/include/c++/9.1.0/bits/char_traits.h ****     }
 191:/usr/include/c++/9.1.0/bits/char_traits.h **** 
 192:/usr/include/c++/9.1.0/bits/char_traits.h ****   template<typename _CharT>
 193:/usr/include/c++/9.1.0/bits/char_traits.h ****     typename char_traits<_CharT>::char_type*
 194:/usr/include/c++/9.1.0/bits/char_traits.h ****     char_traits<_CharT>::
GAS LISTING /tmp/cc6iEGVT.s 			page 40


 195:/usr/include/c++/9.1.0/bits/char_traits.h ****     copy(char_type* __s1, const char_type* __s2, std::size_t __n)
 196:/usr/include/c++/9.1.0/bits/char_traits.h ****     {
 197:/usr/include/c++/9.1.0/bits/char_traits.h ****       // NB: Inline std::copy so no recursive dependencies.
 198:/usr/include/c++/9.1.0/bits/char_traits.h ****       std::copy(__s2, __s2 + __n, __s1);
 199:/usr/include/c++/9.1.0/bits/char_traits.h ****       return __s1;
 200:/usr/include/c++/9.1.0/bits/char_traits.h ****     }
 201:/usr/include/c++/9.1.0/bits/char_traits.h **** 
 202:/usr/include/c++/9.1.0/bits/char_traits.h ****   template<typename _CharT>
 203:/usr/include/c++/9.1.0/bits/char_traits.h ****     typename char_traits<_CharT>::char_type*
 204:/usr/include/c++/9.1.0/bits/char_traits.h ****     char_traits<_CharT>::
 205:/usr/include/c++/9.1.0/bits/char_traits.h ****     assign(char_type* __s, std::size_t __n, char_type __a)
 206:/usr/include/c++/9.1.0/bits/char_traits.h ****     {
 207:/usr/include/c++/9.1.0/bits/char_traits.h ****       // NB: Inline std::fill_n so no recursive dependencies.
 208:/usr/include/c++/9.1.0/bits/char_traits.h ****       std::fill_n(__s, __n, __a);
 209:/usr/include/c++/9.1.0/bits/char_traits.h ****       return __s;
 210:/usr/include/c++/9.1.0/bits/char_traits.h ****     }
 211:/usr/include/c++/9.1.0/bits/char_traits.h **** 
 212:/usr/include/c++/9.1.0/bits/char_traits.h **** _GLIBCXX_END_NAMESPACE_VERSION
 213:/usr/include/c++/9.1.0/bits/char_traits.h **** } // namespace
 214:/usr/include/c++/9.1.0/bits/char_traits.h **** 
 215:/usr/include/c++/9.1.0/bits/char_traits.h **** namespace std _GLIBCXX_VISIBILITY(default)
 216:/usr/include/c++/9.1.0/bits/char_traits.h **** {
 217:/usr/include/c++/9.1.0/bits/char_traits.h **** _GLIBCXX_BEGIN_NAMESPACE_VERSION
 218:/usr/include/c++/9.1.0/bits/char_traits.h **** 
 219:/usr/include/c++/9.1.0/bits/char_traits.h **** #if __cplusplus >= 201703L
 220:/usr/include/c++/9.1.0/bits/char_traits.h **** #define __cpp_lib_constexpr_char_traits 201611
 221:/usr/include/c++/9.1.0/bits/char_traits.h **** 
 222:/usr/include/c++/9.1.0/bits/char_traits.h ****   /**
 223:/usr/include/c++/9.1.0/bits/char_traits.h ****    *  @brief Determine whether the characters of a NULL-terminated
 224:/usr/include/c++/9.1.0/bits/char_traits.h ****    *  string are known at compile time.
 225:/usr/include/c++/9.1.0/bits/char_traits.h ****    *  @param  __s  The string.
 226:/usr/include/c++/9.1.0/bits/char_traits.h ****    *
 227:/usr/include/c++/9.1.0/bits/char_traits.h ****    *  Assumes that _CharT is a built-in character type.
 228:/usr/include/c++/9.1.0/bits/char_traits.h ****    */
 229:/usr/include/c++/9.1.0/bits/char_traits.h ****   template<typename _CharT>
 230:/usr/include/c++/9.1.0/bits/char_traits.h ****     static _GLIBCXX_ALWAYS_INLINE constexpr bool
 231:/usr/include/c++/9.1.0/bits/char_traits.h ****     __constant_string_p(const _CharT* __s)
 232:/usr/include/c++/9.1.0/bits/char_traits.h ****     {
 233:/usr/include/c++/9.1.0/bits/char_traits.h **** #ifdef _GLIBCXX_HAVE_BUILTIN_IS_CONSTANT_EVALUATED
 234:/usr/include/c++/9.1.0/bits/char_traits.h ****       (void) __s;
 235:/usr/include/c++/9.1.0/bits/char_traits.h ****       // In constexpr contexts all strings should be constant.
 236:/usr/include/c++/9.1.0/bits/char_traits.h ****       return __builtin_is_constant_evaluated();
 237:/usr/include/c++/9.1.0/bits/char_traits.h **** #else
 238:/usr/include/c++/9.1.0/bits/char_traits.h ****       while (__builtin_constant_p(*__s) && *__s)
 239:/usr/include/c++/9.1.0/bits/char_traits.h **** 	__s++;
 240:/usr/include/c++/9.1.0/bits/char_traits.h ****       return __builtin_constant_p(*__s);
 241:/usr/include/c++/9.1.0/bits/char_traits.h **** #endif
 242:/usr/include/c++/9.1.0/bits/char_traits.h ****     }
 243:/usr/include/c++/9.1.0/bits/char_traits.h **** 
 244:/usr/include/c++/9.1.0/bits/char_traits.h ****   /**
 245:/usr/include/c++/9.1.0/bits/char_traits.h ****    *  @brief Determine whether the characters of a character array are
 246:/usr/include/c++/9.1.0/bits/char_traits.h ****    *  known at compile time.
 247:/usr/include/c++/9.1.0/bits/char_traits.h ****    *  @param  __a  The character array.
 248:/usr/include/c++/9.1.0/bits/char_traits.h ****    *  @param  __n  Number of characters.
 249:/usr/include/c++/9.1.0/bits/char_traits.h ****    *
 250:/usr/include/c++/9.1.0/bits/char_traits.h ****    *  Assumes that _CharT is a built-in character type.
 251:/usr/include/c++/9.1.0/bits/char_traits.h ****    */
GAS LISTING /tmp/cc6iEGVT.s 			page 41


 252:/usr/include/c++/9.1.0/bits/char_traits.h ****   template<typename _CharT>
 253:/usr/include/c++/9.1.0/bits/char_traits.h ****     static _GLIBCXX_ALWAYS_INLINE constexpr bool
 254:/usr/include/c++/9.1.0/bits/char_traits.h ****     __constant_char_array_p(const _CharT* __a, size_t __n)
 255:/usr/include/c++/9.1.0/bits/char_traits.h ****     {
 256:/usr/include/c++/9.1.0/bits/char_traits.h **** #ifdef _GLIBCXX_HAVE_BUILTIN_IS_CONSTANT_EVALUATED
 257:/usr/include/c++/9.1.0/bits/char_traits.h ****       (void) __a;
 258:/usr/include/c++/9.1.0/bits/char_traits.h ****       (void) __n;
 259:/usr/include/c++/9.1.0/bits/char_traits.h ****       // In constexpr contexts all character arrays should be constant.
 260:/usr/include/c++/9.1.0/bits/char_traits.h ****       return __builtin_is_constant_evaluated();
 261:/usr/include/c++/9.1.0/bits/char_traits.h **** #else
 262:/usr/include/c++/9.1.0/bits/char_traits.h ****       size_t __i = 0;
 263:/usr/include/c++/9.1.0/bits/char_traits.h ****       while (__i < __n && __builtin_constant_p(__a[__i]))
 264:/usr/include/c++/9.1.0/bits/char_traits.h **** 	__i++;
 265:/usr/include/c++/9.1.0/bits/char_traits.h ****       return __i == __n;
 266:/usr/include/c++/9.1.0/bits/char_traits.h **** #endif
 267:/usr/include/c++/9.1.0/bits/char_traits.h ****     }
 268:/usr/include/c++/9.1.0/bits/char_traits.h **** #endif
 269:/usr/include/c++/9.1.0/bits/char_traits.h **** 
 270:/usr/include/c++/9.1.0/bits/char_traits.h ****   // 21.1
 271:/usr/include/c++/9.1.0/bits/char_traits.h ****   /**
 272:/usr/include/c++/9.1.0/bits/char_traits.h ****    *  @brief  Basis for explicit traits specializations.
 273:/usr/include/c++/9.1.0/bits/char_traits.h ****    *
 274:/usr/include/c++/9.1.0/bits/char_traits.h ****    *  @note  For any given actual character type, this definition is
 275:/usr/include/c++/9.1.0/bits/char_traits.h ****    *  probably wrong.  Since this is just a thin wrapper around
 276:/usr/include/c++/9.1.0/bits/char_traits.h ****    *  __gnu_cxx::char_traits, it is possible to achieve a more
 277:/usr/include/c++/9.1.0/bits/char_traits.h ****    *  appropriate definition by specializing __gnu_cxx::char_traits.
 278:/usr/include/c++/9.1.0/bits/char_traits.h ****    *
 279:/usr/include/c++/9.1.0/bits/char_traits.h ****    *  See https://gcc.gnu.org/onlinedocs/libstdc++/manual/strings.html#strings.string.character_typ
 280:/usr/include/c++/9.1.0/bits/char_traits.h ****    *  for advice on how to make use of this class for @a unusual character
 281:/usr/include/c++/9.1.0/bits/char_traits.h ****    *  types. Also, check out include/ext/pod_char_traits.h.
 282:/usr/include/c++/9.1.0/bits/char_traits.h ****   */
 283:/usr/include/c++/9.1.0/bits/char_traits.h ****   template<class _CharT>
 284:/usr/include/c++/9.1.0/bits/char_traits.h ****     struct char_traits : public __gnu_cxx::char_traits<_CharT>
 285:/usr/include/c++/9.1.0/bits/char_traits.h ****     { };
 286:/usr/include/c++/9.1.0/bits/char_traits.h **** 
 287:/usr/include/c++/9.1.0/bits/char_traits.h **** 
 288:/usr/include/c++/9.1.0/bits/char_traits.h ****   /// 21.1.3.1  char_traits specializations
 289:/usr/include/c++/9.1.0/bits/char_traits.h ****   template<>
 290:/usr/include/c++/9.1.0/bits/char_traits.h ****     struct char_traits<char>
 291:/usr/include/c++/9.1.0/bits/char_traits.h ****     {
 292:/usr/include/c++/9.1.0/bits/char_traits.h ****       typedef char              char_type;
 293:/usr/include/c++/9.1.0/bits/char_traits.h ****       typedef int               int_type;
 294:/usr/include/c++/9.1.0/bits/char_traits.h ****       typedef streampos         pos_type;
 295:/usr/include/c++/9.1.0/bits/char_traits.h ****       typedef streamoff         off_type;
 296:/usr/include/c++/9.1.0/bits/char_traits.h ****       typedef mbstate_t         state_type;
 297:/usr/include/c++/9.1.0/bits/char_traits.h **** 
 298:/usr/include/c++/9.1.0/bits/char_traits.h ****       static _GLIBCXX17_CONSTEXPR void
 299:/usr/include/c++/9.1.0/bits/char_traits.h ****       assign(char_type& __c1, const char_type& __c2) _GLIBCXX_NOEXCEPT
 300:/usr/include/c++/9.1.0/bits/char_traits.h ****       { __c1 = __c2; }
 301:/usr/include/c++/9.1.0/bits/char_traits.h **** 
 302:/usr/include/c++/9.1.0/bits/char_traits.h ****       static _GLIBCXX_CONSTEXPR bool
 303:/usr/include/c++/9.1.0/bits/char_traits.h ****       eq(const char_type& __c1, const char_type& __c2) _GLIBCXX_NOEXCEPT
 304:/usr/include/c++/9.1.0/bits/char_traits.h ****       { return __c1 == __c2; }
 305:/usr/include/c++/9.1.0/bits/char_traits.h **** 
 306:/usr/include/c++/9.1.0/bits/char_traits.h ****       static _GLIBCXX_CONSTEXPR bool
 307:/usr/include/c++/9.1.0/bits/char_traits.h ****       lt(const char_type& __c1, const char_type& __c2) _GLIBCXX_NOEXCEPT
 308:/usr/include/c++/9.1.0/bits/char_traits.h ****       {
GAS LISTING /tmp/cc6iEGVT.s 			page 42


 309:/usr/include/c++/9.1.0/bits/char_traits.h **** 	// LWG 467.
 310:/usr/include/c++/9.1.0/bits/char_traits.h **** 	return (static_cast<unsigned char>(__c1)
 311:/usr/include/c++/9.1.0/bits/char_traits.h **** 		< static_cast<unsigned char>(__c2));
 312:/usr/include/c++/9.1.0/bits/char_traits.h ****       }
 313:/usr/include/c++/9.1.0/bits/char_traits.h **** 
 314:/usr/include/c++/9.1.0/bits/char_traits.h ****       static _GLIBCXX17_CONSTEXPR int
 315:/usr/include/c++/9.1.0/bits/char_traits.h ****       compare(const char_type* __s1, const char_type* __s2, size_t __n)
 316:/usr/include/c++/9.1.0/bits/char_traits.h ****       {
 317:/usr/include/c++/9.1.0/bits/char_traits.h **** 	if (__n == 0)
 318:/usr/include/c++/9.1.0/bits/char_traits.h **** 	  return 0;
 319:/usr/include/c++/9.1.0/bits/char_traits.h **** #if __cplusplus >= 201703L
 320:/usr/include/c++/9.1.0/bits/char_traits.h **** 	if (__builtin_constant_p(__n)
 321:/usr/include/c++/9.1.0/bits/char_traits.h **** 	    && __constant_char_array_p(__s1, __n)
 322:/usr/include/c++/9.1.0/bits/char_traits.h **** 	    && __constant_char_array_p(__s2, __n))
 323:/usr/include/c++/9.1.0/bits/char_traits.h **** 	  return __gnu_cxx::char_traits<char_type>::compare(__s1, __s2, __n);
 324:/usr/include/c++/9.1.0/bits/char_traits.h **** #endif
 325:/usr/include/c++/9.1.0/bits/char_traits.h **** 	return __builtin_memcmp(__s1, __s2, __n);
 326:/usr/include/c++/9.1.0/bits/char_traits.h ****       }
 327:/usr/include/c++/9.1.0/bits/char_traits.h **** 
 328:/usr/include/c++/9.1.0/bits/char_traits.h ****       static _GLIBCXX17_CONSTEXPR size_t
 329:/usr/include/c++/9.1.0/bits/char_traits.h ****       length(const char_type* __s)
 330:/usr/include/c++/9.1.0/bits/char_traits.h ****       {
 331:/usr/include/c++/9.1.0/bits/char_traits.h **** #if __cplusplus >= 201703L
 332:/usr/include/c++/9.1.0/bits/char_traits.h **** 	if (__constant_string_p(__s))
 333:/usr/include/c++/9.1.0/bits/char_traits.h **** 	  return __gnu_cxx::char_traits<char_type>::length(__s);
 334:/usr/include/c++/9.1.0/bits/char_traits.h **** #endif
 335:/usr/include/c++/9.1.0/bits/char_traits.h **** 	return __builtin_strlen(__s);
 558              		.loc 5 335 2 is_stmt 1 view .LVU154
 559              	.LBB209:
 560              	.LBB207:
 561              	.LBB206:
 566:/usr/include/c++/9.1.0/ostream ****     {
 567:/usr/include/c++/9.1.0/ostream ****       if (!__s)
 568:/usr/include/c++/9.1.0/ostream **** 	__out.setstate(ios_base::badbit);
 569:/usr/include/c++/9.1.0/ostream ****       else
 570:/usr/include/c++/9.1.0/ostream **** 	__ostream_insert(__out, __s,
 562              		.loc 4 570 18 is_stmt 0 view .LVU155
 563 036a BA120000 		movl	$18, %edx
 563      00
 564              	.LVL41:
 565              		.loc 4 570 18 view .LVU156
 566 036f 488D3500 		leaq	.LC11(%rip), %rsi
 566      000000
 567 0376 488D3D00 		leaq	_ZSt4cout(%rip), %rdi
 567      000000
 568 037d E8000000 		call	_ZSt16__ostream_insertIcSt11char_traitsIcEERSt13basic_ostreamIT_T0_ES6_PKS3_l@PLT
 568      00
 569              	.LVL42:
 570              		.loc 4 570 18 view .LVU157
 571              	.LBE206:
 572              	.LBE207:
 137:Src/main.cpp  **** 		}
 573              		.loc 1 137 4 is_stmt 1 view .LVU158
 137:Src/main.cpp  **** 		}
 574              		.loc 1 137 20 is_stmt 0 view .LVU159
 575 0382 48830500 		addq	$100, QUAD_CHECK_SIDE(%rip)
 575      00000064 
GAS LISTING /tmp/cc6iEGVT.s 			page 43


 576 038a EBC9     		jmp	.L32
 577              	.L33:
 137:Src/main.cpp  **** 		}
 578              		.loc 1 137 20 view .LVU160
 579              	.LBE209:
 140:Src/main.cpp  **** 	size_t iter = 0;
 580              		.loc 1 140 2 is_stmt 1 view .LVU161
 581              	.LVL43:
 582              	.LBB210:
 583              	.LBI210:
 565:/usr/include/c++/9.1.0/ostream ****     {
 584              		.loc 4 565 5 view .LVU162
 565:/usr/include/c++/9.1.0/ostream ****     {
 585              		.loc 4 565 5 is_stmt 0 view .LVU163
 586              	.LBE210:
 587              		.loc 5 335 2 is_stmt 1 view .LVU164
 588              	.LBB212:
 589              	.LBB211:
 590              		.loc 4 570 18 is_stmt 0 view .LVU165
 591 038c BA060000 		movl	$6, %edx
 591      00
 592 0391 488D3500 		leaq	.LC12(%rip), %rsi
 592      000000
 593 0398 488D3D00 		leaq	_ZSt4cout(%rip), %rdi
 593      000000
 594 039f E8000000 		call	_ZSt16__ostream_insertIcSt11char_traitsIcEERSt13basic_ostreamIT_T0_ES6_PKS3_l@PLT
 594      00
 595              	.LVL44:
 596              		.loc 4 570 18 view .LVU166
 597              	.LBE211:
 598              	.LBE212:
 599              	.LBB213:
 600              	.LBI213:
 170:/usr/include/c++/9.1.0/ostream ****       { return _M_insert(__n); }
 601              		.loc 4 170 7 is_stmt 1 view .LVU167
 602              	.LBB214:
 171:/usr/include/c++/9.1.0/ostream **** 
 603              		.loc 4 171 29 is_stmt 0 view .LVU168
 604 03a4 4889EE   		movq	%rbp, %rsi
 605 03a7 488D3D00 		leaq	_ZSt4cout(%rip), %rdi
 605      000000
 606 03ae E8000000 		call	_ZNSo9_M_insertImEERSoT_@PLT
 606      00
 607              	.LVL45:
 608 03b3 4989C4   		movq	%rax, %r12
 609              	.LVL46:
 171:/usr/include/c++/9.1.0/ostream **** 
 610              		.loc 4 171 29 view .LVU169
 611              	.LBE214:
 612              	.LBE213:
 613              	.LBB215:
 614              	.LBI215:
 108:/usr/include/c++/9.1.0/ostream ****       {
 615              		.loc 4 108 7 is_stmt 1 view .LVU170
 616              	.LBB216:
 617              	.LBI216:
 571:/usr/include/c++/9.1.0/ostream **** 			 static_cast<streamsize>(_Traits::length(__s)));
GAS LISTING /tmp/cc6iEGVT.s 			page 44


 572:/usr/include/c++/9.1.0/ostream ****       return __out;
 573:/usr/include/c++/9.1.0/ostream ****     }
 574:/usr/include/c++/9.1.0/ostream **** 
 575:/usr/include/c++/9.1.0/ostream ****   // Signed and unsigned
 576:/usr/include/c++/9.1.0/ostream ****   template<class _Traits>
 577:/usr/include/c++/9.1.0/ostream ****     inline basic_ostream<char, _Traits>&
 578:/usr/include/c++/9.1.0/ostream ****     operator<<(basic_ostream<char, _Traits>& __out, const signed char* __s)
 579:/usr/include/c++/9.1.0/ostream ****     { return (__out << reinterpret_cast<const char*>(__s)); }
 580:/usr/include/c++/9.1.0/ostream **** 
 581:/usr/include/c++/9.1.0/ostream ****   template<class _Traits>
 582:/usr/include/c++/9.1.0/ostream ****     inline basic_ostream<char, _Traits> &
 583:/usr/include/c++/9.1.0/ostream ****     operator<<(basic_ostream<char, _Traits>& __out, const unsigned char* __s)
 584:/usr/include/c++/9.1.0/ostream ****     { return (__out << reinterpret_cast<const char*>(__s)); }
 585:/usr/include/c++/9.1.0/ostream ****   //@}
 586:/usr/include/c++/9.1.0/ostream **** 
 587:/usr/include/c++/9.1.0/ostream ****   // Standard basic_ostream manipulators
 588:/usr/include/c++/9.1.0/ostream **** 
 589:/usr/include/c++/9.1.0/ostream ****   /**
 590:/usr/include/c++/9.1.0/ostream ****    *  @brief  Write a newline and flush the stream.
 591:/usr/include/c++/9.1.0/ostream ****    *
 592:/usr/include/c++/9.1.0/ostream ****    *  This manipulator is often mistakenly used when a simple newline is
 593:/usr/include/c++/9.1.0/ostream ****    *  desired, leading to poor buffering performance.  See
 594:/usr/include/c++/9.1.0/ostream ****    *  https://gcc.gnu.org/onlinedocs/libstdc++/manual/streambufs.html#io.streambuf.buffering
 595:/usr/include/c++/9.1.0/ostream ****    *  for more on this subject.
 596:/usr/include/c++/9.1.0/ostream ****   */
 597:/usr/include/c++/9.1.0/ostream ****   template<typename _CharT, typename _Traits>
 598:/usr/include/c++/9.1.0/ostream ****     inline basic_ostream<_CharT, _Traits>&
 599:/usr/include/c++/9.1.0/ostream ****     endl(basic_ostream<_CharT, _Traits>& __os)
 618              		.loc 4 599 5 view .LVU171
 619              	.LBB217:
 600:/usr/include/c++/9.1.0/ostream ****     { return flush(__os.put(__os.widen('\n'))); }
 620              		.loc 4 600 19 is_stmt 0 view .LVU172
 621 03b6 488B00   		movq	(%rax), %rax
 622              	.LVL47:
 623              		.loc 4 600 19 view .LVU173
 624 03b9 4C89E7   		movq	%r12, %rdi
 625 03bc 480378E8 		addq	-24(%rax), %rdi
 626              	.LVL48:
 627              	.LBB218:
 628              	.LBI218:
 629              		.file 6 "/usr/include/c++/9.1.0/bits/basic_ios.h"
   1:/usr/include/c++/9.1.0/bits/basic_ios.h **** // Iostreams base classes -*- C++ -*-
   2:/usr/include/c++/9.1.0/bits/basic_ios.h **** 
   3:/usr/include/c++/9.1.0/bits/basic_ios.h **** // Copyright (C) 1997-2019 Free Software Foundation, Inc.
   4:/usr/include/c++/9.1.0/bits/basic_ios.h **** //
   5:/usr/include/c++/9.1.0/bits/basic_ios.h **** // This file is part of the GNU ISO C++ Library.  This library is free
   6:/usr/include/c++/9.1.0/bits/basic_ios.h **** // software; you can redistribute it and/or modify it under the
   7:/usr/include/c++/9.1.0/bits/basic_ios.h **** // terms of the GNU General Public License as published by the
   8:/usr/include/c++/9.1.0/bits/basic_ios.h **** // Free Software Foundation; either version 3, or (at your option)
   9:/usr/include/c++/9.1.0/bits/basic_ios.h **** // any later version.
  10:/usr/include/c++/9.1.0/bits/basic_ios.h **** 
  11:/usr/include/c++/9.1.0/bits/basic_ios.h **** // This library is distributed in the hope that it will be useful,
  12:/usr/include/c++/9.1.0/bits/basic_ios.h **** // but WITHOUT ANY WARRANTY; without even the implied warranty of
  13:/usr/include/c++/9.1.0/bits/basic_ios.h **** // MERCHANTABILITY or FITNESS FOR A PARTICULAR PURPOSE.  See the
  14:/usr/include/c++/9.1.0/bits/basic_ios.h **** // GNU General Public License for more details.
  15:/usr/include/c++/9.1.0/bits/basic_ios.h **** 
  16:/usr/include/c++/9.1.0/bits/basic_ios.h **** // Under Section 7 of GPL version 3, you are granted additional
GAS LISTING /tmp/cc6iEGVT.s 			page 45


  17:/usr/include/c++/9.1.0/bits/basic_ios.h **** // permissions described in the GCC Runtime Library Exception, version
  18:/usr/include/c++/9.1.0/bits/basic_ios.h **** // 3.1, as published by the Free Software Foundation.
  19:/usr/include/c++/9.1.0/bits/basic_ios.h **** 
  20:/usr/include/c++/9.1.0/bits/basic_ios.h **** // You should have received a copy of the GNU General Public License and
  21:/usr/include/c++/9.1.0/bits/basic_ios.h **** // a copy of the GCC Runtime Library Exception along with this program;
  22:/usr/include/c++/9.1.0/bits/basic_ios.h **** // see the files COPYING3 and COPYING.RUNTIME respectively.  If not, see
  23:/usr/include/c++/9.1.0/bits/basic_ios.h **** // <http://www.gnu.org/licenses/>.
  24:/usr/include/c++/9.1.0/bits/basic_ios.h **** 
  25:/usr/include/c++/9.1.0/bits/basic_ios.h **** /** @file bits/basic_ios.h
  26:/usr/include/c++/9.1.0/bits/basic_ios.h ****  *  This is an internal header file, included by other library headers.
  27:/usr/include/c++/9.1.0/bits/basic_ios.h ****  *  Do not attempt to use it directly. @headername{ios}
  28:/usr/include/c++/9.1.0/bits/basic_ios.h ****  */
  29:/usr/include/c++/9.1.0/bits/basic_ios.h **** 
  30:/usr/include/c++/9.1.0/bits/basic_ios.h **** #ifndef _BASIC_IOS_H
  31:/usr/include/c++/9.1.0/bits/basic_ios.h **** #define _BASIC_IOS_H 1
  32:/usr/include/c++/9.1.0/bits/basic_ios.h **** 
  33:/usr/include/c++/9.1.0/bits/basic_ios.h **** #pragma GCC system_header
  34:/usr/include/c++/9.1.0/bits/basic_ios.h **** 
  35:/usr/include/c++/9.1.0/bits/basic_ios.h **** #include <bits/localefwd.h>
  36:/usr/include/c++/9.1.0/bits/basic_ios.h **** #include <bits/locale_classes.h>
  37:/usr/include/c++/9.1.0/bits/basic_ios.h **** #include <bits/locale_facets.h>
  38:/usr/include/c++/9.1.0/bits/basic_ios.h **** #include <bits/streambuf_iterator.h>
  39:/usr/include/c++/9.1.0/bits/basic_ios.h **** #include <bits/move.h>
  40:/usr/include/c++/9.1.0/bits/basic_ios.h **** 
  41:/usr/include/c++/9.1.0/bits/basic_ios.h **** namespace std _GLIBCXX_VISIBILITY(default)
  42:/usr/include/c++/9.1.0/bits/basic_ios.h **** {
  43:/usr/include/c++/9.1.0/bits/basic_ios.h **** _GLIBCXX_BEGIN_NAMESPACE_VERSION
  44:/usr/include/c++/9.1.0/bits/basic_ios.h **** 
  45:/usr/include/c++/9.1.0/bits/basic_ios.h ****   template<typename _Facet>
  46:/usr/include/c++/9.1.0/bits/basic_ios.h ****     inline const _Facet&
  47:/usr/include/c++/9.1.0/bits/basic_ios.h ****     __check_facet(const _Facet* __f)
  48:/usr/include/c++/9.1.0/bits/basic_ios.h ****     {
  49:/usr/include/c++/9.1.0/bits/basic_ios.h ****       if (!__f)
  50:/usr/include/c++/9.1.0/bits/basic_ios.h **** 	__throw_bad_cast();
  51:/usr/include/c++/9.1.0/bits/basic_ios.h ****       return *__f;
  52:/usr/include/c++/9.1.0/bits/basic_ios.h ****     }
  53:/usr/include/c++/9.1.0/bits/basic_ios.h **** 
  54:/usr/include/c++/9.1.0/bits/basic_ios.h ****   /**
  55:/usr/include/c++/9.1.0/bits/basic_ios.h ****    *  @brief Template class basic_ios, virtual base class for all
  56:/usr/include/c++/9.1.0/bits/basic_ios.h ****    *  stream classes. 
  57:/usr/include/c++/9.1.0/bits/basic_ios.h ****    *  @ingroup io
  58:/usr/include/c++/9.1.0/bits/basic_ios.h ****    *
  59:/usr/include/c++/9.1.0/bits/basic_ios.h ****    *  @tparam _CharT  Type of character stream.
  60:/usr/include/c++/9.1.0/bits/basic_ios.h ****    *  @tparam _Traits  Traits for character type, defaults to
  61:/usr/include/c++/9.1.0/bits/basic_ios.h ****    *                   char_traits<_CharT>.
  62:/usr/include/c++/9.1.0/bits/basic_ios.h ****    *
  63:/usr/include/c++/9.1.0/bits/basic_ios.h ****    *  Most of the member functions called dispatched on stream objects
  64:/usr/include/c++/9.1.0/bits/basic_ios.h ****    *  (e.g., @c std::cout.foo(bar);) are consolidated in this class.
  65:/usr/include/c++/9.1.0/bits/basic_ios.h ****   */
  66:/usr/include/c++/9.1.0/bits/basic_ios.h ****   template<typename _CharT, typename _Traits>
  67:/usr/include/c++/9.1.0/bits/basic_ios.h ****     class basic_ios : public ios_base
  68:/usr/include/c++/9.1.0/bits/basic_ios.h ****     {
  69:/usr/include/c++/9.1.0/bits/basic_ios.h ****     public:
  70:/usr/include/c++/9.1.0/bits/basic_ios.h ****       //@{
  71:/usr/include/c++/9.1.0/bits/basic_ios.h ****       /**
  72:/usr/include/c++/9.1.0/bits/basic_ios.h ****        *  These are standard types.  They permit a standardized way of
  73:/usr/include/c++/9.1.0/bits/basic_ios.h ****        *  referring to names of (or names dependent on) the template
GAS LISTING /tmp/cc6iEGVT.s 			page 46


  74:/usr/include/c++/9.1.0/bits/basic_ios.h ****        *  parameters, which are specific to the implementation.
  75:/usr/include/c++/9.1.0/bits/basic_ios.h ****       */
  76:/usr/include/c++/9.1.0/bits/basic_ios.h ****       typedef _CharT                                 char_type;
  77:/usr/include/c++/9.1.0/bits/basic_ios.h ****       typedef typename _Traits::int_type             int_type;
  78:/usr/include/c++/9.1.0/bits/basic_ios.h ****       typedef typename _Traits::pos_type             pos_type;
  79:/usr/include/c++/9.1.0/bits/basic_ios.h ****       typedef typename _Traits::off_type             off_type;
  80:/usr/include/c++/9.1.0/bits/basic_ios.h ****       typedef _Traits                                traits_type;
  81:/usr/include/c++/9.1.0/bits/basic_ios.h ****       //@}
  82:/usr/include/c++/9.1.0/bits/basic_ios.h **** 
  83:/usr/include/c++/9.1.0/bits/basic_ios.h ****       //@{
  84:/usr/include/c++/9.1.0/bits/basic_ios.h ****       /**
  85:/usr/include/c++/9.1.0/bits/basic_ios.h ****        *  These are non-standard types.
  86:/usr/include/c++/9.1.0/bits/basic_ios.h ****       */
  87:/usr/include/c++/9.1.0/bits/basic_ios.h ****       typedef ctype<_CharT>                          __ctype_type;
  88:/usr/include/c++/9.1.0/bits/basic_ios.h ****       typedef num_put<_CharT, ostreambuf_iterator<_CharT, _Traits> >
  89:/usr/include/c++/9.1.0/bits/basic_ios.h **** 						     __num_put_type;
  90:/usr/include/c++/9.1.0/bits/basic_ios.h ****       typedef num_get<_CharT, istreambuf_iterator<_CharT, _Traits> >
  91:/usr/include/c++/9.1.0/bits/basic_ios.h **** 						     __num_get_type;
  92:/usr/include/c++/9.1.0/bits/basic_ios.h ****       //@}
  93:/usr/include/c++/9.1.0/bits/basic_ios.h **** 
  94:/usr/include/c++/9.1.0/bits/basic_ios.h ****       // Data members:
  95:/usr/include/c++/9.1.0/bits/basic_ios.h ****     protected:
  96:/usr/include/c++/9.1.0/bits/basic_ios.h ****       basic_ostream<_CharT, _Traits>*                _M_tie;
  97:/usr/include/c++/9.1.0/bits/basic_ios.h ****       mutable char_type                              _M_fill;
  98:/usr/include/c++/9.1.0/bits/basic_ios.h ****       mutable bool                                   _M_fill_init;
  99:/usr/include/c++/9.1.0/bits/basic_ios.h ****       basic_streambuf<_CharT, _Traits>*              _M_streambuf;
 100:/usr/include/c++/9.1.0/bits/basic_ios.h **** 
 101:/usr/include/c++/9.1.0/bits/basic_ios.h ****       // Cached use_facet<ctype>, which is based on the current locale info.
 102:/usr/include/c++/9.1.0/bits/basic_ios.h ****       const __ctype_type*                            _M_ctype;
 103:/usr/include/c++/9.1.0/bits/basic_ios.h ****       // For ostream.
 104:/usr/include/c++/9.1.0/bits/basic_ios.h ****       const __num_put_type*                          _M_num_put;
 105:/usr/include/c++/9.1.0/bits/basic_ios.h ****       // For istream.
 106:/usr/include/c++/9.1.0/bits/basic_ios.h ****       const __num_get_type*                          _M_num_get;
 107:/usr/include/c++/9.1.0/bits/basic_ios.h **** 
 108:/usr/include/c++/9.1.0/bits/basic_ios.h ****     public:
 109:/usr/include/c++/9.1.0/bits/basic_ios.h ****       //@{
 110:/usr/include/c++/9.1.0/bits/basic_ios.h ****       /**
 111:/usr/include/c++/9.1.0/bits/basic_ios.h ****        *  @brief  The quick-and-easy status check.
 112:/usr/include/c++/9.1.0/bits/basic_ios.h ****        *
 113:/usr/include/c++/9.1.0/bits/basic_ios.h ****        *  This allows you to write constructs such as
 114:/usr/include/c++/9.1.0/bits/basic_ios.h ****        *  <code>if (!a_stream) ...</code> and <code>while (a_stream) ...</code>
 115:/usr/include/c++/9.1.0/bits/basic_ios.h ****       */
 116:/usr/include/c++/9.1.0/bits/basic_ios.h **** #if __cplusplus >= 201103L
 117:/usr/include/c++/9.1.0/bits/basic_ios.h ****       explicit operator bool() const
 118:/usr/include/c++/9.1.0/bits/basic_ios.h ****       { return !this->fail(); }
 119:/usr/include/c++/9.1.0/bits/basic_ios.h **** #else
 120:/usr/include/c++/9.1.0/bits/basic_ios.h ****       operator void*() const
 121:/usr/include/c++/9.1.0/bits/basic_ios.h ****       { return this->fail() ? 0 : const_cast<basic_ios*>(this); }
 122:/usr/include/c++/9.1.0/bits/basic_ios.h **** #endif
 123:/usr/include/c++/9.1.0/bits/basic_ios.h **** 
 124:/usr/include/c++/9.1.0/bits/basic_ios.h ****       bool
 125:/usr/include/c++/9.1.0/bits/basic_ios.h ****       operator!() const
 126:/usr/include/c++/9.1.0/bits/basic_ios.h ****       { return this->fail(); }
 127:/usr/include/c++/9.1.0/bits/basic_ios.h ****       //@}
 128:/usr/include/c++/9.1.0/bits/basic_ios.h **** 
 129:/usr/include/c++/9.1.0/bits/basic_ios.h ****       /**
 130:/usr/include/c++/9.1.0/bits/basic_ios.h ****        *  @brief  Returns the error state of the stream buffer.
GAS LISTING /tmp/cc6iEGVT.s 			page 47


 131:/usr/include/c++/9.1.0/bits/basic_ios.h ****        *  @return  A bit pattern (well, isn't everything?)
 132:/usr/include/c++/9.1.0/bits/basic_ios.h ****        *
 133:/usr/include/c++/9.1.0/bits/basic_ios.h ****        *  See std::ios_base::iostate for the possible bit values.  Most
 134:/usr/include/c++/9.1.0/bits/basic_ios.h ****        *  users will call one of the interpreting wrappers, e.g., good().
 135:/usr/include/c++/9.1.0/bits/basic_ios.h ****       */
 136:/usr/include/c++/9.1.0/bits/basic_ios.h ****       iostate
 137:/usr/include/c++/9.1.0/bits/basic_ios.h ****       rdstate() const
 138:/usr/include/c++/9.1.0/bits/basic_ios.h ****       { return _M_streambuf_state; }
 139:/usr/include/c++/9.1.0/bits/basic_ios.h **** 
 140:/usr/include/c++/9.1.0/bits/basic_ios.h ****       /**
 141:/usr/include/c++/9.1.0/bits/basic_ios.h ****        *  @brief  [Re]sets the error state.
 142:/usr/include/c++/9.1.0/bits/basic_ios.h ****        *  @param  __state  The new state flag(s) to set.
 143:/usr/include/c++/9.1.0/bits/basic_ios.h ****        *
 144:/usr/include/c++/9.1.0/bits/basic_ios.h ****        *  See std::ios_base::iostate for the possible bit values.  Most
 145:/usr/include/c++/9.1.0/bits/basic_ios.h ****        *  users will not need to pass an argument.
 146:/usr/include/c++/9.1.0/bits/basic_ios.h ****       */
 147:/usr/include/c++/9.1.0/bits/basic_ios.h ****       void
 148:/usr/include/c++/9.1.0/bits/basic_ios.h ****       clear(iostate __state = goodbit);
 149:/usr/include/c++/9.1.0/bits/basic_ios.h **** 
 150:/usr/include/c++/9.1.0/bits/basic_ios.h ****       /**
 151:/usr/include/c++/9.1.0/bits/basic_ios.h ****        *  @brief  Sets additional flags in the error state.
 152:/usr/include/c++/9.1.0/bits/basic_ios.h ****        *  @param  __state  The additional state flag(s) to set.
 153:/usr/include/c++/9.1.0/bits/basic_ios.h ****        *
 154:/usr/include/c++/9.1.0/bits/basic_ios.h ****        *  See std::ios_base::iostate for the possible bit values.
 155:/usr/include/c++/9.1.0/bits/basic_ios.h ****       */
 156:/usr/include/c++/9.1.0/bits/basic_ios.h ****       void
 157:/usr/include/c++/9.1.0/bits/basic_ios.h ****       setstate(iostate __state)
 158:/usr/include/c++/9.1.0/bits/basic_ios.h ****       { this->clear(this->rdstate() | __state); }
 159:/usr/include/c++/9.1.0/bits/basic_ios.h **** 
 160:/usr/include/c++/9.1.0/bits/basic_ios.h ****       // Flip the internal state on for the proper state bits, then
 161:/usr/include/c++/9.1.0/bits/basic_ios.h ****       // rethrows the propagated exception if bit also set in
 162:/usr/include/c++/9.1.0/bits/basic_ios.h ****       // exceptions().
 163:/usr/include/c++/9.1.0/bits/basic_ios.h ****       void
 164:/usr/include/c++/9.1.0/bits/basic_ios.h ****       _M_setstate(iostate __state)
 165:/usr/include/c++/9.1.0/bits/basic_ios.h ****       {
 166:/usr/include/c++/9.1.0/bits/basic_ios.h **** 	// 27.6.1.2.1 Common requirements.
 167:/usr/include/c++/9.1.0/bits/basic_ios.h **** 	// Turn this on without causing an ios::failure to be thrown.
 168:/usr/include/c++/9.1.0/bits/basic_ios.h **** 	_M_streambuf_state |= __state;
 169:/usr/include/c++/9.1.0/bits/basic_ios.h **** 	if (this->exceptions() & __state)
 170:/usr/include/c++/9.1.0/bits/basic_ios.h **** 	  __throw_exception_again;
 171:/usr/include/c++/9.1.0/bits/basic_ios.h ****       }
 172:/usr/include/c++/9.1.0/bits/basic_ios.h **** 
 173:/usr/include/c++/9.1.0/bits/basic_ios.h ****       /**
 174:/usr/include/c++/9.1.0/bits/basic_ios.h ****        *  @brief  Fast error checking.
 175:/usr/include/c++/9.1.0/bits/basic_ios.h ****        *  @return  True if no error flags are set.
 176:/usr/include/c++/9.1.0/bits/basic_ios.h ****        *
 177:/usr/include/c++/9.1.0/bits/basic_ios.h ****        *  A wrapper around rdstate.
 178:/usr/include/c++/9.1.0/bits/basic_ios.h ****       */
 179:/usr/include/c++/9.1.0/bits/basic_ios.h ****       bool
 180:/usr/include/c++/9.1.0/bits/basic_ios.h ****       good() const
 181:/usr/include/c++/9.1.0/bits/basic_ios.h ****       { return this->rdstate() == 0; }
 182:/usr/include/c++/9.1.0/bits/basic_ios.h **** 
 183:/usr/include/c++/9.1.0/bits/basic_ios.h ****       /**
 184:/usr/include/c++/9.1.0/bits/basic_ios.h ****        *  @brief  Fast error checking.
 185:/usr/include/c++/9.1.0/bits/basic_ios.h ****        *  @return  True if the eofbit is set.
 186:/usr/include/c++/9.1.0/bits/basic_ios.h ****        *
 187:/usr/include/c++/9.1.0/bits/basic_ios.h ****        *  Note that other iostate flags may also be set.
GAS LISTING /tmp/cc6iEGVT.s 			page 48


 188:/usr/include/c++/9.1.0/bits/basic_ios.h ****       */
 189:/usr/include/c++/9.1.0/bits/basic_ios.h ****       bool
 190:/usr/include/c++/9.1.0/bits/basic_ios.h ****       eof() const
 191:/usr/include/c++/9.1.0/bits/basic_ios.h ****       { return (this->rdstate() & eofbit) != 0; }
 192:/usr/include/c++/9.1.0/bits/basic_ios.h **** 
 193:/usr/include/c++/9.1.0/bits/basic_ios.h ****       /**
 194:/usr/include/c++/9.1.0/bits/basic_ios.h ****        *  @brief  Fast error checking.
 195:/usr/include/c++/9.1.0/bits/basic_ios.h ****        *  @return  True if either the badbit or the failbit is set.
 196:/usr/include/c++/9.1.0/bits/basic_ios.h ****        *
 197:/usr/include/c++/9.1.0/bits/basic_ios.h ****        *  Checking the badbit in fail() is historical practice.
 198:/usr/include/c++/9.1.0/bits/basic_ios.h ****        *  Note that other iostate flags may also be set.
 199:/usr/include/c++/9.1.0/bits/basic_ios.h ****       */
 200:/usr/include/c++/9.1.0/bits/basic_ios.h ****       bool
 201:/usr/include/c++/9.1.0/bits/basic_ios.h ****       fail() const
 202:/usr/include/c++/9.1.0/bits/basic_ios.h ****       { return (this->rdstate() & (badbit | failbit)) != 0; }
 203:/usr/include/c++/9.1.0/bits/basic_ios.h **** 
 204:/usr/include/c++/9.1.0/bits/basic_ios.h ****       /**
 205:/usr/include/c++/9.1.0/bits/basic_ios.h ****        *  @brief  Fast error checking.
 206:/usr/include/c++/9.1.0/bits/basic_ios.h ****        *  @return  True if the badbit is set.
 207:/usr/include/c++/9.1.0/bits/basic_ios.h ****        *
 208:/usr/include/c++/9.1.0/bits/basic_ios.h ****        *  Note that other iostate flags may also be set.
 209:/usr/include/c++/9.1.0/bits/basic_ios.h ****       */
 210:/usr/include/c++/9.1.0/bits/basic_ios.h ****       bool
 211:/usr/include/c++/9.1.0/bits/basic_ios.h ****       bad() const
 212:/usr/include/c++/9.1.0/bits/basic_ios.h ****       { return (this->rdstate() & badbit) != 0; }
 213:/usr/include/c++/9.1.0/bits/basic_ios.h **** 
 214:/usr/include/c++/9.1.0/bits/basic_ios.h ****       /**
 215:/usr/include/c++/9.1.0/bits/basic_ios.h ****        *  @brief  Throwing exceptions on errors.
 216:/usr/include/c++/9.1.0/bits/basic_ios.h ****        *  @return  The current exceptions mask.
 217:/usr/include/c++/9.1.0/bits/basic_ios.h ****        *
 218:/usr/include/c++/9.1.0/bits/basic_ios.h ****        *  This changes nothing in the stream.  See the one-argument version
 219:/usr/include/c++/9.1.0/bits/basic_ios.h ****        *  of exceptions(iostate) for the meaning of the return value.
 220:/usr/include/c++/9.1.0/bits/basic_ios.h ****       */
 221:/usr/include/c++/9.1.0/bits/basic_ios.h ****       iostate
 222:/usr/include/c++/9.1.0/bits/basic_ios.h ****       exceptions() const
 223:/usr/include/c++/9.1.0/bits/basic_ios.h ****       { return _M_exception; }
 224:/usr/include/c++/9.1.0/bits/basic_ios.h **** 
 225:/usr/include/c++/9.1.0/bits/basic_ios.h ****       /**
 226:/usr/include/c++/9.1.0/bits/basic_ios.h ****        *  @brief  Throwing exceptions on errors.
 227:/usr/include/c++/9.1.0/bits/basic_ios.h ****        *  @param  __except  The new exceptions mask.
 228:/usr/include/c++/9.1.0/bits/basic_ios.h ****        *
 229:/usr/include/c++/9.1.0/bits/basic_ios.h ****        *  By default, error flags are set silently.  You can set an
 230:/usr/include/c++/9.1.0/bits/basic_ios.h ****        *  exceptions mask for each stream; if a bit in the mask becomes set
 231:/usr/include/c++/9.1.0/bits/basic_ios.h ****        *  in the error flags, then an exception of type
 232:/usr/include/c++/9.1.0/bits/basic_ios.h ****        *  std::ios_base::failure is thrown.
 233:/usr/include/c++/9.1.0/bits/basic_ios.h ****        *
 234:/usr/include/c++/9.1.0/bits/basic_ios.h ****        *  If the error flag is already set when the exceptions mask is
 235:/usr/include/c++/9.1.0/bits/basic_ios.h ****        *  added, the exception is immediately thrown.  Try running the
 236:/usr/include/c++/9.1.0/bits/basic_ios.h ****        *  following under GCC 3.1 or later:
 237:/usr/include/c++/9.1.0/bits/basic_ios.h ****        *  @code
 238:/usr/include/c++/9.1.0/bits/basic_ios.h ****        *  #include <iostream>
 239:/usr/include/c++/9.1.0/bits/basic_ios.h ****        *  #include <fstream>
 240:/usr/include/c++/9.1.0/bits/basic_ios.h ****        *  #include <exception>
 241:/usr/include/c++/9.1.0/bits/basic_ios.h ****        *
 242:/usr/include/c++/9.1.0/bits/basic_ios.h ****        *  int main()
 243:/usr/include/c++/9.1.0/bits/basic_ios.h ****        *  {
 244:/usr/include/c++/9.1.0/bits/basic_ios.h ****        *      std::set_terminate (__gnu_cxx::__verbose_terminate_handler);
GAS LISTING /tmp/cc6iEGVT.s 			page 49


 245:/usr/include/c++/9.1.0/bits/basic_ios.h ****        *
 246:/usr/include/c++/9.1.0/bits/basic_ios.h ****        *      std::ifstream f ("/etc/motd");
 247:/usr/include/c++/9.1.0/bits/basic_ios.h ****        *
 248:/usr/include/c++/9.1.0/bits/basic_ios.h ****        *      std::cerr << "Setting badbit\n";
 249:/usr/include/c++/9.1.0/bits/basic_ios.h ****        *      f.setstate (std::ios_base::badbit);
 250:/usr/include/c++/9.1.0/bits/basic_ios.h ****        *
 251:/usr/include/c++/9.1.0/bits/basic_ios.h ****        *      std::cerr << "Setting exception mask\n";
 252:/usr/include/c++/9.1.0/bits/basic_ios.h ****        *      f.exceptions (std::ios_base::badbit);
 253:/usr/include/c++/9.1.0/bits/basic_ios.h ****        *  }
 254:/usr/include/c++/9.1.0/bits/basic_ios.h ****        *  @endcode
 255:/usr/include/c++/9.1.0/bits/basic_ios.h ****       */
 256:/usr/include/c++/9.1.0/bits/basic_ios.h ****       void
 257:/usr/include/c++/9.1.0/bits/basic_ios.h ****       exceptions(iostate __except)
 258:/usr/include/c++/9.1.0/bits/basic_ios.h ****       {
 259:/usr/include/c++/9.1.0/bits/basic_ios.h ****         _M_exception = __except;
 260:/usr/include/c++/9.1.0/bits/basic_ios.h ****         this->clear(_M_streambuf_state);
 261:/usr/include/c++/9.1.0/bits/basic_ios.h ****       }
 262:/usr/include/c++/9.1.0/bits/basic_ios.h **** 
 263:/usr/include/c++/9.1.0/bits/basic_ios.h ****       // Constructor/destructor:
 264:/usr/include/c++/9.1.0/bits/basic_ios.h ****       /**
 265:/usr/include/c++/9.1.0/bits/basic_ios.h ****        *  @brief  Constructor performs initialization.
 266:/usr/include/c++/9.1.0/bits/basic_ios.h ****        *
 267:/usr/include/c++/9.1.0/bits/basic_ios.h ****        *  The parameter is passed by derived streams.
 268:/usr/include/c++/9.1.0/bits/basic_ios.h ****       */
 269:/usr/include/c++/9.1.0/bits/basic_ios.h ****       explicit
 270:/usr/include/c++/9.1.0/bits/basic_ios.h ****       basic_ios(basic_streambuf<_CharT, _Traits>* __sb)
 271:/usr/include/c++/9.1.0/bits/basic_ios.h ****       : ios_base(), _M_tie(0), _M_fill(), _M_fill_init(false), _M_streambuf(0),
 272:/usr/include/c++/9.1.0/bits/basic_ios.h **** 	_M_ctype(0), _M_num_put(0), _M_num_get(0)
 273:/usr/include/c++/9.1.0/bits/basic_ios.h ****       { this->init(__sb); }
 274:/usr/include/c++/9.1.0/bits/basic_ios.h **** 
 275:/usr/include/c++/9.1.0/bits/basic_ios.h ****       /**
 276:/usr/include/c++/9.1.0/bits/basic_ios.h ****        *  @brief  Empty.
 277:/usr/include/c++/9.1.0/bits/basic_ios.h ****        *
 278:/usr/include/c++/9.1.0/bits/basic_ios.h ****        *  The destructor does nothing.  More specifically, it does not
 279:/usr/include/c++/9.1.0/bits/basic_ios.h ****        *  destroy the streambuf held by rdbuf().
 280:/usr/include/c++/9.1.0/bits/basic_ios.h ****       */
 281:/usr/include/c++/9.1.0/bits/basic_ios.h ****       virtual
 282:/usr/include/c++/9.1.0/bits/basic_ios.h ****       ~basic_ios() { }
 283:/usr/include/c++/9.1.0/bits/basic_ios.h **** 
 284:/usr/include/c++/9.1.0/bits/basic_ios.h ****       // Members:
 285:/usr/include/c++/9.1.0/bits/basic_ios.h ****       /**
 286:/usr/include/c++/9.1.0/bits/basic_ios.h ****        *  @brief  Fetches the current @e tied stream.
 287:/usr/include/c++/9.1.0/bits/basic_ios.h ****        *  @return  A pointer to the tied stream, or NULL if the stream is
 288:/usr/include/c++/9.1.0/bits/basic_ios.h ****        *           not tied.
 289:/usr/include/c++/9.1.0/bits/basic_ios.h ****        *
 290:/usr/include/c++/9.1.0/bits/basic_ios.h ****        *  A stream may be @e tied (or synchronized) to a second output
 291:/usr/include/c++/9.1.0/bits/basic_ios.h ****        *  stream.  When this stream performs any I/O, the tied stream is
 292:/usr/include/c++/9.1.0/bits/basic_ios.h ****        *  first flushed.  For example, @c std::cin is tied to @c std::cout.
 293:/usr/include/c++/9.1.0/bits/basic_ios.h ****       */
 294:/usr/include/c++/9.1.0/bits/basic_ios.h ****       basic_ostream<_CharT, _Traits>*
 295:/usr/include/c++/9.1.0/bits/basic_ios.h ****       tie() const
 296:/usr/include/c++/9.1.0/bits/basic_ios.h ****       { return _M_tie; }
 297:/usr/include/c++/9.1.0/bits/basic_ios.h **** 
 298:/usr/include/c++/9.1.0/bits/basic_ios.h ****       /**
 299:/usr/include/c++/9.1.0/bits/basic_ios.h ****        *  @brief  Ties this stream to an output stream.
 300:/usr/include/c++/9.1.0/bits/basic_ios.h ****        *  @param  __tiestr  The output stream.
 301:/usr/include/c++/9.1.0/bits/basic_ios.h ****        *  @return  The previously tied output stream, or NULL if the stream
GAS LISTING /tmp/cc6iEGVT.s 			page 50


 302:/usr/include/c++/9.1.0/bits/basic_ios.h ****        *           was not tied.
 303:/usr/include/c++/9.1.0/bits/basic_ios.h ****        *
 304:/usr/include/c++/9.1.0/bits/basic_ios.h ****        *  This sets up a new tie; see tie() for more.
 305:/usr/include/c++/9.1.0/bits/basic_ios.h ****       */
 306:/usr/include/c++/9.1.0/bits/basic_ios.h ****       basic_ostream<_CharT, _Traits>*
 307:/usr/include/c++/9.1.0/bits/basic_ios.h ****       tie(basic_ostream<_CharT, _Traits>* __tiestr)
 308:/usr/include/c++/9.1.0/bits/basic_ios.h ****       {
 309:/usr/include/c++/9.1.0/bits/basic_ios.h ****         basic_ostream<_CharT, _Traits>* __old = _M_tie;
 310:/usr/include/c++/9.1.0/bits/basic_ios.h ****         _M_tie = __tiestr;
 311:/usr/include/c++/9.1.0/bits/basic_ios.h ****         return __old;
 312:/usr/include/c++/9.1.0/bits/basic_ios.h ****       }
 313:/usr/include/c++/9.1.0/bits/basic_ios.h **** 
 314:/usr/include/c++/9.1.0/bits/basic_ios.h ****       /**
 315:/usr/include/c++/9.1.0/bits/basic_ios.h ****        *  @brief  Accessing the underlying buffer.
 316:/usr/include/c++/9.1.0/bits/basic_ios.h ****        *  @return  The current stream buffer.
 317:/usr/include/c++/9.1.0/bits/basic_ios.h ****        *
 318:/usr/include/c++/9.1.0/bits/basic_ios.h ****        *  This does not change the state of the stream.
 319:/usr/include/c++/9.1.0/bits/basic_ios.h ****       */
 320:/usr/include/c++/9.1.0/bits/basic_ios.h ****       basic_streambuf<_CharT, _Traits>*
 321:/usr/include/c++/9.1.0/bits/basic_ios.h ****       rdbuf() const
 322:/usr/include/c++/9.1.0/bits/basic_ios.h ****       { return _M_streambuf; }
 323:/usr/include/c++/9.1.0/bits/basic_ios.h **** 
 324:/usr/include/c++/9.1.0/bits/basic_ios.h ****       /**
 325:/usr/include/c++/9.1.0/bits/basic_ios.h ****        *  @brief  Changing the underlying buffer.
 326:/usr/include/c++/9.1.0/bits/basic_ios.h ****        *  @param  __sb  The new stream buffer.
 327:/usr/include/c++/9.1.0/bits/basic_ios.h ****        *  @return  The previous stream buffer.
 328:/usr/include/c++/9.1.0/bits/basic_ios.h ****        *
 329:/usr/include/c++/9.1.0/bits/basic_ios.h ****        *  Associates a new buffer with the current stream, and clears the
 330:/usr/include/c++/9.1.0/bits/basic_ios.h ****        *  error state.
 331:/usr/include/c++/9.1.0/bits/basic_ios.h ****        *
 332:/usr/include/c++/9.1.0/bits/basic_ios.h ****        *  Due to historical accidents which the LWG refuses to correct, the
 333:/usr/include/c++/9.1.0/bits/basic_ios.h ****        *  I/O library suffers from a design error:  this function is hidden
 334:/usr/include/c++/9.1.0/bits/basic_ios.h ****        *  in derived classes by overrides of the zero-argument @c rdbuf(),
 335:/usr/include/c++/9.1.0/bits/basic_ios.h ****        *  which is non-virtual for hysterical raisins.  As a result, you
 336:/usr/include/c++/9.1.0/bits/basic_ios.h ****        *  must use explicit qualifications to access this function via any
 337:/usr/include/c++/9.1.0/bits/basic_ios.h ****        *  derived class.  For example:
 338:/usr/include/c++/9.1.0/bits/basic_ios.h ****        *
 339:/usr/include/c++/9.1.0/bits/basic_ios.h ****        *  @code
 340:/usr/include/c++/9.1.0/bits/basic_ios.h ****        *  std::fstream     foo;         // or some other derived type
 341:/usr/include/c++/9.1.0/bits/basic_ios.h ****        *  std::streambuf*  p = .....;
 342:/usr/include/c++/9.1.0/bits/basic_ios.h ****        *
 343:/usr/include/c++/9.1.0/bits/basic_ios.h ****        *  foo.ios::rdbuf(p);            // ios == basic_ios<char>
 344:/usr/include/c++/9.1.0/bits/basic_ios.h ****        *  @endcode
 345:/usr/include/c++/9.1.0/bits/basic_ios.h ****       */
 346:/usr/include/c++/9.1.0/bits/basic_ios.h ****       basic_streambuf<_CharT, _Traits>*
 347:/usr/include/c++/9.1.0/bits/basic_ios.h ****       rdbuf(basic_streambuf<_CharT, _Traits>* __sb);
 348:/usr/include/c++/9.1.0/bits/basic_ios.h **** 
 349:/usr/include/c++/9.1.0/bits/basic_ios.h ****       /**
 350:/usr/include/c++/9.1.0/bits/basic_ios.h ****        *  @brief  Copies fields of __rhs into this.
 351:/usr/include/c++/9.1.0/bits/basic_ios.h ****        *  @param  __rhs  The source values for the copies.
 352:/usr/include/c++/9.1.0/bits/basic_ios.h ****        *  @return  Reference to this object.
 353:/usr/include/c++/9.1.0/bits/basic_ios.h ****        *
 354:/usr/include/c++/9.1.0/bits/basic_ios.h ****        *  All fields of __rhs are copied into this object except that rdbuf()
 355:/usr/include/c++/9.1.0/bits/basic_ios.h ****        *  and rdstate() remain unchanged.  All values in the pword and iword
 356:/usr/include/c++/9.1.0/bits/basic_ios.h ****        *  arrays are copied.  Before copying, each callback is invoked with
 357:/usr/include/c++/9.1.0/bits/basic_ios.h ****        *  erase_event.  After copying, each (new) callback is invoked with
 358:/usr/include/c++/9.1.0/bits/basic_ios.h ****        *  copyfmt_event.  The final step is to copy exceptions().
GAS LISTING /tmp/cc6iEGVT.s 			page 51


 359:/usr/include/c++/9.1.0/bits/basic_ios.h ****       */
 360:/usr/include/c++/9.1.0/bits/basic_ios.h ****       basic_ios&
 361:/usr/include/c++/9.1.0/bits/basic_ios.h ****       copyfmt(const basic_ios& __rhs);
 362:/usr/include/c++/9.1.0/bits/basic_ios.h **** 
 363:/usr/include/c++/9.1.0/bits/basic_ios.h ****       /**
 364:/usr/include/c++/9.1.0/bits/basic_ios.h ****        *  @brief  Retrieves the @a empty character.
 365:/usr/include/c++/9.1.0/bits/basic_ios.h ****        *  @return  The current fill character.
 366:/usr/include/c++/9.1.0/bits/basic_ios.h ****        *
 367:/usr/include/c++/9.1.0/bits/basic_ios.h ****        *  It defaults to a space (' ') in the current locale.
 368:/usr/include/c++/9.1.0/bits/basic_ios.h ****       */
 369:/usr/include/c++/9.1.0/bits/basic_ios.h ****       char_type
 370:/usr/include/c++/9.1.0/bits/basic_ios.h ****       fill() const
 371:/usr/include/c++/9.1.0/bits/basic_ios.h ****       {
 372:/usr/include/c++/9.1.0/bits/basic_ios.h **** 	if (!_M_fill_init)
 373:/usr/include/c++/9.1.0/bits/basic_ios.h **** 	  {
 374:/usr/include/c++/9.1.0/bits/basic_ios.h **** 	    _M_fill = this->widen(' ');
 375:/usr/include/c++/9.1.0/bits/basic_ios.h **** 	    _M_fill_init = true;
 376:/usr/include/c++/9.1.0/bits/basic_ios.h **** 	  }
 377:/usr/include/c++/9.1.0/bits/basic_ios.h **** 	return _M_fill;
 378:/usr/include/c++/9.1.0/bits/basic_ios.h ****       }
 379:/usr/include/c++/9.1.0/bits/basic_ios.h **** 
 380:/usr/include/c++/9.1.0/bits/basic_ios.h ****       /**
 381:/usr/include/c++/9.1.0/bits/basic_ios.h ****        *  @brief  Sets a new @a empty character.
 382:/usr/include/c++/9.1.0/bits/basic_ios.h ****        *  @param  __ch  The new character.
 383:/usr/include/c++/9.1.0/bits/basic_ios.h ****        *  @return  The previous fill character.
 384:/usr/include/c++/9.1.0/bits/basic_ios.h ****        *
 385:/usr/include/c++/9.1.0/bits/basic_ios.h ****        *  The fill character is used to fill out space when P+ characters
 386:/usr/include/c++/9.1.0/bits/basic_ios.h ****        *  have been requested (e.g., via setw), Q characters are actually
 387:/usr/include/c++/9.1.0/bits/basic_ios.h ****        *  used, and Q<P.  It defaults to a space (' ') in the current locale.
 388:/usr/include/c++/9.1.0/bits/basic_ios.h ****       */
 389:/usr/include/c++/9.1.0/bits/basic_ios.h ****       char_type
 390:/usr/include/c++/9.1.0/bits/basic_ios.h ****       fill(char_type __ch)
 391:/usr/include/c++/9.1.0/bits/basic_ios.h ****       {
 392:/usr/include/c++/9.1.0/bits/basic_ios.h **** 	char_type __old = this->fill();
 393:/usr/include/c++/9.1.0/bits/basic_ios.h **** 	_M_fill = __ch;
 394:/usr/include/c++/9.1.0/bits/basic_ios.h **** 	return __old;
 395:/usr/include/c++/9.1.0/bits/basic_ios.h ****       }
 396:/usr/include/c++/9.1.0/bits/basic_ios.h **** 
 397:/usr/include/c++/9.1.0/bits/basic_ios.h ****       // Locales:
 398:/usr/include/c++/9.1.0/bits/basic_ios.h ****       /**
 399:/usr/include/c++/9.1.0/bits/basic_ios.h ****        *  @brief  Moves to a new locale.
 400:/usr/include/c++/9.1.0/bits/basic_ios.h ****        *  @param  __loc  The new locale.
 401:/usr/include/c++/9.1.0/bits/basic_ios.h ****        *  @return  The previous locale.
 402:/usr/include/c++/9.1.0/bits/basic_ios.h ****        *
 403:/usr/include/c++/9.1.0/bits/basic_ios.h ****        *  Calls @c ios_base::imbue(loc), and if a stream buffer is associated
 404:/usr/include/c++/9.1.0/bits/basic_ios.h ****        *  with this stream, calls that buffer's @c pubimbue(loc).
 405:/usr/include/c++/9.1.0/bits/basic_ios.h ****        *
 406:/usr/include/c++/9.1.0/bits/basic_ios.h ****        *  Additional l10n notes are at
 407:/usr/include/c++/9.1.0/bits/basic_ios.h ****        *  http://gcc.gnu.org/onlinedocs/libstdc++/manual/localization.html
 408:/usr/include/c++/9.1.0/bits/basic_ios.h ****       */
 409:/usr/include/c++/9.1.0/bits/basic_ios.h ****       locale
 410:/usr/include/c++/9.1.0/bits/basic_ios.h ****       imbue(const locale& __loc);
 411:/usr/include/c++/9.1.0/bits/basic_ios.h **** 
 412:/usr/include/c++/9.1.0/bits/basic_ios.h ****       /**
 413:/usr/include/c++/9.1.0/bits/basic_ios.h ****        *  @brief  Squeezes characters.
 414:/usr/include/c++/9.1.0/bits/basic_ios.h ****        *  @param  __c  The character to narrow.
 415:/usr/include/c++/9.1.0/bits/basic_ios.h ****        *  @param  __dfault  The character to narrow.
GAS LISTING /tmp/cc6iEGVT.s 			page 52


 416:/usr/include/c++/9.1.0/bits/basic_ios.h ****        *  @return  The narrowed character.
 417:/usr/include/c++/9.1.0/bits/basic_ios.h ****        *
 418:/usr/include/c++/9.1.0/bits/basic_ios.h ****        *  Maps a character of @c char_type to a character of @c char,
 419:/usr/include/c++/9.1.0/bits/basic_ios.h ****        *  if possible.
 420:/usr/include/c++/9.1.0/bits/basic_ios.h ****        *
 421:/usr/include/c++/9.1.0/bits/basic_ios.h ****        *  Returns the result of
 422:/usr/include/c++/9.1.0/bits/basic_ios.h ****        *  @code
 423:/usr/include/c++/9.1.0/bits/basic_ios.h ****        *    std::use_facet<ctype<char_type> >(getloc()).narrow(c,dfault)
 424:/usr/include/c++/9.1.0/bits/basic_ios.h ****        *  @endcode
 425:/usr/include/c++/9.1.0/bits/basic_ios.h ****        *
 426:/usr/include/c++/9.1.0/bits/basic_ios.h ****        *  Additional l10n notes are at
 427:/usr/include/c++/9.1.0/bits/basic_ios.h ****        *  http://gcc.gnu.org/onlinedocs/libstdc++/manual/localization.html
 428:/usr/include/c++/9.1.0/bits/basic_ios.h ****       */
 429:/usr/include/c++/9.1.0/bits/basic_ios.h ****       char
 430:/usr/include/c++/9.1.0/bits/basic_ios.h ****       narrow(char_type __c, char __dfault) const
 431:/usr/include/c++/9.1.0/bits/basic_ios.h ****       { return __check_facet(_M_ctype).narrow(__c, __dfault); }
 432:/usr/include/c++/9.1.0/bits/basic_ios.h **** 
 433:/usr/include/c++/9.1.0/bits/basic_ios.h ****       /**
 434:/usr/include/c++/9.1.0/bits/basic_ios.h ****        *  @brief  Widens characters.
 435:/usr/include/c++/9.1.0/bits/basic_ios.h ****        *  @param  __c  The character to widen.
 436:/usr/include/c++/9.1.0/bits/basic_ios.h ****        *  @return  The widened character.
 437:/usr/include/c++/9.1.0/bits/basic_ios.h ****        *
 438:/usr/include/c++/9.1.0/bits/basic_ios.h ****        *  Maps a character of @c char to a character of @c char_type.
 439:/usr/include/c++/9.1.0/bits/basic_ios.h ****        *
 440:/usr/include/c++/9.1.0/bits/basic_ios.h ****        *  Returns the result of
 441:/usr/include/c++/9.1.0/bits/basic_ios.h ****        *  @code
 442:/usr/include/c++/9.1.0/bits/basic_ios.h ****        *    std::use_facet<ctype<char_type> >(getloc()).widen(c)
 443:/usr/include/c++/9.1.0/bits/basic_ios.h ****        *  @endcode
 444:/usr/include/c++/9.1.0/bits/basic_ios.h ****        *
 445:/usr/include/c++/9.1.0/bits/basic_ios.h ****        *  Additional l10n notes are at
 446:/usr/include/c++/9.1.0/bits/basic_ios.h ****        *  http://gcc.gnu.org/onlinedocs/libstdc++/manual/localization.html
 447:/usr/include/c++/9.1.0/bits/basic_ios.h ****       */
 448:/usr/include/c++/9.1.0/bits/basic_ios.h ****       char_type
 449:/usr/include/c++/9.1.0/bits/basic_ios.h ****       widen(char __c) const
 630              		.loc 6 449 7 is_stmt 1 view .LVU174
 631              	.LBB219:
 450:/usr/include/c++/9.1.0/bits/basic_ios.h ****       { return __check_facet(_M_ctype).widen(__c); }
 632              		.loc 6 450 30 is_stmt 0 view .LVU175
 633 03c0 4C8BAFF0 		movq	240(%rdi), %r13
 633      000000
 634              	.LVL49:
 635              	.LBB220:
 636              	.LBI220:
  47:/usr/include/c++/9.1.0/bits/basic_ios.h ****     {
 637              		.loc 6 47 5 is_stmt 1 view .LVU176
 638              	.LBB221:
  49:/usr/include/c++/9.1.0/bits/basic_ios.h **** 	__throw_bad_cast();
 639              		.loc 6 49 7 is_stmt 0 view .LVU177
 640 03c7 4D85ED   		testq	%r13, %r13
 641 03ca 743C     		je	.L66
 642              	.LVL50:
  49:/usr/include/c++/9.1.0/bits/basic_ios.h **** 	__throw_bad_cast();
 643              		.loc 6 49 7 view .LVU178
 644              	.LBE221:
 645              	.LBE220:
 646              	.LBB223:
 647              	.LBI223:
GAS LISTING /tmp/cc6iEGVT.s 			page 53


 648              		.file 7 "/usr/include/c++/9.1.0/bits/locale_facets.h"
   1:/usr/include/c++/9.1.0/bits/locale_facets.h **** // Locale support -*- C++ -*-
   2:/usr/include/c++/9.1.0/bits/locale_facets.h **** 
   3:/usr/include/c++/9.1.0/bits/locale_facets.h **** // Copyright (C) 1997-2019 Free Software Foundation, Inc.
   4:/usr/include/c++/9.1.0/bits/locale_facets.h **** //
   5:/usr/include/c++/9.1.0/bits/locale_facets.h **** // This file is part of the GNU ISO C++ Library.  This library is free
   6:/usr/include/c++/9.1.0/bits/locale_facets.h **** // software; you can redistribute it and/or modify it under the
   7:/usr/include/c++/9.1.0/bits/locale_facets.h **** // terms of the GNU General Public License as published by the
   8:/usr/include/c++/9.1.0/bits/locale_facets.h **** // Free Software Foundation; either version 3, or (at your option)
   9:/usr/include/c++/9.1.0/bits/locale_facets.h **** // any later version.
  10:/usr/include/c++/9.1.0/bits/locale_facets.h **** 
  11:/usr/include/c++/9.1.0/bits/locale_facets.h **** // This library is distributed in the hope that it will be useful,
  12:/usr/include/c++/9.1.0/bits/locale_facets.h **** // but WITHOUT ANY WARRANTY; without even the implied warranty of
  13:/usr/include/c++/9.1.0/bits/locale_facets.h **** // MERCHANTABILITY or FITNESS FOR A PARTICULAR PURPOSE.  See the
  14:/usr/include/c++/9.1.0/bits/locale_facets.h **** // GNU General Public License for more details.
  15:/usr/include/c++/9.1.0/bits/locale_facets.h **** 
  16:/usr/include/c++/9.1.0/bits/locale_facets.h **** // Under Section 7 of GPL version 3, you are granted additional
  17:/usr/include/c++/9.1.0/bits/locale_facets.h **** // permissions described in the GCC Runtime Library Exception, version
  18:/usr/include/c++/9.1.0/bits/locale_facets.h **** // 3.1, as published by the Free Software Foundation.
  19:/usr/include/c++/9.1.0/bits/locale_facets.h **** 
  20:/usr/include/c++/9.1.0/bits/locale_facets.h **** // You should have received a copy of the GNU General Public License and
  21:/usr/include/c++/9.1.0/bits/locale_facets.h **** // a copy of the GCC Runtime Library Exception along with this program;
  22:/usr/include/c++/9.1.0/bits/locale_facets.h **** // see the files COPYING3 and COPYING.RUNTIME respectively.  If not, see
  23:/usr/include/c++/9.1.0/bits/locale_facets.h **** // <http://www.gnu.org/licenses/>.
  24:/usr/include/c++/9.1.0/bits/locale_facets.h **** 
  25:/usr/include/c++/9.1.0/bits/locale_facets.h **** /** @file bits/locale_facets.h
  26:/usr/include/c++/9.1.0/bits/locale_facets.h ****  *  This is an internal header file, included by other library headers.
  27:/usr/include/c++/9.1.0/bits/locale_facets.h ****  *  Do not attempt to use it directly. @headername{locale}
  28:/usr/include/c++/9.1.0/bits/locale_facets.h ****  */
  29:/usr/include/c++/9.1.0/bits/locale_facets.h **** 
  30:/usr/include/c++/9.1.0/bits/locale_facets.h **** //
  31:/usr/include/c++/9.1.0/bits/locale_facets.h **** // ISO C++ 14882: 22.1  Locales
  32:/usr/include/c++/9.1.0/bits/locale_facets.h **** //
  33:/usr/include/c++/9.1.0/bits/locale_facets.h **** 
  34:/usr/include/c++/9.1.0/bits/locale_facets.h **** #ifndef _LOCALE_FACETS_H
  35:/usr/include/c++/9.1.0/bits/locale_facets.h **** #define _LOCALE_FACETS_H 1
  36:/usr/include/c++/9.1.0/bits/locale_facets.h **** 
  37:/usr/include/c++/9.1.0/bits/locale_facets.h **** #pragma GCC system_header
  38:/usr/include/c++/9.1.0/bits/locale_facets.h **** 
  39:/usr/include/c++/9.1.0/bits/locale_facets.h **** #include <cwctype>	// For wctype_t
  40:/usr/include/c++/9.1.0/bits/locale_facets.h **** #include <cctype>
  41:/usr/include/c++/9.1.0/bits/locale_facets.h **** #include <bits/ctype_base.h>
  42:/usr/include/c++/9.1.0/bits/locale_facets.h **** #include <iosfwd>
  43:/usr/include/c++/9.1.0/bits/locale_facets.h **** #include <bits/ios_base.h>  // For ios_base, ios_base::iostate
  44:/usr/include/c++/9.1.0/bits/locale_facets.h **** #include <streambuf>
  45:/usr/include/c++/9.1.0/bits/locale_facets.h **** #include <bits/cpp_type_traits.h>
  46:/usr/include/c++/9.1.0/bits/locale_facets.h **** #include <ext/type_traits.h>
  47:/usr/include/c++/9.1.0/bits/locale_facets.h **** #include <ext/numeric_traits.h>
  48:/usr/include/c++/9.1.0/bits/locale_facets.h **** #include <bits/streambuf_iterator.h>
  49:/usr/include/c++/9.1.0/bits/locale_facets.h **** 
  50:/usr/include/c++/9.1.0/bits/locale_facets.h **** namespace std _GLIBCXX_VISIBILITY(default)
  51:/usr/include/c++/9.1.0/bits/locale_facets.h **** {
  52:/usr/include/c++/9.1.0/bits/locale_facets.h **** _GLIBCXX_BEGIN_NAMESPACE_VERSION
  53:/usr/include/c++/9.1.0/bits/locale_facets.h **** 
  54:/usr/include/c++/9.1.0/bits/locale_facets.h ****   // NB: Don't instantiate required wchar_t facets if no wchar_t support.
  55:/usr/include/c++/9.1.0/bits/locale_facets.h **** #ifdef _GLIBCXX_USE_WCHAR_T
  56:/usr/include/c++/9.1.0/bits/locale_facets.h **** # define  _GLIBCXX_NUM_FACETS 28
GAS LISTING /tmp/cc6iEGVT.s 			page 54


  57:/usr/include/c++/9.1.0/bits/locale_facets.h **** # define  _GLIBCXX_NUM_CXX11_FACETS 16
  58:/usr/include/c++/9.1.0/bits/locale_facets.h **** #else
  59:/usr/include/c++/9.1.0/bits/locale_facets.h **** # define  _GLIBCXX_NUM_FACETS 14
  60:/usr/include/c++/9.1.0/bits/locale_facets.h **** # define  _GLIBCXX_NUM_CXX11_FACETS 8
  61:/usr/include/c++/9.1.0/bits/locale_facets.h **** #endif
  62:/usr/include/c++/9.1.0/bits/locale_facets.h **** #ifdef _GLIBCXX_USE_CHAR8_T
  63:/usr/include/c++/9.1.0/bits/locale_facets.h **** # define _GLIBCXX_NUM_UNICODE_FACETS 4
  64:/usr/include/c++/9.1.0/bits/locale_facets.h **** #else
  65:/usr/include/c++/9.1.0/bits/locale_facets.h **** # define _GLIBCXX_NUM_UNICODE_FACETS 2
  66:/usr/include/c++/9.1.0/bits/locale_facets.h **** #endif
  67:/usr/include/c++/9.1.0/bits/locale_facets.h **** 
  68:/usr/include/c++/9.1.0/bits/locale_facets.h ****   // Convert string to numeric value of type _Tp and store results.
  69:/usr/include/c++/9.1.0/bits/locale_facets.h ****   // NB: This is specialized for all required types, there is no
  70:/usr/include/c++/9.1.0/bits/locale_facets.h ****   // generic definition.
  71:/usr/include/c++/9.1.0/bits/locale_facets.h ****   template<typename _Tp>
  72:/usr/include/c++/9.1.0/bits/locale_facets.h ****     void
  73:/usr/include/c++/9.1.0/bits/locale_facets.h ****     __convert_to_v(const char*, _Tp&, ios_base::iostate&,
  74:/usr/include/c++/9.1.0/bits/locale_facets.h **** 		   const __c_locale&) throw();
  75:/usr/include/c++/9.1.0/bits/locale_facets.h **** 
  76:/usr/include/c++/9.1.0/bits/locale_facets.h ****   // Explicit specializations for required types.
  77:/usr/include/c++/9.1.0/bits/locale_facets.h ****   template<>
  78:/usr/include/c++/9.1.0/bits/locale_facets.h ****     void
  79:/usr/include/c++/9.1.0/bits/locale_facets.h ****     __convert_to_v(const char*, float&, ios_base::iostate&,
  80:/usr/include/c++/9.1.0/bits/locale_facets.h **** 		   const __c_locale&) throw();
  81:/usr/include/c++/9.1.0/bits/locale_facets.h **** 
  82:/usr/include/c++/9.1.0/bits/locale_facets.h ****   template<>
  83:/usr/include/c++/9.1.0/bits/locale_facets.h ****     void
  84:/usr/include/c++/9.1.0/bits/locale_facets.h ****     __convert_to_v(const char*, double&, ios_base::iostate&,
  85:/usr/include/c++/9.1.0/bits/locale_facets.h **** 		   const __c_locale&) throw();
  86:/usr/include/c++/9.1.0/bits/locale_facets.h **** 
  87:/usr/include/c++/9.1.0/bits/locale_facets.h ****   template<>
  88:/usr/include/c++/9.1.0/bits/locale_facets.h ****     void
  89:/usr/include/c++/9.1.0/bits/locale_facets.h ****     __convert_to_v(const char*, long double&, ios_base::iostate&,
  90:/usr/include/c++/9.1.0/bits/locale_facets.h **** 		   const __c_locale&) throw();
  91:/usr/include/c++/9.1.0/bits/locale_facets.h **** 
  92:/usr/include/c++/9.1.0/bits/locale_facets.h ****   // NB: __pad is a struct, rather than a function, so it can be
  93:/usr/include/c++/9.1.0/bits/locale_facets.h ****   // partially-specialized.
  94:/usr/include/c++/9.1.0/bits/locale_facets.h ****   template<typename _CharT, typename _Traits>
  95:/usr/include/c++/9.1.0/bits/locale_facets.h ****     struct __pad
  96:/usr/include/c++/9.1.0/bits/locale_facets.h ****     {
  97:/usr/include/c++/9.1.0/bits/locale_facets.h ****       static void
  98:/usr/include/c++/9.1.0/bits/locale_facets.h ****       _S_pad(ios_base& __io, _CharT __fill, _CharT* __news,
  99:/usr/include/c++/9.1.0/bits/locale_facets.h **** 	     const _CharT* __olds, streamsize __newlen, streamsize __oldlen);
 100:/usr/include/c++/9.1.0/bits/locale_facets.h ****     };
 101:/usr/include/c++/9.1.0/bits/locale_facets.h **** 
 102:/usr/include/c++/9.1.0/bits/locale_facets.h ****   // Used by both numeric and monetary facets.
 103:/usr/include/c++/9.1.0/bits/locale_facets.h ****   // Inserts "group separator" characters into an array of characters.
 104:/usr/include/c++/9.1.0/bits/locale_facets.h ****   // It's recursive, one iteration per group.  It moves the characters
 105:/usr/include/c++/9.1.0/bits/locale_facets.h ****   // in the buffer this way: "xxxx12345" -> "12,345xxx".  Call this
 106:/usr/include/c++/9.1.0/bits/locale_facets.h ****   // only with __gsize != 0.
 107:/usr/include/c++/9.1.0/bits/locale_facets.h ****   template<typename _CharT>
 108:/usr/include/c++/9.1.0/bits/locale_facets.h ****     _CharT*
 109:/usr/include/c++/9.1.0/bits/locale_facets.h ****     __add_grouping(_CharT* __s, _CharT __sep,
 110:/usr/include/c++/9.1.0/bits/locale_facets.h **** 		   const char* __gbeg, size_t __gsize,
 111:/usr/include/c++/9.1.0/bits/locale_facets.h **** 		   const _CharT* __first, const _CharT* __last);
 112:/usr/include/c++/9.1.0/bits/locale_facets.h **** 
 113:/usr/include/c++/9.1.0/bits/locale_facets.h ****   // This template permits specializing facet output code for
GAS LISTING /tmp/cc6iEGVT.s 			page 55


 114:/usr/include/c++/9.1.0/bits/locale_facets.h ****   // ostreambuf_iterator.  For ostreambuf_iterator, sputn is
 115:/usr/include/c++/9.1.0/bits/locale_facets.h ****   // significantly more efficient than incrementing iterators.
 116:/usr/include/c++/9.1.0/bits/locale_facets.h ****   template<typename _CharT>
 117:/usr/include/c++/9.1.0/bits/locale_facets.h ****     inline
 118:/usr/include/c++/9.1.0/bits/locale_facets.h ****     ostreambuf_iterator<_CharT>
 119:/usr/include/c++/9.1.0/bits/locale_facets.h ****     __write(ostreambuf_iterator<_CharT> __s, const _CharT* __ws, int __len)
 120:/usr/include/c++/9.1.0/bits/locale_facets.h ****     {
 121:/usr/include/c++/9.1.0/bits/locale_facets.h ****       __s._M_put(__ws, __len);
 122:/usr/include/c++/9.1.0/bits/locale_facets.h ****       return __s;
 123:/usr/include/c++/9.1.0/bits/locale_facets.h ****     }
 124:/usr/include/c++/9.1.0/bits/locale_facets.h **** 
 125:/usr/include/c++/9.1.0/bits/locale_facets.h ****   // This is the unspecialized form of the template.
 126:/usr/include/c++/9.1.0/bits/locale_facets.h ****   template<typename _CharT, typename _OutIter>
 127:/usr/include/c++/9.1.0/bits/locale_facets.h ****     inline
 128:/usr/include/c++/9.1.0/bits/locale_facets.h ****     _OutIter
 129:/usr/include/c++/9.1.0/bits/locale_facets.h ****     __write(_OutIter __s, const _CharT* __ws, int __len)
 130:/usr/include/c++/9.1.0/bits/locale_facets.h ****     {
 131:/usr/include/c++/9.1.0/bits/locale_facets.h ****       for (int __j = 0; __j < __len; __j++, ++__s)
 132:/usr/include/c++/9.1.0/bits/locale_facets.h **** 	*__s = __ws[__j];
 133:/usr/include/c++/9.1.0/bits/locale_facets.h ****       return __s;
 134:/usr/include/c++/9.1.0/bits/locale_facets.h ****     }
 135:/usr/include/c++/9.1.0/bits/locale_facets.h **** 
 136:/usr/include/c++/9.1.0/bits/locale_facets.h **** 
 137:/usr/include/c++/9.1.0/bits/locale_facets.h ****   // 22.2.1.1  Template class ctype
 138:/usr/include/c++/9.1.0/bits/locale_facets.h ****   // Include host and configuration specific ctype enums for ctype_base.
 139:/usr/include/c++/9.1.0/bits/locale_facets.h **** 
 140:/usr/include/c++/9.1.0/bits/locale_facets.h ****   /**
 141:/usr/include/c++/9.1.0/bits/locale_facets.h ****    *  @brief  Common base for ctype facet
 142:/usr/include/c++/9.1.0/bits/locale_facets.h ****    *
 143:/usr/include/c++/9.1.0/bits/locale_facets.h ****    *  This template class provides implementations of the public functions
 144:/usr/include/c++/9.1.0/bits/locale_facets.h ****    *  that forward to the protected virtual functions.
 145:/usr/include/c++/9.1.0/bits/locale_facets.h ****    *
 146:/usr/include/c++/9.1.0/bits/locale_facets.h ****    *  This template also provides abstract stubs for the protected virtual
 147:/usr/include/c++/9.1.0/bits/locale_facets.h ****    *  functions.
 148:/usr/include/c++/9.1.0/bits/locale_facets.h ****   */
 149:/usr/include/c++/9.1.0/bits/locale_facets.h ****   template<typename _CharT>
 150:/usr/include/c++/9.1.0/bits/locale_facets.h ****     class __ctype_abstract_base : public locale::facet, public ctype_base
 151:/usr/include/c++/9.1.0/bits/locale_facets.h ****     {
 152:/usr/include/c++/9.1.0/bits/locale_facets.h ****     public:
 153:/usr/include/c++/9.1.0/bits/locale_facets.h ****       // Types:
 154:/usr/include/c++/9.1.0/bits/locale_facets.h ****       /// Typedef for the template parameter
 155:/usr/include/c++/9.1.0/bits/locale_facets.h ****       typedef _CharT char_type;
 156:/usr/include/c++/9.1.0/bits/locale_facets.h **** 
 157:/usr/include/c++/9.1.0/bits/locale_facets.h ****       /**
 158:/usr/include/c++/9.1.0/bits/locale_facets.h ****        *  @brief  Test char_type classification.
 159:/usr/include/c++/9.1.0/bits/locale_facets.h ****        *
 160:/usr/include/c++/9.1.0/bits/locale_facets.h ****        *  This function finds a mask M for @a __c and compares it to
 161:/usr/include/c++/9.1.0/bits/locale_facets.h ****        *  mask @a __m.  It does so by returning the value of
 162:/usr/include/c++/9.1.0/bits/locale_facets.h ****        *  ctype<char_type>::do_is().
 163:/usr/include/c++/9.1.0/bits/locale_facets.h ****        *
 164:/usr/include/c++/9.1.0/bits/locale_facets.h ****        *  @param __c  The char_type to compare the mask of.
 165:/usr/include/c++/9.1.0/bits/locale_facets.h ****        *  @param __m  The mask to compare against.
 166:/usr/include/c++/9.1.0/bits/locale_facets.h ****        *  @return  (M & __m) != 0.
 167:/usr/include/c++/9.1.0/bits/locale_facets.h ****       */
 168:/usr/include/c++/9.1.0/bits/locale_facets.h ****       bool
 169:/usr/include/c++/9.1.0/bits/locale_facets.h ****       is(mask __m, char_type __c) const
 170:/usr/include/c++/9.1.0/bits/locale_facets.h ****       { return this->do_is(__m, __c); }
GAS LISTING /tmp/cc6iEGVT.s 			page 56


 171:/usr/include/c++/9.1.0/bits/locale_facets.h **** 
 172:/usr/include/c++/9.1.0/bits/locale_facets.h ****       /**
 173:/usr/include/c++/9.1.0/bits/locale_facets.h ****        *  @brief  Return a mask array.
 174:/usr/include/c++/9.1.0/bits/locale_facets.h ****        *
 175:/usr/include/c++/9.1.0/bits/locale_facets.h ****        *  This function finds the mask for each char_type in the range [lo,hi)
 176:/usr/include/c++/9.1.0/bits/locale_facets.h ****        *  and successively writes it to vec.  vec must have as many elements
 177:/usr/include/c++/9.1.0/bits/locale_facets.h ****        *  as the char array.  It does so by returning the value of
 178:/usr/include/c++/9.1.0/bits/locale_facets.h ****        *  ctype<char_type>::do_is().
 179:/usr/include/c++/9.1.0/bits/locale_facets.h ****        *
 180:/usr/include/c++/9.1.0/bits/locale_facets.h ****        *  @param __lo  Pointer to start of range.
 181:/usr/include/c++/9.1.0/bits/locale_facets.h ****        *  @param __hi  Pointer to end of range.
 182:/usr/include/c++/9.1.0/bits/locale_facets.h ****        *  @param __vec  Pointer to an array of mask storage.
 183:/usr/include/c++/9.1.0/bits/locale_facets.h ****        *  @return  @a __hi.
 184:/usr/include/c++/9.1.0/bits/locale_facets.h ****       */
 185:/usr/include/c++/9.1.0/bits/locale_facets.h ****       const char_type*
 186:/usr/include/c++/9.1.0/bits/locale_facets.h ****       is(const char_type *__lo, const char_type *__hi, mask *__vec) const
 187:/usr/include/c++/9.1.0/bits/locale_facets.h ****       { return this->do_is(__lo, __hi, __vec); }
 188:/usr/include/c++/9.1.0/bits/locale_facets.h **** 
 189:/usr/include/c++/9.1.0/bits/locale_facets.h ****       /**
 190:/usr/include/c++/9.1.0/bits/locale_facets.h ****        *  @brief  Find char_type matching a mask
 191:/usr/include/c++/9.1.0/bits/locale_facets.h ****        *
 192:/usr/include/c++/9.1.0/bits/locale_facets.h ****        *  This function searches for and returns the first char_type c in
 193:/usr/include/c++/9.1.0/bits/locale_facets.h ****        *  [lo,hi) for which is(m,c) is true.  It does so by returning
 194:/usr/include/c++/9.1.0/bits/locale_facets.h ****        *  ctype<char_type>::do_scan_is().
 195:/usr/include/c++/9.1.0/bits/locale_facets.h ****        *
 196:/usr/include/c++/9.1.0/bits/locale_facets.h ****        *  @param __m  The mask to compare against.
 197:/usr/include/c++/9.1.0/bits/locale_facets.h ****        *  @param __lo  Pointer to start of range.
 198:/usr/include/c++/9.1.0/bits/locale_facets.h ****        *  @param __hi  Pointer to end of range.
 199:/usr/include/c++/9.1.0/bits/locale_facets.h ****        *  @return  Pointer to matching char_type if found, else @a __hi.
 200:/usr/include/c++/9.1.0/bits/locale_facets.h ****       */
 201:/usr/include/c++/9.1.0/bits/locale_facets.h ****       const char_type*
 202:/usr/include/c++/9.1.0/bits/locale_facets.h ****       scan_is(mask __m, const char_type* __lo, const char_type* __hi) const
 203:/usr/include/c++/9.1.0/bits/locale_facets.h ****       { return this->do_scan_is(__m, __lo, __hi); }
 204:/usr/include/c++/9.1.0/bits/locale_facets.h **** 
 205:/usr/include/c++/9.1.0/bits/locale_facets.h ****       /**
 206:/usr/include/c++/9.1.0/bits/locale_facets.h ****        *  @brief  Find char_type not matching a mask
 207:/usr/include/c++/9.1.0/bits/locale_facets.h ****        *
 208:/usr/include/c++/9.1.0/bits/locale_facets.h ****        *  This function searches for and returns the first char_type c in
 209:/usr/include/c++/9.1.0/bits/locale_facets.h ****        *  [lo,hi) for which is(m,c) is false.  It does so by returning
 210:/usr/include/c++/9.1.0/bits/locale_facets.h ****        *  ctype<char_type>::do_scan_not().
 211:/usr/include/c++/9.1.0/bits/locale_facets.h ****        *
 212:/usr/include/c++/9.1.0/bits/locale_facets.h ****        *  @param __m  The mask to compare against.
 213:/usr/include/c++/9.1.0/bits/locale_facets.h ****        *  @param __lo  Pointer to first char in range.
 214:/usr/include/c++/9.1.0/bits/locale_facets.h ****        *  @param __hi  Pointer to end of range.
 215:/usr/include/c++/9.1.0/bits/locale_facets.h ****        *  @return  Pointer to non-matching char if found, else @a __hi.
 216:/usr/include/c++/9.1.0/bits/locale_facets.h ****       */
 217:/usr/include/c++/9.1.0/bits/locale_facets.h ****       const char_type*
 218:/usr/include/c++/9.1.0/bits/locale_facets.h ****       scan_not(mask __m, const char_type* __lo, const char_type* __hi) const
 219:/usr/include/c++/9.1.0/bits/locale_facets.h ****       { return this->do_scan_not(__m, __lo, __hi); }
 220:/usr/include/c++/9.1.0/bits/locale_facets.h **** 
 221:/usr/include/c++/9.1.0/bits/locale_facets.h ****       /**
 222:/usr/include/c++/9.1.0/bits/locale_facets.h ****        *  @brief  Convert to uppercase.
 223:/usr/include/c++/9.1.0/bits/locale_facets.h ****        *
 224:/usr/include/c++/9.1.0/bits/locale_facets.h ****        *  This function converts the argument to uppercase if possible.
 225:/usr/include/c++/9.1.0/bits/locale_facets.h ****        *  If not possible (for example, '2'), returns the argument.  It does
 226:/usr/include/c++/9.1.0/bits/locale_facets.h ****        *  so by returning ctype<char_type>::do_toupper().
 227:/usr/include/c++/9.1.0/bits/locale_facets.h ****        *
GAS LISTING /tmp/cc6iEGVT.s 			page 57


 228:/usr/include/c++/9.1.0/bits/locale_facets.h ****        *  @param __c  The char_type to convert.
 229:/usr/include/c++/9.1.0/bits/locale_facets.h ****        *  @return  The uppercase char_type if convertible, else @a __c.
 230:/usr/include/c++/9.1.0/bits/locale_facets.h ****       */
 231:/usr/include/c++/9.1.0/bits/locale_facets.h ****       char_type
 232:/usr/include/c++/9.1.0/bits/locale_facets.h ****       toupper(char_type __c) const
 233:/usr/include/c++/9.1.0/bits/locale_facets.h ****       { return this->do_toupper(__c); }
 234:/usr/include/c++/9.1.0/bits/locale_facets.h **** 
 235:/usr/include/c++/9.1.0/bits/locale_facets.h ****       /**
 236:/usr/include/c++/9.1.0/bits/locale_facets.h ****        *  @brief  Convert array to uppercase.
 237:/usr/include/c++/9.1.0/bits/locale_facets.h ****        *
 238:/usr/include/c++/9.1.0/bits/locale_facets.h ****        *  This function converts each char_type in the range [lo,hi) to
 239:/usr/include/c++/9.1.0/bits/locale_facets.h ****        *  uppercase if possible.  Other elements remain untouched.  It does so
 240:/usr/include/c++/9.1.0/bits/locale_facets.h ****        *  by returning ctype<char_type>:: do_toupper(lo, hi).
 241:/usr/include/c++/9.1.0/bits/locale_facets.h ****        *
 242:/usr/include/c++/9.1.0/bits/locale_facets.h ****        *  @param __lo  Pointer to start of range.
 243:/usr/include/c++/9.1.0/bits/locale_facets.h ****        *  @param __hi  Pointer to end of range.
 244:/usr/include/c++/9.1.0/bits/locale_facets.h ****        *  @return  @a __hi.
 245:/usr/include/c++/9.1.0/bits/locale_facets.h ****       */
 246:/usr/include/c++/9.1.0/bits/locale_facets.h ****       const char_type*
 247:/usr/include/c++/9.1.0/bits/locale_facets.h ****       toupper(char_type *__lo, const char_type* __hi) const
 248:/usr/include/c++/9.1.0/bits/locale_facets.h ****       { return this->do_toupper(__lo, __hi); }
 249:/usr/include/c++/9.1.0/bits/locale_facets.h **** 
 250:/usr/include/c++/9.1.0/bits/locale_facets.h ****       /**
 251:/usr/include/c++/9.1.0/bits/locale_facets.h ****        *  @brief  Convert to lowercase.
 252:/usr/include/c++/9.1.0/bits/locale_facets.h ****        *
 253:/usr/include/c++/9.1.0/bits/locale_facets.h ****        *  This function converts the argument to lowercase if possible.  If
 254:/usr/include/c++/9.1.0/bits/locale_facets.h ****        *  not possible (for example, '2'), returns the argument.  It does so
 255:/usr/include/c++/9.1.0/bits/locale_facets.h ****        *  by returning ctype<char_type>::do_tolower(c).
 256:/usr/include/c++/9.1.0/bits/locale_facets.h ****        *
 257:/usr/include/c++/9.1.0/bits/locale_facets.h ****        *  @param __c  The char_type to convert.
 258:/usr/include/c++/9.1.0/bits/locale_facets.h ****        *  @return  The lowercase char_type if convertible, else @a __c.
 259:/usr/include/c++/9.1.0/bits/locale_facets.h ****       */
 260:/usr/include/c++/9.1.0/bits/locale_facets.h ****       char_type
 261:/usr/include/c++/9.1.0/bits/locale_facets.h ****       tolower(char_type __c) const
 262:/usr/include/c++/9.1.0/bits/locale_facets.h ****       { return this->do_tolower(__c); }
 263:/usr/include/c++/9.1.0/bits/locale_facets.h **** 
 264:/usr/include/c++/9.1.0/bits/locale_facets.h ****       /**
 265:/usr/include/c++/9.1.0/bits/locale_facets.h ****        *  @brief  Convert array to lowercase.
 266:/usr/include/c++/9.1.0/bits/locale_facets.h ****        *
 267:/usr/include/c++/9.1.0/bits/locale_facets.h ****        *  This function converts each char_type in the range [__lo,__hi) to
 268:/usr/include/c++/9.1.0/bits/locale_facets.h ****        *  lowercase if possible.  Other elements remain untouched.  It does so
 269:/usr/include/c++/9.1.0/bits/locale_facets.h ****        *  by returning ctype<char_type>:: do_tolower(__lo, __hi).
 270:/usr/include/c++/9.1.0/bits/locale_facets.h ****        *
 271:/usr/include/c++/9.1.0/bits/locale_facets.h ****        *  @param __lo  Pointer to start of range.
 272:/usr/include/c++/9.1.0/bits/locale_facets.h ****        *  @param __hi  Pointer to end of range.
 273:/usr/include/c++/9.1.0/bits/locale_facets.h ****        *  @return  @a __hi.
 274:/usr/include/c++/9.1.0/bits/locale_facets.h ****       */
 275:/usr/include/c++/9.1.0/bits/locale_facets.h ****       const char_type*
 276:/usr/include/c++/9.1.0/bits/locale_facets.h ****       tolower(char_type* __lo, const char_type* __hi) const
 277:/usr/include/c++/9.1.0/bits/locale_facets.h ****       { return this->do_tolower(__lo, __hi); }
 278:/usr/include/c++/9.1.0/bits/locale_facets.h **** 
 279:/usr/include/c++/9.1.0/bits/locale_facets.h ****       /**
 280:/usr/include/c++/9.1.0/bits/locale_facets.h ****        *  @brief  Widen char to char_type
 281:/usr/include/c++/9.1.0/bits/locale_facets.h ****        *
 282:/usr/include/c++/9.1.0/bits/locale_facets.h ****        *  This function converts the char argument to char_type using the
 283:/usr/include/c++/9.1.0/bits/locale_facets.h ****        *  simplest reasonable transformation.  It does so by returning
 284:/usr/include/c++/9.1.0/bits/locale_facets.h ****        *  ctype<char_type>::do_widen(c).
GAS LISTING /tmp/cc6iEGVT.s 			page 58


 285:/usr/include/c++/9.1.0/bits/locale_facets.h ****        *
 286:/usr/include/c++/9.1.0/bits/locale_facets.h ****        *  Note: this is not what you want for codepage conversions.  See
 287:/usr/include/c++/9.1.0/bits/locale_facets.h ****        *  codecvt for that.
 288:/usr/include/c++/9.1.0/bits/locale_facets.h ****        *
 289:/usr/include/c++/9.1.0/bits/locale_facets.h ****        *  @param __c  The char to convert.
 290:/usr/include/c++/9.1.0/bits/locale_facets.h ****        *  @return  The converted char_type.
 291:/usr/include/c++/9.1.0/bits/locale_facets.h ****       */
 292:/usr/include/c++/9.1.0/bits/locale_facets.h ****       char_type
 293:/usr/include/c++/9.1.0/bits/locale_facets.h ****       widen(char __c) const
 294:/usr/include/c++/9.1.0/bits/locale_facets.h ****       { return this->do_widen(__c); }
 295:/usr/include/c++/9.1.0/bits/locale_facets.h **** 
 296:/usr/include/c++/9.1.0/bits/locale_facets.h ****       /**
 297:/usr/include/c++/9.1.0/bits/locale_facets.h ****        *  @brief  Widen array to char_type
 298:/usr/include/c++/9.1.0/bits/locale_facets.h ****        *
 299:/usr/include/c++/9.1.0/bits/locale_facets.h ****        *  This function converts each char in the input to char_type using the
 300:/usr/include/c++/9.1.0/bits/locale_facets.h ****        *  simplest reasonable transformation.  It does so by returning
 301:/usr/include/c++/9.1.0/bits/locale_facets.h ****        *  ctype<char_type>::do_widen(c).
 302:/usr/include/c++/9.1.0/bits/locale_facets.h ****        *
 303:/usr/include/c++/9.1.0/bits/locale_facets.h ****        *  Note: this is not what you want for codepage conversions.  See
 304:/usr/include/c++/9.1.0/bits/locale_facets.h ****        *  codecvt for that.
 305:/usr/include/c++/9.1.0/bits/locale_facets.h ****        *
 306:/usr/include/c++/9.1.0/bits/locale_facets.h ****        *  @param __lo  Pointer to start of range.
 307:/usr/include/c++/9.1.0/bits/locale_facets.h ****        *  @param __hi  Pointer to end of range.
 308:/usr/include/c++/9.1.0/bits/locale_facets.h ****        *  @param __to  Pointer to the destination array.
 309:/usr/include/c++/9.1.0/bits/locale_facets.h ****        *  @return  @a __hi.
 310:/usr/include/c++/9.1.0/bits/locale_facets.h ****       */
 311:/usr/include/c++/9.1.0/bits/locale_facets.h ****       const char*
 312:/usr/include/c++/9.1.0/bits/locale_facets.h ****       widen(const char* __lo, const char* __hi, char_type* __to) const
 313:/usr/include/c++/9.1.0/bits/locale_facets.h ****       { return this->do_widen(__lo, __hi, __to); }
 314:/usr/include/c++/9.1.0/bits/locale_facets.h **** 
 315:/usr/include/c++/9.1.0/bits/locale_facets.h ****       /**
 316:/usr/include/c++/9.1.0/bits/locale_facets.h ****        *  @brief  Narrow char_type to char
 317:/usr/include/c++/9.1.0/bits/locale_facets.h ****        *
 318:/usr/include/c++/9.1.0/bits/locale_facets.h ****        *  This function converts the char_type to char using the simplest
 319:/usr/include/c++/9.1.0/bits/locale_facets.h ****        *  reasonable transformation.  If the conversion fails, dfault is
 320:/usr/include/c++/9.1.0/bits/locale_facets.h ****        *  returned instead.  It does so by returning
 321:/usr/include/c++/9.1.0/bits/locale_facets.h ****        *  ctype<char_type>::do_narrow(__c).
 322:/usr/include/c++/9.1.0/bits/locale_facets.h ****        *
 323:/usr/include/c++/9.1.0/bits/locale_facets.h ****        *  Note: this is not what you want for codepage conversions.  See
 324:/usr/include/c++/9.1.0/bits/locale_facets.h ****        *  codecvt for that.
 325:/usr/include/c++/9.1.0/bits/locale_facets.h ****        *
 326:/usr/include/c++/9.1.0/bits/locale_facets.h ****        *  @param __c  The char_type to convert.
 327:/usr/include/c++/9.1.0/bits/locale_facets.h ****        *  @param __dfault  Char to return if conversion fails.
 328:/usr/include/c++/9.1.0/bits/locale_facets.h ****        *  @return  The converted char.
 329:/usr/include/c++/9.1.0/bits/locale_facets.h ****       */
 330:/usr/include/c++/9.1.0/bits/locale_facets.h ****       char
 331:/usr/include/c++/9.1.0/bits/locale_facets.h ****       narrow(char_type __c, char __dfault) const
 332:/usr/include/c++/9.1.0/bits/locale_facets.h ****       { return this->do_narrow(__c, __dfault); }
 333:/usr/include/c++/9.1.0/bits/locale_facets.h **** 
 334:/usr/include/c++/9.1.0/bits/locale_facets.h ****       /**
 335:/usr/include/c++/9.1.0/bits/locale_facets.h ****        *  @brief  Narrow array to char array
 336:/usr/include/c++/9.1.0/bits/locale_facets.h ****        *
 337:/usr/include/c++/9.1.0/bits/locale_facets.h ****        *  This function converts each char_type in the input to char using the
 338:/usr/include/c++/9.1.0/bits/locale_facets.h ****        *  simplest reasonable transformation and writes the results to the
 339:/usr/include/c++/9.1.0/bits/locale_facets.h ****        *  destination array.  For any char_type in the input that cannot be
 340:/usr/include/c++/9.1.0/bits/locale_facets.h ****        *  converted, @a dfault is used instead.  It does so by returning
 341:/usr/include/c++/9.1.0/bits/locale_facets.h ****        *  ctype<char_type>::do_narrow(__lo, __hi, __dfault, __to).
GAS LISTING /tmp/cc6iEGVT.s 			page 59


 342:/usr/include/c++/9.1.0/bits/locale_facets.h ****        *
 343:/usr/include/c++/9.1.0/bits/locale_facets.h ****        *  Note: this is not what you want for codepage conversions.  See
 344:/usr/include/c++/9.1.0/bits/locale_facets.h ****        *  codecvt for that.
 345:/usr/include/c++/9.1.0/bits/locale_facets.h ****        *
 346:/usr/include/c++/9.1.0/bits/locale_facets.h ****        *  @param __lo  Pointer to start of range.
 347:/usr/include/c++/9.1.0/bits/locale_facets.h ****        *  @param __hi  Pointer to end of range.
 348:/usr/include/c++/9.1.0/bits/locale_facets.h ****        *  @param __dfault  Char to use if conversion fails.
 349:/usr/include/c++/9.1.0/bits/locale_facets.h ****        *  @param __to  Pointer to the destination array.
 350:/usr/include/c++/9.1.0/bits/locale_facets.h ****        *  @return  @a __hi.
 351:/usr/include/c++/9.1.0/bits/locale_facets.h ****       */
 352:/usr/include/c++/9.1.0/bits/locale_facets.h ****       const char_type*
 353:/usr/include/c++/9.1.0/bits/locale_facets.h ****       narrow(const char_type* __lo, const char_type* __hi,
 354:/usr/include/c++/9.1.0/bits/locale_facets.h **** 	      char __dfault, char* __to) const
 355:/usr/include/c++/9.1.0/bits/locale_facets.h ****       { return this->do_narrow(__lo, __hi, __dfault, __to); }
 356:/usr/include/c++/9.1.0/bits/locale_facets.h **** 
 357:/usr/include/c++/9.1.0/bits/locale_facets.h ****     protected:
 358:/usr/include/c++/9.1.0/bits/locale_facets.h ****       explicit
 359:/usr/include/c++/9.1.0/bits/locale_facets.h ****       __ctype_abstract_base(size_t __refs = 0): facet(__refs) { }
 360:/usr/include/c++/9.1.0/bits/locale_facets.h **** 
 361:/usr/include/c++/9.1.0/bits/locale_facets.h ****       virtual
 362:/usr/include/c++/9.1.0/bits/locale_facets.h ****       ~__ctype_abstract_base() { }
 363:/usr/include/c++/9.1.0/bits/locale_facets.h **** 
 364:/usr/include/c++/9.1.0/bits/locale_facets.h ****       /**
 365:/usr/include/c++/9.1.0/bits/locale_facets.h ****        *  @brief  Test char_type classification.
 366:/usr/include/c++/9.1.0/bits/locale_facets.h ****        *
 367:/usr/include/c++/9.1.0/bits/locale_facets.h ****        *  This function finds a mask M for @a c and compares it to mask @a m.
 368:/usr/include/c++/9.1.0/bits/locale_facets.h ****        *
 369:/usr/include/c++/9.1.0/bits/locale_facets.h ****        *  do_is() is a hook for a derived facet to change the behavior of
 370:/usr/include/c++/9.1.0/bits/locale_facets.h ****        *  classifying.  do_is() must always return the same result for the
 371:/usr/include/c++/9.1.0/bits/locale_facets.h ****        *  same input.
 372:/usr/include/c++/9.1.0/bits/locale_facets.h ****        *
 373:/usr/include/c++/9.1.0/bits/locale_facets.h ****        *  @param __c  The char_type to find the mask of.
 374:/usr/include/c++/9.1.0/bits/locale_facets.h ****        *  @param __m  The mask to compare against.
 375:/usr/include/c++/9.1.0/bits/locale_facets.h ****        *  @return  (M & __m) != 0.
 376:/usr/include/c++/9.1.0/bits/locale_facets.h ****       */
 377:/usr/include/c++/9.1.0/bits/locale_facets.h ****       virtual bool
 378:/usr/include/c++/9.1.0/bits/locale_facets.h ****       do_is(mask __m, char_type __c) const = 0;
 379:/usr/include/c++/9.1.0/bits/locale_facets.h **** 
 380:/usr/include/c++/9.1.0/bits/locale_facets.h ****       /**
 381:/usr/include/c++/9.1.0/bits/locale_facets.h ****        *  @brief  Return a mask array.
 382:/usr/include/c++/9.1.0/bits/locale_facets.h ****        *
 383:/usr/include/c++/9.1.0/bits/locale_facets.h ****        *  This function finds the mask for each char_type in the range [lo,hi)
 384:/usr/include/c++/9.1.0/bits/locale_facets.h ****        *  and successively writes it to vec.  vec must have as many elements
 385:/usr/include/c++/9.1.0/bits/locale_facets.h ****        *  as the input.
 386:/usr/include/c++/9.1.0/bits/locale_facets.h ****        *
 387:/usr/include/c++/9.1.0/bits/locale_facets.h ****        *  do_is() is a hook for a derived facet to change the behavior of
 388:/usr/include/c++/9.1.0/bits/locale_facets.h ****        *  classifying.  do_is() must always return the same result for the
 389:/usr/include/c++/9.1.0/bits/locale_facets.h ****        *  same input.
 390:/usr/include/c++/9.1.0/bits/locale_facets.h ****        *
 391:/usr/include/c++/9.1.0/bits/locale_facets.h ****        *  @param __lo  Pointer to start of range.
 392:/usr/include/c++/9.1.0/bits/locale_facets.h ****        *  @param __hi  Pointer to end of range.
 393:/usr/include/c++/9.1.0/bits/locale_facets.h ****        *  @param __vec  Pointer to an array of mask storage.
 394:/usr/include/c++/9.1.0/bits/locale_facets.h ****        *  @return  @a __hi.
 395:/usr/include/c++/9.1.0/bits/locale_facets.h ****       */
 396:/usr/include/c++/9.1.0/bits/locale_facets.h ****       virtual const char_type*
 397:/usr/include/c++/9.1.0/bits/locale_facets.h ****       do_is(const char_type* __lo, const char_type* __hi,
 398:/usr/include/c++/9.1.0/bits/locale_facets.h **** 	    mask* __vec) const = 0;
GAS LISTING /tmp/cc6iEGVT.s 			page 60


 399:/usr/include/c++/9.1.0/bits/locale_facets.h **** 
 400:/usr/include/c++/9.1.0/bits/locale_facets.h ****       /**
 401:/usr/include/c++/9.1.0/bits/locale_facets.h ****        *  @brief  Find char_type matching mask
 402:/usr/include/c++/9.1.0/bits/locale_facets.h ****        *
 403:/usr/include/c++/9.1.0/bits/locale_facets.h ****        *  This function searches for and returns the first char_type c in
 404:/usr/include/c++/9.1.0/bits/locale_facets.h ****        *  [__lo,__hi) for which is(__m,c) is true.
 405:/usr/include/c++/9.1.0/bits/locale_facets.h ****        *
 406:/usr/include/c++/9.1.0/bits/locale_facets.h ****        *  do_scan_is() is a hook for a derived facet to change the behavior of
 407:/usr/include/c++/9.1.0/bits/locale_facets.h ****        *  match searching.  do_is() must always return the same result for the
 408:/usr/include/c++/9.1.0/bits/locale_facets.h ****        *  same input.
 409:/usr/include/c++/9.1.0/bits/locale_facets.h ****        *
 410:/usr/include/c++/9.1.0/bits/locale_facets.h ****        *  @param __m  The mask to compare against.
 411:/usr/include/c++/9.1.0/bits/locale_facets.h ****        *  @param __lo  Pointer to start of range.
 412:/usr/include/c++/9.1.0/bits/locale_facets.h ****        *  @param __hi  Pointer to end of range.
 413:/usr/include/c++/9.1.0/bits/locale_facets.h ****        *  @return  Pointer to a matching char_type if found, else @a __hi.
 414:/usr/include/c++/9.1.0/bits/locale_facets.h ****       */
 415:/usr/include/c++/9.1.0/bits/locale_facets.h ****       virtual const char_type*
 416:/usr/include/c++/9.1.0/bits/locale_facets.h ****       do_scan_is(mask __m, const char_type* __lo,
 417:/usr/include/c++/9.1.0/bits/locale_facets.h **** 		 const char_type* __hi) const = 0;
 418:/usr/include/c++/9.1.0/bits/locale_facets.h **** 
 419:/usr/include/c++/9.1.0/bits/locale_facets.h ****       /**
 420:/usr/include/c++/9.1.0/bits/locale_facets.h ****        *  @brief  Find char_type not matching mask
 421:/usr/include/c++/9.1.0/bits/locale_facets.h ****        *
 422:/usr/include/c++/9.1.0/bits/locale_facets.h ****        *  This function searches for and returns a pointer to the first
 423:/usr/include/c++/9.1.0/bits/locale_facets.h ****        *  char_type c of [lo,hi) for which is(m,c) is false.
 424:/usr/include/c++/9.1.0/bits/locale_facets.h ****        *
 425:/usr/include/c++/9.1.0/bits/locale_facets.h ****        *  do_scan_is() is a hook for a derived facet to change the behavior of
 426:/usr/include/c++/9.1.0/bits/locale_facets.h ****        *  match searching.  do_is() must always return the same result for the
 427:/usr/include/c++/9.1.0/bits/locale_facets.h ****        *  same input.
 428:/usr/include/c++/9.1.0/bits/locale_facets.h ****        *
 429:/usr/include/c++/9.1.0/bits/locale_facets.h ****        *  @param __m  The mask to compare against.
 430:/usr/include/c++/9.1.0/bits/locale_facets.h ****        *  @param __lo  Pointer to start of range.
 431:/usr/include/c++/9.1.0/bits/locale_facets.h ****        *  @param __hi  Pointer to end of range.
 432:/usr/include/c++/9.1.0/bits/locale_facets.h ****        *  @return  Pointer to a non-matching char_type if found, else @a __hi.
 433:/usr/include/c++/9.1.0/bits/locale_facets.h ****       */
 434:/usr/include/c++/9.1.0/bits/locale_facets.h ****       virtual const char_type*
 435:/usr/include/c++/9.1.0/bits/locale_facets.h ****       do_scan_not(mask __m, const char_type* __lo,
 436:/usr/include/c++/9.1.0/bits/locale_facets.h **** 		  const char_type* __hi) const = 0;
 437:/usr/include/c++/9.1.0/bits/locale_facets.h **** 
 438:/usr/include/c++/9.1.0/bits/locale_facets.h ****       /**
 439:/usr/include/c++/9.1.0/bits/locale_facets.h ****        *  @brief  Convert to uppercase.
 440:/usr/include/c++/9.1.0/bits/locale_facets.h ****        *
 441:/usr/include/c++/9.1.0/bits/locale_facets.h ****        *  This virtual function converts the char_type argument to uppercase
 442:/usr/include/c++/9.1.0/bits/locale_facets.h ****        *  if possible.  If not possible (for example, '2'), returns the
 443:/usr/include/c++/9.1.0/bits/locale_facets.h ****        *  argument.
 444:/usr/include/c++/9.1.0/bits/locale_facets.h ****        *
 445:/usr/include/c++/9.1.0/bits/locale_facets.h ****        *  do_toupper() is a hook for a derived facet to change the behavior of
 446:/usr/include/c++/9.1.0/bits/locale_facets.h ****        *  uppercasing.  do_toupper() must always return the same result for
 447:/usr/include/c++/9.1.0/bits/locale_facets.h ****        *  the same input.
 448:/usr/include/c++/9.1.0/bits/locale_facets.h ****        *
 449:/usr/include/c++/9.1.0/bits/locale_facets.h ****        *  @param __c  The char_type to convert.
 450:/usr/include/c++/9.1.0/bits/locale_facets.h ****        *  @return  The uppercase char_type if convertible, else @a __c.
 451:/usr/include/c++/9.1.0/bits/locale_facets.h ****       */
 452:/usr/include/c++/9.1.0/bits/locale_facets.h ****       virtual char_type
 453:/usr/include/c++/9.1.0/bits/locale_facets.h ****       do_toupper(char_type __c) const = 0;
 454:/usr/include/c++/9.1.0/bits/locale_facets.h **** 
 455:/usr/include/c++/9.1.0/bits/locale_facets.h ****       /**
GAS LISTING /tmp/cc6iEGVT.s 			page 61


 456:/usr/include/c++/9.1.0/bits/locale_facets.h ****        *  @brief  Convert array to uppercase.
 457:/usr/include/c++/9.1.0/bits/locale_facets.h ****        *
 458:/usr/include/c++/9.1.0/bits/locale_facets.h ****        *  This virtual function converts each char_type in the range [__lo,__hi)
 459:/usr/include/c++/9.1.0/bits/locale_facets.h ****        *  to uppercase if possible.  Other elements remain untouched.
 460:/usr/include/c++/9.1.0/bits/locale_facets.h ****        *
 461:/usr/include/c++/9.1.0/bits/locale_facets.h ****        *  do_toupper() is a hook for a derived facet to change the behavior of
 462:/usr/include/c++/9.1.0/bits/locale_facets.h ****        *  uppercasing.  do_toupper() must always return the same result for
 463:/usr/include/c++/9.1.0/bits/locale_facets.h ****        *  the same input.
 464:/usr/include/c++/9.1.0/bits/locale_facets.h ****        *
 465:/usr/include/c++/9.1.0/bits/locale_facets.h ****        *  @param __lo  Pointer to start of range.
 466:/usr/include/c++/9.1.0/bits/locale_facets.h ****        *  @param __hi  Pointer to end of range.
 467:/usr/include/c++/9.1.0/bits/locale_facets.h ****        *  @return  @a __hi.
 468:/usr/include/c++/9.1.0/bits/locale_facets.h ****       */
 469:/usr/include/c++/9.1.0/bits/locale_facets.h ****       virtual const char_type*
 470:/usr/include/c++/9.1.0/bits/locale_facets.h ****       do_toupper(char_type* __lo, const char_type* __hi) const = 0;
 471:/usr/include/c++/9.1.0/bits/locale_facets.h **** 
 472:/usr/include/c++/9.1.0/bits/locale_facets.h ****       /**
 473:/usr/include/c++/9.1.0/bits/locale_facets.h ****        *  @brief  Convert to lowercase.
 474:/usr/include/c++/9.1.0/bits/locale_facets.h ****        *
 475:/usr/include/c++/9.1.0/bits/locale_facets.h ****        *  This virtual function converts the argument to lowercase if
 476:/usr/include/c++/9.1.0/bits/locale_facets.h ****        *  possible.  If not possible (for example, '2'), returns the argument.
 477:/usr/include/c++/9.1.0/bits/locale_facets.h ****        *
 478:/usr/include/c++/9.1.0/bits/locale_facets.h ****        *  do_tolower() is a hook for a derived facet to change the behavior of
 479:/usr/include/c++/9.1.0/bits/locale_facets.h ****        *  lowercasing.  do_tolower() must always return the same result for
 480:/usr/include/c++/9.1.0/bits/locale_facets.h ****        *  the same input.
 481:/usr/include/c++/9.1.0/bits/locale_facets.h ****        *
 482:/usr/include/c++/9.1.0/bits/locale_facets.h ****        *  @param __c  The char_type to convert.
 483:/usr/include/c++/9.1.0/bits/locale_facets.h ****        *  @return  The lowercase char_type if convertible, else @a __c.
 484:/usr/include/c++/9.1.0/bits/locale_facets.h ****       */
 485:/usr/include/c++/9.1.0/bits/locale_facets.h ****       virtual char_type
 486:/usr/include/c++/9.1.0/bits/locale_facets.h ****       do_tolower(char_type __c) const = 0;
 487:/usr/include/c++/9.1.0/bits/locale_facets.h **** 
 488:/usr/include/c++/9.1.0/bits/locale_facets.h ****       /**
 489:/usr/include/c++/9.1.0/bits/locale_facets.h ****        *  @brief  Convert array to lowercase.
 490:/usr/include/c++/9.1.0/bits/locale_facets.h ****        *
 491:/usr/include/c++/9.1.0/bits/locale_facets.h ****        *  This virtual function converts each char_type in the range [__lo,__hi)
 492:/usr/include/c++/9.1.0/bits/locale_facets.h ****        *  to lowercase if possible.  Other elements remain untouched.
 493:/usr/include/c++/9.1.0/bits/locale_facets.h ****        *
 494:/usr/include/c++/9.1.0/bits/locale_facets.h ****        *  do_tolower() is a hook for a derived facet to change the behavior of
 495:/usr/include/c++/9.1.0/bits/locale_facets.h ****        *  lowercasing.  do_tolower() must always return the same result for
 496:/usr/include/c++/9.1.0/bits/locale_facets.h ****        *  the same input.
 497:/usr/include/c++/9.1.0/bits/locale_facets.h ****        *
 498:/usr/include/c++/9.1.0/bits/locale_facets.h ****        *  @param __lo  Pointer to start of range.
 499:/usr/include/c++/9.1.0/bits/locale_facets.h ****        *  @param __hi  Pointer to end of range.
 500:/usr/include/c++/9.1.0/bits/locale_facets.h ****        *  @return  @a __hi.
 501:/usr/include/c++/9.1.0/bits/locale_facets.h ****       */
 502:/usr/include/c++/9.1.0/bits/locale_facets.h ****       virtual const char_type*
 503:/usr/include/c++/9.1.0/bits/locale_facets.h ****       do_tolower(char_type* __lo, const char_type* __hi) const = 0;
 504:/usr/include/c++/9.1.0/bits/locale_facets.h **** 
 505:/usr/include/c++/9.1.0/bits/locale_facets.h ****       /**
 506:/usr/include/c++/9.1.0/bits/locale_facets.h ****        *  @brief  Widen char
 507:/usr/include/c++/9.1.0/bits/locale_facets.h ****        *
 508:/usr/include/c++/9.1.0/bits/locale_facets.h ****        *  This virtual function converts the char to char_type using the
 509:/usr/include/c++/9.1.0/bits/locale_facets.h ****        *  simplest reasonable transformation.
 510:/usr/include/c++/9.1.0/bits/locale_facets.h ****        *
 511:/usr/include/c++/9.1.0/bits/locale_facets.h ****        *  do_widen() is a hook for a derived facet to change the behavior of
 512:/usr/include/c++/9.1.0/bits/locale_facets.h ****        *  widening.  do_widen() must always return the same result for the
GAS LISTING /tmp/cc6iEGVT.s 			page 62


 513:/usr/include/c++/9.1.0/bits/locale_facets.h ****        *  same input.
 514:/usr/include/c++/9.1.0/bits/locale_facets.h ****        *
 515:/usr/include/c++/9.1.0/bits/locale_facets.h ****        *  Note: this is not what you want for codepage conversions.  See
 516:/usr/include/c++/9.1.0/bits/locale_facets.h ****        *  codecvt for that.
 517:/usr/include/c++/9.1.0/bits/locale_facets.h ****        *
 518:/usr/include/c++/9.1.0/bits/locale_facets.h ****        *  @param __c  The char to convert.
 519:/usr/include/c++/9.1.0/bits/locale_facets.h ****        *  @return  The converted char_type
 520:/usr/include/c++/9.1.0/bits/locale_facets.h ****       */
 521:/usr/include/c++/9.1.0/bits/locale_facets.h ****       virtual char_type
 522:/usr/include/c++/9.1.0/bits/locale_facets.h ****       do_widen(char __c) const = 0;
 523:/usr/include/c++/9.1.0/bits/locale_facets.h **** 
 524:/usr/include/c++/9.1.0/bits/locale_facets.h ****       /**
 525:/usr/include/c++/9.1.0/bits/locale_facets.h ****        *  @brief  Widen char array
 526:/usr/include/c++/9.1.0/bits/locale_facets.h ****        *
 527:/usr/include/c++/9.1.0/bits/locale_facets.h ****        *  This function converts each char in the input to char_type using the
 528:/usr/include/c++/9.1.0/bits/locale_facets.h ****        *  simplest reasonable transformation.
 529:/usr/include/c++/9.1.0/bits/locale_facets.h ****        *
 530:/usr/include/c++/9.1.0/bits/locale_facets.h ****        *  do_widen() is a hook for a derived facet to change the behavior of
 531:/usr/include/c++/9.1.0/bits/locale_facets.h ****        *  widening.  do_widen() must always return the same result for the
 532:/usr/include/c++/9.1.0/bits/locale_facets.h ****        *  same input.
 533:/usr/include/c++/9.1.0/bits/locale_facets.h ****        *
 534:/usr/include/c++/9.1.0/bits/locale_facets.h ****        *  Note: this is not what you want for codepage conversions.  See
 535:/usr/include/c++/9.1.0/bits/locale_facets.h ****        *  codecvt for that.
 536:/usr/include/c++/9.1.0/bits/locale_facets.h ****        *
 537:/usr/include/c++/9.1.0/bits/locale_facets.h ****        *  @param __lo  Pointer to start range.
 538:/usr/include/c++/9.1.0/bits/locale_facets.h ****        *  @param __hi  Pointer to end of range.
 539:/usr/include/c++/9.1.0/bits/locale_facets.h ****        *  @param __to  Pointer to the destination array.
 540:/usr/include/c++/9.1.0/bits/locale_facets.h ****        *  @return  @a __hi.
 541:/usr/include/c++/9.1.0/bits/locale_facets.h ****       */
 542:/usr/include/c++/9.1.0/bits/locale_facets.h ****       virtual const char*
 543:/usr/include/c++/9.1.0/bits/locale_facets.h ****       do_widen(const char* __lo, const char* __hi, char_type* __to) const = 0;
 544:/usr/include/c++/9.1.0/bits/locale_facets.h **** 
 545:/usr/include/c++/9.1.0/bits/locale_facets.h ****       /**
 546:/usr/include/c++/9.1.0/bits/locale_facets.h ****        *  @brief  Narrow char_type to char
 547:/usr/include/c++/9.1.0/bits/locale_facets.h ****        *
 548:/usr/include/c++/9.1.0/bits/locale_facets.h ****        *  This virtual function converts the argument to char using the
 549:/usr/include/c++/9.1.0/bits/locale_facets.h ****        *  simplest reasonable transformation.  If the conversion fails, dfault
 550:/usr/include/c++/9.1.0/bits/locale_facets.h ****        *  is returned instead.
 551:/usr/include/c++/9.1.0/bits/locale_facets.h ****        *
 552:/usr/include/c++/9.1.0/bits/locale_facets.h ****        *  do_narrow() is a hook for a derived facet to change the behavior of
 553:/usr/include/c++/9.1.0/bits/locale_facets.h ****        *  narrowing.  do_narrow() must always return the same result for the
 554:/usr/include/c++/9.1.0/bits/locale_facets.h ****        *  same input.
 555:/usr/include/c++/9.1.0/bits/locale_facets.h ****        *
 556:/usr/include/c++/9.1.0/bits/locale_facets.h ****        *  Note: this is not what you want for codepage conversions.  See
 557:/usr/include/c++/9.1.0/bits/locale_facets.h ****        *  codecvt for that.
 558:/usr/include/c++/9.1.0/bits/locale_facets.h ****        *
 559:/usr/include/c++/9.1.0/bits/locale_facets.h ****        *  @param __c  The char_type to convert.
 560:/usr/include/c++/9.1.0/bits/locale_facets.h ****        *  @param __dfault  Char to return if conversion fails.
 561:/usr/include/c++/9.1.0/bits/locale_facets.h ****        *  @return  The converted char.
 562:/usr/include/c++/9.1.0/bits/locale_facets.h ****       */
 563:/usr/include/c++/9.1.0/bits/locale_facets.h ****       virtual char
 564:/usr/include/c++/9.1.0/bits/locale_facets.h ****       do_narrow(char_type __c, char __dfault) const = 0;
 565:/usr/include/c++/9.1.0/bits/locale_facets.h **** 
 566:/usr/include/c++/9.1.0/bits/locale_facets.h ****       /**
 567:/usr/include/c++/9.1.0/bits/locale_facets.h ****        *  @brief  Narrow char_type array to char
 568:/usr/include/c++/9.1.0/bits/locale_facets.h ****        *
 569:/usr/include/c++/9.1.0/bits/locale_facets.h ****        *  This virtual function converts each char_type in the range
GAS LISTING /tmp/cc6iEGVT.s 			page 63


 570:/usr/include/c++/9.1.0/bits/locale_facets.h ****        *  [__lo,__hi) to char using the simplest reasonable
 571:/usr/include/c++/9.1.0/bits/locale_facets.h ****        *  transformation and writes the results to the destination
 572:/usr/include/c++/9.1.0/bits/locale_facets.h ****        *  array.  For any element in the input that cannot be
 573:/usr/include/c++/9.1.0/bits/locale_facets.h ****        *  converted, @a __dfault is used instead.
 574:/usr/include/c++/9.1.0/bits/locale_facets.h ****        *
 575:/usr/include/c++/9.1.0/bits/locale_facets.h ****        *  do_narrow() is a hook for a derived facet to change the behavior of
 576:/usr/include/c++/9.1.0/bits/locale_facets.h ****        *  narrowing.  do_narrow() must always return the same result for the
 577:/usr/include/c++/9.1.0/bits/locale_facets.h ****        *  same input.
 578:/usr/include/c++/9.1.0/bits/locale_facets.h ****        *
 579:/usr/include/c++/9.1.0/bits/locale_facets.h ****        *  Note: this is not what you want for codepage conversions.  See
 580:/usr/include/c++/9.1.0/bits/locale_facets.h ****        *  codecvt for that.
 581:/usr/include/c++/9.1.0/bits/locale_facets.h ****        *
 582:/usr/include/c++/9.1.0/bits/locale_facets.h ****        *  @param __lo  Pointer to start of range.
 583:/usr/include/c++/9.1.0/bits/locale_facets.h ****        *  @param __hi  Pointer to end of range.
 584:/usr/include/c++/9.1.0/bits/locale_facets.h ****        *  @param __dfault  Char to use if conversion fails.
 585:/usr/include/c++/9.1.0/bits/locale_facets.h ****        *  @param __to  Pointer to the destination array.
 586:/usr/include/c++/9.1.0/bits/locale_facets.h ****        *  @return  @a __hi.
 587:/usr/include/c++/9.1.0/bits/locale_facets.h ****       */
 588:/usr/include/c++/9.1.0/bits/locale_facets.h ****       virtual const char_type*
 589:/usr/include/c++/9.1.0/bits/locale_facets.h ****       do_narrow(const char_type* __lo, const char_type* __hi,
 590:/usr/include/c++/9.1.0/bits/locale_facets.h **** 		char __dfault, char* __to) const = 0;
 591:/usr/include/c++/9.1.0/bits/locale_facets.h ****     };
 592:/usr/include/c++/9.1.0/bits/locale_facets.h **** 
 593:/usr/include/c++/9.1.0/bits/locale_facets.h ****   /**
 594:/usr/include/c++/9.1.0/bits/locale_facets.h ****    *  @brief  Primary class template ctype facet.
 595:/usr/include/c++/9.1.0/bits/locale_facets.h ****    *  @ingroup locales
 596:/usr/include/c++/9.1.0/bits/locale_facets.h ****    *
 597:/usr/include/c++/9.1.0/bits/locale_facets.h ****    *  This template class defines classification and conversion functions for
 598:/usr/include/c++/9.1.0/bits/locale_facets.h ****    *  character sets.  It wraps cctype functionality.  Ctype gets used by
 599:/usr/include/c++/9.1.0/bits/locale_facets.h ****    *  streams for many I/O operations.
 600:/usr/include/c++/9.1.0/bits/locale_facets.h ****    *
 601:/usr/include/c++/9.1.0/bits/locale_facets.h ****    *  This template provides the protected virtual functions the developer
 602:/usr/include/c++/9.1.0/bits/locale_facets.h ****    *  will have to replace in a derived class or specialization to make a
 603:/usr/include/c++/9.1.0/bits/locale_facets.h ****    *  working facet.  The public functions that access them are defined in
 604:/usr/include/c++/9.1.0/bits/locale_facets.h ****    *  __ctype_abstract_base, to allow for implementation flexibility.  See
 605:/usr/include/c++/9.1.0/bits/locale_facets.h ****    *  ctype<wchar_t> for an example.  The functions are documented in
 606:/usr/include/c++/9.1.0/bits/locale_facets.h ****    *  __ctype_abstract_base.
 607:/usr/include/c++/9.1.0/bits/locale_facets.h ****    *
 608:/usr/include/c++/9.1.0/bits/locale_facets.h ****    *  Note: implementations are provided for all the protected virtual
 609:/usr/include/c++/9.1.0/bits/locale_facets.h ****    *  functions, but will likely not be useful.
 610:/usr/include/c++/9.1.0/bits/locale_facets.h ****   */
 611:/usr/include/c++/9.1.0/bits/locale_facets.h ****   template<typename _CharT>
 612:/usr/include/c++/9.1.0/bits/locale_facets.h ****     class ctype : public __ctype_abstract_base<_CharT>
 613:/usr/include/c++/9.1.0/bits/locale_facets.h ****     {
 614:/usr/include/c++/9.1.0/bits/locale_facets.h ****     public:
 615:/usr/include/c++/9.1.0/bits/locale_facets.h ****       // Types:
 616:/usr/include/c++/9.1.0/bits/locale_facets.h ****       typedef _CharT			char_type;
 617:/usr/include/c++/9.1.0/bits/locale_facets.h ****       typedef typename __ctype_abstract_base<_CharT>::mask mask;
 618:/usr/include/c++/9.1.0/bits/locale_facets.h **** 
 619:/usr/include/c++/9.1.0/bits/locale_facets.h ****       /// The facet id for ctype<char_type>
 620:/usr/include/c++/9.1.0/bits/locale_facets.h ****       static locale::id			id;
 621:/usr/include/c++/9.1.0/bits/locale_facets.h **** 
 622:/usr/include/c++/9.1.0/bits/locale_facets.h ****       explicit
 623:/usr/include/c++/9.1.0/bits/locale_facets.h ****       ctype(size_t __refs = 0) : __ctype_abstract_base<_CharT>(__refs) { }
 624:/usr/include/c++/9.1.0/bits/locale_facets.h **** 
 625:/usr/include/c++/9.1.0/bits/locale_facets.h ****    protected:
 626:/usr/include/c++/9.1.0/bits/locale_facets.h ****       virtual
GAS LISTING /tmp/cc6iEGVT.s 			page 64


 627:/usr/include/c++/9.1.0/bits/locale_facets.h ****       ~ctype();
 628:/usr/include/c++/9.1.0/bits/locale_facets.h **** 
 629:/usr/include/c++/9.1.0/bits/locale_facets.h ****       virtual bool
 630:/usr/include/c++/9.1.0/bits/locale_facets.h ****       do_is(mask __m, char_type __c) const;
 631:/usr/include/c++/9.1.0/bits/locale_facets.h **** 
 632:/usr/include/c++/9.1.0/bits/locale_facets.h ****       virtual const char_type*
 633:/usr/include/c++/9.1.0/bits/locale_facets.h ****       do_is(const char_type* __lo, const char_type* __hi, mask* __vec) const;
 634:/usr/include/c++/9.1.0/bits/locale_facets.h **** 
 635:/usr/include/c++/9.1.0/bits/locale_facets.h ****       virtual const char_type*
 636:/usr/include/c++/9.1.0/bits/locale_facets.h ****       do_scan_is(mask __m, const char_type* __lo, const char_type* __hi) const;
 637:/usr/include/c++/9.1.0/bits/locale_facets.h **** 
 638:/usr/include/c++/9.1.0/bits/locale_facets.h ****       virtual const char_type*
 639:/usr/include/c++/9.1.0/bits/locale_facets.h ****       do_scan_not(mask __m, const char_type* __lo,
 640:/usr/include/c++/9.1.0/bits/locale_facets.h **** 		  const char_type* __hi) const;
 641:/usr/include/c++/9.1.0/bits/locale_facets.h **** 
 642:/usr/include/c++/9.1.0/bits/locale_facets.h ****       virtual char_type
 643:/usr/include/c++/9.1.0/bits/locale_facets.h ****       do_toupper(char_type __c) const;
 644:/usr/include/c++/9.1.0/bits/locale_facets.h **** 
 645:/usr/include/c++/9.1.0/bits/locale_facets.h ****       virtual const char_type*
 646:/usr/include/c++/9.1.0/bits/locale_facets.h ****       do_toupper(char_type* __lo, const char_type* __hi) const;
 647:/usr/include/c++/9.1.0/bits/locale_facets.h **** 
 648:/usr/include/c++/9.1.0/bits/locale_facets.h ****       virtual char_type
 649:/usr/include/c++/9.1.0/bits/locale_facets.h ****       do_tolower(char_type __c) const;
 650:/usr/include/c++/9.1.0/bits/locale_facets.h **** 
 651:/usr/include/c++/9.1.0/bits/locale_facets.h ****       virtual const char_type*
 652:/usr/include/c++/9.1.0/bits/locale_facets.h ****       do_tolower(char_type* __lo, const char_type* __hi) const;
 653:/usr/include/c++/9.1.0/bits/locale_facets.h **** 
 654:/usr/include/c++/9.1.0/bits/locale_facets.h ****       virtual char_type
 655:/usr/include/c++/9.1.0/bits/locale_facets.h ****       do_widen(char __c) const;
 656:/usr/include/c++/9.1.0/bits/locale_facets.h **** 
 657:/usr/include/c++/9.1.0/bits/locale_facets.h ****       virtual const char*
 658:/usr/include/c++/9.1.0/bits/locale_facets.h ****       do_widen(const char* __lo, const char* __hi, char_type* __dest) const;
 659:/usr/include/c++/9.1.0/bits/locale_facets.h **** 
 660:/usr/include/c++/9.1.0/bits/locale_facets.h ****       virtual char
 661:/usr/include/c++/9.1.0/bits/locale_facets.h ****       do_narrow(char_type, char __dfault) const;
 662:/usr/include/c++/9.1.0/bits/locale_facets.h **** 
 663:/usr/include/c++/9.1.0/bits/locale_facets.h ****       virtual const char_type*
 664:/usr/include/c++/9.1.0/bits/locale_facets.h ****       do_narrow(const char_type* __lo, const char_type* __hi,
 665:/usr/include/c++/9.1.0/bits/locale_facets.h **** 		char __dfault, char* __to) const;
 666:/usr/include/c++/9.1.0/bits/locale_facets.h ****     };
 667:/usr/include/c++/9.1.0/bits/locale_facets.h **** 
 668:/usr/include/c++/9.1.0/bits/locale_facets.h ****   template<typename _CharT>
 669:/usr/include/c++/9.1.0/bits/locale_facets.h ****     locale::id ctype<_CharT>::id;
 670:/usr/include/c++/9.1.0/bits/locale_facets.h **** 
 671:/usr/include/c++/9.1.0/bits/locale_facets.h ****   /**
 672:/usr/include/c++/9.1.0/bits/locale_facets.h ****    *  @brief  The ctype<char> specialization.
 673:/usr/include/c++/9.1.0/bits/locale_facets.h ****    *  @ingroup locales
 674:/usr/include/c++/9.1.0/bits/locale_facets.h ****    *
 675:/usr/include/c++/9.1.0/bits/locale_facets.h ****    *  This class defines classification and conversion functions for
 676:/usr/include/c++/9.1.0/bits/locale_facets.h ****    *  the char type.  It gets used by char streams for many I/O
 677:/usr/include/c++/9.1.0/bits/locale_facets.h ****    *  operations.  The char specialization provides a number of
 678:/usr/include/c++/9.1.0/bits/locale_facets.h ****    *  optimizations as well.
 679:/usr/include/c++/9.1.0/bits/locale_facets.h ****   */
 680:/usr/include/c++/9.1.0/bits/locale_facets.h ****   template<>
 681:/usr/include/c++/9.1.0/bits/locale_facets.h ****     class ctype<char> : public locale::facet, public ctype_base
 682:/usr/include/c++/9.1.0/bits/locale_facets.h ****     {
 683:/usr/include/c++/9.1.0/bits/locale_facets.h ****     public:
GAS LISTING /tmp/cc6iEGVT.s 			page 65


 684:/usr/include/c++/9.1.0/bits/locale_facets.h ****       // Types:
 685:/usr/include/c++/9.1.0/bits/locale_facets.h ****       /// Typedef for the template parameter char.
 686:/usr/include/c++/9.1.0/bits/locale_facets.h ****       typedef char		char_type;
 687:/usr/include/c++/9.1.0/bits/locale_facets.h **** 
 688:/usr/include/c++/9.1.0/bits/locale_facets.h ****     protected:
 689:/usr/include/c++/9.1.0/bits/locale_facets.h ****       // Data Members:
 690:/usr/include/c++/9.1.0/bits/locale_facets.h ****       __c_locale		_M_c_locale_ctype;
 691:/usr/include/c++/9.1.0/bits/locale_facets.h ****       bool			_M_del;
 692:/usr/include/c++/9.1.0/bits/locale_facets.h ****       __to_type			_M_toupper;
 693:/usr/include/c++/9.1.0/bits/locale_facets.h ****       __to_type			_M_tolower;
 694:/usr/include/c++/9.1.0/bits/locale_facets.h ****       const mask*		_M_table;
 695:/usr/include/c++/9.1.0/bits/locale_facets.h ****       mutable char		_M_widen_ok;
 696:/usr/include/c++/9.1.0/bits/locale_facets.h ****       mutable char		_M_widen[1 + static_cast<unsigned char>(-1)];
 697:/usr/include/c++/9.1.0/bits/locale_facets.h ****       mutable char		_M_narrow[1 + static_cast<unsigned char>(-1)];
 698:/usr/include/c++/9.1.0/bits/locale_facets.h ****       mutable char		_M_narrow_ok;	// 0 uninitialized, 1 init,
 699:/usr/include/c++/9.1.0/bits/locale_facets.h **** 						// 2 memcpy can't be used
 700:/usr/include/c++/9.1.0/bits/locale_facets.h **** 
 701:/usr/include/c++/9.1.0/bits/locale_facets.h ****     public:
 702:/usr/include/c++/9.1.0/bits/locale_facets.h ****       /// The facet id for ctype<char>
 703:/usr/include/c++/9.1.0/bits/locale_facets.h ****       static locale::id        id;
 704:/usr/include/c++/9.1.0/bits/locale_facets.h ****       /// The size of the mask table.  It is SCHAR_MAX + 1.
 705:/usr/include/c++/9.1.0/bits/locale_facets.h ****       static const size_t      table_size = 1 + static_cast<unsigned char>(-1);
 706:/usr/include/c++/9.1.0/bits/locale_facets.h **** 
 707:/usr/include/c++/9.1.0/bits/locale_facets.h ****       /**
 708:/usr/include/c++/9.1.0/bits/locale_facets.h ****        *  @brief  Constructor performs initialization.
 709:/usr/include/c++/9.1.0/bits/locale_facets.h ****        *
 710:/usr/include/c++/9.1.0/bits/locale_facets.h ****        *  This is the constructor provided by the standard.
 711:/usr/include/c++/9.1.0/bits/locale_facets.h ****        *
 712:/usr/include/c++/9.1.0/bits/locale_facets.h ****        *  @param __table If non-zero, table is used as the per-char mask.
 713:/usr/include/c++/9.1.0/bits/locale_facets.h ****        *               Else classic_table() is used.
 714:/usr/include/c++/9.1.0/bits/locale_facets.h ****        *  @param __del   If true, passes ownership of table to this facet.
 715:/usr/include/c++/9.1.0/bits/locale_facets.h ****        *  @param __refs  Passed to the base facet class.
 716:/usr/include/c++/9.1.0/bits/locale_facets.h ****       */
 717:/usr/include/c++/9.1.0/bits/locale_facets.h ****       explicit
 718:/usr/include/c++/9.1.0/bits/locale_facets.h ****       ctype(const mask* __table = 0, bool __del = false, size_t __refs = 0);
 719:/usr/include/c++/9.1.0/bits/locale_facets.h **** 
 720:/usr/include/c++/9.1.0/bits/locale_facets.h ****       /**
 721:/usr/include/c++/9.1.0/bits/locale_facets.h ****        *  @brief  Constructor performs static initialization.
 722:/usr/include/c++/9.1.0/bits/locale_facets.h ****        *
 723:/usr/include/c++/9.1.0/bits/locale_facets.h ****        *  This constructor is used to construct the initial C locale facet.
 724:/usr/include/c++/9.1.0/bits/locale_facets.h ****        *
 725:/usr/include/c++/9.1.0/bits/locale_facets.h ****        *  @param __cloc  Handle to C locale data.
 726:/usr/include/c++/9.1.0/bits/locale_facets.h ****        *  @param __table If non-zero, table is used as the per-char mask.
 727:/usr/include/c++/9.1.0/bits/locale_facets.h ****        *  @param __del   If true, passes ownership of table to this facet.
 728:/usr/include/c++/9.1.0/bits/locale_facets.h ****        *  @param __refs  Passed to the base facet class.
 729:/usr/include/c++/9.1.0/bits/locale_facets.h ****       */
 730:/usr/include/c++/9.1.0/bits/locale_facets.h ****       explicit
 731:/usr/include/c++/9.1.0/bits/locale_facets.h ****       ctype(__c_locale __cloc, const mask* __table = 0, bool __del = false,
 732:/usr/include/c++/9.1.0/bits/locale_facets.h **** 	    size_t __refs = 0);
 733:/usr/include/c++/9.1.0/bits/locale_facets.h **** 
 734:/usr/include/c++/9.1.0/bits/locale_facets.h ****       /**
 735:/usr/include/c++/9.1.0/bits/locale_facets.h ****        *  @brief  Test char classification.
 736:/usr/include/c++/9.1.0/bits/locale_facets.h ****        *
 737:/usr/include/c++/9.1.0/bits/locale_facets.h ****        *  This function compares the mask table[c] to @a __m.
 738:/usr/include/c++/9.1.0/bits/locale_facets.h ****        *
 739:/usr/include/c++/9.1.0/bits/locale_facets.h ****        *  @param __c  The char to compare the mask of.
 740:/usr/include/c++/9.1.0/bits/locale_facets.h ****        *  @param __m  The mask to compare against.
GAS LISTING /tmp/cc6iEGVT.s 			page 66


 741:/usr/include/c++/9.1.0/bits/locale_facets.h ****        *  @return  True if __m & table[__c] is true, false otherwise.
