GAS LISTING /tmp/cc1DIh6n.s 			page 1


   1              		.file	"main.cpp"
   2              		.text
   3              	.Ltext0:
   4              		.globl	_Z7reshapeii
   6              	_Z7reshapeii:
   7              	.LVL0:
   8              	.LFB2490:
   9              		.file 1 "Src/main.cpp"
   1:Src/main.cpp  **** #include <iostream>
   2:Src/main.cpp  **** #include <stdio.h>      // standard input / output functions
   3:Src/main.cpp  **** #include <stdlib.h>
   4:Src/main.cpp  **** #include <string.h>     // string function definitions
   5:Src/main.cpp  **** #include <unistd.h>     // UNIX standard function definitions
   6:Src/main.cpp  **** #include <fcntl.h>      // File control definitions
   7:Src/main.cpp  **** #include <errno.h>      // Error number definitions
   8:Src/main.cpp  **** #include <termios.h>    // POSIX terminal control definitions
   9:Src/main.cpp  **** #include <signal.h>
  10:Src/main.cpp  **** #include <GL/glew.h>
  11:Src/main.cpp  **** #include <GL/glut.h>
  12:Src/main.cpp  **** #include <GL/gl.h>
  13:Src/main.cpp  **** #include <GL/glu.h>
  14:Src/main.cpp  **** #include <FTGL/ftgl.h>
  15:Src/main.cpp  **** #include <FTGL/FTGLPixmapFont.h>
  16:Src/main.cpp  **** 
  17:Src/main.cpp  **** #include "routines.hpp"
  18:Src/main.cpp  **** #include "findwayBases.hpp"
  19:Src/main.cpp  **** 
  20:Src/main.cpp  **** #define GL_TIMER_DELAY	400
  21:Src/main.cpp  **** #define RETURN_CODE_OK 0
  22:Src/main.cpp  **** #define OBST_COLOR 0xFF0000
  23:Src/main.cpp  **** #define GRAPH_COLOR 0x00FFFF
  24:Src/main.cpp  **** 
  25:Src/main.cpp  **** #define VECTORS_PER_CHECK	50
  26:Src/main.cpp  **** 
  27:Src/main.cpp  **** size_t QUAD_CHECK_SIDE = 5;
  28:Src/main.cpp  **** 
  29:Src/main.cpp  **** using namespace std;
  30:Src/main.cpp  **** 
  31:Src/main.cpp  **** 
  32:Src/main.cpp  **** bool terminated = false;
  33:Src/main.cpp  **** size_t numOfObstacles = 0;
  34:Src/main.cpp  **** size_t graphSize = 0;
  35:Src/main.cpp  **** 
  36:Src/main.cpp  **** 
  37:Src/main.cpp  **** struct obstacle *obstacles;
  38:Src/main.cpp  **** struct coords	startway,
  39:Src/main.cpp  **** 				endway;
  40:Src/main.cpp  **** struct graphPoint **graph;
  41:Src/main.cpp  **** 
  42:Src/main.cpp  **** 
  43:Src/main.cpp  **** 
  44:Src/main.cpp  **** struct array
  45:Src/main.cpp  **** {
  46:Src/main.cpp  **** 	void *items;
  47:Src/main.cpp  **** 	size_t size;
  48:Src/main.cpp  **** };
  49:Src/main.cpp  **** 
GAS LISTING /tmp/cc1DIh6n.s 			page 2


  50:Src/main.cpp  **** 
  51:Src/main.cpp  **** 
  52:Src/main.cpp  **** 
  53:Src/main.cpp  **** 
  54:Src/main.cpp  **** 
  55:Src/main.cpp  **** 
  56:Src/main.cpp  **** void calculateWay()
  57:Src/main.cpp  **** {
  58:Src/main.cpp  **** 
  59:Src/main.cpp  **** }
  60:Src/main.cpp  **** 
  61:Src/main.cpp  **** 
  62:Src/main.cpp  **** 
  63:Src/main.cpp  **** /*
  64:Src/main.cpp  ****  *	-------+----->	0
  65:Src/main.cpp  ****  *	<------+------	180
  66:Src/main.cpp  ****  *		  /|\
  67:Src/main.cpp  ****  *         |		90
  68:Src/main.cpp  ****  *		   +
  69:Src/main.cpp  ****  */
  70:Src/main.cpp  **** struct vect createVect(const struct coords *c, const COORDS_DATATYPE angle)
  71:Src/main.cpp  **** {
  72:Src/main.cpp  **** 	struct vect ret;
  73:Src/main.cpp  **** 	ret.c  = (struct coords*)malloc(sizeof(struct coords));
  74:Src/main.cpp  **** 	ret.c->x = c->x;
  75:Src/main.cpp  **** 	ret.c->y = c->y;
  76:Src/main.cpp  **** 	ret.dx = QUAD_CHECK_SIDE * 10.0 / tan(angle / 180.0 * PI);
  77:Src/main.cpp  **** 	ret.dy = ret.dx * tan(angle / 180.0 * PI);
  78:Src/main.cpp  **** 	ret.dx = abs(ret.dx);
  79:Src/main.cpp  **** 	ret.dy = abs(ret.dy);
  80:Src/main.cpp  **** 	if(angle > 180 || angle < 0)
  81:Src/main.cpp  **** 		ret.dy *= -1;
  82:Src/main.cpp  **** 
  83:Src/main.cpp  **** 	if(!((angle >= -90 && angle <= 90) || (angle >= 190 + 90 && angle <= 360 + 90)))
  84:Src/main.cpp  **** 		ret.dx *= -1;
  85:Src/main.cpp  **** 
  86:Src/main.cpp  **** 	// cout <<  "\tcreate vect:" << endl
  87:Src/main.cpp  **** 	// 	 << "\tdx: " << ret.dx << endl
  88:Src/main.cpp  **** 	// 	 << "\tdy: " << ret.dy << endl
  89:Src/main.cpp  **** 	// 	 << "\tx:  " << ret.c->x << endl
  90:Src/main.cpp  **** 	// 	 << "\ty:  " << ret.c->y << endl;
  91:Src/main.cpp  **** 	return ret;
  92:Src/main.cpp  **** 
  93:Src/main.cpp  **** }
  94:Src/main.cpp  **** 
  95:Src/main.cpp  **** 
  96:Src/main.cpp  **** struct vect createVect(const struct obstacle *obst, const uint8_t corner, const COORDS_DATATYPE ang
  97:Src/main.cpp  **** {
  98:Src/main.cpp  **** 	struct vect ret;
  99:Src/main.cpp  **** 	struct coords *c = getCoordsOfCorner(obst, corner);
 100:Src/main.cpp  **** 	ret = createVect(c, angle);
 101:Src/main.cpp  **** 	free(c);
 102:Src/main.cpp  **** 	return ret;
 103:Src/main.cpp  **** }
 104:Src/main.cpp  **** 
 105:Src/main.cpp  **** 
 106:Src/main.cpp  **** struct array* getDataSet(const struct coords *c)
GAS LISTING /tmp/cc1DIh6n.s 			page 3


 107:Src/main.cpp  **** {
 108:Src/main.cpp  **** 	size_t size = 0;
 109:Src/main.cpp  **** 	while (size < 2) {
 110:Src/main.cpp  **** 		size = 0;
 111:Src/main.cpp  **** 		for(size_t i = 0; i < numOfObstacles; i++)
 112:Src/main.cpp  **** 		{
 113:Src/main.cpp  **** 			if(obstacles[i].c->x + obstacles[i].a >= c->x - QUAD_CHECK_SIDE
 114:Src/main.cpp  **** 			&& obstacles[i].c->x <= c->x + obstacles[i].a + QUAD_CHECK_SIDE
 115:Src/main.cpp  **** 			&& obstacles[i].c->y + obstacles[i].a >= c->y - QUAD_CHECK_SIDE
 116:Src/main.cpp  **** 			&& obstacles[i].c->y <= c->y + obstacles[i].a + QUAD_CHECK_SIDE)
 117:Src/main.cpp  **** 				size++;
 118:Src/main.cpp  **** 		}
 119:Src/main.cpp  **** 		if(size < 2)
 120:Src/main.cpp  **** 		{
 121:Src/main.cpp  **** 			cout << "Increacing radius\n";
 122:Src/main.cpp  **** 			QUAD_CHECK_SIDE += 100;
 123:Src/main.cpp  **** 		}
 124:Src/main.cpp  **** 	}
 125:Src/main.cpp  **** 	cout << "Size: " << size << endl;
 126:Src/main.cpp  **** 	size_t iter = 0;
 127:Src/main.cpp  **** 	struct obstacle **obsts = (struct obstacle**)malloc(sizeof(struct obstacle*) * size);
 128:Src/main.cpp  **** 	for(size_t i = 0; i < numOfObstacles; i++)
 129:Src/main.cpp  **** 	{
 130:Src/main.cpp  **** 		// struct coords *c = getCoordsOfCorner(obst, corner);
 131:Src/main.cpp  **** 		if(obstacles[i].c->x + obstacles[i].a >= c->x - QUAD_CHECK_SIDE
 132:Src/main.cpp  **** 		&& obstacles[i].c->x <= c->x + obstacles[i].a + QUAD_CHECK_SIDE
 133:Src/main.cpp  **** 		&& obstacles[i].c->y + obstacles[i].a >= c->y - QUAD_CHECK_SIDE
 134:Src/main.cpp  **** 		&& obstacles[i].c->y <= c->y + obstacles[i].a + QUAD_CHECK_SIDE)
 135:Src/main.cpp  **** 		obsts[iter++] = &(obstacles[i]);
 136:Src/main.cpp  **** 	}
 137:Src/main.cpp  **** 	struct array *ret = (struct array*)malloc(sizeof(struct array));
 138:Src/main.cpp  **** 	ret->items = *obsts;
 139:Src/main.cpp  **** 	ret->size = size;
 140:Src/main.cpp  **** 	return ret;
 141:Src/main.cpp  **** }
 142:Src/main.cpp  **** 
 143:Src/main.cpp  **** 
 144:Src/main.cpp  **** struct array* getDataSet(const struct obstacle *obst, const uint8_t corner)
 145:Src/main.cpp  **** {
 146:Src/main.cpp  **** 	struct graphPoint *p = getPoint(obst, corner);
 147:Src/main.cpp  **** 	struct coords *c = getCoordsOfCorner(obst, corner);
 148:Src/main.cpp  **** 
 149:Src/main.cpp  **** 	struct array *ret = getDataSet(c);
 150:Src/main.cpp  **** 
 151:Src/main.cpp  **** 	free(c);
 152:Src/main.cpp  **** 
 153:Src/main.cpp  **** 	return ret;
 154:Src/main.cpp  **** }
 155:Src/main.cpp  **** 
 156:Src/main.cpp  **** 
 157:Src/main.cpp  **** bool hasIntersections(const struct array *dataset, const struct vect *v)
 158:Src/main.cpp  **** {
 159:Src/main.cpp  **** 	for(size_t i = 0; i < dataset->size; i++)
 160:Src/main.cpp  **** 	{
 161:Src/main.cpp  **** 		if(hasIntersection(&((struct obstacle*)dataset->items)[i], v))
 162:Src/main.cpp  **** 			return true;
 163:Src/main.cpp  **** 	}
GAS LISTING /tmp/cc1DIh6n.s 			page 4


 164:Src/main.cpp  **** 	return false;
 165:Src/main.cpp  **** }
 166:Src/main.cpp  **** 
 167:Src/main.cpp  **** bool hasIntersections(const struct vect *v)
 168:Src/main.cpp  **** {
 169:Src/main.cpp  **** 	for(size_t i = 0; i < numOfObstacles; i++)
 170:Src/main.cpp  **** 	{
 171:Src/main.cpp  **** 		if(hasIntersection(&obstacles[i], v))
 172:Src/main.cpp  **** 			return true;
 173:Src/main.cpp  **** 	}
 174:Src/main.cpp  **** 	return false;
 175:Src/main.cpp  **** }
 176:Src/main.cpp  **** 
 177:Src/main.cpp  **** struct coords getIntersection(const struct array *dataset, const struct vect *v)
 178:Src/main.cpp  **** {
 179:Src/main.cpp  **** 	struct obstacle *o = NULL;
 180:Src/main.cpp  **** 	for(size_t i = 0; i < dataset->size; i++)
 181:Src/main.cpp  **** 	{
 182:Src/main.cpp  **** 		if(hasIntersection(&((struct obstacle*)dataset->items)[i], v))
 183:Src/main.cpp  **** 		{
 184:Src/main.cpp  **** 			o = &((struct obstacle*)dataset->items)[i];
 185:Src/main.cpp  **** 			break;
 186:Src/main.cpp  **** 		}
 187:Src/main.cpp  **** 	}
 188:Src/main.cpp  **** 	if(o != NULL)
 189:Src/main.cpp  **** 		return {-1, -1};
 190:Src/main.cpp  **** 
 191:Src/main.cpp  **** 	return getIntersection(o, v);
 192:Src/main.cpp  **** }
 193:Src/main.cpp  **** 
 194:Src/main.cpp  **** 
 195:Src/main.cpp  **** struct obstacle*	getIntersected(const struct array *dataset, const struct vect *v)
 196:Src/main.cpp  **** {
 197:Src/main.cpp  **** 	struct obstacle *o = NULL;
 198:Src/main.cpp  **** 	struct coords	inter;
 199:Src/main.cpp  **** 	COORDS_DATATYPE l = INF;
 200:Src/main.cpp  **** 	// cout << "Watching for vect " << v->c->x << ":" << v->c->y << "; d" << v->dx << ":d" << v->dy <<
 201:Src/main.cpp  **** 	for(size_t i = 0; i < dataset->size; i++)
 202:Src/main.cpp  **** 	{
 203:Src/main.cpp  **** 		// cout << "###Watching for intersection, obst: " << (int)i << "\t\t###" << endl;
 204:Src/main.cpp  **** 		inter = getIntersection(&((struct obstacle*)dataset->items)[i], v);
 205:Src/main.cpp  **** 		COORDS_DATATYPE _l = getLen(v->c, &inter);
 206:Src/main.cpp  **** 		if(inter.x != -1 && inter.y != -1 && _l < l)
 207:Src/main.cpp  **** 		{
 208:Src/main.cpp  **** 			// cout << "####Found intersection: " << inter.x << ":" << inter.y << " with len " << _l << "\t\
 209:Src/main.cpp  **** 			o = &((struct obstacle*)dataset->items)[i];
 210:Src/main.cpp  **** 			l = _l;
 211:Src/main.cpp  **** 		}
 212:Src/main.cpp  **** 	}
 213:Src/main.cpp  **** 	return o;
 214:Src/main.cpp  **** }
 215:Src/main.cpp  **** 
 216:Src/main.cpp  **** 
 217:Src/main.cpp  **** void initPoint(struct graphPoint *p, const struct coords *c)
 218:Src/main.cpp  **** {
 219:Src/main.cpp  **** 	struct array *obsts = getDataSet(c);
 220:Src/main.cpp  **** 	struct vect v;
GAS LISTING /tmp/cc1DIh6n.s 			page 5


 221:Src/main.cpp  **** 	for(uint8_t i = 0; i < VECTORS_PER_CHECK; i++)
 222:Src/main.cpp  **** 	{
 223:Src/main.cpp  **** 		// cout << "Creating vector " << (int)i << endl;
 224:Src/main.cpp  **** 		v = createVect(c, ((360.0 / VECTORS_PER_CHECK) * i));
 225:Src/main.cpp  **** 		// cout << "Watching vector " << (int)i << endl;
 226:Src/main.cpp  **** 		struct obstacle *o = getIntersected(obsts, &v);
 227:Src/main.cpp  **** 		if(o != NULL)
 228:Src/main.cpp  **** 		{
 229:Src/main.cpp  **** 			struct coords *c;
 230:Src/main.cpp  **** 			for(uint8_t h = 0; h < 4; h++)
 231:Src/main.cpp  **** 			{
 232:Src/main.cpp  **** 				cout << "->Found intersection" << endl;
 233:Src/main.cpp  **** 				c = getCoordsOfCorner(o, h);
 234:Src/main.cpp  **** 				v.dx = (c->x - v.c->x);
 235:Src/main.cpp  **** 				v.dy = (c->y - v.c->y);
 236:Src/main.cpp  **** 				if((v.dx != 0 || v.dy != 0) && getIntersected(obsts, &v) == NULL)
 237:Src/main.cpp  **** 				{
 238:Src/main.cpp  **** 					// cout << "--->Adding edge from o_" << obst->c->x << ":" << obst->c->y << " to o_" << o->c->x
 239:Src/main.cpp  **** 					// 	 << "With coords: " << v.c->x << ":" << v.c->y << " -> " << c->x << ":" << c->y << endl;
 240:Src/main.cpp  **** 					addTarget(p, o->corners[h]);
 241:Src/main.cpp  **** 				}
 242:Src/main.cpp  **** 				free(c);
 243:Src/main.cpp  **** 			}
 244:Src/main.cpp  **** 		}
 245:Src/main.cpp  **** 	}
 246:Src/main.cpp  **** 	free(obsts);
 247:Src/main.cpp  **** }
 248:Src/main.cpp  **** 
 249:Src/main.cpp  **** 
 250:Src/main.cpp  **** void initObstCorner(const struct obstacle *obst, const uint8_t corner)
 251:Src/main.cpp  **** {
 252:Src/main.cpp  **** 	cout << "Watching corner " << (int)corner << " of obstacle " << obst << endl;
 253:Src/main.cpp  **** 	struct graphPoint *point = getPoint(obst, corner);
 254:Src/main.cpp  **** 	struct coords *c = getCoordsOfCorner(obst, corner);
 255:Src/main.cpp  **** 	initPoint(point, c);
 256:Src/main.cpp  **** }
 257:Src/main.cpp  **** 
 258:Src/main.cpp  **** 
 259:Src/main.cpp  **** 
 260:Src/main.cpp  **** void initObst(const struct obstacle *obst)
 261:Src/main.cpp  **** {
 262:Src/main.cpp  **** 	for(uint8_t i = 0; i < 4; i++)
 263:Src/main.cpp  **** 		initObstCorner(obst, i);
 264:Src/main.cpp  **** }
 265:Src/main.cpp  **** 
 266:Src/main.cpp  **** 
 267:Src/main.cpp  **** 
 268:Src/main.cpp  **** 
 269:Src/main.cpp  **** 
 270:Src/main.cpp  **** 
 271:Src/main.cpp  **** 
 272:Src/main.cpp  **** 
 273:Src/main.cpp  **** 
 274:Src/main.cpp  **** 
 275:Src/main.cpp  **** 
 276:Src/main.cpp  **** 
 277:Src/main.cpp  **** 
GAS LISTING /tmp/cc1DIh6n.s 			page 6


 278:Src/main.cpp  **** 
 279:Src/main.cpp  **** 
 280:Src/main.cpp  **** struct coords getCoordsOfPoint(const struct graphPoint *p)
 281:Src/main.cpp  **** {
 282:Src/main.cpp  **** 	return p->c;
 283:Src/main.cpp  **** 
 284:Src/main.cpp  **** 	for(size_t i = 0; i < numOfObstacles; i++)
 285:Src/main.cpp  **** 	{
 286:Src/main.cpp  **** 		for(size_t j = 0; j < 4; j++)
 287:Src/main.cpp  **** 		{
 288:Src/main.cpp  **** 			if(p == getPoint(&obstacles[i], j))
 289:Src/main.cpp  **** 			{
 290:Src/main.cpp  **** 				cout << "\t\t\tPoint found: obst: " << i << endl
 291:Src/main.cpp  **** 					 << "\t\t\tCorner: " << j << endl
 292:Src/main.cpp  **** 					 << "\t\tobst: " << &obstacles[i] << " corners: ";
 293:Src/main.cpp  **** 				for(int s = 0; s < 4; s++)
 294:Src/main.cpp  **** 					cout << obstacles[i].corners[s] << " ";
 295:Src/main.cpp  **** 				cout << endl << "\t\tCurr: " << p << endl;
 296:Src/main.cpp  **** 				return *getCoordsOfCorner(&obstacles[i], j);
 297:Src/main.cpp  **** 			}
 298:Src/main.cpp  **** 		}
 299:Src/main.cpp  **** 	}
 300:Src/main.cpp  **** 
 301:Src/main.cpp  **** 	return {-1, -1};
 302:Src/main.cpp  **** }
 303:Src/main.cpp  **** 
 304:Src/main.cpp  **** 
 305:Src/main.cpp  **** 
 306:Src/main.cpp  **** void drawEdges(const struct graphPoint *p)
 307:Src/main.cpp  **** {
 308:Src/main.cpp  **** 	if(p == NULL || p->numOfTargets == 0)
 309:Src/main.cpp  **** 		return;
 310:Src/main.cpp  **** 
 311:Src/main.cpp  **** 	struct coords start, end;
 312:Src/main.cpp  **** 	start = getCoordsOfPoint(p);
 313:Src/main.cpp  **** 	for(size_t i = 0; i < p->numOfTargets; i++)
 314:Src/main.cpp  **** 	{
 315:Src/main.cpp  **** 		end = getCoordsOfPoint(p->targets[i]);
 316:Src/main.cpp  **** 		drawLine(start.x, start.y, end.x, end.y);
 317:Src/main.cpp  **** 		cout 	<< "\tLine: " << endl
 318:Src/main.cpp  **** 				<< "\t\t" << start.x << ":" << start.y << " -> " << end.x << ":" << end.y << endl;
 319:Src/main.cpp  **** 	}
 320:Src/main.cpp  **** }
 321:Src/main.cpp  **** 
 322:Src/main.cpp  **** 
 323:Src/main.cpp  **** 
 324:Src/main.cpp  **** 
 325:Src/main.cpp  **** void drawObstacle(const struct obstacle *o)
 326:Src/main.cpp  **** {
 327:Src/main.cpp  **** 	glSetColor(OBST_COLOR);
 328:Src/main.cpp  **** 	drawQuad(o->c->x, o->c->y, o->a);
 329:Src/main.cpp  **** 	glSetColor(GRAPH_COLOR);
 330:Src/main.cpp  **** 	// for(int i = 0; i < 4; i++)
 331:Src/main.cpp  **** 	// 	drawEdges(o->corners[i]);
 332:Src/main.cpp  **** }
 333:Src/main.cpp  **** 
 334:Src/main.cpp  **** void renderScene(void)
GAS LISTING /tmp/cc1DIh6n.s 			page 7


 335:Src/main.cpp  **** {
 336:Src/main.cpp  **** 	glClear(GL_COLOR_BUFFER_BIT);
 337:Src/main.cpp  **** 
 338:Src/main.cpp  **** 		// glSetColor(0xFF0000);
 339:Src/main.cpp  **** 		// drawTriangle(glutGet(GLUT_WINDOW_WIDTH) / 2 - 200, glutGet(GLUT_WINDOW_HEIGHT) / 2 - 200, 400)
 340:Src/main.cpp  **** 		for(size_t i = 0; i < numOfObstacles; i++)
 341:Src/main.cpp  **** 		{
 342:Src/main.cpp  **** 			drawObstacle(&obstacles[i]);
 343:Src/main.cpp  **** 		}
 344:Src/main.cpp  **** 		for(size_t i = 0; i < graphSize; i++)
 345:Src/main.cpp  **** 		{
 346:Src/main.cpp  **** 			drawEdges(graph[i]);
 347:Src/main.cpp  **** 		}
 348:Src/main.cpp  **** 		// glSetColor(0x00FF00);
 349:Src/main.cpp  **** 		// drawLine(19, 40, 49, 70);
 350:Src/main.cpp  **** 		// drawLine(startway.x, startway.y, endway.x, endway.y);
 351:Src/main.cpp  **** 
 352:Src/main.cpp  **** 
 353:Src/main.cpp  ****     glutSwapBuffers();
 354:Src/main.cpp  **** }
 355:Src/main.cpp  **** 
 356:Src/main.cpp  **** 
 357:Src/main.cpp  **** void handleKeypress(unsigned char key, //The key that was pressed
 358:Src/main.cpp  ****                                         int x, int y) //The current mouse coordinates
 359:Src/main.cpp  **** {
 360:Src/main.cpp  ****     cout << "PRESSED\n" << (int)key << endl;
 361:Src/main.cpp  ****     if(key == 27) //ESC
 362:Src/main.cpp  ****     {
 363:Src/main.cpp  **** 	    cout << "ESC\n";
 364:Src/main.cpp  **** 		terminated = true;
 365:Src/main.cpp  ****     }
 366:Src/main.cpp  **** }
 367:Src/main.cpp  **** 
 368:Src/main.cpp  **** 
 369:Src/main.cpp  **** 
 370:Src/main.cpp  **** 
 371:Src/main.cpp  **** 
 372:Src/main.cpp  **** void reshape(int w, int h)
 373:Src/main.cpp  **** {
  10              		.loc 1 373 1 view -0
  11              		.cfi_startproc
  12              		.loc 1 373 1 is_stmt 0 view .LVU1
  13 0000 55       		pushq	%rbp
  14              		.cfi_def_cfa_offset 16
  15              		.cfi_offset 6, -16
  16 0001 53       		pushq	%rbx
  17              		.cfi_def_cfa_offset 24
  18              		.cfi_offset 3, -24
  19 0002 4883EC08 		subq	$8, %rsp
  20              		.cfi_def_cfa_offset 32
  21 0006 89FB     		movl	%edi, %ebx
  22 0008 89F5     		movl	%esi, %ebp
 374:Src/main.cpp  **** 	glViewport(0, 0, w, h);
  23              		.loc 1 374 2 is_stmt 1 view .LVU2
  24              		.loc 1 374 12 is_stmt 0 view .LVU3
  25 000a 89F1     		movl	%esi, %ecx
  26 000c 89FA     		movl	%edi, %edx
GAS LISTING /tmp/cc1DIh6n.s 			page 8


  27 000e BE000000 		movl	$0, %esi
  27      00
  28              	.LVL1:
  29              		.loc 1 374 12 view .LVU4
  30 0013 BF000000 		movl	$0, %edi
  30      00
  31              	.LVL2:
  32              		.loc 1 374 12 view .LVU5
  33 0018 E8000000 		call	glViewport@PLT
  33      00
  34              	.LVL3:
 375:Src/main.cpp  **** 
 376:Src/main.cpp  **** 	glMatrixMode(GL_PROJECTION);
  35              		.loc 1 376 2 is_stmt 1 view .LVU6
  36              		.loc 1 376 14 is_stmt 0 view .LVU7
  37 001d BF011700 		movl	$5889, %edi
  37      00
  38 0022 E8000000 		call	glMatrixMode@PLT
  38      00
  39              	.LVL4:
 377:Src/main.cpp  **** 	glLoadIdentity();
  40              		.loc 1 377 2 is_stmt 1 view .LVU8
  41              		.loc 1 377 16 is_stmt 0 view .LVU9
  42 0027 E8000000 		call	glLoadIdentity@PLT
  42      00
  43              	.LVL5:
 378:Src/main.cpp  **** 	gluOrtho2D(0, w, 0, h);
  44              		.loc 1 378 2 is_stmt 1 view .LVU10
  45              		.loc 1 378 12 is_stmt 0 view .LVU11
  46 002c 660FEFDB 		pxor	%xmm3, %xmm3
  47 0030 F20F2ADD 		cvtsi2sdl	%ebp, %xmm3
  48 0034 660FEFD2 		pxor	%xmm2, %xmm2
  49 0038 660FEFC9 		pxor	%xmm1, %xmm1
  50 003c F20F2ACB 		cvtsi2sdl	%ebx, %xmm1
  51 0040 660F28C2 		movapd	%xmm2, %xmm0
  52 0044 E8000000 		call	gluOrtho2D@PLT
  52      00
  53              	.LVL6:
 379:Src/main.cpp  **** 
 380:Src/main.cpp  **** 	glMatrixMode(GL_MODELVIEW);
  54              		.loc 1 380 2 is_stmt 1 view .LVU12
  55              		.loc 1 380 14 is_stmt 0 view .LVU13
  56 0049 BF001700 		movl	$5888, %edi
  56      00
  57 004e E8000000 		call	glMatrixMode@PLT
  57      00
  58              	.LVL7:
 381:Src/main.cpp  **** 	glLoadIdentity();
  59              		.loc 1 381 2 is_stmt 1 view .LVU14
  60              		.loc 1 381 16 is_stmt 0 view .LVU15
  61 0053 E8000000 		call	glLoadIdentity@PLT
  61      00
  62              	.LVL8:
 382:Src/main.cpp  **** }
  63              		.loc 1 382 1 view .LVU16
  64 0058 4883C408 		addq	$8, %rsp
  65              		.cfi_def_cfa_offset 24
GAS LISTING /tmp/cc1DIh6n.s 			page 9


  66 005c 5B       		popq	%rbx
  67              		.cfi_def_cfa_offset 16
  68              	.LVL9:
  69              		.loc 1 382 1 view .LVU17
  70 005d 5D       		popq	%rbp
  71              		.cfi_def_cfa_offset 8
  72              	.LVL10:
  73              		.loc 1 382 1 view .LVU18
  74 005e C3       		ret
  75              		.cfi_endproc
  76              	.LFE2490:
  78              		.globl	_Z4timfi
  80              	_Z4timfi:
  81              	.LVL11:
  82              	.LFB2491:
 383:Src/main.cpp  **** 
 384:Src/main.cpp  **** 
 385:Src/main.cpp  **** 
 386:Src/main.cpp  **** 
 387:Src/main.cpp  **** void timf(int value)				// Timer function
 388:Src/main.cpp  **** {
  83              		.loc 1 388 1 is_stmt 1 view -0
  84              		.cfi_startproc
  85              		.loc 1 388 1 is_stmt 0 view .LVU20
  86 005f 4883EC08 		subq	$8, %rsp
  87              		.cfi_def_cfa_offset 16
 389:Src/main.cpp  **** 	if(!terminated)					//if don't wanna terminate
  88              		.loc 1 389 2 is_stmt 1 view .LVU21
  89 0063 803D0000 		cmpb	$0, terminated(%rip)
  89      000000
  90 006a 7520     		jne	.L4
 390:Src/main.cpp  **** 	{
 391:Src/main.cpp  **** 		glutPostRedisplay();		//Redraw windows
  91              		.loc 1 391 3 view .LVU22
  92              		.loc 1 391 20 is_stmt 0 view .LVU23
  93 006c E8000000 		call	glutPostRedisplay@PLT
  93      00
  94              	.LVL12:
 392:Src/main.cpp  **** 		glutTimerFunc(GL_TIMER_DELAY, timf, 0);	//Setup next timer
  95              		.loc 1 392 3 is_stmt 1 view .LVU24
  96              		.loc 1 392 16 is_stmt 0 view .LVU25
  97 0071 BA000000 		movl	$0, %edx
  97      00
  98 0076 488D3500 		leaq	_Z4timfi(%rip), %rsi
  98      000000
  99 007d BF900100 		movl	$400, %edi
  99      00
 100 0082 E8000000 		call	glutTimerFunc@PLT
 100      00
 101              	.LVL13:
 393:Src/main.cpp  **** 	}
 394:Src/main.cpp  **** 	else							//if wanna terminate
 395:Src/main.cpp  **** 	{
 396:Src/main.cpp  **** 		terminated = false;			//set terminated flag
 397:Src/main.cpp  **** 		exit(RETURN_CODE_OK);		//terminate thread
 398:Src/main.cpp  **** 	}
 399:Src/main.cpp  **** }
GAS LISTING /tmp/cc1DIh6n.s 			page 10


 102              		.loc 1 399 1 view .LVU26
 103 0087 4883C408 		addq	$8, %rsp
 104              		.cfi_remember_state
 105              		.cfi_def_cfa_offset 8
 106 008b C3       		ret
 107              	.LVL14:
 108              	.L4:
 109              		.cfi_restore_state
 396:Src/main.cpp  **** 		exit(RETURN_CODE_OK);		//terminate thread
 110              		.loc 1 396 3 is_stmt 1 view .LVU27
 396:Src/main.cpp  **** 		exit(RETURN_CODE_OK);		//terminate thread
 111              		.loc 1 396 14 is_stmt 0 view .LVU28
 112 008c C6050000 		movb	$0, terminated(%rip)
 112      000000
 397:Src/main.cpp  **** 	}
 113              		.loc 1 397 3 is_stmt 1 view .LVU29
 397:Src/main.cpp  **** 	}
 114              		.loc 1 397 7 is_stmt 0 view .LVU30
 115 0093 BF000000 		movl	$0, %edi
 115      00
 116              	.LVL15:
 397:Src/main.cpp  **** 	}
 117              		.loc 1 397 7 view .LVU31
 118 0098 E8000000 		call	exit@PLT
 118      00
 119              	.LVL16:
 120              		.cfi_endproc
 121              	.LFE2491:
 124              	_Z41__static_initialization_and_destruction_0ii:
 125              	.LVL17:
 126              	.LFB2840:
 400:Src/main.cpp  **** 
 401:Src/main.cpp  **** 
 402:Src/main.cpp  **** 
 403:Src/main.cpp  **** 
 404:Src/main.cpp  **** int main(int argc, char **argv)
 405:Src/main.cpp  **** {
 406:Src/main.cpp  **** 	numOfObstacles = 3;
 407:Src/main.cpp  **** 	obstacles = (struct obstacle*)malloc(sizeof(struct obstacle) * numOfObstacles);
 408:Src/main.cpp  **** 	obstacles[0] = createObstacle(200, 200, 20);
 409:Src/main.cpp  **** 	obstacles[1] = createObstacle(45, 55, 20);
 410:Src/main.cpp  **** 	// obstacles[2] = createObstacle(70, 20, 20);
 411:Src/main.cpp  **** 	obstacles[2] = createObstacle(5, 55, 20);
 412:Src/main.cpp  **** 
 413:Src/main.cpp  **** 	graphSize = numOfObstacles * 4 + 1;
 414:Src/main.cpp  **** 
 415:Src/main.cpp  **** 	struct graphPoint *p = (struct graphPoint*)malloc(sizeof(struct graphPoint));
 416:Src/main.cpp  **** 
 417:Src/main.cpp  **** 	// struct coords *c = (struct coords*)malloc(sizeof(struct coords));
 418:Src/main.cpp  **** 	struct coords c;
 419:Src/main.cpp  **** 	c.x = 100;
 420:Src/main.cpp  **** 	c.y = 10;
 421:Src/main.cpp  **** 	p->c = c;
 422:Src/main.cpp  **** 
 423:Src/main.cpp  **** 	graph = (struct graphPoint**)malloc(graphSize * sizeof(struct graphPoint*));
 424:Src/main.cpp  **** 	graph[numOfObstacles * 4] = p;
 425:Src/main.cpp  **** 	for(size_t i = 0; i < numOfObstacles * 4; i++)
GAS LISTING /tmp/cc1DIh6n.s 			page 11


 426:Src/main.cpp  **** 	{
 427:Src/main.cpp  **** 		graph[i] = obstacles[i / 4].corners[i % 4];
 428:Src/main.cpp  **** 	}
 429:Src/main.cpp  **** 
 430:Src/main.cpp  **** 	startway.x 	= 0;
 431:Src/main.cpp  **** 	startway.y 	= 0;
 432:Src/main.cpp  **** 	endway.x	= 150;
 433:Src/main.cpp  **** 	endway.y	= 150;
 434:Src/main.cpp  **** 
 435:Src/main.cpp  **** //20:40->25:75
 436:Src/main.cpp  **** 
 437:Src/main.cpp  **** 	// cout << "AAAAAAAAAAAAAAAA" << endl;
 438:Src/main.cpp  **** 
 439:Src/main.cpp  **** 
 440:Src/main.cpp  **** 	// initObst(&obstacles[0]);
 441:Src/main.cpp  **** 	initPoint(graph[graphSize - 1], &c);
 442:Src/main.cpp  **** 
 443:Src/main.cpp  **** 	// for(int i = 0; i < 4; i++)
 444:Src/main.cpp  **** 	// {
 445:Src/main.cpp  **** 	// 	if(obstacles[0].corners[i] != NULL)
 446:Src/main.cpp  **** 	// 	{
 447:Src/main.cpp  **** 	// 		for(int j = 0; j < obstacles[0].corners[i]->numOfTargets; j++)
 448:Src/main.cpp  **** 	// 		{
 449:Src/main.cpp  **** 	// 			cout << "corner: " << obstacles[0].corners[i]->c.x << ":" << obstacles[0].corners[i]->c.y <<
 450:Src/main.cpp  **** 	// 		}
 451:Src/main.cpp  **** 	// 	}
 452:Src/main.cpp  **** 	// }
 453:Src/main.cpp  **** 
 454:Src/main.cpp  **** 	// struct coords sss = getCoordsOfPoint(obstacles[0].corners[0]);
 455:Src/main.cpp  **** 	// cout << sss.x << " " << sss.y << endl;
 456:Src/main.cpp  **** //
 457:Src/main.cpp  **** // 	struct vect v = createVect(&obstacles[0], CORNER_LEFT_BOT, -45);
 458:Src/main.cpp  **** // 	// v.dx = 5;
 459:Src/main.cpp  **** // 	// v.dy = 35;
 460:Src/main.cpp  **** // 	// struct vect v;
 461:Src/main.cpp  **** // 	// v.c = createCoords(19.4, 40.4);
 462:Src/main.cpp  **** // 	// v.dx =
 463:Src/main.cpp  **** // 	// cout << hasIntersection(&obstacles[1], &v) << endl;
 464:Src/main.cpp  **** //
 465:Src/main.cpp  **** // 	struct array ar;
 466:Src/main.cpp  **** // 	ar.items = obstacles;
 467:Src/main.cpp  **** // 	ar.size = numOfObstacles;
 468:Src/main.cpp  **** //
 469:Src/main.cpp  **** // 	struct coords cc = getIntersection(&obstacles[1], &v);
 470:Src/main.cpp  **** // 	cout << cc.x << ":" << cc.y << endl;
 471:Src/main.cpp  **** // 	//
 472:Src/main.cpp  **** // 	// struct obstacle *ob = getIntersected(&ar, &v);
 473:Src/main.cpp  **** // 	//
 474:Src/main.cpp  **** // 	// cout << ob << endl;
 475:Src/main.cpp  **** // 	// struct coords dot = {20, 10};
 476:Src/main.cpp  **** // 	// cout << isDotInside(&dot, &obstacles[0]);
 477:Src/main.cpp  **** // return 0;
 478:Src/main.cpp  ****  	cout << "glut init\n";
 479:Src/main.cpp  **** 	glutInit(&argc, argv);
 480:Src/main.cpp  **** 	cout << "dispmode\n";
 481:Src/main.cpp  **** 	glutInitDisplayMode(GLUT_DOUBLE | GLUT_RGBA);
 482:Src/main.cpp  **** 	glutCreateWindow("floating");
GAS LISTING /tmp/cc1DIh6n.s 			page 12


 483:Src/main.cpp  **** 	cout << "reshape\n";
 484:Src/main.cpp  **** 	glutReshapeFunc(reshape);
 485:Src/main.cpp  **** 	cout << "dispfunc\n";
 486:Src/main.cpp  **** 	glutDisplayFunc(renderScene);
 487:Src/main.cpp  ****     cout << "keyfunc\n";
 488:Src/main.cpp  ****     glutKeyboardFunc(handleKeypress);
 489:Src/main.cpp  **** 	cout << "timer\n";
 490:Src/main.cpp  **** 	glutTimerFunc(GL_TIMER_DELAY, timf, 0);
 491:Src/main.cpp  **** 	cout << "mainloop\n";
 492:Src/main.cpp  **** 	glutMainLoop();
 493:Src/main.cpp  **** 
 494:Src/main.cpp  **** 
 495:Src/main.cpp  **** 	return 1;
 496:Src/main.cpp  **** }
 127              		.loc 1 496 1 is_stmt 1 view -0
 128              		.cfi_startproc
 129              		.loc 1 496 1 is_stmt 0 view .LVU33
 130 009d 83FF01   		cmpl	$1, %edi
 131 00a0 7401     		je	.L13
 132              	.L10:
 133 00a2 C3       		ret
 134              	.L13:
 135              		.loc 1 496 1 discriminator 1 view .LVU34
 136 00a3 81FEFFFF 		cmpl	$65535, %esi
 136      0000
 137 00a9 75F7     		jne	.L10
 138              		.loc 1 496 1 view .LVU35
 139 00ab 4883EC08 		subq	$8, %rsp
 140              		.cfi_def_cfa_offset 16
 141              		.file 2 "/usr/include/c++/9.1.0/iostream"
   1:/usr/include/c++/9.1.0/iostream **** // Standard iostream objects -*- C++ -*-
   2:/usr/include/c++/9.1.0/iostream **** 
   3:/usr/include/c++/9.1.0/iostream **** // Copyright (C) 1997-2019 Free Software Foundation, Inc.
   4:/usr/include/c++/9.1.0/iostream **** //
   5:/usr/include/c++/9.1.0/iostream **** // This file is part of the GNU ISO C++ Library.  This library is free
   6:/usr/include/c++/9.1.0/iostream **** // software; you can redistribute it and/or modify it under the
   7:/usr/include/c++/9.1.0/iostream **** // terms of the GNU General Public License as published by the
   8:/usr/include/c++/9.1.0/iostream **** // Free Software Foundation; either version 3, or (at your option)
   9:/usr/include/c++/9.1.0/iostream **** // any later version.
  10:/usr/include/c++/9.1.0/iostream **** 
  11:/usr/include/c++/9.1.0/iostream **** // This library is distributed in the hope that it will be useful,
  12:/usr/include/c++/9.1.0/iostream **** // but WITHOUT ANY WARRANTY; without even the implied warranty of
  13:/usr/include/c++/9.1.0/iostream **** // MERCHANTABILITY or FITNESS FOR A PARTICULAR PURPOSE.  See the
  14:/usr/include/c++/9.1.0/iostream **** // GNU General Public License for more details.
  15:/usr/include/c++/9.1.0/iostream **** 
  16:/usr/include/c++/9.1.0/iostream **** // Under Section 7 of GPL version 3, you are granted additional
  17:/usr/include/c++/9.1.0/iostream **** // permissions described in the GCC Runtime Library Exception, version
  18:/usr/include/c++/9.1.0/iostream **** // 3.1, as published by the Free Software Foundation.
  19:/usr/include/c++/9.1.0/iostream **** 
  20:/usr/include/c++/9.1.0/iostream **** // You should have received a copy of the GNU General Public License and
  21:/usr/include/c++/9.1.0/iostream **** // a copy of the GCC Runtime Library Exception along with this program;
  22:/usr/include/c++/9.1.0/iostream **** // see the files COPYING3 and COPYING.RUNTIME respectively.  If not, see
  23:/usr/include/c++/9.1.0/iostream **** // <http://www.gnu.org/licenses/>.
  24:/usr/include/c++/9.1.0/iostream **** 
  25:/usr/include/c++/9.1.0/iostream **** /** @file include/iostream
  26:/usr/include/c++/9.1.0/iostream ****  *  This is a Standard C++ Library header.
  27:/usr/include/c++/9.1.0/iostream ****  */
GAS LISTING /tmp/cc1DIh6n.s 			page 13


  28:/usr/include/c++/9.1.0/iostream **** 
  29:/usr/include/c++/9.1.0/iostream **** //
  30:/usr/include/c++/9.1.0/iostream **** // ISO C++ 14882: 27.3  Standard iostream objects
  31:/usr/include/c++/9.1.0/iostream **** //
  32:/usr/include/c++/9.1.0/iostream **** 
  33:/usr/include/c++/9.1.0/iostream **** #ifndef _GLIBCXX_IOSTREAM
  34:/usr/include/c++/9.1.0/iostream **** #define _GLIBCXX_IOSTREAM 1
  35:/usr/include/c++/9.1.0/iostream **** 
  36:/usr/include/c++/9.1.0/iostream **** #pragma GCC system_header
  37:/usr/include/c++/9.1.0/iostream **** 
  38:/usr/include/c++/9.1.0/iostream **** #include <bits/c++config.h>
  39:/usr/include/c++/9.1.0/iostream **** #include <ostream>
  40:/usr/include/c++/9.1.0/iostream **** #include <istream>
  41:/usr/include/c++/9.1.0/iostream **** 
  42:/usr/include/c++/9.1.0/iostream **** namespace std _GLIBCXX_VISIBILITY(default)
  43:/usr/include/c++/9.1.0/iostream **** {
  44:/usr/include/c++/9.1.0/iostream **** _GLIBCXX_BEGIN_NAMESPACE_VERSION
  45:/usr/include/c++/9.1.0/iostream **** 
  46:/usr/include/c++/9.1.0/iostream ****   /**
  47:/usr/include/c++/9.1.0/iostream ****    *  @name Standard Stream Objects
  48:/usr/include/c++/9.1.0/iostream ****    *
  49:/usr/include/c++/9.1.0/iostream ****    *  The &lt;iostream&gt; header declares the eight <em>standard stream
  50:/usr/include/c++/9.1.0/iostream ****    *  objects</em>.  For other declarations, see
  51:/usr/include/c++/9.1.0/iostream ****    *  http://gcc.gnu.org/onlinedocs/libstdc++/manual/io.html
  52:/usr/include/c++/9.1.0/iostream ****    *  and the @link iosfwd I/O forward declarations @endlink
  53:/usr/include/c++/9.1.0/iostream ****    *
  54:/usr/include/c++/9.1.0/iostream ****    *  They are required by default to cooperate with the global C
  55:/usr/include/c++/9.1.0/iostream ****    *  library's @c FILE streams, and to be available during program
  56:/usr/include/c++/9.1.0/iostream ****    *  startup and termination. For more information, see the section of the
  57:/usr/include/c++/9.1.0/iostream ****    *  manual linked to above.
  58:/usr/include/c++/9.1.0/iostream ****   */
  59:/usr/include/c++/9.1.0/iostream ****   //@{
  60:/usr/include/c++/9.1.0/iostream ****   extern istream cin;		/// Linked to standard input
  61:/usr/include/c++/9.1.0/iostream ****   extern ostream cout;		/// Linked to standard output
  62:/usr/include/c++/9.1.0/iostream ****   extern ostream cerr;		/// Linked to standard error (unbuffered)
  63:/usr/include/c++/9.1.0/iostream ****   extern ostream clog;		/// Linked to standard error (buffered)
  64:/usr/include/c++/9.1.0/iostream **** 
  65:/usr/include/c++/9.1.0/iostream **** #ifdef _GLIBCXX_USE_WCHAR_T
  66:/usr/include/c++/9.1.0/iostream ****   extern wistream wcin;		/// Linked to standard input
  67:/usr/include/c++/9.1.0/iostream ****   extern wostream wcout;	/// Linked to standard output
  68:/usr/include/c++/9.1.0/iostream ****   extern wostream wcerr;	/// Linked to standard error (unbuffered)
  69:/usr/include/c++/9.1.0/iostream ****   extern wostream wclog;	/// Linked to standard error (buffered)
  70:/usr/include/c++/9.1.0/iostream **** #endif
  71:/usr/include/c++/9.1.0/iostream ****   //@}
  72:/usr/include/c++/9.1.0/iostream **** 
  73:/usr/include/c++/9.1.0/iostream ****   // For construction of filebuffers for cout, cin, cerr, clog et. al.
  74:/usr/include/c++/9.1.0/iostream ****   static ios_base::Init __ioinit;
 142              		.loc 2 74 25 view .LVU36
 143 00af 488D3D00 		leaq	_ZStL8__ioinit(%rip), %rdi
 143      000000
 144              	.LVL18:
 145              		.loc 2 74 25 view .LVU37
 146 00b6 E8000000 		call	_ZNSt8ios_base4InitC1Ev@PLT
 146      00
 147              	.LVL19:
 148              		.loc 2 74 25 view .LVU38
 149 00bb 488D1500 		leaq	__dso_handle(%rip), %rdx
GAS LISTING /tmp/cc1DIh6n.s 			page 14


 149      000000
 150 00c2 488D3500 		leaq	_ZStL8__ioinit(%rip), %rsi
 150      000000
 151 00c9 488B3D00 		movq	_ZNSt8ios_base4InitD1Ev@GOTPCREL(%rip), %rdi
 151      000000
 152 00d0 E8000000 		call	__cxa_atexit@PLT
 152      00
 153              	.LVL20:
 154              		.loc 1 496 1 view .LVU39
 155 00d5 4883C408 		addq	$8, %rsp
 156              		.cfi_def_cfa_offset 8
 157 00d9 C3       		ret
 158              		.cfi_endproc
 159              	.LFE2840:
 161              		.section	.rodata.str1.1,"aMS",@progbits,1
 162              	.LC1:
 163 0000 50524553 		.string	"PRESSED\n"
 163      5345440A 
 163      00
 164              	.LC2:
 165 0009 4553430A 		.string	"ESC\n"
 165      00
 166              		.text
 167              		.globl	_Z14handleKeypresshii
 169              	_Z14handleKeypresshii:
 170              	.LVL21:
 171              	.LFB2489:
 359:Src/main.cpp  ****     cout << "PRESSED\n" << (int)key << endl;
 172              		.loc 1 359 1 is_stmt 1 view -0
 173              		.cfi_startproc
 359:Src/main.cpp  ****     cout << "PRESSED\n" << (int)key << endl;
 174              		.loc 1 359 1 is_stmt 0 view .LVU41
 175 00da 4154     		pushq	%r12
 176              		.cfi_def_cfa_offset 16
 177              		.cfi_offset 12, -16
 178 00dc 55       		pushq	%rbp
 179              		.cfi_def_cfa_offset 24
 180              		.cfi_offset 6, -24
 181 00dd 53       		pushq	%rbx
 182              		.cfi_def_cfa_offset 32
 183              		.cfi_offset 3, -32
 184 00de 89FD     		movl	%edi, %ebp
 360:Src/main.cpp  ****     if(key == 27) //ESC
 185              		.loc 1 360 5 is_stmt 1 view .LVU42
 186              	.LVL22:
 187              	.LBB183:
 188              	.LBI183:
 189              		.file 3 "/usr/include/c++/9.1.0/ostream"
   1:/usr/include/c++/9.1.0/ostream **** // Output streams -*- C++ -*-
   2:/usr/include/c++/9.1.0/ostream **** 
   3:/usr/include/c++/9.1.0/ostream **** // Copyright (C) 1997-2019 Free Software Foundation, Inc.
   4:/usr/include/c++/9.1.0/ostream **** //
   5:/usr/include/c++/9.1.0/ostream **** // This file is part of the GNU ISO C++ Library.  This library is free
   6:/usr/include/c++/9.1.0/ostream **** // software; you can redistribute it and/or modify it under the
   7:/usr/include/c++/9.1.0/ostream **** // terms of the GNU General Public License as published by the
   8:/usr/include/c++/9.1.0/ostream **** // Free Software Foundation; either version 3, or (at your option)
   9:/usr/include/c++/9.1.0/ostream **** // any later version.
GAS LISTING /tmp/cc1DIh6n.s 			page 15


  10:/usr/include/c++/9.1.0/ostream **** 
  11:/usr/include/c++/9.1.0/ostream **** // This library is distributed in the hope that it will be useful,
  12:/usr/include/c++/9.1.0/ostream **** // but WITHOUT ANY WARRANTY; without even the implied warranty of
  13:/usr/include/c++/9.1.0/ostream **** // MERCHANTABILITY or FITNESS FOR A PARTICULAR PURPOSE.  See the
  14:/usr/include/c++/9.1.0/ostream **** // GNU General Public License for more details.
  15:/usr/include/c++/9.1.0/ostream **** 
  16:/usr/include/c++/9.1.0/ostream **** // Under Section 7 of GPL version 3, you are granted additional
  17:/usr/include/c++/9.1.0/ostream **** // permissions described in the GCC Runtime Library Exception, version
  18:/usr/include/c++/9.1.0/ostream **** // 3.1, as published by the Free Software Foundation.
  19:/usr/include/c++/9.1.0/ostream **** 
  20:/usr/include/c++/9.1.0/ostream **** // You should have received a copy of the GNU General Public License and
  21:/usr/include/c++/9.1.0/ostream **** // a copy of the GCC Runtime Library Exception along with this program;
  22:/usr/include/c++/9.1.0/ostream **** // see the files COPYING3 and COPYING.RUNTIME respectively.  If not, see
  23:/usr/include/c++/9.1.0/ostream **** // <http://www.gnu.org/licenses/>.
  24:/usr/include/c++/9.1.0/ostream **** 
  25:/usr/include/c++/9.1.0/ostream **** /** @file include/ostream
  26:/usr/include/c++/9.1.0/ostream ****  *  This is a Standard C++ Library header.
  27:/usr/include/c++/9.1.0/ostream ****  */
  28:/usr/include/c++/9.1.0/ostream **** 
  29:/usr/include/c++/9.1.0/ostream **** //
  30:/usr/include/c++/9.1.0/ostream **** // ISO C++ 14882: 27.6.2  Output streams
  31:/usr/include/c++/9.1.0/ostream **** //
  32:/usr/include/c++/9.1.0/ostream **** 
  33:/usr/include/c++/9.1.0/ostream **** #ifndef _GLIBCXX_OSTREAM
  34:/usr/include/c++/9.1.0/ostream **** #define _GLIBCXX_OSTREAM 1
  35:/usr/include/c++/9.1.0/ostream **** 
  36:/usr/include/c++/9.1.0/ostream **** #pragma GCC system_header
  37:/usr/include/c++/9.1.0/ostream **** 
  38:/usr/include/c++/9.1.0/ostream **** #include <ios>
  39:/usr/include/c++/9.1.0/ostream **** #include <bits/ostream_insert.h>
  40:/usr/include/c++/9.1.0/ostream **** 
  41:/usr/include/c++/9.1.0/ostream **** namespace std _GLIBCXX_VISIBILITY(default)
  42:/usr/include/c++/9.1.0/ostream **** {
  43:/usr/include/c++/9.1.0/ostream **** _GLIBCXX_BEGIN_NAMESPACE_VERSION
  44:/usr/include/c++/9.1.0/ostream **** 
  45:/usr/include/c++/9.1.0/ostream ****   /**
  46:/usr/include/c++/9.1.0/ostream ****    *  @brief  Template class basic_ostream.
  47:/usr/include/c++/9.1.0/ostream ****    *  @ingroup io
  48:/usr/include/c++/9.1.0/ostream ****    *
  49:/usr/include/c++/9.1.0/ostream ****    *  @tparam _CharT  Type of character stream.
  50:/usr/include/c++/9.1.0/ostream ****    *  @tparam _Traits  Traits for character type, defaults to
  51:/usr/include/c++/9.1.0/ostream ****    *                   char_traits<_CharT>.
  52:/usr/include/c++/9.1.0/ostream ****    *
  53:/usr/include/c++/9.1.0/ostream ****    *  This is the base class for all output streams.  It provides text
  54:/usr/include/c++/9.1.0/ostream ****    *  formatting of all builtin types, and communicates with any class
  55:/usr/include/c++/9.1.0/ostream ****    *  derived from basic_streambuf to do the actual output.
  56:/usr/include/c++/9.1.0/ostream ****   */
  57:/usr/include/c++/9.1.0/ostream ****   template<typename _CharT, typename _Traits>
  58:/usr/include/c++/9.1.0/ostream ****     class basic_ostream : virtual public basic_ios<_CharT, _Traits>
  59:/usr/include/c++/9.1.0/ostream ****     {
  60:/usr/include/c++/9.1.0/ostream ****     public:
  61:/usr/include/c++/9.1.0/ostream ****       // Types (inherited from basic_ios):
  62:/usr/include/c++/9.1.0/ostream ****       typedef _CharT			 		char_type;
  63:/usr/include/c++/9.1.0/ostream ****       typedef typename _Traits::int_type 		int_type;
  64:/usr/include/c++/9.1.0/ostream ****       typedef typename _Traits::pos_type 		pos_type;
  65:/usr/include/c++/9.1.0/ostream ****       typedef typename _Traits::off_type 		off_type;
  66:/usr/include/c++/9.1.0/ostream ****       typedef _Traits			 		traits_type;
GAS LISTING /tmp/cc1DIh6n.s 			page 16


  67:/usr/include/c++/9.1.0/ostream **** 
  68:/usr/include/c++/9.1.0/ostream ****       // Non-standard Types:
  69:/usr/include/c++/9.1.0/ostream ****       typedef basic_streambuf<_CharT, _Traits> 		__streambuf_type;
  70:/usr/include/c++/9.1.0/ostream ****       typedef basic_ios<_CharT, _Traits>		__ios_type;
  71:/usr/include/c++/9.1.0/ostream ****       typedef basic_ostream<_CharT, _Traits>		__ostream_type;
  72:/usr/include/c++/9.1.0/ostream ****       typedef num_put<_CharT, ostreambuf_iterator<_CharT, _Traits> >
  73:/usr/include/c++/9.1.0/ostream ****       							__num_put_type;
  74:/usr/include/c++/9.1.0/ostream ****       typedef ctype<_CharT>	      			__ctype_type;
  75:/usr/include/c++/9.1.0/ostream **** 
  76:/usr/include/c++/9.1.0/ostream ****       /**
  77:/usr/include/c++/9.1.0/ostream ****        *  @brief  Base constructor.
  78:/usr/include/c++/9.1.0/ostream ****        *
  79:/usr/include/c++/9.1.0/ostream ****        *  This ctor is almost never called by the user directly, rather from
  80:/usr/include/c++/9.1.0/ostream ****        *  derived classes' initialization lists, which pass a pointer to
  81:/usr/include/c++/9.1.0/ostream ****        *  their own stream buffer.
  82:/usr/include/c++/9.1.0/ostream ****       */
  83:/usr/include/c++/9.1.0/ostream ****       explicit
  84:/usr/include/c++/9.1.0/ostream ****       basic_ostream(__streambuf_type* __sb)
  85:/usr/include/c++/9.1.0/ostream ****       { this->init(__sb); }
  86:/usr/include/c++/9.1.0/ostream **** 
  87:/usr/include/c++/9.1.0/ostream ****       /**
  88:/usr/include/c++/9.1.0/ostream ****        *  @brief  Base destructor.
  89:/usr/include/c++/9.1.0/ostream ****        *
  90:/usr/include/c++/9.1.0/ostream ****        *  This does very little apart from providing a virtual base dtor.
  91:/usr/include/c++/9.1.0/ostream ****       */
  92:/usr/include/c++/9.1.0/ostream ****       virtual
  93:/usr/include/c++/9.1.0/ostream ****       ~basic_ostream() { }
  94:/usr/include/c++/9.1.0/ostream **** 
  95:/usr/include/c++/9.1.0/ostream ****       /// Safe prefix/suffix operations.
  96:/usr/include/c++/9.1.0/ostream ****       class sentry;
  97:/usr/include/c++/9.1.0/ostream ****       friend class sentry;
  98:/usr/include/c++/9.1.0/ostream **** 
  99:/usr/include/c++/9.1.0/ostream ****       //@{
 100:/usr/include/c++/9.1.0/ostream ****       /**
 101:/usr/include/c++/9.1.0/ostream ****        *  @brief  Interface for manipulators.
 102:/usr/include/c++/9.1.0/ostream ****        *
 103:/usr/include/c++/9.1.0/ostream ****        *  Manipulators such as @c std::endl and @c std::hex use these
 104:/usr/include/c++/9.1.0/ostream ****        *  functions in constructs like "std::cout << std::endl".  For more
 105:/usr/include/c++/9.1.0/ostream ****        *  information, see the iomanip header.
 106:/usr/include/c++/9.1.0/ostream ****       */
 107:/usr/include/c++/9.1.0/ostream ****       __ostream_type&
 108:/usr/include/c++/9.1.0/ostream ****       operator<<(__ostream_type& (*__pf)(__ostream_type&))
 109:/usr/include/c++/9.1.0/ostream ****       {
 110:/usr/include/c++/9.1.0/ostream **** 	// _GLIBCXX_RESOLVE_LIB_DEFECTS
 111:/usr/include/c++/9.1.0/ostream **** 	// DR 60. What is a formatted input function?
 112:/usr/include/c++/9.1.0/ostream **** 	// The inserters for manipulators are *not* formatted output functions.
 113:/usr/include/c++/9.1.0/ostream **** 	return __pf(*this);
 114:/usr/include/c++/9.1.0/ostream ****       }
 115:/usr/include/c++/9.1.0/ostream **** 
 116:/usr/include/c++/9.1.0/ostream ****       __ostream_type&
 117:/usr/include/c++/9.1.0/ostream ****       operator<<(__ios_type& (*__pf)(__ios_type&))
 118:/usr/include/c++/9.1.0/ostream ****       {
 119:/usr/include/c++/9.1.0/ostream **** 	// _GLIBCXX_RESOLVE_LIB_DEFECTS
 120:/usr/include/c++/9.1.0/ostream **** 	// DR 60. What is a formatted input function?
 121:/usr/include/c++/9.1.0/ostream **** 	// The inserters for manipulators are *not* formatted output functions.
 122:/usr/include/c++/9.1.0/ostream **** 	__pf(*this);
 123:/usr/include/c++/9.1.0/ostream **** 	return *this;
GAS LISTING /tmp/cc1DIh6n.s 			page 17


 124:/usr/include/c++/9.1.0/ostream ****       }
 125:/usr/include/c++/9.1.0/ostream **** 
 126:/usr/include/c++/9.1.0/ostream ****       __ostream_type&
 127:/usr/include/c++/9.1.0/ostream ****       operator<<(ios_base& (*__pf) (ios_base&))
 128:/usr/include/c++/9.1.0/ostream ****       {
 129:/usr/include/c++/9.1.0/ostream **** 	// _GLIBCXX_RESOLVE_LIB_DEFECTS
 130:/usr/include/c++/9.1.0/ostream **** 	// DR 60. What is a formatted input function?
 131:/usr/include/c++/9.1.0/ostream **** 	// The inserters for manipulators are *not* formatted output functions.
 132:/usr/include/c++/9.1.0/ostream **** 	__pf(*this);
 133:/usr/include/c++/9.1.0/ostream **** 	return *this;
 134:/usr/include/c++/9.1.0/ostream ****       }
 135:/usr/include/c++/9.1.0/ostream ****       //@}
 136:/usr/include/c++/9.1.0/ostream **** 
 137:/usr/include/c++/9.1.0/ostream ****       //@{
 138:/usr/include/c++/9.1.0/ostream ****       /**
 139:/usr/include/c++/9.1.0/ostream ****        *  @name Inserters
 140:/usr/include/c++/9.1.0/ostream ****        *
 141:/usr/include/c++/9.1.0/ostream ****        *  All the @c operator<< functions (aka <em>formatted output
 142:/usr/include/c++/9.1.0/ostream ****        *  functions</em>) have some common behavior.  Each starts by
 143:/usr/include/c++/9.1.0/ostream ****        *  constructing a temporary object of type std::basic_ostream::sentry.
 144:/usr/include/c++/9.1.0/ostream ****        *  This can have several effects, concluding with the setting of a
 145:/usr/include/c++/9.1.0/ostream ****        *  status flag; see the sentry documentation for more.
 146:/usr/include/c++/9.1.0/ostream ****        *
 147:/usr/include/c++/9.1.0/ostream ****        *  If the sentry status is good, the function tries to generate
 148:/usr/include/c++/9.1.0/ostream ****        *  whatever data is appropriate for the type of the argument.
 149:/usr/include/c++/9.1.0/ostream ****        *
 150:/usr/include/c++/9.1.0/ostream ****        *  If an exception is thrown during insertion, ios_base::badbit
 151:/usr/include/c++/9.1.0/ostream ****        *  will be turned on in the stream's error state without causing an
 152:/usr/include/c++/9.1.0/ostream ****        *  ios_base::failure to be thrown.  The original exception will then
 153:/usr/include/c++/9.1.0/ostream ****        *  be rethrown.
 154:/usr/include/c++/9.1.0/ostream ****       */
 155:/usr/include/c++/9.1.0/ostream **** 
 156:/usr/include/c++/9.1.0/ostream ****       //@{
 157:/usr/include/c++/9.1.0/ostream ****       /**
 158:/usr/include/c++/9.1.0/ostream ****        *  @brief Integer arithmetic inserters
 159:/usr/include/c++/9.1.0/ostream ****        *  @param  __n A variable of builtin integral type.
 160:/usr/include/c++/9.1.0/ostream ****        *  @return  @c *this if successful
 161:/usr/include/c++/9.1.0/ostream ****        *
 162:/usr/include/c++/9.1.0/ostream ****        *  These functions use the stream's current locale (specifically, the
 163:/usr/include/c++/9.1.0/ostream ****        *  @c num_get facet) to perform numeric formatting.
 164:/usr/include/c++/9.1.0/ostream ****       */
 165:/usr/include/c++/9.1.0/ostream ****       __ostream_type&
 166:/usr/include/c++/9.1.0/ostream ****       operator<<(long __n)
 167:/usr/include/c++/9.1.0/ostream ****       { return _M_insert(__n); }
 168:/usr/include/c++/9.1.0/ostream **** 
 169:/usr/include/c++/9.1.0/ostream ****       __ostream_type&
 170:/usr/include/c++/9.1.0/ostream ****       operator<<(unsigned long __n)
 171:/usr/include/c++/9.1.0/ostream ****       { return _M_insert(__n); }
 172:/usr/include/c++/9.1.0/ostream **** 
 173:/usr/include/c++/9.1.0/ostream ****       __ostream_type&
 174:/usr/include/c++/9.1.0/ostream ****       operator<<(bool __n)
 175:/usr/include/c++/9.1.0/ostream ****       { return _M_insert(__n); }
 176:/usr/include/c++/9.1.0/ostream **** 
 177:/usr/include/c++/9.1.0/ostream ****       __ostream_type&
 178:/usr/include/c++/9.1.0/ostream ****       operator<<(short __n);
 179:/usr/include/c++/9.1.0/ostream **** 
 180:/usr/include/c++/9.1.0/ostream ****       __ostream_type&
GAS LISTING /tmp/cc1DIh6n.s 			page 18


 181:/usr/include/c++/9.1.0/ostream ****       operator<<(unsigned short __n)
 182:/usr/include/c++/9.1.0/ostream ****       {
 183:/usr/include/c++/9.1.0/ostream **** 	// _GLIBCXX_RESOLVE_LIB_DEFECTS
 184:/usr/include/c++/9.1.0/ostream **** 	// 117. basic_ostream uses nonexistent num_put member functions.
 185:/usr/include/c++/9.1.0/ostream **** 	return _M_insert(static_cast<unsigned long>(__n));
 186:/usr/include/c++/9.1.0/ostream ****       }
 187:/usr/include/c++/9.1.0/ostream **** 
 188:/usr/include/c++/9.1.0/ostream ****       __ostream_type&
 189:/usr/include/c++/9.1.0/ostream ****       operator<<(int __n);
 190:/usr/include/c++/9.1.0/ostream **** 
 191:/usr/include/c++/9.1.0/ostream ****       __ostream_type&
 192:/usr/include/c++/9.1.0/ostream ****       operator<<(unsigned int __n)
 193:/usr/include/c++/9.1.0/ostream ****       {
 194:/usr/include/c++/9.1.0/ostream **** 	// _GLIBCXX_RESOLVE_LIB_DEFECTS
 195:/usr/include/c++/9.1.0/ostream **** 	// 117. basic_ostream uses nonexistent num_put member functions.
 196:/usr/include/c++/9.1.0/ostream **** 	return _M_insert(static_cast<unsigned long>(__n));
 197:/usr/include/c++/9.1.0/ostream ****       }
 198:/usr/include/c++/9.1.0/ostream **** 
 199:/usr/include/c++/9.1.0/ostream **** #ifdef _GLIBCXX_USE_LONG_LONG
 200:/usr/include/c++/9.1.0/ostream ****       __ostream_type&
 201:/usr/include/c++/9.1.0/ostream ****       operator<<(long long __n)
 202:/usr/include/c++/9.1.0/ostream ****       { return _M_insert(__n); }
 203:/usr/include/c++/9.1.0/ostream **** 
 204:/usr/include/c++/9.1.0/ostream ****       __ostream_type&
 205:/usr/include/c++/9.1.0/ostream ****       operator<<(unsigned long long __n)
 206:/usr/include/c++/9.1.0/ostream ****       { return _M_insert(__n); }
 207:/usr/include/c++/9.1.0/ostream **** #endif
 208:/usr/include/c++/9.1.0/ostream ****       //@}
 209:/usr/include/c++/9.1.0/ostream **** 
 210:/usr/include/c++/9.1.0/ostream ****       //@{
 211:/usr/include/c++/9.1.0/ostream ****       /**
 212:/usr/include/c++/9.1.0/ostream ****        *  @brief  Floating point arithmetic inserters
 213:/usr/include/c++/9.1.0/ostream ****        *  @param  __f A variable of builtin floating point type.
 214:/usr/include/c++/9.1.0/ostream ****        *  @return  @c *this if successful
 215:/usr/include/c++/9.1.0/ostream ****        *
 216:/usr/include/c++/9.1.0/ostream ****        *  These functions use the stream's current locale (specifically, the
 217:/usr/include/c++/9.1.0/ostream ****        *  @c num_get facet) to perform numeric formatting.
 218:/usr/include/c++/9.1.0/ostream ****       */
 219:/usr/include/c++/9.1.0/ostream ****       __ostream_type&
 220:/usr/include/c++/9.1.0/ostream ****       operator<<(double __f)
 221:/usr/include/c++/9.1.0/ostream ****       { return _M_insert(__f); }
 222:/usr/include/c++/9.1.0/ostream **** 
 223:/usr/include/c++/9.1.0/ostream ****       __ostream_type&
 224:/usr/include/c++/9.1.0/ostream ****       operator<<(float __f)
 225:/usr/include/c++/9.1.0/ostream ****       {
 226:/usr/include/c++/9.1.0/ostream **** 	// _GLIBCXX_RESOLVE_LIB_DEFECTS
 227:/usr/include/c++/9.1.0/ostream **** 	// 117. basic_ostream uses nonexistent num_put member functions.
 228:/usr/include/c++/9.1.0/ostream **** 	return _M_insert(static_cast<double>(__f));
 229:/usr/include/c++/9.1.0/ostream ****       }
 230:/usr/include/c++/9.1.0/ostream **** 
 231:/usr/include/c++/9.1.0/ostream ****       __ostream_type&
 232:/usr/include/c++/9.1.0/ostream ****       operator<<(long double __f)
 233:/usr/include/c++/9.1.0/ostream ****       { return _M_insert(__f); }
 234:/usr/include/c++/9.1.0/ostream ****       //@}
 235:/usr/include/c++/9.1.0/ostream **** 
 236:/usr/include/c++/9.1.0/ostream ****       /**
 237:/usr/include/c++/9.1.0/ostream ****        *  @brief  Pointer arithmetic inserters
GAS LISTING /tmp/cc1DIh6n.s 			page 19


 238:/usr/include/c++/9.1.0/ostream ****        *  @param  __p A variable of pointer type.
 239:/usr/include/c++/9.1.0/ostream ****        *  @return  @c *this if successful
 240:/usr/include/c++/9.1.0/ostream ****        *
 241:/usr/include/c++/9.1.0/ostream ****        *  These functions use the stream's current locale (specifically, the
 242:/usr/include/c++/9.1.0/ostream ****        *  @c num_get facet) to perform numeric formatting.
 243:/usr/include/c++/9.1.0/ostream ****       */
 244:/usr/include/c++/9.1.0/ostream ****       __ostream_type&
 245:/usr/include/c++/9.1.0/ostream ****       operator<<(const void* __p)
 246:/usr/include/c++/9.1.0/ostream ****       { return _M_insert(__p); }
 247:/usr/include/c++/9.1.0/ostream **** 
 248:/usr/include/c++/9.1.0/ostream **** #if __cplusplus >= 201703L
 249:/usr/include/c++/9.1.0/ostream ****       __ostream_type&
 250:/usr/include/c++/9.1.0/ostream ****       operator<<(nullptr_t)
 251:/usr/include/c++/9.1.0/ostream ****       { return *this << "nullptr"; }
 252:/usr/include/c++/9.1.0/ostream **** #endif
 253:/usr/include/c++/9.1.0/ostream **** 
 254:/usr/include/c++/9.1.0/ostream ****       /**
 255:/usr/include/c++/9.1.0/ostream ****        *  @brief  Extracting from another streambuf.
 256:/usr/include/c++/9.1.0/ostream ****        *  @param  __sb  A pointer to a streambuf
 257:/usr/include/c++/9.1.0/ostream ****        *
 258:/usr/include/c++/9.1.0/ostream ****        *  This function behaves like one of the basic arithmetic extractors,
 259:/usr/include/c++/9.1.0/ostream ****        *  in that it also constructs a sentry object and has the same error
 260:/usr/include/c++/9.1.0/ostream ****        *  handling behavior.
 261:/usr/include/c++/9.1.0/ostream ****        *
 262:/usr/include/c++/9.1.0/ostream ****        *  If @p __sb is NULL, the stream will set failbit in its error state.
 263:/usr/include/c++/9.1.0/ostream ****        *
 264:/usr/include/c++/9.1.0/ostream ****        *  Characters are extracted from @p __sb and inserted into @c *this
 265:/usr/include/c++/9.1.0/ostream ****        *  until one of the following occurs:
 266:/usr/include/c++/9.1.0/ostream ****        *
 267:/usr/include/c++/9.1.0/ostream ****        *  - the input stream reaches end-of-file,
 268:/usr/include/c++/9.1.0/ostream ****        *  - insertion into the output sequence fails (in this case, the
 269:/usr/include/c++/9.1.0/ostream ****        *    character that would have been inserted is not extracted), or
 270:/usr/include/c++/9.1.0/ostream ****        *  - an exception occurs while getting a character from @p __sb, which
 271:/usr/include/c++/9.1.0/ostream ****        *    sets failbit in the error state
 272:/usr/include/c++/9.1.0/ostream ****        *
 273:/usr/include/c++/9.1.0/ostream ****        *  If the function inserts no characters, failbit is set.
 274:/usr/include/c++/9.1.0/ostream ****       */
 275:/usr/include/c++/9.1.0/ostream ****       __ostream_type&
 276:/usr/include/c++/9.1.0/ostream ****       operator<<(__streambuf_type* __sb);
 277:/usr/include/c++/9.1.0/ostream ****       //@}
 278:/usr/include/c++/9.1.0/ostream **** 
 279:/usr/include/c++/9.1.0/ostream ****       //@{
 280:/usr/include/c++/9.1.0/ostream ****       /**
 281:/usr/include/c++/9.1.0/ostream ****        *  @name Unformatted Output Functions
 282:/usr/include/c++/9.1.0/ostream ****        *
 283:/usr/include/c++/9.1.0/ostream ****        *  All the unformatted output functions have some common behavior.
 284:/usr/include/c++/9.1.0/ostream ****        *  Each starts by constructing a temporary object of type
 285:/usr/include/c++/9.1.0/ostream ****        *  std::basic_ostream::sentry.  This has several effects, concluding
 286:/usr/include/c++/9.1.0/ostream ****        *  with the setting of a status flag; see the sentry documentation
 287:/usr/include/c++/9.1.0/ostream ****        *  for more.
 288:/usr/include/c++/9.1.0/ostream ****        *
 289:/usr/include/c++/9.1.0/ostream ****        *  If the sentry status is good, the function tries to generate
 290:/usr/include/c++/9.1.0/ostream ****        *  whatever data is appropriate for the type of the argument.
 291:/usr/include/c++/9.1.0/ostream ****        *
 292:/usr/include/c++/9.1.0/ostream ****        *  If an exception is thrown during insertion, ios_base::badbit
 293:/usr/include/c++/9.1.0/ostream ****        *  will be turned on in the stream's error state.  If badbit is on in
 294:/usr/include/c++/9.1.0/ostream ****        *  the stream's exceptions mask, the exception will be rethrown
GAS LISTING /tmp/cc1DIh6n.s 			page 20


 295:/usr/include/c++/9.1.0/ostream ****        *  without completing its actions.
 296:/usr/include/c++/9.1.0/ostream ****       */
 297:/usr/include/c++/9.1.0/ostream **** 
 298:/usr/include/c++/9.1.0/ostream ****       /**
 299:/usr/include/c++/9.1.0/ostream ****        *  @brief  Simple insertion.
 300:/usr/include/c++/9.1.0/ostream ****        *  @param  __c  The character to insert.
 301:/usr/include/c++/9.1.0/ostream ****        *  @return  *this
 302:/usr/include/c++/9.1.0/ostream ****        *
 303:/usr/include/c++/9.1.0/ostream ****        *  Tries to insert @p __c.
 304:/usr/include/c++/9.1.0/ostream ****        *
 305:/usr/include/c++/9.1.0/ostream ****        *  @note  This function is not overloaded on signed char and
 306:/usr/include/c++/9.1.0/ostream ****        *         unsigned char.
 307:/usr/include/c++/9.1.0/ostream ****       */
 308:/usr/include/c++/9.1.0/ostream ****       __ostream_type&
 309:/usr/include/c++/9.1.0/ostream ****       put(char_type __c);
 310:/usr/include/c++/9.1.0/ostream **** 
 311:/usr/include/c++/9.1.0/ostream ****       /**
 312:/usr/include/c++/9.1.0/ostream ****        *  @brief  Core write functionality, without sentry.
 313:/usr/include/c++/9.1.0/ostream ****        *  @param  __s  The array to insert.
 314:/usr/include/c++/9.1.0/ostream ****        *  @param  __n  Maximum number of characters to insert.
 315:/usr/include/c++/9.1.0/ostream ****       */
 316:/usr/include/c++/9.1.0/ostream ****       void
 317:/usr/include/c++/9.1.0/ostream ****       _M_write(const char_type* __s, streamsize __n)
 318:/usr/include/c++/9.1.0/ostream ****       {
 319:/usr/include/c++/9.1.0/ostream **** 	const streamsize __put = this->rdbuf()->sputn(__s, __n);
 320:/usr/include/c++/9.1.0/ostream **** 	if (__put != __n)
 321:/usr/include/c++/9.1.0/ostream **** 	  this->setstate(ios_base::badbit);
 322:/usr/include/c++/9.1.0/ostream ****       }
 323:/usr/include/c++/9.1.0/ostream **** 
 324:/usr/include/c++/9.1.0/ostream ****       /**
 325:/usr/include/c++/9.1.0/ostream ****        *  @brief  Character string insertion.
 326:/usr/include/c++/9.1.0/ostream ****        *  @param  __s  The array to insert.
 327:/usr/include/c++/9.1.0/ostream ****        *  @param  __n  Maximum number of characters to insert.
 328:/usr/include/c++/9.1.0/ostream ****        *  @return  *this
 329:/usr/include/c++/9.1.0/ostream ****        *
 330:/usr/include/c++/9.1.0/ostream ****        *  Characters are copied from @p __s and inserted into the stream until
 331:/usr/include/c++/9.1.0/ostream ****        *  one of the following happens:
 332:/usr/include/c++/9.1.0/ostream ****        *
 333:/usr/include/c++/9.1.0/ostream ****        *  - @p __n characters are inserted
 334:/usr/include/c++/9.1.0/ostream ****        *  - inserting into the output sequence fails (in this case, badbit
 335:/usr/include/c++/9.1.0/ostream ****        *    will be set in the stream's error state)
 336:/usr/include/c++/9.1.0/ostream ****        *
 337:/usr/include/c++/9.1.0/ostream ****        *  @note  This function is not overloaded on signed char and
 338:/usr/include/c++/9.1.0/ostream ****        *         unsigned char.
 339:/usr/include/c++/9.1.0/ostream ****       */
 340:/usr/include/c++/9.1.0/ostream ****       __ostream_type&
 341:/usr/include/c++/9.1.0/ostream ****       write(const char_type* __s, streamsize __n);
 342:/usr/include/c++/9.1.0/ostream ****       //@}
 343:/usr/include/c++/9.1.0/ostream **** 
 344:/usr/include/c++/9.1.0/ostream ****       /**
 345:/usr/include/c++/9.1.0/ostream ****        *  @brief  Synchronizing the stream buffer.
 346:/usr/include/c++/9.1.0/ostream ****        *  @return  *this
 347:/usr/include/c++/9.1.0/ostream ****        *
 348:/usr/include/c++/9.1.0/ostream ****        *  If @c rdbuf() is a null pointer, changes nothing.
 349:/usr/include/c++/9.1.0/ostream ****        *
 350:/usr/include/c++/9.1.0/ostream ****        *  Otherwise, calls @c rdbuf()->pubsync(), and if that returns -1,
 351:/usr/include/c++/9.1.0/ostream ****        *  sets badbit.
GAS LISTING /tmp/cc1DIh6n.s 			page 21


 352:/usr/include/c++/9.1.0/ostream ****       */
 353:/usr/include/c++/9.1.0/ostream ****       __ostream_type&
 354:/usr/include/c++/9.1.0/ostream ****       flush();
 355:/usr/include/c++/9.1.0/ostream **** 
 356:/usr/include/c++/9.1.0/ostream ****       /**
 357:/usr/include/c++/9.1.0/ostream ****        *  @brief  Getting the current write position.
 358:/usr/include/c++/9.1.0/ostream ****        *  @return  A file position object.
 359:/usr/include/c++/9.1.0/ostream ****        *
 360:/usr/include/c++/9.1.0/ostream ****        *  If @c fail() is not false, returns @c pos_type(-1) to indicate
 361:/usr/include/c++/9.1.0/ostream ****        *  failure.  Otherwise returns @c rdbuf()->pubseekoff(0,cur,out).
 362:/usr/include/c++/9.1.0/ostream ****       */
 363:/usr/include/c++/9.1.0/ostream ****       pos_type
 364:/usr/include/c++/9.1.0/ostream ****       tellp();
 365:/usr/include/c++/9.1.0/ostream **** 
 366:/usr/include/c++/9.1.0/ostream ****       /**
 367:/usr/include/c++/9.1.0/ostream ****        *  @brief  Changing the current write position.
 368:/usr/include/c++/9.1.0/ostream ****        *  @param  __pos  A file position object.
 369:/usr/include/c++/9.1.0/ostream ****        *  @return  *this
 370:/usr/include/c++/9.1.0/ostream ****        *
 371:/usr/include/c++/9.1.0/ostream ****        *  If @c fail() is not true, calls @c rdbuf()->pubseekpos(pos).  If
 372:/usr/include/c++/9.1.0/ostream ****        *  that function fails, sets failbit.
 373:/usr/include/c++/9.1.0/ostream ****       */
 374:/usr/include/c++/9.1.0/ostream ****       __ostream_type&
 375:/usr/include/c++/9.1.0/ostream ****       seekp(pos_type);
 376:/usr/include/c++/9.1.0/ostream **** 
 377:/usr/include/c++/9.1.0/ostream ****       /**
 378:/usr/include/c++/9.1.0/ostream ****        *  @brief  Changing the current write position.
 379:/usr/include/c++/9.1.0/ostream ****        *  @param  __off  A file offset object.
 380:/usr/include/c++/9.1.0/ostream ****        *  @param  __dir  The direction in which to seek.
 381:/usr/include/c++/9.1.0/ostream ****        *  @return  *this
 382:/usr/include/c++/9.1.0/ostream ****        *
 383:/usr/include/c++/9.1.0/ostream ****        *  If @c fail() is not true, calls @c rdbuf()->pubseekoff(off,dir).
 384:/usr/include/c++/9.1.0/ostream ****        *  If that function fails, sets failbit.
 385:/usr/include/c++/9.1.0/ostream ****       */
 386:/usr/include/c++/9.1.0/ostream ****        __ostream_type&
 387:/usr/include/c++/9.1.0/ostream ****       seekp(off_type, ios_base::seekdir);
 388:/usr/include/c++/9.1.0/ostream **** 
 389:/usr/include/c++/9.1.0/ostream ****     protected:
 390:/usr/include/c++/9.1.0/ostream ****       basic_ostream()
 391:/usr/include/c++/9.1.0/ostream ****       { this->init(0); }
 392:/usr/include/c++/9.1.0/ostream **** 
 393:/usr/include/c++/9.1.0/ostream **** #if __cplusplus >= 201103L
 394:/usr/include/c++/9.1.0/ostream ****       // Non-standard constructor that does not call init()
 395:/usr/include/c++/9.1.0/ostream ****       basic_ostream(basic_iostream<_CharT, _Traits>&) { }
 396:/usr/include/c++/9.1.0/ostream **** 
 397:/usr/include/c++/9.1.0/ostream ****       basic_ostream(const basic_ostream&) = delete;
 398:/usr/include/c++/9.1.0/ostream **** 
 399:/usr/include/c++/9.1.0/ostream ****       basic_ostream(basic_ostream&& __rhs)
 400:/usr/include/c++/9.1.0/ostream ****       : __ios_type()
 401:/usr/include/c++/9.1.0/ostream ****       { __ios_type::move(__rhs); }
 402:/usr/include/c++/9.1.0/ostream **** 
 403:/usr/include/c++/9.1.0/ostream ****       // 27.7.3.3 Assign/swap
 404:/usr/include/c++/9.1.0/ostream **** 
 405:/usr/include/c++/9.1.0/ostream ****       basic_ostream& operator=(const basic_ostream&) = delete;
 406:/usr/include/c++/9.1.0/ostream **** 
 407:/usr/include/c++/9.1.0/ostream ****       basic_ostream&
 408:/usr/include/c++/9.1.0/ostream ****       operator=(basic_ostream&& __rhs)
GAS LISTING /tmp/cc1DIh6n.s 			page 22


 409:/usr/include/c++/9.1.0/ostream ****       {
 410:/usr/include/c++/9.1.0/ostream **** 	swap(__rhs);
 411:/usr/include/c++/9.1.0/ostream **** 	return *this;
 412:/usr/include/c++/9.1.0/ostream ****       }
 413:/usr/include/c++/9.1.0/ostream **** 
 414:/usr/include/c++/9.1.0/ostream ****       void
 415:/usr/include/c++/9.1.0/ostream ****       swap(basic_ostream& __rhs)
 416:/usr/include/c++/9.1.0/ostream ****       { __ios_type::swap(__rhs); }
 417:/usr/include/c++/9.1.0/ostream **** #endif
 418:/usr/include/c++/9.1.0/ostream **** 
 419:/usr/include/c++/9.1.0/ostream ****       template<typename _ValueT>
 420:/usr/include/c++/9.1.0/ostream **** 	__ostream_type&
 421:/usr/include/c++/9.1.0/ostream **** 	_M_insert(_ValueT __v);
 422:/usr/include/c++/9.1.0/ostream ****     };
 423:/usr/include/c++/9.1.0/ostream **** 
 424:/usr/include/c++/9.1.0/ostream ****   /**
 425:/usr/include/c++/9.1.0/ostream ****    *  @brief  Performs setup work for output streams.
 426:/usr/include/c++/9.1.0/ostream ****    *
 427:/usr/include/c++/9.1.0/ostream ****    *  Objects of this class are created before all of the standard
 428:/usr/include/c++/9.1.0/ostream ****    *  inserters are run.  It is responsible for <em>exception-safe prefix and
 429:/usr/include/c++/9.1.0/ostream ****    *  suffix operations</em>.
 430:/usr/include/c++/9.1.0/ostream ****   */
 431:/usr/include/c++/9.1.0/ostream ****   template <typename _CharT, typename _Traits>
 432:/usr/include/c++/9.1.0/ostream ****     class basic_ostream<_CharT, _Traits>::sentry
 433:/usr/include/c++/9.1.0/ostream ****     {
 434:/usr/include/c++/9.1.0/ostream ****       // Data Members.
 435:/usr/include/c++/9.1.0/ostream ****       bool 				_M_ok;
 436:/usr/include/c++/9.1.0/ostream ****       basic_ostream<_CharT, _Traits>& 	_M_os;
 437:/usr/include/c++/9.1.0/ostream **** 
 438:/usr/include/c++/9.1.0/ostream ****     public:
 439:/usr/include/c++/9.1.0/ostream ****       /**
 440:/usr/include/c++/9.1.0/ostream ****        *  @brief  The constructor performs preparatory work.
 441:/usr/include/c++/9.1.0/ostream ****        *  @param  __os  The output stream to guard.
 442:/usr/include/c++/9.1.0/ostream ****        *
 443:/usr/include/c++/9.1.0/ostream ****        *  If the stream state is good (@a __os.good() is true), then if the
 444:/usr/include/c++/9.1.0/ostream ****        *  stream is tied to another output stream, @c is.tie()->flush()
 445:/usr/include/c++/9.1.0/ostream ****        *  is called to synchronize the output sequences.
 446:/usr/include/c++/9.1.0/ostream ****        *
 447:/usr/include/c++/9.1.0/ostream ****        *  If the stream state is still good, then the sentry state becomes
 448:/usr/include/c++/9.1.0/ostream ****        *  true (@a okay).
 449:/usr/include/c++/9.1.0/ostream ****       */
 450:/usr/include/c++/9.1.0/ostream ****       explicit
 451:/usr/include/c++/9.1.0/ostream ****       sentry(basic_ostream<_CharT, _Traits>& __os);
 452:/usr/include/c++/9.1.0/ostream **** 
 453:/usr/include/c++/9.1.0/ostream **** #pragma GCC diagnostic push
 454:/usr/include/c++/9.1.0/ostream **** #pragma GCC diagnostic ignored "-Wdeprecated-declarations"
 455:/usr/include/c++/9.1.0/ostream ****       /**
 456:/usr/include/c++/9.1.0/ostream ****        *  @brief  Possibly flushes the stream.
 457:/usr/include/c++/9.1.0/ostream ****        *
 458:/usr/include/c++/9.1.0/ostream ****        *  If @c ios_base::unitbuf is set in @c os.flags(), and
 459:/usr/include/c++/9.1.0/ostream ****        *  @c std::uncaught_exception() is true, the sentry destructor calls
 460:/usr/include/c++/9.1.0/ostream ****        *  @c flush() on the output stream.
 461:/usr/include/c++/9.1.0/ostream ****       */
 462:/usr/include/c++/9.1.0/ostream ****       ~sentry()
 463:/usr/include/c++/9.1.0/ostream ****       {
 464:/usr/include/c++/9.1.0/ostream **** 	// XXX MT
 465:/usr/include/c++/9.1.0/ostream **** 	if (bool(_M_os.flags() & ios_base::unitbuf) && !uncaught_exception())
GAS LISTING /tmp/cc1DIh6n.s 			page 23


 466:/usr/include/c++/9.1.0/ostream **** 	  {
 467:/usr/include/c++/9.1.0/ostream **** 	    // Can't call flush directly or else will get into recursive lock.
 468:/usr/include/c++/9.1.0/ostream **** 	    if (_M_os.rdbuf() && _M_os.rdbuf()->pubsync() == -1)
 469:/usr/include/c++/9.1.0/ostream **** 	      _M_os.setstate(ios_base::badbit);
 470:/usr/include/c++/9.1.0/ostream **** 	  }
 471:/usr/include/c++/9.1.0/ostream ****       }
 472:/usr/include/c++/9.1.0/ostream **** #pragma GCC diagnostic pop
 473:/usr/include/c++/9.1.0/ostream **** 
 474:/usr/include/c++/9.1.0/ostream ****       /**
 475:/usr/include/c++/9.1.0/ostream ****        *  @brief  Quick status checking.
 476:/usr/include/c++/9.1.0/ostream ****        *  @return  The sentry state.
 477:/usr/include/c++/9.1.0/ostream ****        *
 478:/usr/include/c++/9.1.0/ostream ****        *  For ease of use, sentries may be converted to booleans.  The
 479:/usr/include/c++/9.1.0/ostream ****        *  return value is that of the sentry state (true == okay).
 480:/usr/include/c++/9.1.0/ostream ****       */
 481:/usr/include/c++/9.1.0/ostream **** #if __cplusplus >= 201103L
 482:/usr/include/c++/9.1.0/ostream ****       explicit
 483:/usr/include/c++/9.1.0/ostream **** #endif
 484:/usr/include/c++/9.1.0/ostream ****       operator bool() const
 485:/usr/include/c++/9.1.0/ostream ****       { return _M_ok; }
 486:/usr/include/c++/9.1.0/ostream ****     };
 487:/usr/include/c++/9.1.0/ostream **** 
 488:/usr/include/c++/9.1.0/ostream ****   //@{
 489:/usr/include/c++/9.1.0/ostream ****   /**
 490:/usr/include/c++/9.1.0/ostream ****    *  @brief  Character inserters
 491:/usr/include/c++/9.1.0/ostream ****    *  @param  __out  An output stream.
 492:/usr/include/c++/9.1.0/ostream ****    *  @param  __c  A character.
 493:/usr/include/c++/9.1.0/ostream ****    *  @return  out
 494:/usr/include/c++/9.1.0/ostream ****    *
 495:/usr/include/c++/9.1.0/ostream ****    *  Behaves like one of the formatted arithmetic inserters described in
 496:/usr/include/c++/9.1.0/ostream ****    *  std::basic_ostream.  After constructing a sentry object with good
 497:/usr/include/c++/9.1.0/ostream ****    *  status, this function inserts a single character and any required
 498:/usr/include/c++/9.1.0/ostream ****    *  padding (as determined by [22.2.2.2.2]).  @c __out.width(0) is then
 499:/usr/include/c++/9.1.0/ostream ****    *  called.
 500:/usr/include/c++/9.1.0/ostream ****    *
 501:/usr/include/c++/9.1.0/ostream ****    *  If @p __c is of type @c char and the character type of the stream is not
 502:/usr/include/c++/9.1.0/ostream ****    *  @c char, the character is widened before insertion.
 503:/usr/include/c++/9.1.0/ostream ****   */
 504:/usr/include/c++/9.1.0/ostream ****   template<typename _CharT, typename _Traits>
 505:/usr/include/c++/9.1.0/ostream ****     inline basic_ostream<_CharT, _Traits>&
 506:/usr/include/c++/9.1.0/ostream ****     operator<<(basic_ostream<_CharT, _Traits>& __out, _CharT __c)
 507:/usr/include/c++/9.1.0/ostream ****     { return __ostream_insert(__out, &__c, 1); }
 508:/usr/include/c++/9.1.0/ostream **** 
 509:/usr/include/c++/9.1.0/ostream ****   template<typename _CharT, typename _Traits>
 510:/usr/include/c++/9.1.0/ostream ****     inline basic_ostream<_CharT, _Traits>&
 511:/usr/include/c++/9.1.0/ostream ****     operator<<(basic_ostream<_CharT, _Traits>& __out, char __c)
 512:/usr/include/c++/9.1.0/ostream ****     { return (__out << __out.widen(__c)); }
 513:/usr/include/c++/9.1.0/ostream **** 
 514:/usr/include/c++/9.1.0/ostream ****   // Specialization
 515:/usr/include/c++/9.1.0/ostream ****   template <class _Traits>
 516:/usr/include/c++/9.1.0/ostream ****     inline basic_ostream<char, _Traits>&
 517:/usr/include/c++/9.1.0/ostream ****     operator<<(basic_ostream<char, _Traits>& __out, char __c)
 518:/usr/include/c++/9.1.0/ostream ****     { return __ostream_insert(__out, &__c, 1); }
 519:/usr/include/c++/9.1.0/ostream **** 
 520:/usr/include/c++/9.1.0/ostream ****   // Signed and unsigned
 521:/usr/include/c++/9.1.0/ostream ****   template<class _Traits>
 522:/usr/include/c++/9.1.0/ostream ****     inline basic_ostream<char, _Traits>&
GAS LISTING /tmp/cc1DIh6n.s 			page 24


 523:/usr/include/c++/9.1.0/ostream ****     operator<<(basic_ostream<char, _Traits>& __out, signed char __c)
 524:/usr/include/c++/9.1.0/ostream ****     { return (__out << static_cast<char>(__c)); }
 525:/usr/include/c++/9.1.0/ostream **** 
 526:/usr/include/c++/9.1.0/ostream ****   template<class _Traits>
 527:/usr/include/c++/9.1.0/ostream ****     inline basic_ostream<char, _Traits>&
 528:/usr/include/c++/9.1.0/ostream ****     operator<<(basic_ostream<char, _Traits>& __out, unsigned char __c)
 529:/usr/include/c++/9.1.0/ostream ****     { return (__out << static_cast<char>(__c)); }
 530:/usr/include/c++/9.1.0/ostream ****   //@}
 531:/usr/include/c++/9.1.0/ostream **** 
 532:/usr/include/c++/9.1.0/ostream ****   //@{
 533:/usr/include/c++/9.1.0/ostream ****   /**
 534:/usr/include/c++/9.1.0/ostream ****    *  @brief  String inserters
 535:/usr/include/c++/9.1.0/ostream ****    *  @param  __out  An output stream.
 536:/usr/include/c++/9.1.0/ostream ****    *  @param  __s  A character string.
 537:/usr/include/c++/9.1.0/ostream ****    *  @return  out
 538:/usr/include/c++/9.1.0/ostream ****    *  @pre  @p __s must be a non-NULL pointer
 539:/usr/include/c++/9.1.0/ostream ****    *
 540:/usr/include/c++/9.1.0/ostream ****    *  Behaves like one of the formatted arithmetic inserters described in
 541:/usr/include/c++/9.1.0/ostream ****    *  std::basic_ostream.  After constructing a sentry object with good
 542:/usr/include/c++/9.1.0/ostream ****    *  status, this function inserts @c traits::length(__s) characters starting
 543:/usr/include/c++/9.1.0/ostream ****    *  at @p __s, widened if necessary, followed by any required padding (as
 544:/usr/include/c++/9.1.0/ostream ****    *  determined by [22.2.2.2.2]).  @c __out.width(0) is then called.
 545:/usr/include/c++/9.1.0/ostream ****   */
 546:/usr/include/c++/9.1.0/ostream ****   template<typename _CharT, typename _Traits>
 547:/usr/include/c++/9.1.0/ostream ****     inline basic_ostream<_CharT, _Traits>&
 548:/usr/include/c++/9.1.0/ostream ****     operator<<(basic_ostream<_CharT, _Traits>& __out, const _CharT* __s)
 549:/usr/include/c++/9.1.0/ostream ****     {
 550:/usr/include/c++/9.1.0/ostream ****       if (!__s)
 551:/usr/include/c++/9.1.0/ostream **** 	__out.setstate(ios_base::badbit);
 552:/usr/include/c++/9.1.0/ostream ****       else
 553:/usr/include/c++/9.1.0/ostream **** 	__ostream_insert(__out, __s,
 554:/usr/include/c++/9.1.0/ostream **** 			 static_cast<streamsize>(_Traits::length(__s)));
 555:/usr/include/c++/9.1.0/ostream ****       return __out;
 556:/usr/include/c++/9.1.0/ostream ****     }
 557:/usr/include/c++/9.1.0/ostream **** 
 558:/usr/include/c++/9.1.0/ostream ****   template<typename _CharT, typename _Traits>
 559:/usr/include/c++/9.1.0/ostream ****     basic_ostream<_CharT, _Traits> &
 560:/usr/include/c++/9.1.0/ostream ****     operator<<(basic_ostream<_CharT, _Traits>& __out, const char* __s);
 561:/usr/include/c++/9.1.0/ostream **** 
 562:/usr/include/c++/9.1.0/ostream ****   // Partial specializations
 563:/usr/include/c++/9.1.0/ostream ****   template<class _Traits>
 564:/usr/include/c++/9.1.0/ostream ****     inline basic_ostream<char, _Traits>&
 565:/usr/include/c++/9.1.0/ostream ****     operator<<(basic_ostream<char, _Traits>& __out, const char* __s)
 190              		.loc 3 565 5 view .LVU43
 191              		.loc 3 565 5 is_stmt 0 view .LVU44
 192              	.LBE183:
 193              		.file 4 "/usr/include/c++/9.1.0/bits/char_traits.h"
   1:/usr/include/c++/9.1.0/bits/char_traits.h **** // Character Traits for use by standard string and iostream -*- C++ -*-
   2:/usr/include/c++/9.1.0/bits/char_traits.h **** 
   3:/usr/include/c++/9.1.0/bits/char_traits.h **** // Copyright (C) 1997-2019 Free Software Foundation, Inc.
   4:/usr/include/c++/9.1.0/bits/char_traits.h **** //
   5:/usr/include/c++/9.1.0/bits/char_traits.h **** // This file is part of the GNU ISO C++ Library.  This library is free
   6:/usr/include/c++/9.1.0/bits/char_traits.h **** // software; you can redistribute it and/or modify it under the
   7:/usr/include/c++/9.1.0/bits/char_traits.h **** // terms of the GNU General Public License as published by the
   8:/usr/include/c++/9.1.0/bits/char_traits.h **** // Free Software Foundation; either version 3, or (at your option)
   9:/usr/include/c++/9.1.0/bits/char_traits.h **** // any later version.
  10:/usr/include/c++/9.1.0/bits/char_traits.h **** 
GAS LISTING /tmp/cc1DIh6n.s 			page 25


  11:/usr/include/c++/9.1.0/bits/char_traits.h **** // This library is distributed in the hope that it will be useful,
  12:/usr/include/c++/9.1.0/bits/char_traits.h **** // but WITHOUT ANY WARRANTY; without even the implied warranty of
  13:/usr/include/c++/9.1.0/bits/char_traits.h **** // MERCHANTABILITY or FITNESS FOR A PARTICULAR PURPOSE.  See the
  14:/usr/include/c++/9.1.0/bits/char_traits.h **** // GNU General Public License for more details.
  15:/usr/include/c++/9.1.0/bits/char_traits.h **** 
  16:/usr/include/c++/9.1.0/bits/char_traits.h **** // Under Section 7 of GPL version 3, you are granted additional
  17:/usr/include/c++/9.1.0/bits/char_traits.h **** // permissions described in the GCC Runtime Library Exception, version
  18:/usr/include/c++/9.1.0/bits/char_traits.h **** // 3.1, as published by the Free Software Foundation.
  19:/usr/include/c++/9.1.0/bits/char_traits.h **** 
  20:/usr/include/c++/9.1.0/bits/char_traits.h **** // You should have received a copy of the GNU General Public License and
  21:/usr/include/c++/9.1.0/bits/char_traits.h **** // a copy of the GCC Runtime Library Exception along with this program;
  22:/usr/include/c++/9.1.0/bits/char_traits.h **** // see the files COPYING3 and COPYING.RUNTIME respectively.  If not, see
  23:/usr/include/c++/9.1.0/bits/char_traits.h **** // <http://www.gnu.org/licenses/>.
  24:/usr/include/c++/9.1.0/bits/char_traits.h **** 
  25:/usr/include/c++/9.1.0/bits/char_traits.h **** /** @file bits/char_traits.h
  26:/usr/include/c++/9.1.0/bits/char_traits.h ****  *  This is an internal header file, included by other library headers.
  27:/usr/include/c++/9.1.0/bits/char_traits.h ****  *  Do not attempt to use it directly. @headername{string}
  28:/usr/include/c++/9.1.0/bits/char_traits.h ****  */
  29:/usr/include/c++/9.1.0/bits/char_traits.h **** 
  30:/usr/include/c++/9.1.0/bits/char_traits.h **** //
  31:/usr/include/c++/9.1.0/bits/char_traits.h **** // ISO C++ 14882: 21  Strings library
  32:/usr/include/c++/9.1.0/bits/char_traits.h **** //
  33:/usr/include/c++/9.1.0/bits/char_traits.h **** 
  34:/usr/include/c++/9.1.0/bits/char_traits.h **** #ifndef _CHAR_TRAITS_H
  35:/usr/include/c++/9.1.0/bits/char_traits.h **** #define _CHAR_TRAITS_H 1
  36:/usr/include/c++/9.1.0/bits/char_traits.h **** 
  37:/usr/include/c++/9.1.0/bits/char_traits.h **** #pragma GCC system_header
  38:/usr/include/c++/9.1.0/bits/char_traits.h **** 
  39:/usr/include/c++/9.1.0/bits/char_traits.h **** #include <bits/stl_algobase.h>  // std::copy, std::fill_n
  40:/usr/include/c++/9.1.0/bits/char_traits.h **** #include <bits/postypes.h>      // For streampos
  41:/usr/include/c++/9.1.0/bits/char_traits.h **** #include <cwchar>               // For WEOF, wmemmove, wmemset, etc.
  42:/usr/include/c++/9.1.0/bits/char_traits.h **** 
  43:/usr/include/c++/9.1.0/bits/char_traits.h **** #ifndef _GLIBCXX_ALWAYS_INLINE
  44:/usr/include/c++/9.1.0/bits/char_traits.h **** # define _GLIBCXX_ALWAYS_INLINE inline __attribute__((__always_inline__))
  45:/usr/include/c++/9.1.0/bits/char_traits.h **** #endif
  46:/usr/include/c++/9.1.0/bits/char_traits.h **** 
  47:/usr/include/c++/9.1.0/bits/char_traits.h **** namespace __gnu_cxx _GLIBCXX_VISIBILITY(default)
  48:/usr/include/c++/9.1.0/bits/char_traits.h **** {
  49:/usr/include/c++/9.1.0/bits/char_traits.h **** _GLIBCXX_BEGIN_NAMESPACE_VERSION
  50:/usr/include/c++/9.1.0/bits/char_traits.h **** 
  51:/usr/include/c++/9.1.0/bits/char_traits.h ****   /**
  52:/usr/include/c++/9.1.0/bits/char_traits.h ****    *  @brief  Mapping from character type to associated types.
  53:/usr/include/c++/9.1.0/bits/char_traits.h ****    *
  54:/usr/include/c++/9.1.0/bits/char_traits.h ****    *  @note This is an implementation class for the generic version
  55:/usr/include/c++/9.1.0/bits/char_traits.h ****    *  of char_traits.  It defines int_type, off_type, pos_type, and
  56:/usr/include/c++/9.1.0/bits/char_traits.h ****    *  state_type.  By default these are unsigned long, streamoff,
  57:/usr/include/c++/9.1.0/bits/char_traits.h ****    *  streampos, and mbstate_t.  Users who need a different set of
  58:/usr/include/c++/9.1.0/bits/char_traits.h ****    *  types, but who don't need to change the definitions of any function
  59:/usr/include/c++/9.1.0/bits/char_traits.h ****    *  defined in char_traits, can specialize __gnu_cxx::_Char_types
  60:/usr/include/c++/9.1.0/bits/char_traits.h ****    *  while leaving __gnu_cxx::char_traits alone. */
  61:/usr/include/c++/9.1.0/bits/char_traits.h ****   template<typename _CharT>
  62:/usr/include/c++/9.1.0/bits/char_traits.h ****     struct _Char_types
  63:/usr/include/c++/9.1.0/bits/char_traits.h ****     {
  64:/usr/include/c++/9.1.0/bits/char_traits.h ****       typedef unsigned long   int_type;
  65:/usr/include/c++/9.1.0/bits/char_traits.h ****       typedef std::streampos  pos_type;
  66:/usr/include/c++/9.1.0/bits/char_traits.h ****       typedef std::streamoff  off_type;
  67:/usr/include/c++/9.1.0/bits/char_traits.h ****       typedef std::mbstate_t  state_type;
GAS LISTING /tmp/cc1DIh6n.s 			page 26


  68:/usr/include/c++/9.1.0/bits/char_traits.h ****     };
  69:/usr/include/c++/9.1.0/bits/char_traits.h **** 
  70:/usr/include/c++/9.1.0/bits/char_traits.h **** 
  71:/usr/include/c++/9.1.0/bits/char_traits.h ****   /**
  72:/usr/include/c++/9.1.0/bits/char_traits.h ****    *  @brief  Base class used to implement std::char_traits.
  73:/usr/include/c++/9.1.0/bits/char_traits.h ****    *
  74:/usr/include/c++/9.1.0/bits/char_traits.h ****    *  @note For any given actual character type, this definition is
  75:/usr/include/c++/9.1.0/bits/char_traits.h ****    *  probably wrong.  (Most of the member functions are likely to be
  76:/usr/include/c++/9.1.0/bits/char_traits.h ****    *  right, but the int_type and state_type typedefs, and the eof()
  77:/usr/include/c++/9.1.0/bits/char_traits.h ****    *  member function, are likely to be wrong.)  The reason this class
  78:/usr/include/c++/9.1.0/bits/char_traits.h ****    *  exists is so users can specialize it.  Classes in namespace std
  79:/usr/include/c++/9.1.0/bits/char_traits.h ****    *  may not be specialized for fundamental types, but classes in
  80:/usr/include/c++/9.1.0/bits/char_traits.h ****    *  namespace __gnu_cxx may be.
  81:/usr/include/c++/9.1.0/bits/char_traits.h ****    *
  82:/usr/include/c++/9.1.0/bits/char_traits.h ****    *  See https://gcc.gnu.org/onlinedocs/libstdc++/manual/strings.html#strings.string.character_typ
  83:/usr/include/c++/9.1.0/bits/char_traits.h ****    *  for advice on how to make use of this class for @a unusual character
  84:/usr/include/c++/9.1.0/bits/char_traits.h ****    *  types. Also, check out include/ext/pod_char_traits.h.  
  85:/usr/include/c++/9.1.0/bits/char_traits.h ****    */
  86:/usr/include/c++/9.1.0/bits/char_traits.h ****   template<typename _CharT>
  87:/usr/include/c++/9.1.0/bits/char_traits.h ****     struct char_traits
  88:/usr/include/c++/9.1.0/bits/char_traits.h ****     {
  89:/usr/include/c++/9.1.0/bits/char_traits.h ****       typedef _CharT                                    char_type;
  90:/usr/include/c++/9.1.0/bits/char_traits.h ****       typedef typename _Char_types<_CharT>::int_type    int_type;
  91:/usr/include/c++/9.1.0/bits/char_traits.h ****       typedef typename _Char_types<_CharT>::pos_type    pos_type;
  92:/usr/include/c++/9.1.0/bits/char_traits.h ****       typedef typename _Char_types<_CharT>::off_type    off_type;
  93:/usr/include/c++/9.1.0/bits/char_traits.h ****       typedef typename _Char_types<_CharT>::state_type  state_type;
  94:/usr/include/c++/9.1.0/bits/char_traits.h **** 
  95:/usr/include/c++/9.1.0/bits/char_traits.h ****       static _GLIBCXX14_CONSTEXPR void
  96:/usr/include/c++/9.1.0/bits/char_traits.h ****       assign(char_type& __c1, const char_type& __c2)
  97:/usr/include/c++/9.1.0/bits/char_traits.h ****       { __c1 = __c2; }
  98:/usr/include/c++/9.1.0/bits/char_traits.h **** 
  99:/usr/include/c++/9.1.0/bits/char_traits.h ****       static _GLIBCXX_CONSTEXPR bool
 100:/usr/include/c++/9.1.0/bits/char_traits.h ****       eq(const char_type& __c1, const char_type& __c2)
 101:/usr/include/c++/9.1.0/bits/char_traits.h ****       { return __c1 == __c2; }
 102:/usr/include/c++/9.1.0/bits/char_traits.h **** 
 103:/usr/include/c++/9.1.0/bits/char_traits.h ****       static _GLIBCXX_CONSTEXPR bool
 104:/usr/include/c++/9.1.0/bits/char_traits.h ****       lt(const char_type& __c1, const char_type& __c2)
 105:/usr/include/c++/9.1.0/bits/char_traits.h ****       { return __c1 < __c2; }
 106:/usr/include/c++/9.1.0/bits/char_traits.h **** 
 107:/usr/include/c++/9.1.0/bits/char_traits.h ****       static _GLIBCXX14_CONSTEXPR int
 108:/usr/include/c++/9.1.0/bits/char_traits.h ****       compare(const char_type* __s1, const char_type* __s2, std::size_t __n);
 109:/usr/include/c++/9.1.0/bits/char_traits.h **** 
 110:/usr/include/c++/9.1.0/bits/char_traits.h ****       static _GLIBCXX14_CONSTEXPR std::size_t
 111:/usr/include/c++/9.1.0/bits/char_traits.h ****       length(const char_type* __s);
 112:/usr/include/c++/9.1.0/bits/char_traits.h **** 
 113:/usr/include/c++/9.1.0/bits/char_traits.h ****       static _GLIBCXX14_CONSTEXPR const char_type*
 114:/usr/include/c++/9.1.0/bits/char_traits.h ****       find(const char_type* __s, std::size_t __n, const char_type& __a);
 115:/usr/include/c++/9.1.0/bits/char_traits.h **** 
 116:/usr/include/c++/9.1.0/bits/char_traits.h ****       static char_type*
 117:/usr/include/c++/9.1.0/bits/char_traits.h ****       move(char_type* __s1, const char_type* __s2, std::size_t __n);
 118:/usr/include/c++/9.1.0/bits/char_traits.h **** 
 119:/usr/include/c++/9.1.0/bits/char_traits.h ****       static char_type*
 120:/usr/include/c++/9.1.0/bits/char_traits.h ****       copy(char_type* __s1, const char_type* __s2, std::size_t __n);
 121:/usr/include/c++/9.1.0/bits/char_traits.h **** 
 122:/usr/include/c++/9.1.0/bits/char_traits.h ****       static char_type*
 123:/usr/include/c++/9.1.0/bits/char_traits.h ****       assign(char_type* __s, std::size_t __n, char_type __a);
 124:/usr/include/c++/9.1.0/bits/char_traits.h **** 
GAS LISTING /tmp/cc1DIh6n.s 			page 27


 125:/usr/include/c++/9.1.0/bits/char_traits.h ****       static _GLIBCXX_CONSTEXPR char_type
 126:/usr/include/c++/9.1.0/bits/char_traits.h ****       to_char_type(const int_type& __c)
 127:/usr/include/c++/9.1.0/bits/char_traits.h ****       { return static_cast<char_type>(__c); }
 128:/usr/include/c++/9.1.0/bits/char_traits.h **** 
 129:/usr/include/c++/9.1.0/bits/char_traits.h ****       static _GLIBCXX_CONSTEXPR int_type
 130:/usr/include/c++/9.1.0/bits/char_traits.h ****       to_int_type(const char_type& __c)
 131:/usr/include/c++/9.1.0/bits/char_traits.h ****       { return static_cast<int_type>(__c); }
 132:/usr/include/c++/9.1.0/bits/char_traits.h **** 
 133:/usr/include/c++/9.1.0/bits/char_traits.h ****       static _GLIBCXX_CONSTEXPR bool
 134:/usr/include/c++/9.1.0/bits/char_traits.h ****       eq_int_type(const int_type& __c1, const int_type& __c2)
 135:/usr/include/c++/9.1.0/bits/char_traits.h ****       { return __c1 == __c2; }
 136:/usr/include/c++/9.1.0/bits/char_traits.h **** 
 137:/usr/include/c++/9.1.0/bits/char_traits.h ****       static _GLIBCXX_CONSTEXPR int_type
 138:/usr/include/c++/9.1.0/bits/char_traits.h ****       eof()
 139:/usr/include/c++/9.1.0/bits/char_traits.h ****       { return static_cast<int_type>(_GLIBCXX_STDIO_EOF); }
 140:/usr/include/c++/9.1.0/bits/char_traits.h **** 
 141:/usr/include/c++/9.1.0/bits/char_traits.h ****       static _GLIBCXX_CONSTEXPR int_type
 142:/usr/include/c++/9.1.0/bits/char_traits.h ****       not_eof(const int_type& __c)
 143:/usr/include/c++/9.1.0/bits/char_traits.h ****       { return !eq_int_type(__c, eof()) ? __c : to_int_type(char_type()); }
 144:/usr/include/c++/9.1.0/bits/char_traits.h ****     };
 145:/usr/include/c++/9.1.0/bits/char_traits.h **** 
 146:/usr/include/c++/9.1.0/bits/char_traits.h ****   template<typename _CharT>
 147:/usr/include/c++/9.1.0/bits/char_traits.h ****     _GLIBCXX14_CONSTEXPR int
 148:/usr/include/c++/9.1.0/bits/char_traits.h ****     char_traits<_CharT>::
 149:/usr/include/c++/9.1.0/bits/char_traits.h ****     compare(const char_type* __s1, const char_type* __s2, std::size_t __n)
 150:/usr/include/c++/9.1.0/bits/char_traits.h ****     {
 151:/usr/include/c++/9.1.0/bits/char_traits.h ****       for (std::size_t __i = 0; __i < __n; ++__i)
 152:/usr/include/c++/9.1.0/bits/char_traits.h **** 	if (lt(__s1[__i], __s2[__i]))
 153:/usr/include/c++/9.1.0/bits/char_traits.h **** 	  return -1;
 154:/usr/include/c++/9.1.0/bits/char_traits.h **** 	else if (lt(__s2[__i], __s1[__i]))
 155:/usr/include/c++/9.1.0/bits/char_traits.h **** 	  return 1;
 156:/usr/include/c++/9.1.0/bits/char_traits.h ****       return 0;
 157:/usr/include/c++/9.1.0/bits/char_traits.h ****     }
 158:/usr/include/c++/9.1.0/bits/char_traits.h **** 
 159:/usr/include/c++/9.1.0/bits/char_traits.h ****   template<typename _CharT>
 160:/usr/include/c++/9.1.0/bits/char_traits.h ****     _GLIBCXX14_CONSTEXPR std::size_t
 161:/usr/include/c++/9.1.0/bits/char_traits.h ****     char_traits<_CharT>::
 162:/usr/include/c++/9.1.0/bits/char_traits.h ****     length(const char_type* __p)
 163:/usr/include/c++/9.1.0/bits/char_traits.h ****     {
 164:/usr/include/c++/9.1.0/bits/char_traits.h ****       std::size_t __i = 0;
 165:/usr/include/c++/9.1.0/bits/char_traits.h ****       while (!eq(__p[__i], char_type()))
 166:/usr/include/c++/9.1.0/bits/char_traits.h ****         ++__i;
 167:/usr/include/c++/9.1.0/bits/char_traits.h ****       return __i;
 168:/usr/include/c++/9.1.0/bits/char_traits.h ****     }
 169:/usr/include/c++/9.1.0/bits/char_traits.h **** 
 170:/usr/include/c++/9.1.0/bits/char_traits.h ****   template<typename _CharT>
 171:/usr/include/c++/9.1.0/bits/char_traits.h ****     _GLIBCXX14_CONSTEXPR const typename char_traits<_CharT>::char_type*
 172:/usr/include/c++/9.1.0/bits/char_traits.h ****     char_traits<_CharT>::
 173:/usr/include/c++/9.1.0/bits/char_traits.h ****     find(const char_type* __s, std::size_t __n, const char_type& __a)
 174:/usr/include/c++/9.1.0/bits/char_traits.h ****     {
 175:/usr/include/c++/9.1.0/bits/char_traits.h ****       for (std::size_t __i = 0; __i < __n; ++__i)
 176:/usr/include/c++/9.1.0/bits/char_traits.h ****         if (eq(__s[__i], __a))
 177:/usr/include/c++/9.1.0/bits/char_traits.h ****           return __s + __i;
 178:/usr/include/c++/9.1.0/bits/char_traits.h ****       return 0;
 179:/usr/include/c++/9.1.0/bits/char_traits.h ****     }
 180:/usr/include/c++/9.1.0/bits/char_traits.h **** 
 181:/usr/include/c++/9.1.0/bits/char_traits.h ****   template<typename _CharT>
GAS LISTING /tmp/cc1DIh6n.s 			page 28


 182:/usr/include/c++/9.1.0/bits/char_traits.h ****     typename char_traits<_CharT>::char_type*
 183:/usr/include/c++/9.1.0/bits/char_traits.h ****     char_traits<_CharT>::
 184:/usr/include/c++/9.1.0/bits/char_traits.h ****     move(char_type* __s1, const char_type* __s2, std::size_t __n)
 185:/usr/include/c++/9.1.0/bits/char_traits.h ****     {
 186:/usr/include/c++/9.1.0/bits/char_traits.h ****       if (__n == 0)
 187:/usr/include/c++/9.1.0/bits/char_traits.h **** 	return __s1;
 188:/usr/include/c++/9.1.0/bits/char_traits.h ****       return static_cast<_CharT*>(__builtin_memmove(__s1, __s2,
 189:/usr/include/c++/9.1.0/bits/char_traits.h **** 						    __n * sizeof(char_type)));
 190:/usr/include/c++/9.1.0/bits/char_traits.h ****     }
 191:/usr/include/c++/9.1.0/bits/char_traits.h **** 
 192:/usr/include/c++/9.1.0/bits/char_traits.h ****   template<typename _CharT>
 193:/usr/include/c++/9.1.0/bits/char_traits.h ****     typename char_traits<_CharT>::char_type*
 194:/usr/include/c++/9.1.0/bits/char_traits.h ****     char_traits<_CharT>::
 195:/usr/include/c++/9.1.0/bits/char_traits.h ****     copy(char_type* __s1, const char_type* __s2, std::size_t __n)
 196:/usr/include/c++/9.1.0/bits/char_traits.h ****     {
 197:/usr/include/c++/9.1.0/bits/char_traits.h ****       // NB: Inline std::copy so no recursive dependencies.
 198:/usr/include/c++/9.1.0/bits/char_traits.h ****       std::copy(__s2, __s2 + __n, __s1);
 199:/usr/include/c++/9.1.0/bits/char_traits.h ****       return __s1;
 200:/usr/include/c++/9.1.0/bits/char_traits.h ****     }
 201:/usr/include/c++/9.1.0/bits/char_traits.h **** 
 202:/usr/include/c++/9.1.0/bits/char_traits.h ****   template<typename _CharT>
 203:/usr/include/c++/9.1.0/bits/char_traits.h ****     typename char_traits<_CharT>::char_type*
 204:/usr/include/c++/9.1.0/bits/char_traits.h ****     char_traits<_CharT>::
 205:/usr/include/c++/9.1.0/bits/char_traits.h ****     assign(char_type* __s, std::size_t __n, char_type __a)
 206:/usr/include/c++/9.1.0/bits/char_traits.h ****     {
 207:/usr/include/c++/9.1.0/bits/char_traits.h ****       // NB: Inline std::fill_n so no recursive dependencies.
 208:/usr/include/c++/9.1.0/bits/char_traits.h ****       std::fill_n(__s, __n, __a);
 209:/usr/include/c++/9.1.0/bits/char_traits.h ****       return __s;
 210:/usr/include/c++/9.1.0/bits/char_traits.h ****     }
 211:/usr/include/c++/9.1.0/bits/char_traits.h **** 
 212:/usr/include/c++/9.1.0/bits/char_traits.h **** _GLIBCXX_END_NAMESPACE_VERSION
 213:/usr/include/c++/9.1.0/bits/char_traits.h **** } // namespace
 214:/usr/include/c++/9.1.0/bits/char_traits.h **** 
 215:/usr/include/c++/9.1.0/bits/char_traits.h **** namespace std _GLIBCXX_VISIBILITY(default)
 216:/usr/include/c++/9.1.0/bits/char_traits.h **** {
 217:/usr/include/c++/9.1.0/bits/char_traits.h **** _GLIBCXX_BEGIN_NAMESPACE_VERSION
 218:/usr/include/c++/9.1.0/bits/char_traits.h **** 
 219:/usr/include/c++/9.1.0/bits/char_traits.h **** #if __cplusplus >= 201703L
 220:/usr/include/c++/9.1.0/bits/char_traits.h **** #define __cpp_lib_constexpr_char_traits 201611
 221:/usr/include/c++/9.1.0/bits/char_traits.h **** 
 222:/usr/include/c++/9.1.0/bits/char_traits.h ****   /**
 223:/usr/include/c++/9.1.0/bits/char_traits.h ****    *  @brief Determine whether the characters of a NULL-terminated
 224:/usr/include/c++/9.1.0/bits/char_traits.h ****    *  string are known at compile time.
 225:/usr/include/c++/9.1.0/bits/char_traits.h ****    *  @param  __s  The string.
 226:/usr/include/c++/9.1.0/bits/char_traits.h ****    *
 227:/usr/include/c++/9.1.0/bits/char_traits.h ****    *  Assumes that _CharT is a built-in character type.
 228:/usr/include/c++/9.1.0/bits/char_traits.h ****    */
 229:/usr/include/c++/9.1.0/bits/char_traits.h ****   template<typename _CharT>
 230:/usr/include/c++/9.1.0/bits/char_traits.h ****     static _GLIBCXX_ALWAYS_INLINE constexpr bool
 231:/usr/include/c++/9.1.0/bits/char_traits.h ****     __constant_string_p(const _CharT* __s)
 232:/usr/include/c++/9.1.0/bits/char_traits.h ****     {
 233:/usr/include/c++/9.1.0/bits/char_traits.h **** #ifdef _GLIBCXX_HAVE_BUILTIN_IS_CONSTANT_EVALUATED
 234:/usr/include/c++/9.1.0/bits/char_traits.h ****       (void) __s;
 235:/usr/include/c++/9.1.0/bits/char_traits.h ****       // In constexpr contexts all strings should be constant.
 236:/usr/include/c++/9.1.0/bits/char_traits.h ****       return __builtin_is_constant_evaluated();
 237:/usr/include/c++/9.1.0/bits/char_traits.h **** #else
 238:/usr/include/c++/9.1.0/bits/char_traits.h ****       while (__builtin_constant_p(*__s) && *__s)
GAS LISTING /tmp/cc1DIh6n.s 			page 29


 239:/usr/include/c++/9.1.0/bits/char_traits.h **** 	__s++;
 240:/usr/include/c++/9.1.0/bits/char_traits.h ****       return __builtin_constant_p(*__s);
 241:/usr/include/c++/9.1.0/bits/char_traits.h **** #endif
 242:/usr/include/c++/9.1.0/bits/char_traits.h ****     }
 243:/usr/include/c++/9.1.0/bits/char_traits.h **** 
 244:/usr/include/c++/9.1.0/bits/char_traits.h ****   /**
 245:/usr/include/c++/9.1.0/bits/char_traits.h ****    *  @brief Determine whether the characters of a character array are
 246:/usr/include/c++/9.1.0/bits/char_traits.h ****    *  known at compile time.
 247:/usr/include/c++/9.1.0/bits/char_traits.h ****    *  @param  __a  The character array.
 248:/usr/include/c++/9.1.0/bits/char_traits.h ****    *  @param  __n  Number of characters.
 249:/usr/include/c++/9.1.0/bits/char_traits.h ****    *
 250:/usr/include/c++/9.1.0/bits/char_traits.h ****    *  Assumes that _CharT is a built-in character type.
 251:/usr/include/c++/9.1.0/bits/char_traits.h ****    */
 252:/usr/include/c++/9.1.0/bits/char_traits.h ****   template<typename _CharT>
 253:/usr/include/c++/9.1.0/bits/char_traits.h ****     static _GLIBCXX_ALWAYS_INLINE constexpr bool
 254:/usr/include/c++/9.1.0/bits/char_traits.h ****     __constant_char_array_p(const _CharT* __a, size_t __n)
 255:/usr/include/c++/9.1.0/bits/char_traits.h ****     {
 256:/usr/include/c++/9.1.0/bits/char_traits.h **** #ifdef _GLIBCXX_HAVE_BUILTIN_IS_CONSTANT_EVALUATED
 257:/usr/include/c++/9.1.0/bits/char_traits.h ****       (void) __a;
 258:/usr/include/c++/9.1.0/bits/char_traits.h ****       (void) __n;
 259:/usr/include/c++/9.1.0/bits/char_traits.h ****       // In constexpr contexts all character arrays should be constant.
 260:/usr/include/c++/9.1.0/bits/char_traits.h ****       return __builtin_is_constant_evaluated();
 261:/usr/include/c++/9.1.0/bits/char_traits.h **** #else
 262:/usr/include/c++/9.1.0/bits/char_traits.h ****       size_t __i = 0;
 263:/usr/include/c++/9.1.0/bits/char_traits.h ****       while (__i < __n && __builtin_constant_p(__a[__i]))
 264:/usr/include/c++/9.1.0/bits/char_traits.h **** 	__i++;
 265:/usr/include/c++/9.1.0/bits/char_traits.h ****       return __i == __n;
 266:/usr/include/c++/9.1.0/bits/char_traits.h **** #endif
 267:/usr/include/c++/9.1.0/bits/char_traits.h ****     }
 268:/usr/include/c++/9.1.0/bits/char_traits.h **** #endif
 269:/usr/include/c++/9.1.0/bits/char_traits.h **** 
 270:/usr/include/c++/9.1.0/bits/char_traits.h ****   // 21.1
 271:/usr/include/c++/9.1.0/bits/char_traits.h ****   /**
 272:/usr/include/c++/9.1.0/bits/char_traits.h ****    *  @brief  Basis for explicit traits specializations.
 273:/usr/include/c++/9.1.0/bits/char_traits.h ****    *
 274:/usr/include/c++/9.1.0/bits/char_traits.h ****    *  @note  For any given actual character type, this definition is
 275:/usr/include/c++/9.1.0/bits/char_traits.h ****    *  probably wrong.  Since this is just a thin wrapper around
 276:/usr/include/c++/9.1.0/bits/char_traits.h ****    *  __gnu_cxx::char_traits, it is possible to achieve a more
 277:/usr/include/c++/9.1.0/bits/char_traits.h ****    *  appropriate definition by specializing __gnu_cxx::char_traits.
 278:/usr/include/c++/9.1.0/bits/char_traits.h ****    *
 279:/usr/include/c++/9.1.0/bits/char_traits.h ****    *  See https://gcc.gnu.org/onlinedocs/libstdc++/manual/strings.html#strings.string.character_typ
 280:/usr/include/c++/9.1.0/bits/char_traits.h ****    *  for advice on how to make use of this class for @a unusual character
 281:/usr/include/c++/9.1.0/bits/char_traits.h ****    *  types. Also, check out include/ext/pod_char_traits.h.
 282:/usr/include/c++/9.1.0/bits/char_traits.h ****   */
 283:/usr/include/c++/9.1.0/bits/char_traits.h ****   template<class _CharT>
 284:/usr/include/c++/9.1.0/bits/char_traits.h ****     struct char_traits : public __gnu_cxx::char_traits<_CharT>
 285:/usr/include/c++/9.1.0/bits/char_traits.h ****     { };
 286:/usr/include/c++/9.1.0/bits/char_traits.h **** 
 287:/usr/include/c++/9.1.0/bits/char_traits.h **** 
 288:/usr/include/c++/9.1.0/bits/char_traits.h ****   /// 21.1.3.1  char_traits specializations
 289:/usr/include/c++/9.1.0/bits/char_traits.h ****   template<>
 290:/usr/include/c++/9.1.0/bits/char_traits.h ****     struct char_traits<char>
 291:/usr/include/c++/9.1.0/bits/char_traits.h ****     {
 292:/usr/include/c++/9.1.0/bits/char_traits.h ****       typedef char              char_type;
 293:/usr/include/c++/9.1.0/bits/char_traits.h ****       typedef int               int_type;
 294:/usr/include/c++/9.1.0/bits/char_traits.h ****       typedef streampos         pos_type;
 295:/usr/include/c++/9.1.0/bits/char_traits.h ****       typedef streamoff         off_type;
GAS LISTING /tmp/cc1DIh6n.s 			page 30


 296:/usr/include/c++/9.1.0/bits/char_traits.h ****       typedef mbstate_t         state_type;
 297:/usr/include/c++/9.1.0/bits/char_traits.h **** 
 298:/usr/include/c++/9.1.0/bits/char_traits.h ****       static _GLIBCXX17_CONSTEXPR void
 299:/usr/include/c++/9.1.0/bits/char_traits.h ****       assign(char_type& __c1, const char_type& __c2) _GLIBCXX_NOEXCEPT
 300:/usr/include/c++/9.1.0/bits/char_traits.h ****       { __c1 = __c2; }
 301:/usr/include/c++/9.1.0/bits/char_traits.h **** 
 302:/usr/include/c++/9.1.0/bits/char_traits.h ****       static _GLIBCXX_CONSTEXPR bool
 303:/usr/include/c++/9.1.0/bits/char_traits.h ****       eq(const char_type& __c1, const char_type& __c2) _GLIBCXX_NOEXCEPT
 304:/usr/include/c++/9.1.0/bits/char_traits.h ****       { return __c1 == __c2; }
 305:/usr/include/c++/9.1.0/bits/char_traits.h **** 
 306:/usr/include/c++/9.1.0/bits/char_traits.h ****       static _GLIBCXX_CONSTEXPR bool
 307:/usr/include/c++/9.1.0/bits/char_traits.h ****       lt(const char_type& __c1, const char_type& __c2) _GLIBCXX_NOEXCEPT
 308:/usr/include/c++/9.1.0/bits/char_traits.h ****       {
 309:/usr/include/c++/9.1.0/bits/char_traits.h **** 	// LWG 467.
 310:/usr/include/c++/9.1.0/bits/char_traits.h **** 	return (static_cast<unsigned char>(__c1)
 311:/usr/include/c++/9.1.0/bits/char_traits.h **** 		< static_cast<unsigned char>(__c2));
 312:/usr/include/c++/9.1.0/bits/char_traits.h ****       }
 313:/usr/include/c++/9.1.0/bits/char_traits.h **** 
 314:/usr/include/c++/9.1.0/bits/char_traits.h ****       static _GLIBCXX17_CONSTEXPR int
 315:/usr/include/c++/9.1.0/bits/char_traits.h ****       compare(const char_type* __s1, const char_type* __s2, size_t __n)
 316:/usr/include/c++/9.1.0/bits/char_traits.h ****       {
 317:/usr/include/c++/9.1.0/bits/char_traits.h **** 	if (__n == 0)
 318:/usr/include/c++/9.1.0/bits/char_traits.h **** 	  return 0;
 319:/usr/include/c++/9.1.0/bits/char_traits.h **** #if __cplusplus >= 201703L
 320:/usr/include/c++/9.1.0/bits/char_traits.h **** 	if (__builtin_constant_p(__n)
 321:/usr/include/c++/9.1.0/bits/char_traits.h **** 	    && __constant_char_array_p(__s1, __n)
 322:/usr/include/c++/9.1.0/bits/char_traits.h **** 	    && __constant_char_array_p(__s2, __n))
 323:/usr/include/c++/9.1.0/bits/char_traits.h **** 	  return __gnu_cxx::char_traits<char_type>::compare(__s1, __s2, __n);
 324:/usr/include/c++/9.1.0/bits/char_traits.h **** #endif
 325:/usr/include/c++/9.1.0/bits/char_traits.h **** 	return __builtin_memcmp(__s1, __s2, __n);
 326:/usr/include/c++/9.1.0/bits/char_traits.h ****       }
 327:/usr/include/c++/9.1.0/bits/char_traits.h **** 
 328:/usr/include/c++/9.1.0/bits/char_traits.h ****       static _GLIBCXX17_CONSTEXPR size_t
 329:/usr/include/c++/9.1.0/bits/char_traits.h ****       length(const char_type* __s)
 330:/usr/include/c++/9.1.0/bits/char_traits.h ****       {
 331:/usr/include/c++/9.1.0/bits/char_traits.h **** #if __cplusplus >= 201703L
 332:/usr/include/c++/9.1.0/bits/char_traits.h **** 	if (__constant_string_p(__s))
 333:/usr/include/c++/9.1.0/bits/char_traits.h **** 	  return __gnu_cxx::char_traits<char_type>::length(__s);
 334:/usr/include/c++/9.1.0/bits/char_traits.h **** #endif
 335:/usr/include/c++/9.1.0/bits/char_traits.h **** 	return __builtin_strlen(__s);
 194              		.loc 4 335 2 is_stmt 1 view .LVU45
 195              	.LBB185:
 196              	.LBB184:
 566:/usr/include/c++/9.1.0/ostream ****     {
 567:/usr/include/c++/9.1.0/ostream ****       if (!__s)
 568:/usr/include/c++/9.1.0/ostream **** 	__out.setstate(ios_base::badbit);
 569:/usr/include/c++/9.1.0/ostream ****       else
 570:/usr/include/c++/9.1.0/ostream **** 	__ostream_insert(__out, __s,
 197              		.loc 3 570 18 is_stmt 0 view .LVU46
 198 00e0 BA080000 		movl	$8, %edx
 198      00
 199              	.LVL23:
 200              		.loc 3 570 18 view .LVU47
 201 00e5 488D3500 		leaq	.LC1(%rip), %rsi
 201      000000
 202              	.LVL24:
 203              		.loc 3 570 18 view .LVU48
GAS LISTING /tmp/cc1DIh6n.s 			page 31


 204 00ec 488D3D00 		leaq	_ZSt4cout(%rip), %rdi
 204      000000
 205              	.LVL25:
 206              		.loc 3 570 18 view .LVU49
 207 00f3 E8000000 		call	_ZSt16__ostream_insertIcSt11char_traitsIcEERSt13basic_ostreamIT_T0_ES6_PKS3_l@PLT
 207      00
 208              	.LVL26:
 209              		.loc 3 570 18 view .LVU50
 210              	.LBE184:
 211              	.LBE185:
 360:Src/main.cpp  ****     if(key == 27) //ESC
 212              		.loc 1 360 33 view .LVU51
 213 00f8 400FB6F5 		movzbl	%bpl, %esi
 214 00fc 488D3D00 		leaq	_ZSt4cout(%rip), %rdi
 214      000000
 215 0103 E8000000 		call	_ZNSolsEi@PLT
 215      00
 216              	.LVL27:
 217 0108 4889C3   		movq	%rax, %rbx
 218              	.LVL28:
 219              	.LBB186:
 220              	.LBI186:
 108:/usr/include/c++/9.1.0/ostream ****       {
 221              		.loc 3 108 7 is_stmt 1 view .LVU52
 222              	.LBB187:
 223              	.LBI187:
 571:/usr/include/c++/9.1.0/ostream **** 			 static_cast<streamsize>(_Traits::length(__s)));
 572:/usr/include/c++/9.1.0/ostream ****       return __out;
 573:/usr/include/c++/9.1.0/ostream ****     }
 574:/usr/include/c++/9.1.0/ostream **** 
 575:/usr/include/c++/9.1.0/ostream ****   // Signed and unsigned
 576:/usr/include/c++/9.1.0/ostream ****   template<class _Traits>
 577:/usr/include/c++/9.1.0/ostream ****     inline basic_ostream<char, _Traits>&
 578:/usr/include/c++/9.1.0/ostream ****     operator<<(basic_ostream<char, _Traits>& __out, const signed char* __s)
 579:/usr/include/c++/9.1.0/ostream ****     { return (__out << reinterpret_cast<const char*>(__s)); }
 580:/usr/include/c++/9.1.0/ostream **** 
 581:/usr/include/c++/9.1.0/ostream ****   template<class _Traits>
 582:/usr/include/c++/9.1.0/ostream ****     inline basic_ostream<char, _Traits> &
 583:/usr/include/c++/9.1.0/ostream ****     operator<<(basic_ostream<char, _Traits>& __out, const unsigned char* __s)
 584:/usr/include/c++/9.1.0/ostream ****     { return (__out << reinterpret_cast<const char*>(__s)); }
 585:/usr/include/c++/9.1.0/ostream ****   //@}
 586:/usr/include/c++/9.1.0/ostream **** 
 587:/usr/include/c++/9.1.0/ostream ****   // Standard basic_ostream manipulators
 588:/usr/include/c++/9.1.0/ostream **** 
 589:/usr/include/c++/9.1.0/ostream ****   /**
 590:/usr/include/c++/9.1.0/ostream ****    *  @brief  Write a newline and flush the stream.
 591:/usr/include/c++/9.1.0/ostream ****    *
 592:/usr/include/c++/9.1.0/ostream ****    *  This manipulator is often mistakenly used when a simple newline is
 593:/usr/include/c++/9.1.0/ostream ****    *  desired, leading to poor buffering performance.  See
 594:/usr/include/c++/9.1.0/ostream ****    *  https://gcc.gnu.org/onlinedocs/libstdc++/manual/streambufs.html#io.streambuf.buffering
 595:/usr/include/c++/9.1.0/ostream ****    *  for more on this subject.
 596:/usr/include/c++/9.1.0/ostream ****   */
 597:/usr/include/c++/9.1.0/ostream ****   template<typename _CharT, typename _Traits>
 598:/usr/include/c++/9.1.0/ostream ****     inline basic_ostream<_CharT, _Traits>&
 599:/usr/include/c++/9.1.0/ostream ****     endl(basic_ostream<_CharT, _Traits>& __os)
 224              		.loc 3 599 5 view .LVU53
 225              	.LBB188:
GAS LISTING /tmp/cc1DIh6n.s 			page 32


 600:/usr/include/c++/9.1.0/ostream ****     { return flush(__os.put(__os.widen('\n'))); }
 226              		.loc 3 600 19 is_stmt 0 view .LVU54
 227 010b 488B00   		movq	(%rax), %rax
 228              	.LVL29:
 229              		.loc 3 600 19 view .LVU55
 230 010e 4889D9   		movq	%rbx, %rcx
 231 0111 480348E8 		addq	-24(%rax), %rcx
 232              	.LVL30:
 233              	.LBB189:
 234              	.LBI189:
 235              		.file 5 "/usr/include/c++/9.1.0/bits/basic_ios.h"
   1:/usr/include/c++/9.1.0/bits/basic_ios.h **** // Iostreams base classes -*- C++ -*-
   2:/usr/include/c++/9.1.0/bits/basic_ios.h **** 
   3:/usr/include/c++/9.1.0/bits/basic_ios.h **** // Copyright (C) 1997-2019 Free Software Foundation, Inc.
   4:/usr/include/c++/9.1.0/bits/basic_ios.h **** //
   5:/usr/include/c++/9.1.0/bits/basic_ios.h **** // This file is part of the GNU ISO C++ Library.  This library is free
   6:/usr/include/c++/9.1.0/bits/basic_ios.h **** // software; you can redistribute it and/or modify it under the
   7:/usr/include/c++/9.1.0/bits/basic_ios.h **** // terms of the GNU General Public License as published by the
   8:/usr/include/c++/9.1.0/bits/basic_ios.h **** // Free Software Foundation; either version 3, or (at your option)
   9:/usr/include/c++/9.1.0/bits/basic_ios.h **** // any later version.
  10:/usr/include/c++/9.1.0/bits/basic_ios.h **** 
  11:/usr/include/c++/9.1.0/bits/basic_ios.h **** // This library is distributed in the hope that it will be useful,
  12:/usr/include/c++/9.1.0/bits/basic_ios.h **** // but WITHOUT ANY WARRANTY; without even the implied warranty of
  13:/usr/include/c++/9.1.0/bits/basic_ios.h **** // MERCHANTABILITY or FITNESS FOR A PARTICULAR PURPOSE.  See the
  14:/usr/include/c++/9.1.0/bits/basic_ios.h **** // GNU General Public License for more details.
  15:/usr/include/c++/9.1.0/bits/basic_ios.h **** 
  16:/usr/include/c++/9.1.0/bits/basic_ios.h **** // Under Section 7 of GPL version 3, you are granted additional
  17:/usr/include/c++/9.1.0/bits/basic_ios.h **** // permissions described in the GCC Runtime Library Exception, version
  18:/usr/include/c++/9.1.0/bits/basic_ios.h **** // 3.1, as published by the Free Software Foundation.
  19:/usr/include/c++/9.1.0/bits/basic_ios.h **** 
  20:/usr/include/c++/9.1.0/bits/basic_ios.h **** // You should have received a copy of the GNU General Public License and
  21:/usr/include/c++/9.1.0/bits/basic_ios.h **** // a copy of the GCC Runtime Library Exception along with this program;
  22:/usr/include/c++/9.1.0/bits/basic_ios.h **** // see the files COPYING3 and COPYING.RUNTIME respectively.  If not, see
  23:/usr/include/c++/9.1.0/bits/basic_ios.h **** // <http://www.gnu.org/licenses/>.
  24:/usr/include/c++/9.1.0/bits/basic_ios.h **** 
  25:/usr/include/c++/9.1.0/bits/basic_ios.h **** /** @file bits/basic_ios.h
  26:/usr/include/c++/9.1.0/bits/basic_ios.h ****  *  This is an internal header file, included by other library headers.
  27:/usr/include/c++/9.1.0/bits/basic_ios.h ****  *  Do not attempt to use it directly. @headername{ios}
  28:/usr/include/c++/9.1.0/bits/basic_ios.h ****  */
  29:/usr/include/c++/9.1.0/bits/basic_ios.h **** 
  30:/usr/include/c++/9.1.0/bits/basic_ios.h **** #ifndef _BASIC_IOS_H
  31:/usr/include/c++/9.1.0/bits/basic_ios.h **** #define _BASIC_IOS_H 1
  32:/usr/include/c++/9.1.0/bits/basic_ios.h **** 
  33:/usr/include/c++/9.1.0/bits/basic_ios.h **** #pragma GCC system_header
  34:/usr/include/c++/9.1.0/bits/basic_ios.h **** 
  35:/usr/include/c++/9.1.0/bits/basic_ios.h **** #include <bits/localefwd.h>
  36:/usr/include/c++/9.1.0/bits/basic_ios.h **** #include <bits/locale_classes.h>
  37:/usr/include/c++/9.1.0/bits/basic_ios.h **** #include <bits/locale_facets.h>
  38:/usr/include/c++/9.1.0/bits/basic_ios.h **** #include <bits/streambuf_iterator.h>
  39:/usr/include/c++/9.1.0/bits/basic_ios.h **** #include <bits/move.h>
  40:/usr/include/c++/9.1.0/bits/basic_ios.h **** 
  41:/usr/include/c++/9.1.0/bits/basic_ios.h **** namespace std _GLIBCXX_VISIBILITY(default)
  42:/usr/include/c++/9.1.0/bits/basic_ios.h **** {
  43:/usr/include/c++/9.1.0/bits/basic_ios.h **** _GLIBCXX_BEGIN_NAMESPACE_VERSION
  44:/usr/include/c++/9.1.0/bits/basic_ios.h **** 
  45:/usr/include/c++/9.1.0/bits/basic_ios.h ****   template<typename _Facet>
  46:/usr/include/c++/9.1.0/bits/basic_ios.h ****     inline const _Facet&
GAS LISTING /tmp/cc1DIh6n.s 			page 33


  47:/usr/include/c++/9.1.0/bits/basic_ios.h ****     __check_facet(const _Facet* __f)
  48:/usr/include/c++/9.1.0/bits/basic_ios.h ****     {
  49:/usr/include/c++/9.1.0/bits/basic_ios.h ****       if (!__f)
  50:/usr/include/c++/9.1.0/bits/basic_ios.h **** 	__throw_bad_cast();
  51:/usr/include/c++/9.1.0/bits/basic_ios.h ****       return *__f;
  52:/usr/include/c++/9.1.0/bits/basic_ios.h ****     }
  53:/usr/include/c++/9.1.0/bits/basic_ios.h **** 
  54:/usr/include/c++/9.1.0/bits/basic_ios.h ****   /**
  55:/usr/include/c++/9.1.0/bits/basic_ios.h ****    *  @brief Template class basic_ios, virtual base class for all
  56:/usr/include/c++/9.1.0/bits/basic_ios.h ****    *  stream classes. 
  57:/usr/include/c++/9.1.0/bits/basic_ios.h ****    *  @ingroup io
  58:/usr/include/c++/9.1.0/bits/basic_ios.h ****    *
  59:/usr/include/c++/9.1.0/bits/basic_ios.h ****    *  @tparam _CharT  Type of character stream.
  60:/usr/include/c++/9.1.0/bits/basic_ios.h ****    *  @tparam _Traits  Traits for character type, defaults to
  61:/usr/include/c++/9.1.0/bits/basic_ios.h ****    *                   char_traits<_CharT>.
  62:/usr/include/c++/9.1.0/bits/basic_ios.h ****    *
  63:/usr/include/c++/9.1.0/bits/basic_ios.h ****    *  Most of the member functions called dispatched on stream objects
  64:/usr/include/c++/9.1.0/bits/basic_ios.h ****    *  (e.g., @c std::cout.foo(bar);) are consolidated in this class.
  65:/usr/include/c++/9.1.0/bits/basic_ios.h ****   */
  66:/usr/include/c++/9.1.0/bits/basic_ios.h ****   template<typename _CharT, typename _Traits>
  67:/usr/include/c++/9.1.0/bits/basic_ios.h ****     class basic_ios : public ios_base
  68:/usr/include/c++/9.1.0/bits/basic_ios.h ****     {
  69:/usr/include/c++/9.1.0/bits/basic_ios.h ****     public:
  70:/usr/include/c++/9.1.0/bits/basic_ios.h ****       //@{
  71:/usr/include/c++/9.1.0/bits/basic_ios.h ****       /**
  72:/usr/include/c++/9.1.0/bits/basic_ios.h ****        *  These are standard types.  They permit a standardized way of
  73:/usr/include/c++/9.1.0/bits/basic_ios.h ****        *  referring to names of (or names dependent on) the template
  74:/usr/include/c++/9.1.0/bits/basic_ios.h ****        *  parameters, which are specific to the implementation.
  75:/usr/include/c++/9.1.0/bits/basic_ios.h ****       */
  76:/usr/include/c++/9.1.0/bits/basic_ios.h ****       typedef _CharT                                 char_type;
  77:/usr/include/c++/9.1.0/bits/basic_ios.h ****       typedef typename _Traits::int_type             int_type;
  78:/usr/include/c++/9.1.0/bits/basic_ios.h ****       typedef typename _Traits::pos_type             pos_type;
  79:/usr/include/c++/9.1.0/bits/basic_ios.h ****       typedef typename _Traits::off_type             off_type;
  80:/usr/include/c++/9.1.0/bits/basic_ios.h ****       typedef _Traits                                traits_type;
  81:/usr/include/c++/9.1.0/bits/basic_ios.h ****       //@}
  82:/usr/include/c++/9.1.0/bits/basic_ios.h **** 
  83:/usr/include/c++/9.1.0/bits/basic_ios.h ****       //@{
  84:/usr/include/c++/9.1.0/bits/basic_ios.h ****       /**
  85:/usr/include/c++/9.1.0/bits/basic_ios.h ****        *  These are non-standard types.
  86:/usr/include/c++/9.1.0/bits/basic_ios.h ****       */
  87:/usr/include/c++/9.1.0/bits/basic_ios.h ****       typedef ctype<_CharT>                          __ctype_type;
  88:/usr/include/c++/9.1.0/bits/basic_ios.h ****       typedef num_put<_CharT, ostreambuf_iterator<_CharT, _Traits> >
  89:/usr/include/c++/9.1.0/bits/basic_ios.h **** 						     __num_put_type;
  90:/usr/include/c++/9.1.0/bits/basic_ios.h ****       typedef num_get<_CharT, istreambuf_iterator<_CharT, _Traits> >
  91:/usr/include/c++/9.1.0/bits/basic_ios.h **** 						     __num_get_type;
  92:/usr/include/c++/9.1.0/bits/basic_ios.h ****       //@}
  93:/usr/include/c++/9.1.0/bits/basic_ios.h **** 
  94:/usr/include/c++/9.1.0/bits/basic_ios.h ****       // Data members:
  95:/usr/include/c++/9.1.0/bits/basic_ios.h ****     protected:
  96:/usr/include/c++/9.1.0/bits/basic_ios.h ****       basic_ostream<_CharT, _Traits>*                _M_tie;
  97:/usr/include/c++/9.1.0/bits/basic_ios.h ****       mutable char_type                              _M_fill;
  98:/usr/include/c++/9.1.0/bits/basic_ios.h ****       mutable bool                                   _M_fill_init;
  99:/usr/include/c++/9.1.0/bits/basic_ios.h ****       basic_streambuf<_CharT, _Traits>*              _M_streambuf;
 100:/usr/include/c++/9.1.0/bits/basic_ios.h **** 
 101:/usr/include/c++/9.1.0/bits/basic_ios.h ****       // Cached use_facet<ctype>, which is based on the current locale info.
 102:/usr/include/c++/9.1.0/bits/basic_ios.h ****       const __ctype_type*                            _M_ctype;
 103:/usr/include/c++/9.1.0/bits/basic_ios.h ****       // For ostream.
GAS LISTING /tmp/cc1DIh6n.s 			page 34


 104:/usr/include/c++/9.1.0/bits/basic_ios.h ****       const __num_put_type*                          _M_num_put;
 105:/usr/include/c++/9.1.0/bits/basic_ios.h ****       // For istream.
 106:/usr/include/c++/9.1.0/bits/basic_ios.h ****       const __num_get_type*                          _M_num_get;
 107:/usr/include/c++/9.1.0/bits/basic_ios.h **** 
 108:/usr/include/c++/9.1.0/bits/basic_ios.h ****     public:
 109:/usr/include/c++/9.1.0/bits/basic_ios.h ****       //@{
 110:/usr/include/c++/9.1.0/bits/basic_ios.h ****       /**
 111:/usr/include/c++/9.1.0/bits/basic_ios.h ****        *  @brief  The quick-and-easy status check.
 112:/usr/include/c++/9.1.0/bits/basic_ios.h ****        *
 113:/usr/include/c++/9.1.0/bits/basic_ios.h ****        *  This allows you to write constructs such as
 114:/usr/include/c++/9.1.0/bits/basic_ios.h ****        *  <code>if (!a_stream) ...</code> and <code>while (a_stream) ...</code>
 115:/usr/include/c++/9.1.0/bits/basic_ios.h ****       */
 116:/usr/include/c++/9.1.0/bits/basic_ios.h **** #if __cplusplus >= 201103L
 117:/usr/include/c++/9.1.0/bits/basic_ios.h ****       explicit operator bool() const
 118:/usr/include/c++/9.1.0/bits/basic_ios.h ****       { return !this->fail(); }
 119:/usr/include/c++/9.1.0/bits/basic_ios.h **** #else
 120:/usr/include/c++/9.1.0/bits/basic_ios.h ****       operator void*() const
 121:/usr/include/c++/9.1.0/bits/basic_ios.h ****       { return this->fail() ? 0 : const_cast<basic_ios*>(this); }
 122:/usr/include/c++/9.1.0/bits/basic_ios.h **** #endif
 123:/usr/include/c++/9.1.0/bits/basic_ios.h **** 
 124:/usr/include/c++/9.1.0/bits/basic_ios.h ****       bool
 125:/usr/include/c++/9.1.0/bits/basic_ios.h ****       operator!() const
 126:/usr/include/c++/9.1.0/bits/basic_ios.h ****       { return this->fail(); }
 127:/usr/include/c++/9.1.0/bits/basic_ios.h ****       //@}
 128:/usr/include/c++/9.1.0/bits/basic_ios.h **** 
 129:/usr/include/c++/9.1.0/bits/basic_ios.h ****       /**
 130:/usr/include/c++/9.1.0/bits/basic_ios.h ****        *  @brief  Returns the error state of the stream buffer.
 131:/usr/include/c++/9.1.0/bits/basic_ios.h ****        *  @return  A bit pattern (well, isn't everything?)
 132:/usr/include/c++/9.1.0/bits/basic_ios.h ****        *
 133:/usr/include/c++/9.1.0/bits/basic_ios.h ****        *  See std::ios_base::iostate for the possible bit values.  Most
 134:/usr/include/c++/9.1.0/bits/basic_ios.h ****        *  users will call one of the interpreting wrappers, e.g., good().
 135:/usr/include/c++/9.1.0/bits/basic_ios.h ****       */
 136:/usr/include/c++/9.1.0/bits/basic_ios.h ****       iostate
 137:/usr/include/c++/9.1.0/bits/basic_ios.h ****       rdstate() const
 138:/usr/include/c++/9.1.0/bits/basic_ios.h ****       { return _M_streambuf_state; }
 139:/usr/include/c++/9.1.0/bits/basic_ios.h **** 
 140:/usr/include/c++/9.1.0/bits/basic_ios.h ****       /**
 141:/usr/include/c++/9.1.0/bits/basic_ios.h ****        *  @brief  [Re]sets the error state.
 142:/usr/include/c++/9.1.0/bits/basic_ios.h ****        *  @param  __state  The new state flag(s) to set.
 143:/usr/include/c++/9.1.0/bits/basic_ios.h ****        *
 144:/usr/include/c++/9.1.0/bits/basic_ios.h ****        *  See std::ios_base::iostate for the possible bit values.  Most
 145:/usr/include/c++/9.1.0/bits/basic_ios.h ****        *  users will not need to pass an argument.
 146:/usr/include/c++/9.1.0/bits/basic_ios.h ****       */
 147:/usr/include/c++/9.1.0/bits/basic_ios.h ****       void
 148:/usr/include/c++/9.1.0/bits/basic_ios.h ****       clear(iostate __state = goodbit);
 149:/usr/include/c++/9.1.0/bits/basic_ios.h **** 
 150:/usr/include/c++/9.1.0/bits/basic_ios.h ****       /**
 151:/usr/include/c++/9.1.0/bits/basic_ios.h ****        *  @brief  Sets additional flags in the error state.
 152:/usr/include/c++/9.1.0/bits/basic_ios.h ****        *  @param  __state  The additional state flag(s) to set.
 153:/usr/include/c++/9.1.0/bits/basic_ios.h ****        *
 154:/usr/include/c++/9.1.0/bits/basic_ios.h ****        *  See std::ios_base::iostate for the possible bit values.
 155:/usr/include/c++/9.1.0/bits/basic_ios.h ****       */
 156:/usr/include/c++/9.1.0/bits/basic_ios.h ****       void
 157:/usr/include/c++/9.1.0/bits/basic_ios.h ****       setstate(iostate __state)
 158:/usr/include/c++/9.1.0/bits/basic_ios.h ****       { this->clear(this->rdstate() | __state); }
 159:/usr/include/c++/9.1.0/bits/basic_ios.h **** 
 160:/usr/include/c++/9.1.0/bits/basic_ios.h ****       // Flip the internal state on for the proper state bits, then
GAS LISTING /tmp/cc1DIh6n.s 			page 35


 161:/usr/include/c++/9.1.0/bits/basic_ios.h ****       // rethrows the propagated exception if bit also set in
 162:/usr/include/c++/9.1.0/bits/basic_ios.h ****       // exceptions().
 163:/usr/include/c++/9.1.0/bits/basic_ios.h ****       void
 164:/usr/include/c++/9.1.0/bits/basic_ios.h ****       _M_setstate(iostate __state)
 165:/usr/include/c++/9.1.0/bits/basic_ios.h ****       {
 166:/usr/include/c++/9.1.0/bits/basic_ios.h **** 	// 27.6.1.2.1 Common requirements.
 167:/usr/include/c++/9.1.0/bits/basic_ios.h **** 	// Turn this on without causing an ios::failure to be thrown.
 168:/usr/include/c++/9.1.0/bits/basic_ios.h **** 	_M_streambuf_state |= __state;
 169:/usr/include/c++/9.1.0/bits/basic_ios.h **** 	if (this->exceptions() & __state)
 170:/usr/include/c++/9.1.0/bits/basic_ios.h **** 	  __throw_exception_again;
 171:/usr/include/c++/9.1.0/bits/basic_ios.h ****       }
 172:/usr/include/c++/9.1.0/bits/basic_ios.h **** 
 173:/usr/include/c++/9.1.0/bits/basic_ios.h ****       /**
 174:/usr/include/c++/9.1.0/bits/basic_ios.h ****        *  @brief  Fast error checking.
 175:/usr/include/c++/9.1.0/bits/basic_ios.h ****        *  @return  True if no error flags are set.
 176:/usr/include/c++/9.1.0/bits/basic_ios.h ****        *
 177:/usr/include/c++/9.1.0/bits/basic_ios.h ****        *  A wrapper around rdstate.
 178:/usr/include/c++/9.1.0/bits/basic_ios.h ****       */
 179:/usr/include/c++/9.1.0/bits/basic_ios.h ****       bool
 180:/usr/include/c++/9.1.0/bits/basic_ios.h ****       good() const
 181:/usr/include/c++/9.1.0/bits/basic_ios.h ****       { return this->rdstate() == 0; }
 182:/usr/include/c++/9.1.0/bits/basic_ios.h **** 
 183:/usr/include/c++/9.1.0/bits/basic_ios.h ****       /**
 184:/usr/include/c++/9.1.0/bits/basic_ios.h ****        *  @brief  Fast error checking.
 185:/usr/include/c++/9.1.0/bits/basic_ios.h ****        *  @return  True if the eofbit is set.
 186:/usr/include/c++/9.1.0/bits/basic_ios.h ****        *
 187:/usr/include/c++/9.1.0/bits/basic_ios.h ****        *  Note that other iostate flags may also be set.
 188:/usr/include/c++/9.1.0/bits/basic_ios.h ****       */
 189:/usr/include/c++/9.1.0/bits/basic_ios.h ****       bool
 190:/usr/include/c++/9.1.0/bits/basic_ios.h ****       eof() const
 191:/usr/include/c++/9.1.0/bits/basic_ios.h ****       { return (this->rdstate() & eofbit) != 0; }
 192:/usr/include/c++/9.1.0/bits/basic_ios.h **** 
 193:/usr/include/c++/9.1.0/bits/basic_ios.h ****       /**
 194:/usr/include/c++/9.1.0/bits/basic_ios.h ****        *  @brief  Fast error checking.
 195:/usr/include/c++/9.1.0/bits/basic_ios.h ****        *  @return  True if either the badbit or the failbit is set.
 196:/usr/include/c++/9.1.0/bits/basic_ios.h ****        *
 197:/usr/include/c++/9.1.0/bits/basic_ios.h ****        *  Checking the badbit in fail() is historical practice.
 198:/usr/include/c++/9.1.0/bits/basic_ios.h ****        *  Note that other iostate flags may also be set.
 199:/usr/include/c++/9.1.0/bits/basic_ios.h ****       */
 200:/usr/include/c++/9.1.0/bits/basic_ios.h ****       bool
 201:/usr/include/c++/9.1.0/bits/basic_ios.h ****       fail() const
 202:/usr/include/c++/9.1.0/bits/basic_ios.h ****       { return (this->rdstate() & (badbit | failbit)) != 0; }
 203:/usr/include/c++/9.1.0/bits/basic_ios.h **** 
 204:/usr/include/c++/9.1.0/bits/basic_ios.h ****       /**
 205:/usr/include/c++/9.1.0/bits/basic_ios.h ****        *  @brief  Fast error checking.
 206:/usr/include/c++/9.1.0/bits/basic_ios.h ****        *  @return  True if the badbit is set.
 207:/usr/include/c++/9.1.0/bits/basic_ios.h ****        *
 208:/usr/include/c++/9.1.0/bits/basic_ios.h ****        *  Note that other iostate flags may also be set.
 209:/usr/include/c++/9.1.0/bits/basic_ios.h ****       */
 210:/usr/include/c++/9.1.0/bits/basic_ios.h ****       bool
 211:/usr/include/c++/9.1.0/bits/basic_ios.h ****       bad() const
 212:/usr/include/c++/9.1.0/bits/basic_ios.h ****       { return (this->rdstate() & badbit) != 0; }
 213:/usr/include/c++/9.1.0/bits/basic_ios.h **** 
 214:/usr/include/c++/9.1.0/bits/basic_ios.h ****       /**
 215:/usr/include/c++/9.1.0/bits/basic_ios.h ****        *  @brief  Throwing exceptions on errors.
 216:/usr/include/c++/9.1.0/bits/basic_ios.h ****        *  @return  The current exceptions mask.
 217:/usr/include/c++/9.1.0/bits/basic_ios.h ****        *
GAS LISTING /tmp/cc1DIh6n.s 			page 36


 218:/usr/include/c++/9.1.0/bits/basic_ios.h ****        *  This changes nothing in the stream.  See the one-argument version
 219:/usr/include/c++/9.1.0/bits/basic_ios.h ****        *  of exceptions(iostate) for the meaning of the return value.
 220:/usr/include/c++/9.1.0/bits/basic_ios.h ****       */
 221:/usr/include/c++/9.1.0/bits/basic_ios.h ****       iostate
 222:/usr/include/c++/9.1.0/bits/basic_ios.h ****       exceptions() const
 223:/usr/include/c++/9.1.0/bits/basic_ios.h ****       { return _M_exception; }
 224:/usr/include/c++/9.1.0/bits/basic_ios.h **** 
 225:/usr/include/c++/9.1.0/bits/basic_ios.h ****       /**
 226:/usr/include/c++/9.1.0/bits/basic_ios.h ****        *  @brief  Throwing exceptions on errors.
 227:/usr/include/c++/9.1.0/bits/basic_ios.h ****        *  @param  __except  The new exceptions mask.
 228:/usr/include/c++/9.1.0/bits/basic_ios.h ****        *
 229:/usr/include/c++/9.1.0/bits/basic_ios.h ****        *  By default, error flags are set silently.  You can set an
 230:/usr/include/c++/9.1.0/bits/basic_ios.h ****        *  exceptions mask for each stream; if a bit in the mask becomes set
 231:/usr/include/c++/9.1.0/bits/basic_ios.h ****        *  in the error flags, then an exception of type
 232:/usr/include/c++/9.1.0/bits/basic_ios.h ****        *  std::ios_base::failure is thrown.
 233:/usr/include/c++/9.1.0/bits/basic_ios.h ****        *
 234:/usr/include/c++/9.1.0/bits/basic_ios.h ****        *  If the error flag is already set when the exceptions mask is
 235:/usr/include/c++/9.1.0/bits/basic_ios.h ****        *  added, the exception is immediately thrown.  Try running the
 236:/usr/include/c++/9.1.0/bits/basic_ios.h ****        *  following under GCC 3.1 or later:
 237:/usr/include/c++/9.1.0/bits/basic_ios.h ****        *  @code
 238:/usr/include/c++/9.1.0/bits/basic_ios.h ****        *  #include <iostream>
 239:/usr/include/c++/9.1.0/bits/basic_ios.h ****        *  #include <fstream>
 240:/usr/include/c++/9.1.0/bits/basic_ios.h ****        *  #include <exception>
 241:/usr/include/c++/9.1.0/bits/basic_ios.h ****        *
 242:/usr/include/c++/9.1.0/bits/basic_ios.h ****        *  int main()
 243:/usr/include/c++/9.1.0/bits/basic_ios.h ****        *  {
 244:/usr/include/c++/9.1.0/bits/basic_ios.h ****        *      std::set_terminate (__gnu_cxx::__verbose_terminate_handler);
 245:/usr/include/c++/9.1.0/bits/basic_ios.h ****        *
 246:/usr/include/c++/9.1.0/bits/basic_ios.h ****        *      std::ifstream f ("/etc/motd");
 247:/usr/include/c++/9.1.0/bits/basic_ios.h ****        *
 248:/usr/include/c++/9.1.0/bits/basic_ios.h ****        *      std::cerr << "Setting badbit\n";
 249:/usr/include/c++/9.1.0/bits/basic_ios.h ****        *      f.setstate (std::ios_base::badbit);
 250:/usr/include/c++/9.1.0/bits/basic_ios.h ****        *
 251:/usr/include/c++/9.1.0/bits/basic_ios.h ****        *      std::cerr << "Setting exception mask\n";
 252:/usr/include/c++/9.1.0/bits/basic_ios.h ****        *      f.exceptions (std::ios_base::badbit);
 253:/usr/include/c++/9.1.0/bits/basic_ios.h ****        *  }
 254:/usr/include/c++/9.1.0/bits/basic_ios.h ****        *  @endcode
 255:/usr/include/c++/9.1.0/bits/basic_ios.h ****       */
 256:/usr/include/c++/9.1.0/bits/basic_ios.h ****       void
 257:/usr/include/c++/9.1.0/bits/basic_ios.h ****       exceptions(iostate __except)
 258:/usr/include/c++/9.1.0/bits/basic_ios.h ****       {
 259:/usr/include/c++/9.1.0/bits/basic_ios.h ****         _M_exception = __except;
 260:/usr/include/c++/9.1.0/bits/basic_ios.h ****         this->clear(_M_streambuf_state);
 261:/usr/include/c++/9.1.0/bits/basic_ios.h ****       }
 262:/usr/include/c++/9.1.0/bits/basic_ios.h **** 
 263:/usr/include/c++/9.1.0/bits/basic_ios.h ****       // Constructor/destructor:
 264:/usr/include/c++/9.1.0/bits/basic_ios.h ****       /**
 265:/usr/include/c++/9.1.0/bits/basic_ios.h ****        *  @brief  Constructor performs initialization.
 266:/usr/include/c++/9.1.0/bits/basic_ios.h ****        *
 267:/usr/include/c++/9.1.0/bits/basic_ios.h ****        *  The parameter is passed by derived streams.
 268:/usr/include/c++/9.1.0/bits/basic_ios.h ****       */
 269:/usr/include/c++/9.1.0/bits/basic_ios.h ****       explicit
 270:/usr/include/c++/9.1.0/bits/basic_ios.h ****       basic_ios(basic_streambuf<_CharT, _Traits>* __sb)
 271:/usr/include/c++/9.1.0/bits/basic_ios.h ****       : ios_base(), _M_tie(0), _M_fill(), _M_fill_init(false), _M_streambuf(0),
 272:/usr/include/c++/9.1.0/bits/basic_ios.h **** 	_M_ctype(0), _M_num_put(0), _M_num_get(0)
 273:/usr/include/c++/9.1.0/bits/basic_ios.h ****       { this->init(__sb); }
 274:/usr/include/c++/9.1.0/bits/basic_ios.h **** 
GAS LISTING /tmp/cc1DIh6n.s 			page 37


 275:/usr/include/c++/9.1.0/bits/basic_ios.h ****       /**
 276:/usr/include/c++/9.1.0/bits/basic_ios.h ****        *  @brief  Empty.
 277:/usr/include/c++/9.1.0/bits/basic_ios.h ****        *
 278:/usr/include/c++/9.1.0/bits/basic_ios.h ****        *  The destructor does nothing.  More specifically, it does not
 279:/usr/include/c++/9.1.0/bits/basic_ios.h ****        *  destroy the streambuf held by rdbuf().
 280:/usr/include/c++/9.1.0/bits/basic_ios.h ****       */
 281:/usr/include/c++/9.1.0/bits/basic_ios.h ****       virtual
 282:/usr/include/c++/9.1.0/bits/basic_ios.h ****       ~basic_ios() { }
 283:/usr/include/c++/9.1.0/bits/basic_ios.h **** 
 284:/usr/include/c++/9.1.0/bits/basic_ios.h ****       // Members:
 285:/usr/include/c++/9.1.0/bits/basic_ios.h ****       /**
 286:/usr/include/c++/9.1.0/bits/basic_ios.h ****        *  @brief  Fetches the current @e tied stream.
 287:/usr/include/c++/9.1.0/bits/basic_ios.h ****        *  @return  A pointer to the tied stream, or NULL if the stream is
 288:/usr/include/c++/9.1.0/bits/basic_ios.h ****        *           not tied.
 289:/usr/include/c++/9.1.0/bits/basic_ios.h ****        *
 290:/usr/include/c++/9.1.0/bits/basic_ios.h ****        *  A stream may be @e tied (or synchronized) to a second output
 291:/usr/include/c++/9.1.0/bits/basic_ios.h ****        *  stream.  When this stream performs any I/O, the tied stream is
 292:/usr/include/c++/9.1.0/bits/basic_ios.h ****        *  first flushed.  For example, @c std::cin is tied to @c std::cout.
 293:/usr/include/c++/9.1.0/bits/basic_ios.h ****       */
 294:/usr/include/c++/9.1.0/bits/basic_ios.h ****       basic_ostream<_CharT, _Traits>*
 295:/usr/include/c++/9.1.0/bits/basic_ios.h ****       tie() const
 296:/usr/include/c++/9.1.0/bits/basic_ios.h ****       { return _M_tie; }
 297:/usr/include/c++/9.1.0/bits/basic_ios.h **** 
 298:/usr/include/c++/9.1.0/bits/basic_ios.h ****       /**
 299:/usr/include/c++/9.1.0/bits/basic_ios.h ****        *  @brief  Ties this stream to an output stream.
 300:/usr/include/c++/9.1.0/bits/basic_ios.h ****        *  @param  __tiestr  The output stream.
 301:/usr/include/c++/9.1.0/bits/basic_ios.h ****        *  @return  The previously tied output stream, or NULL if the stream
 302:/usr/include/c++/9.1.0/bits/basic_ios.h ****        *           was not tied.
 303:/usr/include/c++/9.1.0/bits/basic_ios.h ****        *
 304:/usr/include/c++/9.1.0/bits/basic_ios.h ****        *  This sets up a new tie; see tie() for more.
 305:/usr/include/c++/9.1.0/bits/basic_ios.h ****       */
 306:/usr/include/c++/9.1.0/bits/basic_ios.h ****       basic_ostream<_CharT, _Traits>*
 307:/usr/include/c++/9.1.0/bits/basic_ios.h ****       tie(basic_ostream<_CharT, _Traits>* __tiestr)
 308:/usr/include/c++/9.1.0/bits/basic_ios.h ****       {
 309:/usr/include/c++/9.1.0/bits/basic_ios.h ****         basic_ostream<_CharT, _Traits>* __old = _M_tie;
 310:/usr/include/c++/9.1.0/bits/basic_ios.h ****         _M_tie = __tiestr;
 311:/usr/include/c++/9.1.0/bits/basic_ios.h ****         return __old;
 312:/usr/include/c++/9.1.0/bits/basic_ios.h ****       }
 313:/usr/include/c++/9.1.0/bits/basic_ios.h **** 
 314:/usr/include/c++/9.1.0/bits/basic_ios.h ****       /**
 315:/usr/include/c++/9.1.0/bits/basic_ios.h ****        *  @brief  Accessing the underlying buffer.
 316:/usr/include/c++/9.1.0/bits/basic_ios.h ****        *  @return  The current stream buffer.
 317:/usr/include/c++/9.1.0/bits/basic_ios.h ****        *
 318:/usr/include/c++/9.1.0/bits/basic_ios.h ****        *  This does not change the state of the stream.
 319:/usr/include/c++/9.1.0/bits/basic_ios.h ****       */
 320:/usr/include/c++/9.1.0/bits/basic_ios.h ****       basic_streambuf<_CharT, _Traits>*
 321:/usr/include/c++/9.1.0/bits/basic_ios.h ****       rdbuf() const
 322:/usr/include/c++/9.1.0/bits/basic_ios.h ****       { return _M_streambuf; }
 323:/usr/include/c++/9.1.0/bits/basic_ios.h **** 
 324:/usr/include/c++/9.1.0/bits/basic_ios.h ****       /**
 325:/usr/include/c++/9.1.0/bits/basic_ios.h ****        *  @brief  Changing the underlying buffer.
 326:/usr/include/c++/9.1.0/bits/basic_ios.h ****        *  @param  __sb  The new stream buffer.
 327:/usr/include/c++/9.1.0/bits/basic_ios.h ****        *  @return  The previous stream buffer.
 328:/usr/include/c++/9.1.0/bits/basic_ios.h ****        *
 329:/usr/include/c++/9.1.0/bits/basic_ios.h ****        *  Associates a new buffer with the current stream, and clears the
 330:/usr/include/c++/9.1.0/bits/basic_ios.h ****        *  error state.
 331:/usr/include/c++/9.1.0/bits/basic_ios.h ****        *
GAS LISTING /tmp/cc1DIh6n.s 			page 38


 332:/usr/include/c++/9.1.0/bits/basic_ios.h ****        *  Due to historical accidents which the LWG refuses to correct, the
 333:/usr/include/c++/9.1.0/bits/basic_ios.h ****        *  I/O library suffers from a design error:  this function is hidden
 334:/usr/include/c++/9.1.0/bits/basic_ios.h ****        *  in derived classes by overrides of the zero-argument @c rdbuf(),
 335:/usr/include/c++/9.1.0/bits/basic_ios.h ****        *  which is non-virtual for hysterical raisins.  As a result, you
 336:/usr/include/c++/9.1.0/bits/basic_ios.h ****        *  must use explicit qualifications to access this function via any
 337:/usr/include/c++/9.1.0/bits/basic_ios.h ****        *  derived class.  For example:
 338:/usr/include/c++/9.1.0/bits/basic_ios.h ****        *
 339:/usr/include/c++/9.1.0/bits/basic_ios.h ****        *  @code
 340:/usr/include/c++/9.1.0/bits/basic_ios.h ****        *  std::fstream     foo;         // or some other derived type
 341:/usr/include/c++/9.1.0/bits/basic_ios.h ****        *  std::streambuf*  p = .....;
 342:/usr/include/c++/9.1.0/bits/basic_ios.h ****        *
 343:/usr/include/c++/9.1.0/bits/basic_ios.h ****        *  foo.ios::rdbuf(p);            // ios == basic_ios<char>
 344:/usr/include/c++/9.1.0/bits/basic_ios.h ****        *  @endcode
 345:/usr/include/c++/9.1.0/bits/basic_ios.h ****       */
 346:/usr/include/c++/9.1.0/bits/basic_ios.h ****       basic_streambuf<_CharT, _Traits>*
 347:/usr/include/c++/9.1.0/bits/basic_ios.h ****       rdbuf(basic_streambuf<_CharT, _Traits>* __sb);
 348:/usr/include/c++/9.1.0/bits/basic_ios.h **** 
 349:/usr/include/c++/9.1.0/bits/basic_ios.h ****       /**
 350:/usr/include/c++/9.1.0/bits/basic_ios.h ****        *  @brief  Copies fields of __rhs into this.
 351:/usr/include/c++/9.1.0/bits/basic_ios.h ****        *  @param  __rhs  The source values for the copies.
 352:/usr/include/c++/9.1.0/bits/basic_ios.h ****        *  @return  Reference to this object.
 353:/usr/include/c++/9.1.0/bits/basic_ios.h ****        *
 354:/usr/include/c++/9.1.0/bits/basic_ios.h ****        *  All fields of __rhs are copied into this object except that rdbuf()
 355:/usr/include/c++/9.1.0/bits/basic_ios.h ****        *  and rdstate() remain unchanged.  All values in the pword and iword
 356:/usr/include/c++/9.1.0/bits/basic_ios.h ****        *  arrays are copied.  Before copying, each callback is invoked with
 357:/usr/include/c++/9.1.0/bits/basic_ios.h ****        *  erase_event.  After copying, each (new) callback is invoked with
 358:/usr/include/c++/9.1.0/bits/basic_ios.h ****        *  copyfmt_event.  The final step is to copy exceptions().
 359:/usr/include/c++/9.1.0/bits/basic_ios.h ****       */
 360:/usr/include/c++/9.1.0/bits/basic_ios.h ****       basic_ios&
 361:/usr/include/c++/9.1.0/bits/basic_ios.h ****       copyfmt(const basic_ios& __rhs);
 362:/usr/include/c++/9.1.0/bits/basic_ios.h **** 
 363:/usr/include/c++/9.1.0/bits/basic_ios.h ****       /**
 364:/usr/include/c++/9.1.0/bits/basic_ios.h ****        *  @brief  Retrieves the @a empty character.
 365:/usr/include/c++/9.1.0/bits/basic_ios.h ****        *  @return  The current fill character.
 366:/usr/include/c++/9.1.0/bits/basic_ios.h ****        *
 367:/usr/include/c++/9.1.0/bits/basic_ios.h ****        *  It defaults to a space (' ') in the current locale.
 368:/usr/include/c++/9.1.0/bits/basic_ios.h ****       */
 369:/usr/include/c++/9.1.0/bits/basic_ios.h ****       char_type
 370:/usr/include/c++/9.1.0/bits/basic_ios.h ****       fill() const
 371:/usr/include/c++/9.1.0/bits/basic_ios.h ****       {
 372:/usr/include/c++/9.1.0/bits/basic_ios.h **** 	if (!_M_fill_init)
 373:/usr/include/c++/9.1.0/bits/basic_ios.h **** 	  {
 374:/usr/include/c++/9.1.0/bits/basic_ios.h **** 	    _M_fill = this->widen(' ');
 375:/usr/include/c++/9.1.0/bits/basic_ios.h **** 	    _M_fill_init = true;
 376:/usr/include/c++/9.1.0/bits/basic_ios.h **** 	  }
 377:/usr/include/c++/9.1.0/bits/basic_ios.h **** 	return _M_fill;
 378:/usr/include/c++/9.1.0/bits/basic_ios.h ****       }
 379:/usr/include/c++/9.1.0/bits/basic_ios.h **** 
 380:/usr/include/c++/9.1.0/bits/basic_ios.h ****       /**
 381:/usr/include/c++/9.1.0/bits/basic_ios.h ****        *  @brief  Sets a new @a empty character.
 382:/usr/include/c++/9.1.0/bits/basic_ios.h ****        *  @param  __ch  The new character.
 383:/usr/include/c++/9.1.0/bits/basic_ios.h ****        *  @return  The previous fill character.
 384:/usr/include/c++/9.1.0/bits/basic_ios.h ****        *
 385:/usr/include/c++/9.1.0/bits/basic_ios.h ****        *  The fill character is used to fill out space when P+ characters
 386:/usr/include/c++/9.1.0/bits/basic_ios.h ****        *  have been requested (e.g., via setw), Q characters are actually
 387:/usr/include/c++/9.1.0/bits/basic_ios.h ****        *  used, and Q<P.  It defaults to a space (' ') in the current locale.
 388:/usr/include/c++/9.1.0/bits/basic_ios.h ****       */
GAS LISTING /tmp/cc1DIh6n.s 			page 39


 389:/usr/include/c++/9.1.0/bits/basic_ios.h ****       char_type
 390:/usr/include/c++/9.1.0/bits/basic_ios.h ****       fill(char_type __ch)
 391:/usr/include/c++/9.1.0/bits/basic_ios.h ****       {
 392:/usr/include/c++/9.1.0/bits/basic_ios.h **** 	char_type __old = this->fill();
 393:/usr/include/c++/9.1.0/bits/basic_ios.h **** 	_M_fill = __ch;
 394:/usr/include/c++/9.1.0/bits/basic_ios.h **** 	return __old;
 395:/usr/include/c++/9.1.0/bits/basic_ios.h ****       }
 396:/usr/include/c++/9.1.0/bits/basic_ios.h **** 
 397:/usr/include/c++/9.1.0/bits/basic_ios.h ****       // Locales:
 398:/usr/include/c++/9.1.0/bits/basic_ios.h ****       /**
 399:/usr/include/c++/9.1.0/bits/basic_ios.h ****        *  @brief  Moves to a new locale.
 400:/usr/include/c++/9.1.0/bits/basic_ios.h ****        *  @param  __loc  The new locale.
 401:/usr/include/c++/9.1.0/bits/basic_ios.h ****        *  @return  The previous locale.
 402:/usr/include/c++/9.1.0/bits/basic_ios.h ****        *
 403:/usr/include/c++/9.1.0/bits/basic_ios.h ****        *  Calls @c ios_base::imbue(loc), and if a stream buffer is associated
 404:/usr/include/c++/9.1.0/bits/basic_ios.h ****        *  with this stream, calls that buffer's @c pubimbue(loc).
 405:/usr/include/c++/9.1.0/bits/basic_ios.h ****        *
 406:/usr/include/c++/9.1.0/bits/basic_ios.h ****        *  Additional l10n notes are at
 407:/usr/include/c++/9.1.0/bits/basic_ios.h ****        *  http://gcc.gnu.org/onlinedocs/libstdc++/manual/localization.html
 408:/usr/include/c++/9.1.0/bits/basic_ios.h ****       */
 409:/usr/include/c++/9.1.0/bits/basic_ios.h ****       locale
 410:/usr/include/c++/9.1.0/bits/basic_ios.h ****       imbue(const locale& __loc);
 411:/usr/include/c++/9.1.0/bits/basic_ios.h **** 
 412:/usr/include/c++/9.1.0/bits/basic_ios.h ****       /**
 413:/usr/include/c++/9.1.0/bits/basic_ios.h ****        *  @brief  Squeezes characters.
 414:/usr/include/c++/9.1.0/bits/basic_ios.h ****        *  @param  __c  The character to narrow.
 415:/usr/include/c++/9.1.0/bits/basic_ios.h ****        *  @param  __dfault  The character to narrow.
 416:/usr/include/c++/9.1.0/bits/basic_ios.h ****        *  @return  The narrowed character.
 417:/usr/include/c++/9.1.0/bits/basic_ios.h ****        *
 418:/usr/include/c++/9.1.0/bits/basic_ios.h ****        *  Maps a character of @c char_type to a character of @c char,
 419:/usr/include/c++/9.1.0/bits/basic_ios.h ****        *  if possible.
 420:/usr/include/c++/9.1.0/bits/basic_ios.h ****        *
 421:/usr/include/c++/9.1.0/bits/basic_ios.h ****        *  Returns the result of
 422:/usr/include/c++/9.1.0/bits/basic_ios.h ****        *  @code
 423:/usr/include/c++/9.1.0/bits/basic_ios.h ****        *    std::use_facet<ctype<char_type> >(getloc()).narrow(c,dfault)
 424:/usr/include/c++/9.1.0/bits/basic_ios.h ****        *  @endcode
 425:/usr/include/c++/9.1.0/bits/basic_ios.h ****        *
 426:/usr/include/c++/9.1.0/bits/basic_ios.h ****        *  Additional l10n notes are at
 427:/usr/include/c++/9.1.0/bits/basic_ios.h ****        *  http://gcc.gnu.org/onlinedocs/libstdc++/manual/localization.html
 428:/usr/include/c++/9.1.0/bits/basic_ios.h ****       */
 429:/usr/include/c++/9.1.0/bits/basic_ios.h ****       char
 430:/usr/include/c++/9.1.0/bits/basic_ios.h ****       narrow(char_type __c, char __dfault) const
 431:/usr/include/c++/9.1.0/bits/basic_ios.h ****       { return __check_facet(_M_ctype).narrow(__c, __dfault); }
 432:/usr/include/c++/9.1.0/bits/basic_ios.h **** 
 433:/usr/include/c++/9.1.0/bits/basic_ios.h ****       /**
 434:/usr/include/c++/9.1.0/bits/basic_ios.h ****        *  @brief  Widens characters.
 435:/usr/include/c++/9.1.0/bits/basic_ios.h ****        *  @param  __c  The character to widen.
 436:/usr/include/c++/9.1.0/bits/basic_ios.h ****        *  @return  The widened character.
 437:/usr/include/c++/9.1.0/bits/basic_ios.h ****        *
 438:/usr/include/c++/9.1.0/bits/basic_ios.h ****        *  Maps a character of @c char to a character of @c char_type.
 439:/usr/include/c++/9.1.0/bits/basic_ios.h ****        *
 440:/usr/include/c++/9.1.0/bits/basic_ios.h ****        *  Returns the result of
 441:/usr/include/c++/9.1.0/bits/basic_ios.h ****        *  @code
 442:/usr/include/c++/9.1.0/bits/basic_ios.h ****        *    std::use_facet<ctype<char_type> >(getloc()).widen(c)
 443:/usr/include/c++/9.1.0/bits/basic_ios.h ****        *  @endcode
 444:/usr/include/c++/9.1.0/bits/basic_ios.h ****        *
 445:/usr/include/c++/9.1.0/bits/basic_ios.h ****        *  Additional l10n notes are at
GAS LISTING /tmp/cc1DIh6n.s 			page 40


 446:/usr/include/c++/9.1.0/bits/basic_ios.h ****        *  http://gcc.gnu.org/onlinedocs/libstdc++/manual/localization.html
 447:/usr/include/c++/9.1.0/bits/basic_ios.h ****       */
 448:/usr/include/c++/9.1.0/bits/basic_ios.h ****       char_type
 449:/usr/include/c++/9.1.0/bits/basic_ios.h ****       widen(char __c) const
 236              		.loc 5 449 7 is_stmt 1 view .LVU56
 237              	.LBB190:
 450:/usr/include/c++/9.1.0/bits/basic_ios.h ****       { return __check_facet(_M_ctype).widen(__c); }
 238              		.loc 5 450 30 is_stmt 0 view .LVU57
 239 0115 4C8BA1F0 		movq	240(%rcx), %r12
 239      000000
 240              	.LVL31:
 241              	.LBB191:
 242              	.LBI191:
  47:/usr/include/c++/9.1.0/bits/basic_ios.h ****     {
 243              		.loc 5 47 5 is_stmt 1 view .LVU58
 244              	.LBB192:
  49:/usr/include/c++/9.1.0/bits/basic_ios.h **** 	__throw_bad_cast();
 245              		.loc 5 49 7 is_stmt 0 view .LVU59
 246 011c 4D85E4   		testq	%r12, %r12
 247 011f 742D     		je	.L20
 248              	.LVL32:
  49:/usr/include/c++/9.1.0/bits/basic_ios.h **** 	__throw_bad_cast();
 249              		.loc 5 49 7 view .LVU60
 250              	.LBE192:
 251              	.LBE191:
 252              	.LBB194:
 253              	.LBI194:
 254              		.file 6 "/usr/include/c++/9.1.0/bits/locale_facets.h"
   1:/usr/include/c++/9.1.0/bits/locale_facets.h **** // Locale support -*- C++ -*-
   2:/usr/include/c++/9.1.0/bits/locale_facets.h **** 
   3:/usr/include/c++/9.1.0/bits/locale_facets.h **** // Copyright (C) 1997-2019 Free Software Foundation, Inc.
   4:/usr/include/c++/9.1.0/bits/locale_facets.h **** //
   5:/usr/include/c++/9.1.0/bits/locale_facets.h **** // This file is part of the GNU ISO C++ Library.  This library is free
   6:/usr/include/c++/9.1.0/bits/locale_facets.h **** // software; you can redistribute it and/or modify it under the
   7:/usr/include/c++/9.1.0/bits/locale_facets.h **** // terms of the GNU General Public License as published by the
   8:/usr/include/c++/9.1.0/bits/locale_facets.h **** // Free Software Foundation; either version 3, or (at your option)
   9:/usr/include/c++/9.1.0/bits/locale_facets.h **** // any later version.
  10:/usr/include/c++/9.1.0/bits/locale_facets.h **** 
  11:/usr/include/c++/9.1.0/bits/locale_facets.h **** // This library is distributed in the hope that it will be useful,
  12:/usr/include/c++/9.1.0/bits/locale_facets.h **** // but WITHOUT ANY WARRANTY; without even the implied warranty of
  13:/usr/include/c++/9.1.0/bits/locale_facets.h **** // MERCHANTABILITY or FITNESS FOR A PARTICULAR PURPOSE.  See the
  14:/usr/include/c++/9.1.0/bits/locale_facets.h **** // GNU General Public License for more details.
  15:/usr/include/c++/9.1.0/bits/locale_facets.h **** 
  16:/usr/include/c++/9.1.0/bits/locale_facets.h **** // Under Section 7 of GPL version 3, you are granted additional
  17:/usr/include/c++/9.1.0/bits/locale_facets.h **** // permissions described in the GCC Runtime Library Exception, version
  18:/usr/include/c++/9.1.0/bits/locale_facets.h **** // 3.1, as published by the Free Software Foundation.
  19:/usr/include/c++/9.1.0/bits/locale_facets.h **** 
  20:/usr/include/c++/9.1.0/bits/locale_facets.h **** // You should have received a copy of the GNU General Public License and
  21:/usr/include/c++/9.1.0/bits/locale_facets.h **** // a copy of the GCC Runtime Library Exception along with this program;
  22:/usr/include/c++/9.1.0/bits/locale_facets.h **** // see the files COPYING3 and COPYING.RUNTIME respectively.  If not, see
  23:/usr/include/c++/9.1.0/bits/locale_facets.h **** // <http://www.gnu.org/licenses/>.
  24:/usr/include/c++/9.1.0/bits/locale_facets.h **** 
  25:/usr/include/c++/9.1.0/bits/locale_facets.h **** /** @file bits/locale_facets.h
  26:/usr/include/c++/9.1.0/bits/locale_facets.h ****  *  This is an internal header file, included by other library headers.
  27:/usr/include/c++/9.1.0/bits/locale_facets.h ****  *  Do not attempt to use it directly. @headername{locale}
  28:/usr/include/c++/9.1.0/bits/locale_facets.h ****  */
  29:/usr/include/c++/9.1.0/bits/locale_facets.h **** 
GAS LISTING /tmp/cc1DIh6n.s 			page 41


  30:/usr/include/c++/9.1.0/bits/locale_facets.h **** //
  31:/usr/include/c++/9.1.0/bits/locale_facets.h **** // ISO C++ 14882: 22.1  Locales
  32:/usr/include/c++/9.1.0/bits/locale_facets.h **** //
  33:/usr/include/c++/9.1.0/bits/locale_facets.h **** 
  34:/usr/include/c++/9.1.0/bits/locale_facets.h **** #ifndef _LOCALE_FACETS_H
  35:/usr/include/c++/9.1.0/bits/locale_facets.h **** #define _LOCALE_FACETS_H 1
  36:/usr/include/c++/9.1.0/bits/locale_facets.h **** 
  37:/usr/include/c++/9.1.0/bits/locale_facets.h **** #pragma GCC system_header
  38:/usr/include/c++/9.1.0/bits/locale_facets.h **** 
  39:/usr/include/c++/9.1.0/bits/locale_facets.h **** #include <cwctype>	// For wctype_t
  40:/usr/include/c++/9.1.0/bits/locale_facets.h **** #include <cctype>
  41:/usr/include/c++/9.1.0/bits/locale_facets.h **** #include <bits/ctype_base.h>
  42:/usr/include/c++/9.1.0/bits/locale_facets.h **** #include <iosfwd>
  43:/usr/include/c++/9.1.0/bits/locale_facets.h **** #include <bits/ios_base.h>  // For ios_base, ios_base::iostate
  44:/usr/include/c++/9.1.0/bits/locale_facets.h **** #include <streambuf>
  45:/usr/include/c++/9.1.0/bits/locale_facets.h **** #include <bits/cpp_type_traits.h>
  46:/usr/include/c++/9.1.0/bits/locale_facets.h **** #include <ext/type_traits.h>
  47:/usr/include/c++/9.1.0/bits/locale_facets.h **** #include <ext/numeric_traits.h>
  48:/usr/include/c++/9.1.0/bits/locale_facets.h **** #include <bits/streambuf_iterator.h>
  49:/usr/include/c++/9.1.0/bits/locale_facets.h **** 
  50:/usr/include/c++/9.1.0/bits/locale_facets.h **** namespace std _GLIBCXX_VISIBILITY(default)
  51:/usr/include/c++/9.1.0/bits/locale_facets.h **** {
  52:/usr/include/c++/9.1.0/bits/locale_facets.h **** _GLIBCXX_BEGIN_NAMESPACE_VERSION
  53:/usr/include/c++/9.1.0/bits/locale_facets.h **** 
  54:/usr/include/c++/9.1.0/bits/locale_facets.h ****   // NB: Don't instantiate required wchar_t facets if no wchar_t support.
  55:/usr/include/c++/9.1.0/bits/locale_facets.h **** #ifdef _GLIBCXX_USE_WCHAR_T
  56:/usr/include/c++/9.1.0/bits/locale_facets.h **** # define  _GLIBCXX_NUM_FACETS 28
  57:/usr/include/c++/9.1.0/bits/locale_facets.h **** # define  _GLIBCXX_NUM_CXX11_FACETS 16
  58:/usr/include/c++/9.1.0/bits/locale_facets.h **** #else
  59:/usr/include/c++/9.1.0/bits/locale_facets.h **** # define  _GLIBCXX_NUM_FACETS 14
  60:/usr/include/c++/9.1.0/bits/locale_facets.h **** # define  _GLIBCXX_NUM_CXX11_FACETS 8
  61:/usr/include/c++/9.1.0/bits/locale_facets.h **** #endif
  62:/usr/include/c++/9.1.0/bits/locale_facets.h **** #ifdef _GLIBCXX_USE_CHAR8_T
  63:/usr/include/c++/9.1.0/bits/locale_facets.h **** # define _GLIBCXX_NUM_UNICODE_FACETS 4
  64:/usr/include/c++/9.1.0/bits/locale_facets.h **** #else
  65:/usr/include/c++/9.1.0/bits/locale_facets.h **** # define _GLIBCXX_NUM_UNICODE_FACETS 2
  66:/usr/include/c++/9.1.0/bits/locale_facets.h **** #endif
  67:/usr/include/c++/9.1.0/bits/locale_facets.h **** 
  68:/usr/include/c++/9.1.0/bits/locale_facets.h ****   // Convert string to numeric value of type _Tp and store results.
  69:/usr/include/c++/9.1.0/bits/locale_facets.h ****   // NB: This is specialized for all required types, there is no
  70:/usr/include/c++/9.1.0/bits/locale_facets.h ****   // generic definition.
  71:/usr/include/c++/9.1.0/bits/locale_facets.h ****   template<typename _Tp>
  72:/usr/include/c++/9.1.0/bits/locale_facets.h ****     void
  73:/usr/include/c++/9.1.0/bits/locale_facets.h ****     __convert_to_v(const char*, _Tp&, ios_base::iostate&,
  74:/usr/include/c++/9.1.0/bits/locale_facets.h **** 		   const __c_locale&) throw();
  75:/usr/include/c++/9.1.0/bits/locale_facets.h **** 
  76:/usr/include/c++/9.1.0/bits/locale_facets.h ****   // Explicit specializations for required types.
  77:/usr/include/c++/9.1.0/bits/locale_facets.h ****   template<>
  78:/usr/include/c++/9.1.0/bits/locale_facets.h ****     void
  79:/usr/include/c++/9.1.0/bits/locale_facets.h ****     __convert_to_v(const char*, float&, ios_base::iostate&,
  80:/usr/include/c++/9.1.0/bits/locale_facets.h **** 		   const __c_locale&) throw();
  81:/usr/include/c++/9.1.0/bits/locale_facets.h **** 
  82:/usr/include/c++/9.1.0/bits/locale_facets.h ****   template<>
  83:/usr/include/c++/9.1.0/bits/locale_facets.h ****     void
  84:/usr/include/c++/9.1.0/bits/locale_facets.h ****     __convert_to_v(const char*, double&, ios_base::iostate&,
  85:/usr/include/c++/9.1.0/bits/locale_facets.h **** 		   const __c_locale&) throw();
  86:/usr/include/c++/9.1.0/bits/locale_facets.h **** 
GAS LISTING /tmp/cc1DIh6n.s 			page 42


  87:/usr/include/c++/9.1.0/bits/locale_facets.h ****   template<>
  88:/usr/include/c++/9.1.0/bits/locale_facets.h ****     void
  89:/usr/include/c++/9.1.0/bits/locale_facets.h ****     __convert_to_v(const char*, long double&, ios_base::iostate&,
  90:/usr/include/c++/9.1.0/bits/locale_facets.h **** 		   const __c_locale&) throw();
  91:/usr/include/c++/9.1.0/bits/locale_facets.h **** 
  92:/usr/include/c++/9.1.0/bits/locale_facets.h ****   // NB: __pad is a struct, rather than a function, so it can be
  93:/usr/include/c++/9.1.0/bits/locale_facets.h ****   // partially-specialized.
  94:/usr/include/c++/9.1.0/bits/locale_facets.h ****   template<typename _CharT, typename _Traits>
  95:/usr/include/c++/9.1.0/bits/locale_facets.h ****     struct __pad
  96:/usr/include/c++/9.1.0/bits/locale_facets.h ****     {
  97:/usr/include/c++/9.1.0/bits/locale_facets.h ****       static void
  98:/usr/include/c++/9.1.0/bits/locale_facets.h ****       _S_pad(ios_base& __io, _CharT __fill, _CharT* __news,
  99:/usr/include/c++/9.1.0/bits/locale_facets.h **** 	     const _CharT* __olds, streamsize __newlen, streamsize __oldlen);
 100:/usr/include/c++/9.1.0/bits/locale_facets.h ****     };
 101:/usr/include/c++/9.1.0/bits/locale_facets.h **** 
 102:/usr/include/c++/9.1.0/bits/locale_facets.h ****   // Used by both numeric and monetary facets.
 103:/usr/include/c++/9.1.0/bits/locale_facets.h ****   // Inserts "group separator" characters into an array of characters.
 104:/usr/include/c++/9.1.0/bits/locale_facets.h ****   // It's recursive, one iteration per group.  It moves the characters
 105:/usr/include/c++/9.1.0/bits/locale_facets.h ****   // in the buffer this way: "xxxx12345" -> "12,345xxx".  Call this
 106:/usr/include/c++/9.1.0/bits/locale_facets.h ****   // only with __gsize != 0.
 107:/usr/include/c++/9.1.0/bits/locale_facets.h ****   template<typename _CharT>
 108:/usr/include/c++/9.1.0/bits/locale_facets.h ****     _CharT*
 109:/usr/include/c++/9.1.0/bits/locale_facets.h ****     __add_grouping(_CharT* __s, _CharT __sep,
 110:/usr/include/c++/9.1.0/bits/locale_facets.h **** 		   const char* __gbeg, size_t __gsize,
 111:/usr/include/c++/9.1.0/bits/locale_facets.h **** 		   const _CharT* __first, const _CharT* __last);
 112:/usr/include/c++/9.1.0/bits/locale_facets.h **** 
 113:/usr/include/c++/9.1.0/bits/locale_facets.h ****   // This template permits specializing facet output code for
 114:/usr/include/c++/9.1.0/bits/locale_facets.h ****   // ostreambuf_iterator.  For ostreambuf_iterator, sputn is
 115:/usr/include/c++/9.1.0/bits/locale_facets.h ****   // significantly more efficient than incrementing iterators.
 116:/usr/include/c++/9.1.0/bits/locale_facets.h ****   template<typename _CharT>
 117:/usr/include/c++/9.1.0/bits/locale_facets.h ****     inline
 118:/usr/include/c++/9.1.0/bits/locale_facets.h ****     ostreambuf_iterator<_CharT>
 119:/usr/include/c++/9.1.0/bits/locale_facets.h ****     __write(ostreambuf_iterator<_CharT> __s, const _CharT* __ws, int __len)
 120:/usr/include/c++/9.1.0/bits/locale_facets.h ****     {
 121:/usr/include/c++/9.1.0/bits/locale_facets.h ****       __s._M_put(__ws, __len);
 122:/usr/include/c++/9.1.0/bits/locale_facets.h ****       return __s;
 123:/usr/include/c++/9.1.0/bits/locale_facets.h ****     }
 124:/usr/include/c++/9.1.0/bits/locale_facets.h **** 
 125:/usr/include/c++/9.1.0/bits/locale_facets.h ****   // This is the unspecialized form of the template.
 126:/usr/include/c++/9.1.0/bits/locale_facets.h ****   template<typename _CharT, typename _OutIter>
 127:/usr/include/c++/9.1.0/bits/locale_facets.h ****     inline
 128:/usr/include/c++/9.1.0/bits/locale_facets.h ****     _OutIter
 129:/usr/include/c++/9.1.0/bits/locale_facets.h ****     __write(_OutIter __s, const _CharT* __ws, int __len)
 130:/usr/include/c++/9.1.0/bits/locale_facets.h ****     {
 131:/usr/include/c++/9.1.0/bits/locale_facets.h ****       for (int __j = 0; __j < __len; __j++, ++__s)
 132:/usr/include/c++/9.1.0/bits/locale_facets.h **** 	*__s = __ws[__j];
 133:/usr/include/c++/9.1.0/bits/locale_facets.h ****       return __s;
 134:/usr/include/c++/9.1.0/bits/locale_facets.h ****     }
 135:/usr/include/c++/9.1.0/bits/locale_facets.h **** 
 136:/usr/include/c++/9.1.0/bits/locale_facets.h **** 
 137:/usr/include/c++/9.1.0/bits/locale_facets.h ****   // 22.2.1.1  Template class ctype
 138:/usr/include/c++/9.1.0/bits/locale_facets.h ****   // Include host and configuration specific ctype enums for ctype_base.
 139:/usr/include/c++/9.1.0/bits/locale_facets.h **** 
 140:/usr/include/c++/9.1.0/bits/locale_facets.h ****   /**
 141:/usr/include/c++/9.1.0/bits/locale_facets.h ****    *  @brief  Common base for ctype facet
 142:/usr/include/c++/9.1.0/bits/locale_facets.h ****    *
 143:/usr/include/c++/9.1.0/bits/locale_facets.h ****    *  This template class provides implementations of the public functions
GAS LISTING /tmp/cc1DIh6n.s 			page 43


 144:/usr/include/c++/9.1.0/bits/locale_facets.h ****    *  that forward to the protected virtual functions.
 145:/usr/include/c++/9.1.0/bits/locale_facets.h ****    *
 146:/usr/include/c++/9.1.0/bits/locale_facets.h ****    *  This template also provides abstract stubs for the protected virtual
 147:/usr/include/c++/9.1.0/bits/locale_facets.h ****    *  functions.
 148:/usr/include/c++/9.1.0/bits/locale_facets.h ****   */
 149:/usr/include/c++/9.1.0/bits/locale_facets.h ****   template<typename _CharT>
 150:/usr/include/c++/9.1.0/bits/locale_facets.h ****     class __ctype_abstract_base : public locale::facet, public ctype_base
 151:/usr/include/c++/9.1.0/bits/locale_facets.h ****     {
 152:/usr/include/c++/9.1.0/bits/locale_facets.h ****     public:
 153:/usr/include/c++/9.1.0/bits/locale_facets.h ****       // Types:
 154:/usr/include/c++/9.1.0/bits/locale_facets.h ****       /// Typedef for the template parameter
 155:/usr/include/c++/9.1.0/bits/locale_facets.h ****       typedef _CharT char_type;
 156:/usr/include/c++/9.1.0/bits/locale_facets.h **** 
 157:/usr/include/c++/9.1.0/bits/locale_facets.h ****       /**
 158:/usr/include/c++/9.1.0/bits/locale_facets.h ****        *  @brief  Test char_type classification.
 159:/usr/include/c++/9.1.0/bits/locale_facets.h ****        *
 160:/usr/include/c++/9.1.0/bits/locale_facets.h ****        *  This function finds a mask M for @a __c and compares it to
 161:/usr/include/c++/9.1.0/bits/locale_facets.h ****        *  mask @a __m.  It does so by returning the value of
 162:/usr/include/c++/9.1.0/bits/locale_facets.h ****        *  ctype<char_type>::do_is().
 163:/usr/include/c++/9.1.0/bits/locale_facets.h ****        *
 164:/usr/include/c++/9.1.0/bits/locale_facets.h ****        *  @param __c  The char_type to compare the mask of.
 165:/usr/include/c++/9.1.0/bits/locale_facets.h ****        *  @param __m  The mask to compare against.
 166:/usr/include/c++/9.1.0/bits/locale_facets.h ****        *  @return  (M & __m) != 0.
 167:/usr/include/c++/9.1.0/bits/locale_facets.h ****       */
 168:/usr/include/c++/9.1.0/bits/locale_facets.h ****       bool
 169:/usr/include/c++/9.1.0/bits/locale_facets.h ****       is(mask __m, char_type __c) const
 170:/usr/include/c++/9.1.0/bits/locale_facets.h ****       { return this->do_is(__m, __c); }
 171:/usr/include/c++/9.1.0/bits/locale_facets.h **** 
 172:/usr/include/c++/9.1.0/bits/locale_facets.h ****       /**
 173:/usr/include/c++/9.1.0/bits/locale_facets.h ****        *  @brief  Return a mask array.
 174:/usr/include/c++/9.1.0/bits/locale_facets.h ****        *
 175:/usr/include/c++/9.1.0/bits/locale_facets.h ****        *  This function finds the mask for each char_type in the range [lo,hi)
 176:/usr/include/c++/9.1.0/bits/locale_facets.h ****        *  and successively writes it to vec.  vec must have as many elements
 177:/usr/include/c++/9.1.0/bits/locale_facets.h ****        *  as the char array.  It does so by returning the value of
 178:/usr/include/c++/9.1.0/bits/locale_facets.h ****        *  ctype<char_type>::do_is().
 179:/usr/include/c++/9.1.0/bits/locale_facets.h ****        *
 180:/usr/include/c++/9.1.0/bits/locale_facets.h ****        *  @param __lo  Pointer to start of range.
 181:/usr/include/c++/9.1.0/bits/locale_facets.h ****        *  @param __hi  Pointer to end of range.
 182:/usr/include/c++/9.1.0/bits/locale_facets.h ****        *  @param __vec  Pointer to an array of mask storage.
 183:/usr/include/c++/9.1.0/bits/locale_facets.h ****        *  @return  @a __hi.
 184:/usr/include/c++/9.1.0/bits/locale_facets.h ****       */
 185:/usr/include/c++/9.1.0/bits/locale_facets.h ****       const char_type*
 186:/usr/include/c++/9.1.0/bits/locale_facets.h ****       is(const char_type *__lo, const char_type *__hi, mask *__vec) const
 187:/usr/include/c++/9.1.0/bits/locale_facets.h ****       { return this->do_is(__lo, __hi, __vec); }
 188:/usr/include/c++/9.1.0/bits/locale_facets.h **** 
 189:/usr/include/c++/9.1.0/bits/locale_facets.h ****       /**
 190:/usr/include/c++/9.1.0/bits/locale_facets.h ****        *  @brief  Find char_type matching a mask
 191:/usr/include/c++/9.1.0/bits/locale_facets.h ****        *
 192:/usr/include/c++/9.1.0/bits/locale_facets.h ****        *  This function searches for and returns the first char_type c in
 193:/usr/include/c++/9.1.0/bits/locale_facets.h ****        *  [lo,hi) for which is(m,c) is true.  It does so by returning
 194:/usr/include/c++/9.1.0/bits/locale_facets.h ****        *  ctype<char_type>::do_scan_is().
 195:/usr/include/c++/9.1.0/bits/locale_facets.h ****        *
 196:/usr/include/c++/9.1.0/bits/locale_facets.h ****        *  @param __m  The mask to compare against.
 197:/usr/include/c++/9.1.0/bits/locale_facets.h ****        *  @param __lo  Pointer to start of range.
 198:/usr/include/c++/9.1.0/bits/locale_facets.h ****        *  @param __hi  Pointer to end of range.
 199:/usr/include/c++/9.1.0/bits/locale_facets.h ****        *  @return  Pointer to matching char_type if found, else @a __hi.
 200:/usr/include/c++/9.1.0/bits/locale_facets.h ****       */
GAS LISTING /tmp/cc1DIh6n.s 			page 44


 201:/usr/include/c++/9.1.0/bits/locale_facets.h ****       const char_type*
 202:/usr/include/c++/9.1.0/bits/locale_facets.h ****       scan_is(mask __m, const char_type* __lo, const char_type* __hi) const
 203:/usr/include/c++/9.1.0/bits/locale_facets.h ****       { return this->do_scan_is(__m, __lo, __hi); }
 204:/usr/include/c++/9.1.0/bits/locale_facets.h **** 
 205:/usr/include/c++/9.1.0/bits/locale_facets.h ****       /**
 206:/usr/include/c++/9.1.0/bits/locale_facets.h ****        *  @brief  Find char_type not matching a mask
 207:/usr/include/c++/9.1.0/bits/locale_facets.h ****        *
 208:/usr/include/c++/9.1.0/bits/locale_facets.h ****        *  This function searches for and returns the first char_type c in
 209:/usr/include/c++/9.1.0/bits/locale_facets.h ****        *  [lo,hi) for which is(m,c) is false.  It does so by returning
 210:/usr/include/c++/9.1.0/bits/locale_facets.h ****        *  ctype<char_type>::do_scan_not().
 211:/usr/include/c++/9.1.0/bits/locale_facets.h ****        *
 212:/usr/include/c++/9.1.0/bits/locale_facets.h ****        *  @param __m  The mask to compare against.
 213:/usr/include/c++/9.1.0/bits/locale_facets.h ****        *  @param __lo  Pointer to first char in range.
 214:/usr/include/c++/9.1.0/bits/locale_facets.h ****        *  @param __hi  Pointer to end of range.
 215:/usr/include/c++/9.1.0/bits/locale_facets.h ****        *  @return  Pointer to non-matching char if found, else @a __hi.
 216:/usr/include/c++/9.1.0/bits/locale_facets.h ****       */
 217:/usr/include/c++/9.1.0/bits/locale_facets.h ****       const char_type*
 218:/usr/include/c++/9.1.0/bits/locale_facets.h ****       scan_not(mask __m, const char_type* __lo, const char_type* __hi) const
 219:/usr/include/c++/9.1.0/bits/locale_facets.h ****       { return this->do_scan_not(__m, __lo, __hi); }
 220:/usr/include/c++/9.1.0/bits/locale_facets.h **** 
 221:/usr/include/c++/9.1.0/bits/locale_facets.h ****       /**
 222:/usr/include/c++/9.1.0/bits/locale_facets.h ****        *  @brief  Convert to uppercase.
 223:/usr/include/c++/9.1.0/bits/locale_facets.h ****        *
 224:/usr/include/c++/9.1.0/bits/locale_facets.h ****        *  This function converts the argument to uppercase if possible.
 225:/usr/include/c++/9.1.0/bits/locale_facets.h ****        *  If not possible (for example, '2'), returns the argument.  It does
 226:/usr/include/c++/9.1.0/bits/locale_facets.h ****        *  so by returning ctype<char_type>::do_toupper().
 227:/usr/include/c++/9.1.0/bits/locale_facets.h ****        *
 228:/usr/include/c++/9.1.0/bits/locale_facets.h ****        *  @param __c  The char_type to convert.
 229:/usr/include/c++/9.1.0/bits/locale_facets.h ****        *  @return  The uppercase char_type if convertible, else @a __c.
 230:/usr/include/c++/9.1.0/bits/locale_facets.h ****       */
 231:/usr/include/c++/9.1.0/bits/locale_facets.h ****       char_type
 232:/usr/include/c++/9.1.0/bits/locale_facets.h ****       toupper(char_type __c) const
 233:/usr/include/c++/9.1.0/bits/locale_facets.h ****       { return this->do_toupper(__c); }
 234:/usr/include/c++/9.1.0/bits/locale_facets.h **** 
 235:/usr/include/c++/9.1.0/bits/locale_facets.h ****       /**
 236:/usr/include/c++/9.1.0/bits/locale_facets.h ****        *  @brief  Convert array to uppercase.
 237:/usr/include/c++/9.1.0/bits/locale_facets.h ****        *
 238:/usr/include/c++/9.1.0/bits/locale_facets.h ****        *  This function converts each char_type in the range [lo,hi) to
 239:/usr/include/c++/9.1.0/bits/locale_facets.h ****        *  uppercase if possible.  Other elements remain untouched.  It does so
 240:/usr/include/c++/9.1.0/bits/locale_facets.h ****        *  by returning ctype<char_type>:: do_toupper(lo, hi).
 241:/usr/include/c++/9.1.0/bits/locale_facets.h ****        *
 242:/usr/include/c++/9.1.0/bits/locale_facets.h ****        *  @param __lo  Pointer to start of range.
 243:/usr/include/c++/9.1.0/bits/locale_facets.h ****        *  @param __hi  Pointer to end of range.
 244:/usr/include/c++/9.1.0/bits/locale_facets.h ****        *  @return  @a __hi.
 245:/usr/include/c++/9.1.0/bits/locale_facets.h ****       */
 246:/usr/include/c++/9.1.0/bits/locale_facets.h ****       const char_type*
 247:/usr/include/c++/9.1.0/bits/locale_facets.h ****       toupper(char_type *__lo, const char_type* __hi) const
 248:/usr/include/c++/9.1.0/bits/locale_facets.h ****       { return this->do_toupper(__lo, __hi); }
 249:/usr/include/c++/9.1.0/bits/locale_facets.h **** 
 250:/usr/include/c++/9.1.0/bits/locale_facets.h ****       /**
 251:/usr/include/c++/9.1.0/bits/locale_facets.h ****        *  @brief  Convert to lowercase.
 252:/usr/include/c++/9.1.0/bits/locale_facets.h ****        *
 253:/usr/include/c++/9.1.0/bits/locale_facets.h ****        *  This function converts the argument to lowercase if possible.  If
 254:/usr/include/c++/9.1.0/bits/locale_facets.h ****        *  not possible (for example, '2'), returns the argument.  It does so
 255:/usr/include/c++/9.1.0/bits/locale_facets.h ****        *  by returning ctype<char_type>::do_tolower(c).
 256:/usr/include/c++/9.1.0/bits/locale_facets.h ****        *
 257:/usr/include/c++/9.1.0/bits/locale_facets.h ****        *  @param __c  The char_type to convert.
GAS LISTING /tmp/cc1DIh6n.s 			page 45


 258:/usr/include/c++/9.1.0/bits/locale_facets.h ****        *  @return  The lowercase char_type if convertible, else @a __c.
 259:/usr/include/c++/9.1.0/bits/locale_facets.h ****       */
 260:/usr/include/c++/9.1.0/bits/locale_facets.h ****       char_type
 261:/usr/include/c++/9.1.0/bits/locale_facets.h ****       tolower(char_type __c) const
 262:/usr/include/c++/9.1.0/bits/locale_facets.h ****       { return this->do_tolower(__c); }
 263:/usr/include/c++/9.1.0/bits/locale_facets.h **** 
 264:/usr/include/c++/9.1.0/bits/locale_facets.h ****       /**
 265:/usr/include/c++/9.1.0/bits/locale_facets.h ****        *  @brief  Convert array to lowercase.
 266:/usr/include/c++/9.1.0/bits/locale_facets.h ****        *
 267:/usr/include/c++/9.1.0/bits/locale_facets.h ****        *  This function converts each char_type in the range [__lo,__hi) to
 268:/usr/include/c++/9.1.0/bits/locale_facets.h ****        *  lowercase if possible.  Other elements remain untouched.  It does so
 269:/usr/include/c++/9.1.0/bits/locale_facets.h ****        *  by returning ctype<char_type>:: do_tolower(__lo, __hi).
 270:/usr/include/c++/9.1.0/bits/locale_facets.h ****        *
 271:/usr/include/c++/9.1.0/bits/locale_facets.h ****        *  @param __lo  Pointer to start of range.
 272:/usr/include/c++/9.1.0/bits/locale_facets.h ****        *  @param __hi  Pointer to end of range.
 273:/usr/include/c++/9.1.0/bits/locale_facets.h ****        *  @return  @a __hi.
 274:/usr/include/c++/9.1.0/bits/locale_facets.h ****       */
 275:/usr/include/c++/9.1.0/bits/locale_facets.h ****       const char_type*
 276:/usr/include/c++/9.1.0/bits/locale_facets.h ****       tolower(char_type* __lo, const char_type* __hi) const
 277:/usr/include/c++/9.1.0/bits/locale_facets.h ****       { return this->do_tolower(__lo, __hi); }
 278:/usr/include/c++/9.1.0/bits/locale_facets.h **** 
 279:/usr/include/c++/9.1.0/bits/locale_facets.h ****       /**
 280:/usr/include/c++/9.1.0/bits/locale_facets.h ****        *  @brief  Widen char to char_type
 281:/usr/include/c++/9.1.0/bits/locale_facets.h ****        *
 282:/usr/include/c++/9.1.0/bits/locale_facets.h ****        *  This function converts the char argument to char_type using the
 283:/usr/include/c++/9.1.0/bits/locale_facets.h ****        *  simplest reasonable transformation.  It does so by returning
 284:/usr/include/c++/9.1.0/bits/locale_facets.h ****        *  ctype<char_type>::do_widen(c).
 285:/usr/include/c++/9.1.0/bits/locale_facets.h ****        *
 286:/usr/include/c++/9.1.0/bits/locale_facets.h ****        *  Note: this is not what you want for codepage conversions.  See
 287:/usr/include/c++/9.1.0/bits/locale_facets.h ****        *  codecvt for that.
 288:/usr/include/c++/9.1.0/bits/locale_facets.h ****        *
 289:/usr/include/c++/9.1.0/bits/locale_facets.h ****        *  @param __c  The char to convert.
 290:/usr/include/c++/9.1.0/bits/locale_facets.h ****        *  @return  The converted char_type.
 291:/usr/include/c++/9.1.0/bits/locale_facets.h ****       */
 292:/usr/include/c++/9.1.0/bits/locale_facets.h ****       char_type
 293:/usr/include/c++/9.1.0/bits/locale_facets.h ****       widen(char __c) const
 294:/usr/include/c++/9.1.0/bits/locale_facets.h ****       { return this->do_widen(__c); }
 295:/usr/include/c++/9.1.0/bits/locale_facets.h **** 
 296:/usr/include/c++/9.1.0/bits/locale_facets.h ****       /**
 297:/usr/include/c++/9.1.0/bits/locale_facets.h ****        *  @brief  Widen array to char_type
 298:/usr/include/c++/9.1.0/bits/locale_facets.h ****        *
 299:/usr/include/c++/9.1.0/bits/locale_facets.h ****        *  This function converts each char in the input to char_type using the
 300:/usr/include/c++/9.1.0/bits/locale_facets.h ****        *  simplest reasonable transformation.  It does so by returning
 301:/usr/include/c++/9.1.0/bits/locale_facets.h ****        *  ctype<char_type>::do_widen(c).
 302:/usr/include/c++/9.1.0/bits/locale_facets.h ****        *
 303:/usr/include/c++/9.1.0/bits/locale_facets.h ****        *  Note: this is not what you want for codepage conversions.  See
 304:/usr/include/c++/9.1.0/bits/locale_facets.h ****        *  codecvt for that.
 305:/usr/include/c++/9.1.0/bits/locale_facets.h ****        *
 306:/usr/include/c++/9.1.0/bits/locale_facets.h ****        *  @param __lo  Pointer to start of range.
 307:/usr/include/c++/9.1.0/bits/locale_facets.h ****        *  @param __hi  Pointer to end of range.
 308:/usr/include/c++/9.1.0/bits/locale_facets.h ****        *  @param __to  Pointer to the destination array.
 309:/usr/include/c++/9.1.0/bits/locale_facets.h ****        *  @return  @a __hi.
 310:/usr/include/c++/9.1.0/bits/locale_facets.h ****       */
 311:/usr/include/c++/9.1.0/bits/locale_facets.h ****       const char*
 312:/usr/include/c++/9.1.0/bits/locale_facets.h ****       widen(const char* __lo, const char* __hi, char_type* __to) const
 313:/usr/include/c++/9.1.0/bits/locale_facets.h ****       { return this->do_widen(__lo, __hi, __to); }
 314:/usr/include/c++/9.1.0/bits/locale_facets.h **** 
GAS LISTING /tmp/cc1DIh6n.s 			page 46


 315:/usr/include/c++/9.1.0/bits/locale_facets.h ****       /**
 316:/usr/include/c++/9.1.0/bits/locale_facets.h ****        *  @brief  Narrow char_type to char
 317:/usr/include/c++/9.1.0/bits/locale_facets.h ****        *
 318:/usr/include/c++/9.1.0/bits/locale_facets.h ****        *  This function converts the char_type to char using the simplest
 319:/usr/include/c++/9.1.0/bits/locale_facets.h ****        *  reasonable transformation.  If the conversion fails, dfault is
 320:/usr/include/c++/9.1.0/bits/locale_facets.h ****        *  returned instead.  It does so by returning
 321:/usr/include/c++/9.1.0/bits/locale_facets.h ****        *  ctype<char_type>::do_narrow(__c).
 322:/usr/include/c++/9.1.0/bits/locale_facets.h ****        *
 323:/usr/include/c++/9.1.0/bits/locale_facets.h ****        *  Note: this is not what you want for codepage conversions.  See
 324:/usr/include/c++/9.1.0/bits/locale_facets.h ****        *  codecvt for that.
 325:/usr/include/c++/9.1.0/bits/locale_facets.h ****        *
 326:/usr/include/c++/9.1.0/bits/locale_facets.h ****        *  @param __c  The char_type to convert.
 327:/usr/include/c++/9.1.0/bits/locale_facets.h ****        *  @param __dfault  Char to return if conversion fails.
 328:/usr/include/c++/9.1.0/bits/locale_facets.h ****        *  @return  The converted char.
 329:/usr/include/c++/9.1.0/bits/locale_facets.h ****       */
 330:/usr/include/c++/9.1.0/bits/locale_facets.h ****       char
 331:/usr/include/c++/9.1.0/bits/locale_facets.h ****       narrow(char_type __c, char __dfault) const
 332:/usr/include/c++/9.1.0/bits/locale_facets.h ****       { return this->do_narrow(__c, __dfault); }
 333:/usr/include/c++/9.1.0/bits/locale_facets.h **** 
 334:/usr/include/c++/9.1.0/bits/locale_facets.h ****       /**
 335:/usr/include/c++/9.1.0/bits/locale_facets.h ****        *  @brief  Narrow array to char array
 336:/usr/include/c++/9.1.0/bits/locale_facets.h ****        *
 337:/usr/include/c++/9.1.0/bits/locale_facets.h ****        *  This function converts each char_type in the input to char using the
 338:/usr/include/c++/9.1.0/bits/locale_facets.h ****        *  simplest reasonable transformation and writes the results to the
 339:/usr/include/c++/9.1.0/bits/locale_facets.h ****        *  destination array.  For any char_type in the input that cannot be
 340:/usr/include/c++/9.1.0/bits/locale_facets.h ****        *  converted, @a dfault is used instead.  It does so by returning
 341:/usr/include/c++/9.1.0/bits/locale_facets.h ****        *  ctype<char_type>::do_narrow(__lo, __hi, __dfault, __to).
 342:/usr/include/c++/9.1.0/bits/locale_facets.h ****        *
 343:/usr/include/c++/9.1.0/bits/locale_facets.h ****        *  Note: this is not what you want for codepage conversions.  See
 344:/usr/include/c++/9.1.0/bits/locale_facets.h ****        *  codecvt for that.
 345:/usr/include/c++/9.1.0/bits/locale_facets.h ****        *
 346:/usr/include/c++/9.1.0/bits/locale_facets.h ****        *  @param __lo  Pointer to start of range.
 347:/usr/include/c++/9.1.0/bits/locale_facets.h ****        *  @param __hi  Pointer to end of range.
 348:/usr/include/c++/9.1.0/bits/locale_facets.h ****        *  @param __dfault  Char to use if conversion fails.
 349:/usr/include/c++/9.1.0/bits/locale_facets.h ****        *  @param __to  Pointer to the destination array.
 350:/usr/include/c++/9.1.0/bits/locale_facets.h ****        *  @return  @a __hi.
 351:/usr/include/c++/9.1.0/bits/locale_facets.h ****       */
 352:/usr/include/c++/9.1.0/bits/locale_facets.h ****       const char_type*
 353:/usr/include/c++/9.1.0/bits/locale_facets.h ****       narrow(const char_type* __lo, const char_type* __hi,
 354:/usr/include/c++/9.1.0/bits/locale_facets.h **** 	      char __dfault, char* __to) const
 355:/usr/include/c++/9.1.0/bits/locale_facets.h ****       { return this->do_narrow(__lo, __hi, __dfault, __to); }
 356:/usr/include/c++/9.1.0/bits/locale_facets.h **** 
 357:/usr/include/c++/9.1.0/bits/locale_facets.h ****     protected:
 358:/usr/include/c++/9.1.0/bits/locale_facets.h ****       explicit
 359:/usr/include/c++/9.1.0/bits/locale_facets.h ****       __ctype_abstract_base(size_t __refs = 0): facet(__refs) { }
 360:/usr/include/c++/9.1.0/bits/locale_facets.h **** 
 361:/usr/include/c++/9.1.0/bits/locale_facets.h ****       virtual
 362:/usr/include/c++/9.1.0/bits/locale_facets.h ****       ~__ctype_abstract_base() { }
 363:/usr/include/c++/9.1.0/bits/locale_facets.h **** 
 364:/usr/include/c++/9.1.0/bits/locale_facets.h ****       /**
 365:/usr/include/c++/9.1.0/bits/locale_facets.h ****        *  @brief  Test char_type classification.
 366:/usr/include/c++/9.1.0/bits/locale_facets.h ****        *
 367:/usr/include/c++/9.1.0/bits/locale_facets.h ****        *  This function finds a mask M for @a c and compares it to mask @a m.
 368:/usr/include/c++/9.1.0/bits/locale_facets.h ****        *
 369:/usr/include/c++/9.1.0/bits/locale_facets.h ****        *  do_is() is a hook for a derived facet to change the behavior of
 370:/usr/include/c++/9.1.0/bits/locale_facets.h ****        *  classifying.  do_is() must always return the same result for the
 371:/usr/include/c++/9.1.0/bits/locale_facets.h ****        *  same input.
GAS LISTING /tmp/cc1DIh6n.s 			page 47


 372:/usr/include/c++/9.1.0/bits/locale_facets.h ****        *
 373:/usr/include/c++/9.1.0/bits/locale_facets.h ****        *  @param __c  The char_type to find the mask of.
 374:/usr/include/c++/9.1.0/bits/locale_facets.h ****        *  @param __m  The mask to compare against.
 375:/usr/include/c++/9.1.0/bits/locale_facets.h ****        *  @return  (M & __m) != 0.
 376:/usr/include/c++/9.1.0/bits/locale_facets.h ****       */
 377:/usr/include/c++/9.1.0/bits/locale_facets.h ****       virtual bool
 378:/usr/include/c++/9.1.0/bits/locale_facets.h ****       do_is(mask __m, char_type __c) const = 0;
 379:/usr/include/c++/9.1.0/bits/locale_facets.h **** 
 380:/usr/include/c++/9.1.0/bits/locale_facets.h ****       /**
 381:/usr/include/c++/9.1.0/bits/locale_facets.h ****        *  @brief  Return a mask array.
 382:/usr/include/c++/9.1.0/bits/locale_facets.h ****        *
 383:/usr/include/c++/9.1.0/bits/locale_facets.h ****        *  This function finds the mask for each char_type in the range [lo,hi)
 384:/usr/include/c++/9.1.0/bits/locale_facets.h ****        *  and successively writes it to vec.  vec must have as many elements
 385:/usr/include/c++/9.1.0/bits/locale_facets.h ****        *  as the input.
 386:/usr/include/c++/9.1.0/bits/locale_facets.h ****        *
 387:/usr/include/c++/9.1.0/bits/locale_facets.h ****        *  do_is() is a hook for a derived facet to change the behavior of
 388:/usr/include/c++/9.1.0/bits/locale_facets.h ****        *  classifying.  do_is() must always return the same result for the
 389:/usr/include/c++/9.1.0/bits/locale_facets.h ****        *  same input.
 390:/usr/include/c++/9.1.0/bits/locale_facets.h ****        *
 391:/usr/include/c++/9.1.0/bits/locale_facets.h ****        *  @param __lo  Pointer to start of range.
 392:/usr/include/c++/9.1.0/bits/locale_facets.h ****        *  @param __hi  Pointer to end of range.
 393:/usr/include/c++/9.1.0/bits/locale_facets.h ****        *  @param __vec  Pointer to an array of mask storage.
 394:/usr/include/c++/9.1.0/bits/locale_facets.h ****        *  @return  @a __hi.
 395:/usr/include/c++/9.1.0/bits/locale_facets.h ****       */
 396:/usr/include/c++/9.1.0/bits/locale_facets.h ****       virtual const char_type*
 397:/usr/include/c++/9.1.0/bits/locale_facets.h ****       do_is(const char_type* __lo, const char_type* __hi,
 398:/usr/include/c++/9.1.0/bits/locale_facets.h **** 	    mask* __vec) const = 0;
 399:/usr/include/c++/9.1.0/bits/locale_facets.h **** 
 400:/usr/include/c++/9.1.0/bits/locale_facets.h ****       /**
 401:/usr/include/c++/9.1.0/bits/locale_facets.h ****        *  @brief  Find char_type matching mask
 402:/usr/include/c++/9.1.0/bits/locale_facets.h ****        *
 403:/usr/include/c++/9.1.0/bits/locale_facets.h ****        *  This function searches for and returns the first char_type c in
 404:/usr/include/c++/9.1.0/bits/locale_facets.h ****        *  [__lo,__hi) for which is(__m,c) is true.
 405:/usr/include/c++/9.1.0/bits/locale_facets.h ****        *
 406:/usr/include/c++/9.1.0/bits/locale_facets.h ****        *  do_scan_is() is a hook for a derived facet to change the behavior of
 407:/usr/include/c++/9.1.0/bits/locale_facets.h ****        *  match searching.  do_is() must always return the same result for the
 408:/usr/include/c++/9.1.0/bits/locale_facets.h ****        *  same input.
 409:/usr/include/c++/9.1.0/bits/locale_facets.h ****        *
 410:/usr/include/c++/9.1.0/bits/locale_facets.h ****        *  @param __m  The mask to compare against.
 411:/usr/include/c++/9.1.0/bits/locale_facets.h ****        *  @param __lo  Pointer to start of range.
 412:/usr/include/c++/9.1.0/bits/locale_facets.h ****        *  @param __hi  Pointer to end of range.
 413:/usr/include/c++/9.1.0/bits/locale_facets.h ****        *  @return  Pointer to a matching char_type if found, else @a __hi.
 414:/usr/include/c++/9.1.0/bits/locale_facets.h ****       */
 415:/usr/include/c++/9.1.0/bits/locale_facets.h ****       virtual const char_type*
 416:/usr/include/c++/9.1.0/bits/locale_facets.h ****       do_scan_is(mask __m, const char_type* __lo,
 417:/usr/include/c++/9.1.0/bits/locale_facets.h **** 		 const char_type* __hi) const = 0;
 418:/usr/include/c++/9.1.0/bits/locale_facets.h **** 
 419:/usr/include/c++/9.1.0/bits/locale_facets.h ****       /**
 420:/usr/include/c++/9.1.0/bits/locale_facets.h ****        *  @brief  Find char_type not matching mask
 421:/usr/include/c++/9.1.0/bits/locale_facets.h ****        *
 422:/usr/include/c++/9.1.0/bits/locale_facets.h ****        *  This function searches for and returns a pointer to the first
 423:/usr/include/c++/9.1.0/bits/locale_facets.h ****        *  char_type c of [lo,hi) for which is(m,c) is false.
 424:/usr/include/c++/9.1.0/bits/locale_facets.h ****        *
 425:/usr/include/c++/9.1.0/bits/locale_facets.h ****        *  do_scan_is() is a hook for a derived facet to change the behavior of
 426:/usr/include/c++/9.1.0/bits/locale_facets.h ****        *  match searching.  do_is() must always return the same result for the
 427:/usr/include/c++/9.1.0/bits/locale_facets.h ****        *  same input.
 428:/usr/include/c++/9.1.0/bits/locale_facets.h ****        *
GAS LISTING /tmp/cc1DIh6n.s 			page 48


 429:/usr/include/c++/9.1.0/bits/locale_facets.h ****        *  @param __m  The mask to compare against.
 430:/usr/include/c++/9.1.0/bits/locale_facets.h ****        *  @param __lo  Pointer to start of range.
 431:/usr/include/c++/9.1.0/bits/locale_facets.h ****        *  @param __hi  Pointer to end of range.
 432:/usr/include/c++/9.1.0/bits/locale_facets.h ****        *  @return  Pointer to a non-matching char_type if found, else @a __hi.
 433:/usr/include/c++/9.1.0/bits/locale_facets.h ****       */
 434:/usr/include/c++/9.1.0/bits/locale_facets.h ****       virtual const char_type*
 435:/usr/include/c++/9.1.0/bits/locale_facets.h ****       do_scan_not(mask __m, const char_type* __lo,
 436:/usr/include/c++/9.1.0/bits/locale_facets.h **** 		  const char_type* __hi) const = 0;
 437:/usr/include/c++/9.1.0/bits/locale_facets.h **** 
 438:/usr/include/c++/9.1.0/bits/locale_facets.h ****       /**
 439:/usr/include/c++/9.1.0/bits/locale_facets.h ****        *  @brief  Convert to uppercase.
 440:/usr/include/c++/9.1.0/bits/locale_facets.h ****        *
 441:/usr/include/c++/9.1.0/bits/locale_facets.h ****        *  This virtual function converts the char_type argument to uppercase
 442:/usr/include/c++/9.1.0/bits/locale_facets.h ****        *  if possible.  If not possible (for example, '2'), returns the
 443:/usr/include/c++/9.1.0/bits/locale_facets.h ****        *  argument.
 444:/usr/include/c++/9.1.0/bits/locale_facets.h ****        *
 445:/usr/include/c++/9.1.0/bits/locale_facets.h ****        *  do_toupper() is a hook for a derived facet to change the behavior of
 446:/usr/include/c++/9.1.0/bits/locale_facets.h ****        *  uppercasing.  do_toupper() must always return the same result for
 447:/usr/include/c++/9.1.0/bits/locale_facets.h ****        *  the same input.
 448:/usr/include/c++/9.1.0/bits/locale_facets.h ****        *
 449:/usr/include/c++/9.1.0/bits/locale_facets.h ****        *  @param __c  The char_type to convert.
 450:/usr/include/c++/9.1.0/bits/locale_facets.h ****        *  @return  The uppercase char_type if convertible, else @a __c.
 451:/usr/include/c++/9.1.0/bits/locale_facets.h ****       */
 452:/usr/include/c++/9.1.0/bits/locale_facets.h ****       virtual char_type
 453:/usr/include/c++/9.1.0/bits/locale_facets.h ****       do_toupper(char_type __c) const = 0;
 454:/usr/include/c++/9.1.0/bits/locale_facets.h **** 
 455:/usr/include/c++/9.1.0/bits/locale_facets.h ****       /**
 456:/usr/include/c++/9.1.0/bits/locale_facets.h ****        *  @brief  Convert array to uppercase.
 457:/usr/include/c++/9.1.0/bits/locale_facets.h ****        *
 458:/usr/include/c++/9.1.0/bits/locale_facets.h ****        *  This virtual function converts each char_type in the range [__lo,__hi)
 459:/usr/include/c++/9.1.0/bits/locale_facets.h ****        *  to uppercase if possible.  Other elements remain untouched.
 460:/usr/include/c++/9.1.0/bits/locale_facets.h ****        *
 461:/usr/include/c++/9.1.0/bits/locale_facets.h ****        *  do_toupper() is a hook for a derived facet to change the behavior of
 462:/usr/include/c++/9.1.0/bits/locale_facets.h ****        *  uppercasing.  do_toupper() must always return the same result for
 463:/usr/include/c++/9.1.0/bits/locale_facets.h ****        *  the same input.
 464:/usr/include/c++/9.1.0/bits/locale_facets.h ****        *
 465:/usr/include/c++/9.1.0/bits/locale_facets.h ****        *  @param __lo  Pointer to start of range.
 466:/usr/include/c++/9.1.0/bits/locale_facets.h ****        *  @param __hi  Pointer to end of range.
 467:/usr/include/c++/9.1.0/bits/locale_facets.h ****        *  @return  @a __hi.
 468:/usr/include/c++/9.1.0/bits/locale_facets.h ****       */
 469:/usr/include/c++/9.1.0/bits/locale_facets.h ****       virtual const char_type*
 470:/usr/include/c++/9.1.0/bits/locale_facets.h ****       do_toupper(char_type* __lo, const char_type* __hi) const = 0;
 471:/usr/include/c++/9.1.0/bits/locale_facets.h **** 
 472:/usr/include/c++/9.1.0/bits/locale_facets.h ****       /**
 473:/usr/include/c++/9.1.0/bits/locale_facets.h ****        *  @brief  Convert to lowercase.
 474:/usr/include/c++/9.1.0/bits/locale_facets.h ****        *
 475:/usr/include/c++/9.1.0/bits/locale_facets.h ****        *  This virtual function converts the argument to lowercase if
 476:/usr/include/c++/9.1.0/bits/locale_facets.h ****        *  possible.  If not possible (for example, '2'), returns the argument.
 477:/usr/include/c++/9.1.0/bits/locale_facets.h ****        *
 478:/usr/include/c++/9.1.0/bits/locale_facets.h ****        *  do_tolower() is a hook for a derived facet to change the behavior of
 479:/usr/include/c++/9.1.0/bits/locale_facets.h ****        *  lowercasing.  do_tolower() must always return the same result for
 480:/usr/include/c++/9.1.0/bits/locale_facets.h ****        *  the same input.
 481:/usr/include/c++/9.1.0/bits/locale_facets.h ****        *
 482:/usr/include/c++/9.1.0/bits/locale_facets.h ****        *  @param __c  The char_type to convert.
 483:/usr/include/c++/9.1.0/bits/locale_facets.h ****        *  @return  The lowercase char_type if convertible, else @a __c.
 484:/usr/include/c++/9.1.0/bits/locale_facets.h ****       */
 485:/usr/include/c++/9.1.0/bits/locale_facets.h ****       virtual char_type
GAS LISTING /tmp/cc1DIh6n.s 			page 49


 486:/usr/include/c++/9.1.0/bits/locale_facets.h ****       do_tolower(char_type __c) const = 0;
 487:/usr/include/c++/9.1.0/bits/locale_facets.h **** 
 488:/usr/include/c++/9.1.0/bits/locale_facets.h ****       /**
 489:/usr/include/c++/9.1.0/bits/locale_facets.h ****        *  @brief  Convert array to lowercase.
 490:/usr/include/c++/9.1.0/bits/locale_facets.h ****        *
 491:/usr/include/c++/9.1.0/bits/locale_facets.h ****        *  This virtual function converts each char_type in the range [__lo,__hi)
 492:/usr/include/c++/9.1.0/bits/locale_facets.h ****        *  to lowercase if possible.  Other elements remain untouched.
 493:/usr/include/c++/9.1.0/bits/locale_facets.h ****        *
 494:/usr/include/c++/9.1.0/bits/locale_facets.h ****        *  do_tolower() is a hook for a derived facet to change the behavior of
 495:/usr/include/c++/9.1.0/bits/locale_facets.h ****        *  lowercasing.  do_tolower() must always return the same result for
 496:/usr/include/c++/9.1.0/bits/locale_facets.h ****        *  the same input.
 497:/usr/include/c++/9.1.0/bits/locale_facets.h ****        *
 498:/usr/include/c++/9.1.0/bits/locale_facets.h ****        *  @param __lo  Pointer to start of range.
 499:/usr/include/c++/9.1.0/bits/locale_facets.h ****        *  @param __hi  Pointer to end of range.
 500:/usr/include/c++/9.1.0/bits/locale_facets.h ****        *  @return  @a __hi.
 501:/usr/include/c++/9.1.0/bits/locale_facets.h ****       */
 502:/usr/include/c++/9.1.0/bits/locale_facets.h ****       virtual const char_type*
 503:/usr/include/c++/9.1.0/bits/locale_facets.h ****       do_tolower(char_type* __lo, const char_type* __hi) const = 0;
 504:/usr/include/c++/9.1.0/bits/locale_facets.h **** 
 505:/usr/include/c++/9.1.0/bits/locale_facets.h ****       /**
 506:/usr/include/c++/9.1.0/bits/locale_facets.h ****        *  @brief  Widen char
 507:/usr/include/c++/9.1.0/bits/locale_facets.h ****        *
 508:/usr/include/c++/9.1.0/bits/locale_facets.h ****        *  This virtual function converts the char to char_type using the
 509:/usr/include/c++/9.1.0/bits/locale_facets.h ****        *  simplest reasonable transformation.
 510:/usr/include/c++/9.1.0/bits/locale_facets.h ****        *
 511:/usr/include/c++/9.1.0/bits/locale_facets.h ****        *  do_widen() is a hook for a derived facet to change the behavior of
 512:/usr/include/c++/9.1.0/bits/locale_facets.h ****        *  widening.  do_widen() must always return the same result for the
 513:/usr/include/c++/9.1.0/bits/locale_facets.h ****        *  same input.
 514:/usr/include/c++/9.1.0/bits/locale_facets.h ****        *
 515:/usr/include/c++/9.1.0/bits/locale_facets.h ****        *  Note: this is not what you want for codepage conversions.  See
 516:/usr/include/c++/9.1.0/bits/locale_facets.h ****        *  codecvt for that.
 517:/usr/include/c++/9.1.0/bits/locale_facets.h ****        *
 518:/usr/include/c++/9.1.0/bits/locale_facets.h ****        *  @param __c  The char to convert.
 519:/usr/include/c++/9.1.0/bits/locale_facets.h ****        *  @return  The converted char_type
 520:/usr/include/c++/9.1.0/bits/locale_facets.h ****       */
 521:/usr/include/c++/9.1.0/bits/locale_facets.h ****       virtual char_type
 522:/usr/include/c++/9.1.0/bits/locale_facets.h ****       do_widen(char __c) const = 0;
 523:/usr/include/c++/9.1.0/bits/locale_facets.h **** 
 524:/usr/include/c++/9.1.0/bits/locale_facets.h ****       /**
 525:/usr/include/c++/9.1.0/bits/locale_facets.h ****        *  @brief  Widen char array
 526:/usr/include/c++/9.1.0/bits/locale_facets.h ****        *
 527:/usr/include/c++/9.1.0/bits/locale_facets.h ****        *  This function converts each char in the input to char_type using the
 528:/usr/include/c++/9.1.0/bits/locale_facets.h ****        *  simplest reasonable transformation.
 529:/usr/include/c++/9.1.0/bits/locale_facets.h ****        *
 530:/usr/include/c++/9.1.0/bits/locale_facets.h ****        *  do_widen() is a hook for a derived facet to change the behavior of
 531:/usr/include/c++/9.1.0/bits/locale_facets.h ****        *  widening.  do_widen() must always return the same result for the
 532:/usr/include/c++/9.1.0/bits/locale_facets.h ****        *  same input.
 533:/usr/include/c++/9.1.0/bits/locale_facets.h ****        *
 534:/usr/include/c++/9.1.0/bits/locale_facets.h ****        *  Note: this is not what you want for codepage conversions.  See
 535:/usr/include/c++/9.1.0/bits/locale_facets.h ****        *  codecvt for that.
 536:/usr/include/c++/9.1.0/bits/locale_facets.h ****        *
 537:/usr/include/c++/9.1.0/bits/locale_facets.h ****        *  @param __lo  Pointer to start range.
 538:/usr/include/c++/9.1.0/bits/locale_facets.h ****        *  @param __hi  Pointer to end of range.
 539:/usr/include/c++/9.1.0/bits/locale_facets.h ****        *  @param __to  Pointer to the destination array.
 540:/usr/include/c++/9.1.0/bits/locale_facets.h ****        *  @return  @a __hi.
 541:/usr/include/c++/9.1.0/bits/locale_facets.h ****       */
 542:/usr/include/c++/9.1.0/bits/locale_facets.h ****       virtual const char*
GAS LISTING /tmp/cc1DIh6n.s 			page 50


 543:/usr/include/c++/9.1.0/bits/locale_facets.h ****       do_widen(const char* __lo, const char* __hi, char_type* __to) const = 0;
 544:/usr/include/c++/9.1.0/bits/locale_facets.h **** 
 545:/usr/include/c++/9.1.0/bits/locale_facets.h ****       /**
 546:/usr/include/c++/9.1.0/bits/locale_facets.h ****        *  @brief  Narrow char_type to char
 547:/usr/include/c++/9.1.0/bits/locale_facets.h ****        *
 548:/usr/include/c++/9.1.0/bits/locale_facets.h ****        *  This virtual function converts the argument to char using the
 549:/usr/include/c++/9.1.0/bits/locale_facets.h ****        *  simplest reasonable transformation.  If the conversion fails, dfault
 550:/usr/include/c++/9.1.0/bits/locale_facets.h ****        *  is returned instead.
 551:/usr/include/c++/9.1.0/bits/locale_facets.h ****        *
 552:/usr/include/c++/9.1.0/bits/locale_facets.h ****        *  do_narrow() is a hook for a derived facet to change the behavior of
 553:/usr/include/c++/9.1.0/bits/locale_facets.h ****        *  narrowing.  do_narrow() must always return the same result for the
 554:/usr/include/c++/9.1.0/bits/locale_facets.h ****        *  same input.
 555:/usr/include/c++/9.1.0/bits/locale_facets.h ****        *
 556:/usr/include/c++/9.1.0/bits/locale_facets.h ****        *  Note: this is not what you want for codepage conversions.  See
 557:/usr/include/c++/9.1.0/bits/locale_facets.h ****        *  codecvt for that.
 558:/usr/include/c++/9.1.0/bits/locale_facets.h ****        *
 559:/usr/include/c++/9.1.0/bits/locale_facets.h ****        *  @param __c  The char_type to convert.
 560:/usr/include/c++/9.1.0/bits/locale_facets.h ****        *  @param __dfault  Char to return if conversion fails.
 561:/usr/include/c++/9.1.0/bits/locale_facets.h ****        *  @return  The converted char.
 562:/usr/include/c++/9.1.0/bits/locale_facets.h ****       */
 563:/usr/include/c++/9.1.0/bits/locale_facets.h ****       virtual char
 564:/usr/include/c++/9.1.0/bits/locale_facets.h ****       do_narrow(char_type __c, char __dfault) const = 0;
 565:/usr/include/c++/9.1.0/bits/locale_facets.h **** 
 566:/usr/include/c++/9.1.0/bits/locale_facets.h ****       /**
 567:/usr/include/c++/9.1.0/bits/locale_facets.h ****        *  @brief  Narrow char_type array to char
 568:/usr/include/c++/9.1.0/bits/locale_facets.h ****        *
 569:/usr/include/c++/9.1.0/bits/locale_facets.h ****        *  This virtual function converts each char_type in the range
 570:/usr/include/c++/9.1.0/bits/locale_facets.h ****        *  [__lo,__hi) to char using the simplest reasonable
 571:/usr/include/c++/9.1.0/bits/locale_facets.h ****        *  transformation and writes the results to the destination
 572:/usr/include/c++/9.1.0/bits/locale_facets.h ****        *  array.  For any element in the input that cannot be
 573:/usr/include/c++/9.1.0/bits/locale_facets.h ****        *  converted, @a __dfault is used instead.
 574:/usr/include/c++/9.1.0/bits/locale_facets.h ****        *
 575:/usr/include/c++/9.1.0/bits/locale_facets.h ****        *  do_narrow() is a hook for a derived facet to change the behavior of
 576:/usr/include/c++/9.1.0/bits/locale_facets.h ****        *  narrowing.  do_narrow() must always return the same result for the
 577:/usr/include/c++/9.1.0/bits/locale_facets.h ****        *  same input.
 578:/usr/include/c++/9.1.0/bits/locale_facets.h ****        *
 579:/usr/include/c++/9.1.0/bits/locale_facets.h ****        *  Note: this is not what you want for codepage conversions.  See
 580:/usr/include/c++/9.1.0/bits/locale_facets.h ****        *  codecvt for that.
 581:/usr/include/c++/9.1.0/bits/locale_facets.h ****        *
 582:/usr/include/c++/9.1.0/bits/locale_facets.h ****        *  @param __lo  Pointer to start of range.
 583:/usr/include/c++/9.1.0/bits/locale_facets.h ****        *  @param __hi  Pointer to end of range.
 584:/usr/include/c++/9.1.0/bits/locale_facets.h ****        *  @param __dfault  Char to use if conversion fails.
 585:/usr/include/c++/9.1.0/bits/locale_facets.h ****        *  @param __to  Pointer to the destination array.
 586:/usr/include/c++/9.1.0/bits/locale_facets.h ****        *  @return  @a __hi.
 587:/usr/include/c++/9.1.0/bits/locale_facets.h ****       */
 588:/usr/include/c++/9.1.0/bits/locale_facets.h ****       virtual const char_type*
 589:/usr/include/c++/9.1.0/bits/locale_facets.h ****       do_narrow(const char_type* __lo, const char_type* __hi,
 590:/usr/include/c++/9.1.0/bits/locale_facets.h **** 		char __dfault, char* __to) const = 0;
 591:/usr/include/c++/9.1.0/bits/locale_facets.h ****     };
 592:/usr/include/c++/9.1.0/bits/locale_facets.h **** 
 593:/usr/include/c++/9.1.0/bits/locale_facets.h ****   /**
 594:/usr/include/c++/9.1.0/bits/locale_facets.h ****    *  @brief  Primary class template ctype facet.
 595:/usr/include/c++/9.1.0/bits/locale_facets.h ****    *  @ingroup locales
 596:/usr/include/c++/9.1.0/bits/locale_facets.h ****    *
 597:/usr/include/c++/9.1.0/bits/locale_facets.h ****    *  This template class defines classification and conversion functions for
 598:/usr/include/c++/9.1.0/bits/locale_facets.h ****    *  character sets.  It wraps cctype functionality.  Ctype gets used by
 599:/usr/include/c++/9.1.0/bits/locale_facets.h ****    *  streams for many I/O operations.
GAS LISTING /tmp/cc1DIh6n.s 			page 51


 600:/usr/include/c++/9.1.0/bits/locale_facets.h ****    *
 601:/usr/include/c++/9.1.0/bits/locale_facets.h ****    *  This template provides the protected virtual functions the developer
 602:/usr/include/c++/9.1.0/bits/locale_facets.h ****    *  will have to replace in a derived class or specialization to make a
 603:/usr/include/c++/9.1.0/bits/locale_facets.h ****    *  working facet.  The public functions that access them are defined in
 604:/usr/include/c++/9.1.0/bits/locale_facets.h ****    *  __ctype_abstract_base, to allow for implementation flexibility.  See
 605:/usr/include/c++/9.1.0/bits/locale_facets.h ****    *  ctype<wchar_t> for an example.  The functions are documented in
 606:/usr/include/c++/9.1.0/bits/locale_facets.h ****    *  __ctype_abstract_base.
 607:/usr/include/c++/9.1.0/bits/locale_facets.h ****    *
 608:/usr/include/c++/9.1.0/bits/locale_facets.h ****    *  Note: implementations are provided for all the protected virtual
 609:/usr/include/c++/9.1.0/bits/locale_facets.h ****    *  functions, but will likely not be useful.
 610:/usr/include/c++/9.1.0/bits/locale_facets.h ****   */
 611:/usr/include/c++/9.1.0/bits/locale_facets.h ****   template<typename _CharT>
 612:/usr/include/c++/9.1.0/bits/locale_facets.h ****     class ctype : public __ctype_abstract_base<_CharT>
 613:/usr/include/c++/9.1.0/bits/locale_facets.h ****     {
 614:/usr/include/c++/9.1.0/bits/locale_facets.h ****     public:
 615:/usr/include/c++/9.1.0/bits/locale_facets.h ****       // Types:
 616:/usr/include/c++/9.1.0/bits/locale_facets.h ****       typedef _CharT			char_type;
 617:/usr/include/c++/9.1.0/bits/locale_facets.h ****       typedef typename __ctype_abstract_base<_CharT>::mask mask;
 618:/usr/include/c++/9.1.0/bits/locale_facets.h **** 
 619:/usr/include/c++/9.1.0/bits/locale_facets.h ****       /// The facet id for ctype<char_type>
 620:/usr/include/c++/9.1.0/bits/locale_facets.h ****       static locale::id			id;
 621:/usr/include/c++/9.1.0/bits/locale_facets.h **** 
 622:/usr/include/c++/9.1.0/bits/locale_facets.h ****       explicit
 623:/usr/include/c++/9.1.0/bits/locale_facets.h ****       ctype(size_t __refs = 0) : __ctype_abstract_base<_CharT>(__refs) { }
 624:/usr/include/c++/9.1.0/bits/locale_facets.h **** 
 625:/usr/include/c++/9.1.0/bits/locale_facets.h ****    protected:
 626:/usr/include/c++/9.1.0/bits/locale_facets.h ****       virtual
 627:/usr/include/c++/9.1.0/bits/locale_facets.h ****       ~ctype();
 628:/usr/include/c++/9.1.0/bits/locale_facets.h **** 
 629:/usr/include/c++/9.1.0/bits/locale_facets.h ****       virtual bool
 630:/usr/include/c++/9.1.0/bits/locale_facets.h ****       do_is(mask __m, char_type __c) const;
 631:/usr/include/c++/9.1.0/bits/locale_facets.h **** 
 632:/usr/include/c++/9.1.0/bits/locale_facets.h ****       virtual const char_type*
 633:/usr/include/c++/9.1.0/bits/locale_facets.h ****       do_is(const char_type* __lo, const char_type* __hi, mask* __vec) const;
 634:/usr/include/c++/9.1.0/bits/locale_facets.h **** 
 635:/usr/include/c++/9.1.0/bits/locale_facets.h ****       virtual const char_type*
 636:/usr/include/c++/9.1.0/bits/locale_facets.h ****       do_scan_is(mask __m, const char_type* __lo, const char_type* __hi) const;
 637:/usr/include/c++/9.1.0/bits/locale_facets.h **** 
 638:/usr/include/c++/9.1.0/bits/locale_facets.h ****       virtual const char_type*
 639:/usr/include/c++/9.1.0/bits/locale_facets.h ****       do_scan_not(mask __m, const char_type* __lo,
 640:/usr/include/c++/9.1.0/bits/locale_facets.h **** 		  const char_type* __hi) const;
 641:/usr/include/c++/9.1.0/bits/locale_facets.h **** 
 642:/usr/include/c++/9.1.0/bits/locale_facets.h ****       virtual char_type
 643:/usr/include/c++/9.1.0/bits/locale_facets.h ****       do_toupper(char_type __c) const;
 644:/usr/include/c++/9.1.0/bits/locale_facets.h **** 
 645:/usr/include/c++/9.1.0/bits/locale_facets.h ****       virtual const char_type*
 646:/usr/include/c++/9.1.0/bits/locale_facets.h ****       do_toupper(char_type* __lo, const char_type* __hi) const;
 647:/usr/include/c++/9.1.0/bits/locale_facets.h **** 
 648:/usr/include/c++/9.1.0/bits/locale_facets.h ****       virtual char_type
 649:/usr/include/c++/9.1.0/bits/locale_facets.h ****       do_tolower(char_type __c) const;
 650:/usr/include/c++/9.1.0/bits/locale_facets.h **** 
 651:/usr/include/c++/9.1.0/bits/locale_facets.h ****       virtual const char_type*
 652:/usr/include/c++/9.1.0/bits/locale_facets.h ****       do_tolower(char_type* __lo, const char_type* __hi) const;
 653:/usr/include/c++/9.1.0/bits/locale_facets.h **** 
 654:/usr/include/c++/9.1.0/bits/locale_facets.h ****       virtual char_type
 655:/usr/include/c++/9.1.0/bits/locale_facets.h ****       do_widen(char __c) const;
 656:/usr/include/c++/9.1.0/bits/locale_facets.h **** 
GAS LISTING /tmp/cc1DIh6n.s 			page 52


 657:/usr/include/c++/9.1.0/bits/locale_facets.h ****       virtual const char*
 658:/usr/include/c++/9.1.0/bits/locale_facets.h ****       do_widen(const char* __lo, const char* __hi, char_type* __dest) const;
 659:/usr/include/c++/9.1.0/bits/locale_facets.h **** 
 660:/usr/include/c++/9.1.0/bits/locale_facets.h ****       virtual char
 661:/usr/include/c++/9.1.0/bits/locale_facets.h ****       do_narrow(char_type, char __dfault) const;
 662:/usr/include/c++/9.1.0/bits/locale_facets.h **** 
 663:/usr/include/c++/9.1.0/bits/locale_facets.h ****       virtual const char_type*
 664:/usr/include/c++/9.1.0/bits/locale_facets.h ****       do_narrow(const char_type* __lo, const char_type* __hi,
 665:/usr/include/c++/9.1.0/bits/locale_facets.h **** 		char __dfault, char* __to) const;
 666:/usr/include/c++/9.1.0/bits/locale_facets.h ****     };
 667:/usr/include/c++/9.1.0/bits/locale_facets.h **** 
 668:/usr/include/c++/9.1.0/bits/locale_facets.h ****   template<typename _CharT>
 669:/usr/include/c++/9.1.0/bits/locale_facets.h ****     locale::id ctype<_CharT>::id;
 670:/usr/include/c++/9.1.0/bits/locale_facets.h **** 
 671:/usr/include/c++/9.1.0/bits/locale_facets.h ****   /**
 672:/usr/include/c++/9.1.0/bits/locale_facets.h ****    *  @brief  The ctype<char> specialization.
 673:/usr/include/c++/9.1.0/bits/locale_facets.h ****    *  @ingroup locales
 674:/usr/include/c++/9.1.0/bits/locale_facets.h ****    *
 675:/usr/include/c++/9.1.0/bits/locale_facets.h ****    *  This class defines classification and conversion functions for
 676:/usr/include/c++/9.1.0/bits/locale_facets.h ****    *  the char type.  It gets used by char streams for many I/O
 677:/usr/include/c++/9.1.0/bits/locale_facets.h ****    *  operations.  The char specialization provides a number of
 678:/usr/include/c++/9.1.0/bits/locale_facets.h ****    *  optimizations as well.
 679:/usr/include/c++/9.1.0/bits/locale_facets.h ****   */
 680:/usr/include/c++/9.1.0/bits/locale_facets.h ****   template<>
 681:/usr/include/c++/9.1.0/bits/locale_facets.h ****     class ctype<char> : public locale::facet, public ctype_base
 682:/usr/include/c++/9.1.0/bits/locale_facets.h ****     {
 683:/usr/include/c++/9.1.0/bits/locale_facets.h ****     public:
 684:/usr/include/c++/9.1.0/bits/locale_facets.h ****       // Types:
 685:/usr/include/c++/9.1.0/bits/locale_facets.h ****       /// Typedef for the template parameter char.
 686:/usr/include/c++/9.1.0/bits/locale_facets.h ****       typedef char		char_type;
 687:/usr/include/c++/9.1.0/bits/locale_facets.h **** 
 688:/usr/include/c++/9.1.0/bits/locale_facets.h ****     protected:
 689:/usr/include/c++/9.1.0/bits/locale_facets.h ****       // Data Members:
 690:/usr/include/c++/9.1.0/bits/locale_facets.h ****       __c_locale		_M_c_locale_ctype;
 691:/usr/include/c++/9.1.0/bits/locale_facets.h ****       bool			_M_del;
 692:/usr/include/c++/9.1.0/bits/locale_facets.h ****       __to_type			_M_toupper;
 693:/usr/include/c++/9.1.0/bits/locale_facets.h ****       __to_type			_M_tolower;
 694:/usr/include/c++/9.1.0/bits/locale_facets.h ****       const mask*		_M_table;
 695:/usr/include/c++/9.1.0/bits/locale_facets.h ****       mutable char		_M_widen_ok;
 696:/usr/include/c++/9.1.0/bits/locale_facets.h ****       mutable char		_M_widen[1 + static_cast<unsigned char>(-1)];
 697:/usr/include/c++/9.1.0/bits/locale_facets.h ****       mutable char		_M_narrow[1 + static_cast<unsigned char>(-1)];
 698:/usr/include/c++/9.1.0/bits/locale_facets.h ****       mutable char		_M_narrow_ok;	// 0 uninitialized, 1 init,
 699:/usr/include/c++/9.1.0/bits/locale_facets.h **** 						// 2 memcpy can't be used
 700:/usr/include/c++/9.1.0/bits/locale_facets.h **** 
 701:/usr/include/c++/9.1.0/bits/locale_facets.h ****     public:
 702:/usr/include/c++/9.1.0/bits/locale_facets.h ****       /// The facet id for ctype<char>
 703:/usr/include/c++/9.1.0/bits/locale_facets.h ****       static locale::id        id;
 704:/usr/include/c++/9.1.0/bits/locale_facets.h ****       /// The size of the mask table.  It is SCHAR_MAX + 1.
 705:/usr/include/c++/9.1.0/bits/locale_facets.h ****       static const size_t      table_size = 1 + static_cast<unsigned char>(-1);
 706:/usr/include/c++/9.1.0/bits/locale_facets.h **** 
 707:/usr/include/c++/9.1.0/bits/locale_facets.h ****       /**
 708:/usr/include/c++/9.1.0/bits/locale_facets.h ****        *  @brief  Constructor performs initialization.
 709:/usr/include/c++/9.1.0/bits/locale_facets.h ****        *
 710:/usr/include/c++/9.1.0/bits/locale_facets.h ****        *  This is the constructor provided by the standard.
 711:/usr/include/c++/9.1.0/bits/locale_facets.h ****        *
 712:/usr/include/c++/9.1.0/bits/locale_facets.h ****        *  @param __table If non-zero, table is used as the per-char mask.
 713:/usr/include/c++/9.1.0/bits/locale_facets.h ****        *               Else classic_table() is used.
GAS LISTING /tmp/cc1DIh6n.s 			page 53


 714:/usr/include/c++/9.1.0/bits/locale_facets.h ****        *  @param __del   If true, passes ownership of table to this facet.
 715:/usr/include/c++/9.1.0/bits/locale_facets.h ****        *  @param __refs  Passed to the base facet class.
 716:/usr/include/c++/9.1.0/bits/locale_facets.h ****       */
 717:/usr/include/c++/9.1.0/bits/locale_facets.h ****       explicit
 718:/usr/include/c++/9.1.0/bits/locale_facets.h ****       ctype(const mask* __table = 0, bool __del = false, size_t __refs = 0);
 719:/usr/include/c++/9.1.0/bits/locale_facets.h **** 
 720:/usr/include/c++/9.1.0/bits/locale_facets.h ****       /**
 721:/usr/include/c++/9.1.0/bits/locale_facets.h ****        *  @brief  Constructor performs static initialization.
 722:/usr/include/c++/9.1.0/bits/locale_facets.h ****        *
 723:/usr/include/c++/9.1.0/bits/locale_facets.h ****        *  This constructor is used to construct the initial C locale facet.
 724:/usr/include/c++/9.1.0/bits/locale_facets.h ****        *
 725:/usr/include/c++/9.1.0/bits/locale_facets.h ****        *  @param __cloc  Handle to C locale data.
 726:/usr/include/c++/9.1.0/bits/locale_facets.h ****        *  @param __table If non-zero, table is used as the per-char mask.
 727:/usr/include/c++/9.1.0/bits/locale_facets.h ****        *  @param __del   If true, passes ownership of table to this facet.
 728:/usr/include/c++/9.1.0/bits/locale_facets.h ****        *  @param __refs  Passed to the base facet class.
 729:/usr/include/c++/9.1.0/bits/locale_facets.h ****       */
 730:/usr/include/c++/9.1.0/bits/locale_facets.h ****       explicit
 731:/usr/include/c++/9.1.0/bits/locale_facets.h ****       ctype(__c_locale __cloc, const mask* __table = 0, bool __del = false,
 732:/usr/include/c++/9.1.0/bits/locale_facets.h **** 	    size_t __refs = 0);
 733:/usr/include/c++/9.1.0/bits/locale_facets.h **** 
 734:/usr/include/c++/9.1.0/bits/locale_facets.h ****       /**
 735:/usr/include/c++/9.1.0/bits/locale_facets.h ****        *  @brief  Test char classification.
 736:/usr/include/c++/9.1.0/bits/locale_facets.h ****        *
 737:/usr/include/c++/9.1.0/bits/locale_facets.h ****        *  This function compares the mask table[c] to @a __m.
 738:/usr/include/c++/9.1.0/bits/locale_facets.h ****        *
 739:/usr/include/c++/9.1.0/bits/locale_facets.h ****        *  @param __c  The char to compare the mask of.
 740:/usr/include/c++/9.1.0/bits/locale_facets.h ****        *  @param __m  The mask to compare against.
 741:/usr/include/c++/9.1.0/bits/locale_facets.h ****        *  @return  True if __m & table[__c] is true, false otherwise.
 742:/usr/include/c++/9.1.0/bits/locale_facets.h ****       */
 743:/usr/include/c++/9.1.0/bits/locale_facets.h ****       inline bool
 744:/usr/include/c++/9.1.0/bits/locale_facets.h ****       is(mask __m, char __c) const;
 745:/usr/include/c++/9.1.0/bits/locale_facets.h **** 
 746:/usr/include/c++/9.1.0/bits/locale_facets.h ****       /**
 747:/usr/include/c++/9.1.0/bits/locale_facets.h ****        *  @brief  Return a mask array.
 748:/usr/include/c++/9.1.0/bits/locale_facets.h ****        *
 749:/usr/include/c++/9.1.0/bits/locale_facets.h ****        *  This function finds the mask for each char in the range [lo, hi) and
 750:/usr/include/c++/9.1.0/bits/locale_facets.h ****        *  successively writes it to vec.  vec must have as many elements as
 751:/usr/include/c++/9.1.0/bits/locale_facets.h ****        *  the char array.
 752:/usr/include/c++/9.1.0/bits/locale_facets.h ****        *
 753:/usr/include/c++/9.1.0/bits/locale_facets.h ****        *  @param __lo  Pointer to start of range.
 754:/usr/include/c++/9.1.0/bits/locale_facets.h ****        *  @param __hi  Pointer to end of range.
 755:/usr/include/c++/9.1.0/bits/locale_facets.h ****        *  @param __vec  Pointer to an array of mask storage.
 756:/usr/include/c++/9.1.0/bits/locale_facets.h ****        *  @return  @a __hi.
 757:/usr/include/c++/9.1.0/bits/locale_facets.h ****       */
 758:/usr/include/c++/9.1.0/bits/locale_facets.h ****       inline const char*
 759:/usr/include/c++/9.1.0/bits/locale_facets.h ****       is(const char* __lo, const char* __hi, mask* __vec) const;
 760:/usr/include/c++/9.1.0/bits/locale_facets.h **** 
 761:/usr/include/c++/9.1.0/bits/locale_facets.h ****       /**
 762:/usr/include/c++/9.1.0/bits/locale_facets.h ****        *  @brief  Find char matching a mask
 763:/usr/include/c++/9.1.0/bits/locale_facets.h ****        *
 764:/usr/include/c++/9.1.0/bits/locale_facets.h ****        *  This function searches for and returns the first char in [lo,hi) for
 765:/usr/include/c++/9.1.0/bits/locale_facets.h ****        *  which is(m,char) is true.
 766:/usr/include/c++/9.1.0/bits/locale_facets.h ****        *
 767:/usr/include/c++/9.1.0/bits/locale_facets.h ****        *  @param __m  The mask to compare against.
 768:/usr/include/c++/9.1.0/bits/locale_facets.h ****        *  @param __lo  Pointer to start of range.
 769:/usr/include/c++/9.1.0/bits/locale_facets.h ****        *  @param __hi  Pointer to end of range.
 770:/usr/include/c++/9.1.0/bits/locale_facets.h ****        *  @return  Pointer to a matching char if found, else @a __hi.
GAS LISTING /tmp/cc1DIh6n.s 			page 54


 771:/usr/include/c++/9.1.0/bits/locale_facets.h ****       */
 772:/usr/include/c++/9.1.0/bits/locale_facets.h ****       inline const char*
 773:/usr/include/c++/9.1.0/bits/locale_facets.h ****       scan_is(mask __m, const char* __lo, const char* __hi) const;
 774:/usr/include/c++/9.1.0/bits/locale_facets.h **** 
 775:/usr/include/c++/9.1.0/bits/locale_facets.h ****       /**
 776:/usr/include/c++/9.1.0/bits/locale_facets.h ****        *  @brief  Find char not matching a mask
 777:/usr/include/c++/9.1.0/bits/locale_facets.h ****        *
 778:/usr/include/c++/9.1.0/bits/locale_facets.h ****        *  This function searches for and returns a pointer to the first char
 779:/usr/include/c++/9.1.0/bits/locale_facets.h ****        *  in [__lo,__hi) for which is(m,char) is false.
 780:/usr/include/c++/9.1.0/bits/locale_facets.h ****        *
 781:/usr/include/c++/9.1.0/bits/locale_facets.h ****        *  @param __m  The mask to compare against.
 782:/usr/include/c++/9.1.0/bits/locale_facets.h ****        *  @param __lo  Pointer to start of range.
 783:/usr/include/c++/9.1.0/bits/locale_facets.h ****        *  @param __hi  Pointer to end of range.
 784:/usr/include/c++/9.1.0/bits/locale_facets.h ****        *  @return  Pointer to a non-matching char if found, else @a __hi.
 785:/usr/include/c++/9.1.0/bits/locale_facets.h ****       */
 786:/usr/include/c++/9.1.0/bits/locale_facets.h ****       inline const char*
 787:/usr/include/c++/9.1.0/bits/locale_facets.h ****       scan_not(mask __m, const char* __lo, const char* __hi) const;
 788:/usr/include/c++/9.1.0/bits/locale_facets.h **** 
 789:/usr/include/c++/9.1.0/bits/locale_facets.h ****       /**
 790:/usr/include/c++/9.1.0/bits/locale_facets.h ****        *  @brief  Convert to uppercase.
 791:/usr/include/c++/9.1.0/bits/locale_facets.h ****        *
 792:/usr/include/c++/9.1.0/bits/locale_facets.h ****        *  This function converts the char argument to uppercase if possible.
 793:/usr/include/c++/9.1.0/bits/locale_facets.h ****        *  If not possible (for example, '2'), returns the argument.
 794:/usr/include/c++/9.1.0/bits/locale_facets.h ****        *
 795:/usr/include/c++/9.1.0/bits/locale_facets.h ****        *  toupper() acts as if it returns ctype<char>::do_toupper(c).
 796:/usr/include/c++/9.1.0/bits/locale_facets.h ****        *  do_toupper() must always return the same result for the same input.
 797:/usr/include/c++/9.1.0/bits/locale_facets.h ****        *
 798:/usr/include/c++/9.1.0/bits/locale_facets.h ****        *  @param __c  The char to convert.
 799:/usr/include/c++/9.1.0/bits/locale_facets.h ****        *  @return  The uppercase char if convertible, else @a __c.
 800:/usr/include/c++/9.1.0/bits/locale_facets.h ****       */
 801:/usr/include/c++/9.1.0/bits/locale_facets.h ****       char_type
 802:/usr/include/c++/9.1.0/bits/locale_facets.h ****       toupper(char_type __c) const
 803:/usr/include/c++/9.1.0/bits/locale_facets.h ****       { return this->do_toupper(__c); }
 804:/usr/include/c++/9.1.0/bits/locale_facets.h **** 
 805:/usr/include/c++/9.1.0/bits/locale_facets.h ****       /**
 806:/usr/include/c++/9.1.0/bits/locale_facets.h ****        *  @brief  Convert array to uppercase.
 807:/usr/include/c++/9.1.0/bits/locale_facets.h ****        *
 808:/usr/include/c++/9.1.0/bits/locale_facets.h ****        *  This function converts each char in the range [__lo,__hi) to uppercase
 809:/usr/include/c++/9.1.0/bits/locale_facets.h ****        *  if possible.  Other chars remain untouched.
 810:/usr/include/c++/9.1.0/bits/locale_facets.h ****        *
 811:/usr/include/c++/9.1.0/bits/locale_facets.h ****        *  toupper() acts as if it returns ctype<char>:: do_toupper(__lo, __hi).
 812:/usr/include/c++/9.1.0/bits/locale_facets.h ****        *  do_toupper() must always return the same result for the same input.
 813:/usr/include/c++/9.1.0/bits/locale_facets.h ****        *
 814:/usr/include/c++/9.1.0/bits/locale_facets.h ****        *  @param __lo  Pointer to first char in range.
 815:/usr/include/c++/9.1.0/bits/locale_facets.h ****        *  @param __hi  Pointer to end of range.
 816:/usr/include/c++/9.1.0/bits/locale_facets.h ****        *  @return  @a __hi.
 817:/usr/include/c++/9.1.0/bits/locale_facets.h ****       */
 818:/usr/include/c++/9.1.0/bits/locale_facets.h ****       const char_type*
 819:/usr/include/c++/9.1.0/bits/locale_facets.h ****       toupper(char_type *__lo, const char_type* __hi) const
 820:/usr/include/c++/9.1.0/bits/locale_facets.h ****       { return this->do_toupper(__lo, __hi); }
 821:/usr/include/c++/9.1.0/bits/locale_facets.h **** 
 822:/usr/include/c++/9.1.0/bits/locale_facets.h ****       /**
 823:/usr/include/c++/9.1.0/bits/locale_facets.h ****        *  @brief  Convert to lowercase.
 824:/usr/include/c++/9.1.0/bits/locale_facets.h ****        *
 825:/usr/include/c++/9.1.0/bits/locale_facets.h ****        *  This function converts the char argument to lowercase if possible.
 826:/usr/include/c++/9.1.0/bits/locale_facets.h ****        *  If not possible (for example, '2'), returns the argument.
 827:/usr/include/c++/9.1.0/bits/locale_facets.h ****        *
GAS LISTING /tmp/cc1DIh6n.s 			page 55


 828:/usr/include/c++/9.1.0/bits/locale_facets.h ****        *  tolower() acts as if it returns ctype<char>::do_tolower(__c).
 829:/usr/include/c++/9.1.0/bits/locale_facets.h ****        *  do_tolower() must always return the same result for the same input.
 830:/usr/include/c++/9.1.0/bits/locale_facets.h ****        *
 831:/usr/include/c++/9.1.0/bits/locale_facets.h ****        *  @param __c  The char to convert.
 832:/usr/include/c++/9.1.0/bits/locale_facets.h ****        *  @return  The lowercase char if convertible, else @a __c.
 833:/usr/include/c++/9.1.0/bits/locale_facets.h ****       */
 834:/usr/include/c++/9.1.0/bits/locale_facets.h ****       char_type
 835:/usr/include/c++/9.1.0/bits/locale_facets.h ****       tolower(char_type __c) const
 836:/usr/include/c++/9.1.0/bits/locale_facets.h ****       { return this->do_tolower(__c); }
 837:/usr/include/c++/9.1.0/bits/locale_facets.h **** 
 838:/usr/include/c++/9.1.0/bits/locale_facets.h ****       /**
 839:/usr/include/c++/9.1.0/bits/locale_facets.h ****        *  @brief  Convert array to lowercase.
 840:/usr/include/c++/9.1.0/bits/locale_facets.h ****        *
 841:/usr/include/c++/9.1.0/bits/locale_facets.h ****        *  This function converts each char in the range [lo,hi) to lowercase
 842:/usr/include/c++/9.1.0/bits/locale_facets.h ****        *  if possible.  Other chars remain untouched.
 843:/usr/include/c++/9.1.0/bits/locale_facets.h ****        *
 844:/usr/include/c++/9.1.0/bits/locale_facets.h ****        *  tolower() acts as if it returns ctype<char>:: do_tolower(__lo, __hi).
 845:/usr/include/c++/9.1.0/bits/locale_facets.h ****        *  do_tolower() must always return the same result for the same input.
 846:/usr/include/c++/9.1.0/bits/locale_facets.h ****        *
 847:/usr/include/c++/9.1.0/bits/locale_facets.h ****        *  @param __lo  Pointer to first char in range.
 848:/usr/include/c++/9.1.0/bits/locale_facets.h ****        *  @param __hi  Pointer to end of range.
 849:/usr/include/c++/9.1.0/bits/locale_facets.h ****        *  @return  @a __hi.
 850:/usr/include/c++/9.1.0/bits/locale_facets.h ****       */
 851:/usr/include/c++/9.1.0/bits/locale_facets.h ****       const char_type*
 852:/usr/include/c++/9.1.0/bits/locale_facets.h ****       tolower(char_type* __lo, const char_type* __hi) const
 853:/usr/include/c++/9.1.0/bits/locale_facets.h ****       { return this->do_tolower(__lo, __hi); }
 854:/usr/include/c++/9.1.0/bits/locale_facets.h **** 
 855:/usr/include/c++/9.1.0/bits/locale_facets.h ****       /**
 856:/usr/include/c++/9.1.0/bits/locale_facets.h ****        *  @brief  Widen char
 857:/usr/include/c++/9.1.0/bits/locale_facets.h ****        *
 858:/usr/include/c++/9.1.0/bits/locale_facets.h ****        *  This function converts the char to char_type using the simplest
 859:/usr/include/c++/9.1.0/bits/locale_facets.h ****        *  reasonable transformation.  For an underived ctype<char> facet, the
 860:/usr/include/c++/9.1.0/bits/locale_facets.h ****        *  argument will be returned unchanged.
 861:/usr/include/c++/9.1.0/bits/locale_facets.h ****        *
 862:/usr/include/c++/9.1.0/bits/locale_facets.h ****        *  This function works as if it returns ctype<char>::do_widen(c).
 863:/usr/include/c++/9.1.0/bits/locale_facets.h ****        *  do_widen() must always return the same result for the same input.
 864:/usr/include/c++/9.1.0/bits/locale_facets.h ****        *
 865:/usr/include/c++/9.1.0/bits/locale_facets.h ****        *  Note: this is not what you want for codepage conversions.  See
 866:/usr/include/c++/9.1.0/bits/locale_facets.h ****        *  codecvt for that.
 867:/usr/include/c++/9.1.0/bits/locale_facets.h ****        *
 868:/usr/include/c++/9.1.0/bits/locale_facets.h ****        *  @param __c  The char to convert.
 869:/usr/include/c++/9.1.0/bits/locale_facets.h ****        *  @return  The converted character.
 870:/usr/include/c++/9.1.0/bits/locale_facets.h ****       */
 871:/usr/include/c++/9.1.0/bits/locale_facets.h ****       char_type
 872:/usr/include/c++/9.1.0/bits/locale_facets.h ****       widen(char __c) const
 255              		.loc 6 872 7 is_stmt 1 view .LVU61
 256              	.LBB195:
 873:/usr/include/c++/9.1.0/bits/locale_facets.h ****       {
 874:/usr/include/c++/9.1.0/bits/locale_facets.h **** 	if (_M_widen_ok)
 257              		.loc 6 874 2 view .LVU62
 258 0121 41807C24 		cmpb	$0, 56(%r12)
 258      3800
 259 0127 742A     		je	.L16
 875:/usr/include/c++/9.1.0/bits/locale_facets.h **** 	  return _M_widen[static_cast<unsigned char>(__c)];
 260              		.loc 6 875 4 view .LVU63
 261              		.loc 6 875 51 is_stmt 0 view .LVU64
 262 0129 410FB674 		movzbl	67(%r12), %esi
GAS LISTING /tmp/cc1DIh6n.s 			page 56


 262      2443
 263              	.LVL33:
 264              	.L17:
 265              		.loc 6 875 51 view .LVU65
 266              	.LBE195:
 267              	.LBE194:
 268              	.LBE190:
 269              	.LBE189:
 270              		.loc 3 600 19 view .LVU66
 271 012f 400FBEF6 		movsbl	%sil, %esi
 272 0133 4889DF   		movq	%rbx, %rdi
 273 0136 E8000000 		call	_ZNSo3putEc@PLT
 273      00
 274              	.LVL34:
 275 013b 4889C7   		movq	%rax, %rdi
 276              	.LVL35:
 277              	.LBB200:
 278              	.LBI200:
 601:/usr/include/c++/9.1.0/ostream **** 
 602:/usr/include/c++/9.1.0/ostream ****   /**
 603:/usr/include/c++/9.1.0/ostream ****    *  @brief  Write a null character into the output sequence.
 604:/usr/include/c++/9.1.0/ostream ****    *
 605:/usr/include/c++/9.1.0/ostream ****    *  <em>Null character</em> is @c CharT() by definition.  For CharT
 606:/usr/include/c++/9.1.0/ostream ****    *  of @c char, this correctly writes the ASCII @c NUL character
 607:/usr/include/c++/9.1.0/ostream ****    *  string terminator.
 608:/usr/include/c++/9.1.0/ostream ****   */
 609:/usr/include/c++/9.1.0/ostream ****   template<typename _CharT, typename _Traits>
 610:/usr/include/c++/9.1.0/ostream ****     inline basic_ostream<_CharT, _Traits>&
 611:/usr/include/c++/9.1.0/ostream ****     ends(basic_ostream<_CharT, _Traits>& __os)
 612:/usr/include/c++/9.1.0/ostream ****     { return __os.put(_CharT()); }
 613:/usr/include/c++/9.1.0/ostream **** 
 614:/usr/include/c++/9.1.0/ostream ****   /**
 615:/usr/include/c++/9.1.0/ostream ****    *  @brief  Flushes the output stream.
 616:/usr/include/c++/9.1.0/ostream ****    *
 617:/usr/include/c++/9.1.0/ostream ****    *  This manipulator simply calls the stream's @c flush() member function.
 618:/usr/include/c++/9.1.0/ostream ****   */
 619:/usr/include/c++/9.1.0/ostream ****   template<typename _CharT, typename _Traits>
 620:/usr/include/c++/9.1.0/ostream ****     inline basic_ostream<_CharT, _Traits>&
 621:/usr/include/c++/9.1.0/ostream ****     flush(basic_ostream<_CharT, _Traits>& __os)
 279              		.loc 3 621 5 is_stmt 1 view .LVU67
 280              	.LBB201:
 622:/usr/include/c++/9.1.0/ostream ****     { return __os.flush(); }
 281              		.loc 3 622 25 is_stmt 0 view .LVU68
 282 013e E8000000 		call	_ZNSo5flushEv@PLT
 282      00
 283              	.LVL36:
 284              		.loc 3 622 25 view .LVU69
 285              	.LBE201:
 286              	.LBE200:
 287              	.LBE188:
 288              	.LBE187:
 289              	.LBE186:
 361:Src/main.cpp  ****     {
 290              		.loc 1 361 5 is_stmt 1 view .LVU70
 291 0143 4080FD1B 		cmpb	$27, %bpl
 292 0147 7425     		je	.L21
 293              	.L14:
GAS LISTING /tmp/cc1DIh6n.s 			page 57


 366:Src/main.cpp  **** 
 294              		.loc 1 366 1 is_stmt 0 view .LVU71
 295 0149 5B       		popq	%rbx
 296              		.cfi_remember_state
 297              		.cfi_def_cfa_offset 24
 298 014a 5D       		popq	%rbp
 299              		.cfi_def_cfa_offset 16
 300 014b 415C     		popq	%r12
 301              		.cfi_def_cfa_offset 8
 302 014d C3       		ret
 303              	.LVL37:
 304              	.L20:
 305              		.cfi_restore_state
 306              	.LBB205:
 307              	.LBB204:
 308              	.LBB203:
 309              	.LBB202:
 310              	.LBB199:
 311              	.LBB197:
 312              	.LBB193:
  50:/usr/include/c++/9.1.0/bits/basic_ios.h ****       return *__f;
 313              		.loc 5 50 18 view .LVU72
 314 014e E8000000 		call	_ZSt16__throw_bad_castv@PLT
 314      00
 315              	.LVL38:
 316              	.L16:
  50:/usr/include/c++/9.1.0/bits/basic_ios.h ****       return *__f;
 317              		.loc 5 50 18 view .LVU73
 318              	.LBE193:
 319              	.LBE197:
 320              	.LBB198:
 321              	.LBB196:
 876:/usr/include/c++/9.1.0/bits/locale_facets.h **** 	this->_M_widen_init();
 322              		.loc 6 876 2 is_stmt 1 view .LVU74
 323              		.loc 6 876 21 is_stmt 0 view .LVU75
 324 0153 4C89E7   		movq	%r12, %rdi
 325 0156 E8000000 		call	_ZNKSt5ctypeIcE13_M_widen_initEv@PLT
 325      00
 326              	.LVL39:
 877:/usr/include/c++/9.1.0/bits/locale_facets.h **** 	return this->do_widen(__c);
 327              		.loc 6 877 2 is_stmt 1 view .LVU76
 328              		.loc 6 877 27 is_stmt 0 view .LVU77
 329 015b 498B0424 		movq	(%r12), %rax
 330              		.loc 6 877 23 view .LVU78
 331 015f BE0A0000 		movl	$10, %esi
 331      00
 332 0164 4C89E7   		movq	%r12, %rdi
 333 0167 FF5030   		call	*48(%rax)
 334              	.LVL40:
 335 016a 89C6     		movl	%eax, %esi
 336              		.loc 6 877 27 view .LVU79
 337 016c EBC1     		jmp	.L17
 338              	.LVL41:
 339              	.L21:
 340              		.loc 6 877 27 view .LVU80
 341              	.LBE196:
 342              	.LBE198:
GAS LISTING /tmp/cc1DIh6n.s 			page 58


 343              	.LBE199:
 344              	.LBE202:
 345              	.LBE203:
 346              	.LBE204:
 347              	.LBE205:
 363:Src/main.cpp  **** 		terminated = true;
 348              		.loc 1 363 6 is_stmt 1 view .LVU81
 349              	.LBB206:
 350              	.LBI206:
 565:/usr/include/c++/9.1.0/ostream ****     {
 351              		.loc 3 565 5 view .LVU82
 565:/usr/include/c++/9.1.0/ostream ****     {
 352              		.loc 3 565 5 is_stmt 0 view .LVU83
 353              	.LBE206:
 354              		.loc 4 335 2 is_stmt 1 view .LVU84
 355              	.LBB208:
 356              	.LBB207:
 570:/usr/include/c++/9.1.0/ostream **** 			 static_cast<streamsize>(_Traits::length(__s)));
 357              		.loc 3 570 18 is_stmt 0 view .LVU85
 358 016e BA040000 		movl	$4, %edx
 358      00
 359 0173 488D3500 		leaq	.LC2(%rip), %rsi
 359      000000
 360 017a 488D3D00 		leaq	_ZSt4cout(%rip), %rdi
 360      000000
 361 0181 E8000000 		call	_ZSt16__ostream_insertIcSt11char_traitsIcEERSt13basic_ostreamIT_T0_ES6_PKS3_l@PLT
 361      00
 362              	.LVL42:
 570:/usr/include/c++/9.1.0/ostream **** 			 static_cast<streamsize>(_Traits::length(__s)));
 363              		.loc 3 570 18 view .LVU86
 364              	.LBE207:
 365              	.LBE208:
 364:Src/main.cpp  ****     }
 366              		.loc 1 364 3 is_stmt 1 view .LVU87
 364:Src/main.cpp  ****     }
 367              		.loc 1 364 14 is_stmt 0 view .LVU88
 368 0186 C6050000 		movb	$1, terminated(%rip)
 368      000001
 366:Src/main.cpp  **** 
 369              		.loc 1 366 1 view .LVU89
 370 018d EBBA     		jmp	.L14
 371              		.cfi_endproc
 372              	.LFE2489:
 374              		.globl	_Z12calculateWayv
 376              	_Z12calculateWayv:
 377              	.LFB2470:
  57:Src/main.cpp  **** 
 378              		.loc 1 57 1 is_stmt 1 view -0
 379              		.cfi_startproc
  59:Src/main.cpp  **** 
 380              		.loc 1 59 1 is_stmt 0 view .LVU91
 381 018f C3       		ret
 382              		.cfi_endproc
 383              	.LFE2470:
 385              		.globl	_Z10createVectPK6coordsf
 387              	_Z10createVectPK6coordsf:
 388              	.LVL43:
GAS LISTING /tmp/cc1DIh6n.s 			page 59


 389              	.LFB2471:
  71:Src/main.cpp  **** 	struct vect ret;
 390              		.loc 1 71 1 is_stmt 1 view -0
 391              		.cfi_startproc
  71:Src/main.cpp  **** 	struct vect ret;
 392              		.loc 1 71 1 is_stmt 0 view .LVU93
 393 0190 55       		pushq	%rbp
 394              		.cfi_def_cfa_offset 16
 395              		.cfi_offset 6, -16
 396 0191 53       		pushq	%rbx
 397              		.cfi_def_cfa_offset 24
 398              		.cfi_offset 3, -24
 399 0192 4883EC18 		subq	$24, %rsp
 400              		.cfi_def_cfa_offset 48
 401 0196 4889FD   		movq	%rdi, %rbp
 402 0199 F30F1144 		movss	%xmm0, 4(%rsp)
 402      2404
  72:Src/main.cpp  **** 	ret.c  = (struct coords*)malloc(sizeof(struct coords));
 403              		.loc 1 72 2 is_stmt 1 view .LVU94
  73:Src/main.cpp  **** 	ret.c->x = c->x;
 404              		.loc 1 73 2 view .LVU95
  73:Src/main.cpp  **** 	ret.c->x = c->x;
 405              		.loc 1 73 33 is_stmt 0 view .LVU96
 406 019f BF080000 		movl	$8, %edi
 406      00
 407              	.LVL44:
  73:Src/main.cpp  **** 	ret.c->x = c->x;
 408              		.loc 1 73 33 view .LVU97
 409 01a4 E8000000 		call	malloc@PLT
 409      00
 410              	.LVL45:
  73:Src/main.cpp  **** 	ret.c->x = c->x;
 411              		.loc 1 73 33 view .LVU98
 412 01a9 4889C3   		movq	%rax, %rbx
  74:Src/main.cpp  **** 	ret.c->y = c->y;
 413              		.loc 1 74 2 is_stmt 1 view .LVU99
  74:Src/main.cpp  **** 	ret.c->y = c->y;
 414              		.loc 1 74 16 is_stmt 0 view .LVU100
 415 01ac F30F1045 		movss	0(%rbp), %xmm0
 415      00
  74:Src/main.cpp  **** 	ret.c->y = c->y;
 416              		.loc 1 74 11 view .LVU101
 417 01b1 F30F1100 		movss	%xmm0, (%rax)
  75:Src/main.cpp  **** 	ret.dx = QUAD_CHECK_SIDE * 10.0 / tan(angle / 180.0 * PI);
 418              		.loc 1 75 2 is_stmt 1 view .LVU102
  75:Src/main.cpp  **** 	ret.dx = QUAD_CHECK_SIDE * 10.0 / tan(angle / 180.0 * PI);
 419              		.loc 1 75 16 is_stmt 0 view .LVU103
 420 01b5 F30F1045 		movss	4(%rbp), %xmm0
 420      04
  75:Src/main.cpp  **** 	ret.dx = QUAD_CHECK_SIDE * 10.0 / tan(angle / 180.0 * PI);
 421              		.loc 1 75 11 view .LVU104
 422 01ba F30F1140 		movss	%xmm0, 4(%rax)
 422      04
  76:Src/main.cpp  **** 	ret.dy = ret.dx * tan(angle / 180.0 * PI);
 423              		.loc 1 76 2 is_stmt 1 view .LVU105
  76:Src/main.cpp  **** 	ret.dy = ret.dx * tan(angle / 180.0 * PI);
 424              		.loc 1 76 27 is_stmt 0 view .LVU106
GAS LISTING /tmp/cc1DIh6n.s 			page 60


 425 01bf 488B0500 		movq	QUAD_CHECK_SIDE(%rip), %rax
 425      000000
 426 01c6 4885C0   		testq	%rax, %rax
 427 01c9 0F880501 		js	.L24
 427      0000
 428 01cf 660FEFC0 		pxor	%xmm0, %xmm0
 429 01d3 F2480F2A 		cvtsi2sdq	%rax, %xmm0
 429      C0
 430              	.L25:
 431 01d8 F20F5905 		mulsd	.LC3(%rip), %xmm0
 431      00000000 
 432 01e0 F20F1144 		movsd	%xmm0, 8(%rsp)
 432      2408
  76:Src/main.cpp  **** 	ret.dy = ret.dx * tan(angle / 180.0 * PI);
 433              		.loc 1 76 40 view .LVU107
 434 01e6 660FEFC0 		pxor	%xmm0, %xmm0
 435 01ea F30F5A44 		cvtss2sd	4(%rsp), %xmm0
 435      2404
  76:Src/main.cpp  **** 	ret.dy = ret.dx * tan(angle / 180.0 * PI);
 436              		.loc 1 76 46 view .LVU108
 437 01f0 F20F5E05 		divsd	.LC4(%rip), %xmm0
 437      00000000 
  76:Src/main.cpp  **** 	ret.dy = ret.dx * tan(angle / 180.0 * PI);
 438              		.loc 1 76 39 view .LVU109
 439 01f8 F20F5905 		mulsd	.LC5(%rip), %xmm0
 439      00000000 
 440 0200 E8000000 		call	tan@PLT
 440      00
 441              	.LVL46:
  76:Src/main.cpp  **** 	ret.dy = ret.dx * tan(angle / 180.0 * PI);
 442              		.loc 1 76 34 view .LVU110
 443 0205 F20F104C 		movsd	8(%rsp), %xmm1
 443      2408
 444 020b F20F5EC8 		divsd	%xmm0, %xmm1
 445 020f F20F5AC9 		cvtsd2ss	%xmm1, %xmm1
  77:Src/main.cpp  **** 	ret.dx = abs(ret.dx);
 446              		.loc 1 77 2 is_stmt 1 view .LVU111
  77:Src/main.cpp  **** 	ret.dx = abs(ret.dx);
 447              		.loc 1 77 15 is_stmt 0 view .LVU112
 448 0213 660FEFD2 		pxor	%xmm2, %xmm2
 449 0217 F30F5AD1 		cvtss2sd	%xmm1, %xmm2
  77:Src/main.cpp  **** 	ret.dx = abs(ret.dx);
 450              		.loc 1 77 18 view .LVU113
 451 021b F20F59C2 		mulsd	%xmm2, %xmm0
 452 021f F20F5AC0 		cvtsd2ss	%xmm0, %xmm0
  78:Src/main.cpp  **** 	ret.dy = abs(ret.dy);
 453              		.loc 1 78 2 is_stmt 1 view .LVU114
 454              	.LVL47:
 455              	.LBB209:
 456              	.LBI209:
 457              		.file 7 "/usr/include/c++/9.1.0/bits/std_abs.h"
   1:/usr/include/c++/9.1.0/bits/std_abs.h **** // -*- C++ -*- C library enhancements header.
   2:/usr/include/c++/9.1.0/bits/std_abs.h **** 
   3:/usr/include/c++/9.1.0/bits/std_abs.h **** // Copyright (C) 2016-2019 Free Software Foundation, Inc.
   4:/usr/include/c++/9.1.0/bits/std_abs.h **** //
   5:/usr/include/c++/9.1.0/bits/std_abs.h **** // This file is part of the GNU ISO C++ Library.  This library is free
   6:/usr/include/c++/9.1.0/bits/std_abs.h **** // software; you can redistribute it and/or modify it under the
GAS LISTING /tmp/cc1DIh6n.s 			page 61


   7:/usr/include/c++/9.1.0/bits/std_abs.h **** // terms of the GNU General Public License as published by the
   8:/usr/include/c++/9.1.0/bits/std_abs.h **** // Free Software Foundation; either version 3, or (at your option)
   9:/usr/include/c++/9.1.0/bits/std_abs.h **** // any later version.
  10:/usr/include/c++/9.1.0/bits/std_abs.h **** 
  11:/usr/include/c++/9.1.0/bits/std_abs.h **** // This library is distributed in the hope that it will be useful,
  12:/usr/include/c++/9.1.0/bits/std_abs.h **** // but WITHOUT ANY WARRANTY; without even the implied warranty of
  13:/usr/include/c++/9.1.0/bits/std_abs.h **** // MERCHANTABILITY or FITNESS FOR A PARTICULAR PURPOSE.  See the
  14:/usr/include/c++/9.1.0/bits/std_abs.h **** // GNU General Public License for more details.
  15:/usr/include/c++/9.1.0/bits/std_abs.h **** 
  16:/usr/include/c++/9.1.0/bits/std_abs.h **** // Under Section 7 of GPL version 3, you are granted additional
  17:/usr/include/c++/9.1.0/bits/std_abs.h **** // permissions described in the GCC Runtime Library Exception, version
  18:/usr/include/c++/9.1.0/bits/std_abs.h **** // 3.1, as published by the Free Software Foundation.
  19:/usr/include/c++/9.1.0/bits/std_abs.h **** 
  20:/usr/include/c++/9.1.0/bits/std_abs.h **** // You should have received a copy of the GNU General Public License and
  21:/usr/include/c++/9.1.0/bits/std_abs.h **** // a copy of the GCC Runtime Library Exception along with this program;
  22:/usr/include/c++/9.1.0/bits/std_abs.h **** // see the files COPYING3 and COPYING.RUNTIME respectively.  If not, see
  23:/usr/include/c++/9.1.0/bits/std_abs.h **** // <http://www.gnu.org/licenses/>.
  24:/usr/include/c++/9.1.0/bits/std_abs.h **** 
  25:/usr/include/c++/9.1.0/bits/std_abs.h **** /** @file include/bits/std_abs.h
  26:/usr/include/c++/9.1.0/bits/std_abs.h ****  *  This is an internal header file, included by other library headers.
  27:/usr/include/c++/9.1.0/bits/std_abs.h ****  *  Do not attempt to use it directly. @headername{cmath, cstdlib}
  28:/usr/include/c++/9.1.0/bits/std_abs.h ****  */
  29:/usr/include/c++/9.1.0/bits/std_abs.h **** 
  30:/usr/include/c++/9.1.0/bits/std_abs.h **** #ifndef _GLIBCXX_BITS_STD_ABS_H
  31:/usr/include/c++/9.1.0/bits/std_abs.h **** #define _GLIBCXX_BITS_STD_ABS_H
  32:/usr/include/c++/9.1.0/bits/std_abs.h **** 
  33:/usr/include/c++/9.1.0/bits/std_abs.h **** #pragma GCC system_header
  34:/usr/include/c++/9.1.0/bits/std_abs.h **** 
  35:/usr/include/c++/9.1.0/bits/std_abs.h **** #include <bits/c++config.h>
  36:/usr/include/c++/9.1.0/bits/std_abs.h **** 
  37:/usr/include/c++/9.1.0/bits/std_abs.h **** #define _GLIBCXX_INCLUDE_NEXT_C_HEADERS
  38:/usr/include/c++/9.1.0/bits/std_abs.h **** #include_next <stdlib.h>
  39:/usr/include/c++/9.1.0/bits/std_abs.h **** #ifdef __CORRECT_ISO_CPP_MATH_H_PROTO
  40:/usr/include/c++/9.1.0/bits/std_abs.h **** # include_next <math.h>
  41:/usr/include/c++/9.1.0/bits/std_abs.h **** #endif
  42:/usr/include/c++/9.1.0/bits/std_abs.h **** #undef _GLIBCXX_INCLUDE_NEXT_C_HEADERS
  43:/usr/include/c++/9.1.0/bits/std_abs.h **** 
  44:/usr/include/c++/9.1.0/bits/std_abs.h **** #undef abs
  45:/usr/include/c++/9.1.0/bits/std_abs.h **** 
  46:/usr/include/c++/9.1.0/bits/std_abs.h **** extern "C++"
  47:/usr/include/c++/9.1.0/bits/std_abs.h **** {
  48:/usr/include/c++/9.1.0/bits/std_abs.h **** namespace std _GLIBCXX_VISIBILITY(default)
  49:/usr/include/c++/9.1.0/bits/std_abs.h **** {
  50:/usr/include/c++/9.1.0/bits/std_abs.h **** _GLIBCXX_BEGIN_NAMESPACE_VERSION
  51:/usr/include/c++/9.1.0/bits/std_abs.h **** 
  52:/usr/include/c++/9.1.0/bits/std_abs.h ****   using ::abs;
  53:/usr/include/c++/9.1.0/bits/std_abs.h **** 
  54:/usr/include/c++/9.1.0/bits/std_abs.h **** #ifndef __CORRECT_ISO_CPP_STDLIB_H_PROTO
  55:/usr/include/c++/9.1.0/bits/std_abs.h ****   inline long
  56:/usr/include/c++/9.1.0/bits/std_abs.h ****   abs(long __i) { return __builtin_labs(__i); }
  57:/usr/include/c++/9.1.0/bits/std_abs.h **** #endif
  58:/usr/include/c++/9.1.0/bits/std_abs.h **** 
  59:/usr/include/c++/9.1.0/bits/std_abs.h **** #ifdef _GLIBCXX_USE_LONG_LONG
  60:/usr/include/c++/9.1.0/bits/std_abs.h ****   inline long long
  61:/usr/include/c++/9.1.0/bits/std_abs.h ****   abs(long long __x) { return __builtin_llabs (__x); }
  62:/usr/include/c++/9.1.0/bits/std_abs.h **** #endif
  63:/usr/include/c++/9.1.0/bits/std_abs.h **** 
GAS LISTING /tmp/cc1DIh6n.s 			page 62


  64:/usr/include/c++/9.1.0/bits/std_abs.h **** // _GLIBCXX_RESOLVE_LIB_DEFECTS
  65:/usr/include/c++/9.1.0/bits/std_abs.h **** // 2192. Validity and return type of std::abs(0u) is unclear
  66:/usr/include/c++/9.1.0/bits/std_abs.h **** // 2294. <cstdlib> should declare abs(double)
  67:/usr/include/c++/9.1.0/bits/std_abs.h **** // 2735. std::abs(short), std::abs(signed char) and others should return int
  68:/usr/include/c++/9.1.0/bits/std_abs.h **** 
  69:/usr/include/c++/9.1.0/bits/std_abs.h **** #ifndef __CORRECT_ISO_CPP_MATH_H_PROTO
  70:/usr/include/c++/9.1.0/bits/std_abs.h ****   inline _GLIBCXX_CONSTEXPR double
  71:/usr/include/c++/9.1.0/bits/std_abs.h ****   abs(double __x)
  72:/usr/include/c++/9.1.0/bits/std_abs.h ****   { return __builtin_fabs(__x); }
  73:/usr/include/c++/9.1.0/bits/std_abs.h **** 
  74:/usr/include/c++/9.1.0/bits/std_abs.h ****   inline _GLIBCXX_CONSTEXPR float
  75:/usr/include/c++/9.1.0/bits/std_abs.h ****   abs(float __x)
 458              		.loc 7 75 3 view .LVU115
 459              	.LBB210:
  76:/usr/include/c++/9.1.0/bits/std_abs.h ****   { return __builtin_fabsf(__x); }
 460              		.loc 7 76 5 view .LVU116
 461              		.loc 7 76 31 is_stmt 0 view .LVU117
 462 0223 F30F1015 		movss	.LC6(%rip), %xmm2
 462      00000000 
 463 022b 0F54CA   		andps	%xmm2, %xmm1
 464              	.LVL48:
 465              		.loc 7 76 31 view .LVU118
 466              	.LBE210:
 467              	.LBE209:
  79:Src/main.cpp  **** 	if(angle > 180 || angle < 0)
 468              		.loc 1 79 2 is_stmt 1 view .LVU119
 469              	.LBB211:
 470              	.LBI211:
  75:/usr/include/c++/9.1.0/bits/std_abs.h ****   { return __builtin_fabsf(__x); }
 471              		.loc 7 75 3 view .LVU120
 472              	.LBB212:
 473              		.loc 7 76 5 view .LVU121
 474              		.loc 7 76 31 is_stmt 0 view .LVU122
 475 022e 0F54C2   		andps	%xmm2, %xmm0
 476              	.LVL49:
 477              		.loc 7 76 31 view .LVU123
 478              	.LBE212:
 479              	.LBE211:
  79:Src/main.cpp  **** 	if(angle > 180 || angle < 0)
 480              		.loc 1 79 9 view .LVU124
 481 0231 660F7EC0 		movd	%xmm0, %eax
 482 0235 48C1E020 		salq	$32, %rax
 483 0239 660F7ECA 		movd	%xmm1, %edx
 484              	.LVL50:
  79:Src/main.cpp  **** 	if(angle > 180 || angle < 0)
 485              		.loc 1 79 9 view .LVU125
 486 023d 4809C2   		orq	%rax, %rdx
  79:Src/main.cpp  **** 	if(angle > 180 || angle < 0)
 487              		.loc 1 79 9 view .LVU126
 488 0240 4889D1   		movq	%rdx, %rcx
  80:Src/main.cpp  **** 		ret.dy *= -1;
 489              		.loc 1 80 2 is_stmt 1 view .LVU127
 490 0243 F30F1064 		movss	4(%rsp), %xmm4
 490      2404
 491 0249 0F2F2500 		comiss	.LC7(%rip), %xmm4
 491      000000
 492 0250 7709     		ja	.L26
GAS LISTING /tmp/cc1DIh6n.s 			page 63


  80:Src/main.cpp  **** 		ret.dy *= -1;
 493              		.loc 1 80 17 is_stmt 0 discriminator 1 view .LVU128
 494 0252 660FEFD2 		pxor	%xmm2, %xmm2
 495 0256 0F2FD4   		comiss	%xmm4, %xmm2
 496 0259 7614     		jbe	.L27
 497              	.L26:
  81:Src/main.cpp  **** 
 498              		.loc 1 81 3 is_stmt 1 view .LVU129
  81:Src/main.cpp  **** 
 499              		.loc 1 81 10 is_stmt 0 view .LVU130
 500 025b 0F570500 		xorps	.LC9(%rip), %xmm0
 500      000000
 501 0262 660F7EC0 		movd	%xmm0, %eax
 502 0266 48C1E020 		salq	$32, %rax
 503 026a 89D1     		movl	%edx, %ecx
  81:Src/main.cpp  **** 
 504              		.loc 1 81 10 view .LVU131
 505 026c 4809C1   		orq	%rax, %rcx
 506              	.L27:
  83:Src/main.cpp  **** 		ret.dx *= -1;
 507              		.loc 1 83 2 is_stmt 1 view .LVU132
 508 026f F30F106C 		movss	4(%rsp), %xmm5
 508      2404
 509 0275 0F2F2D00 		comiss	.LC10(%rip), %xmm5
 509      000000
 510 027c 720D     		jb	.L29
  83:Src/main.cpp  **** 		ret.dx *= -1;
 511              		.loc 1 83 21 is_stmt 0 discriminator 2 view .LVU133
 512 027e F30F1005 		movss	.LC11(%rip), %xmm0
 512      00000000 
 513 0286 0F2FC5   		comiss	%xmm5, %xmm0
 514 0289 733A     		jnb	.L31
 515              	.L29:
  83:Src/main.cpp  **** 		ret.dx *= -1;
 516              		.loc 1 83 5 discriminator 3 view .LVU134
 517 028b F30F1074 		movss	4(%rsp), %xmm6
 517      2404
 518 0291 0F2F3500 		comiss	.LC12(%rip), %xmm6
 518      000000
 519 0298 720D     		jb	.L32
  83:Src/main.cpp  **** 		ret.dx *= -1;
 520              		.loc 1 83 59 discriminator 4 view .LVU135
 521 029a F30F1005 		movss	.LC13(%rip), %xmm0
 521      00000000 
 522 02a2 0F2FC6   		comiss	%xmm6, %xmm0
 523 02a5 731E     		jnb	.L31
 524              	.L32:
  84:Src/main.cpp  **** 
 525              		.loc 1 84 3 is_stmt 1 view .LVU136
  84:Src/main.cpp  **** 
 526              		.loc 1 84 10 is_stmt 0 view .LVU137
 527 02a7 0F570D00 		xorps	.LC9(%rip), %xmm1
 527      000000
 528 02ae 660F7ECA 		movd	%xmm1, %edx
 529 02b2 48B80000 		movabsq	$-4294967296, %rax
 529      0000FFFF 
 529      FFFF
GAS LISTING /tmp/cc1DIh6n.s 			page 64


  84:Src/main.cpp  **** 
 530              		.loc 1 84 10 view .LVU138
 531 02bc 4821C8   		andq	%rcx, %rax
 532 02bf 4809D0   		orq	%rdx, %rax
 533 02c2 4889C1   		movq	%rax, %rcx
 534              	.L31:
  91:Src/main.cpp  **** 
 535              		.loc 1 91 2 is_stmt 1 view .LVU139
  93:Src/main.cpp  **** 
 536              		.loc 1 93 1 is_stmt 0 view .LVU140
 537 02c5 4889D8   		movq	%rbx, %rax
  93:Src/main.cpp  **** 
 538              		.loc 1 93 1 view .LVU141
 539 02c8 66480F6E 		movq	%rcx, %xmm0
 539      C1
 540 02cd 4883C418 		addq	$24, %rsp
 541              		.cfi_remember_state
 542              		.cfi_def_cfa_offset 24
 543 02d1 5B       		popq	%rbx
 544              		.cfi_def_cfa_offset 16
 545 02d2 5D       		popq	%rbp
 546              		.cfi_def_cfa_offset 8
 547              	.LVL51:
  93:Src/main.cpp  **** 
 548              		.loc 1 93 1 view .LVU142
 549 02d3 C3       		ret
 550              	.LVL52:
 551              	.L24:
 552              		.cfi_restore_state
  76:Src/main.cpp  **** 	ret.dy = ret.dx * tan(angle / 180.0 * PI);
 553              		.loc 1 76 27 view .LVU143
 554 02d4 4889C2   		movq	%rax, %rdx
 555 02d7 48D1EA   		shrq	%rdx
 556 02da 83E001   		andl	$1, %eax
 557 02dd 4809C2   		orq	%rax, %rdx
 558 02e0 660FEFC0 		pxor	%xmm0, %xmm0
 559 02e4 F2480F2A 		cvtsi2sdq	%rdx, %xmm0
 559      C2
 560 02e9 F20F58C0 		addsd	%xmm0, %xmm0
 561 02ed E9E6FEFF 		jmp	.L25
 561      FF
 562              		.cfi_endproc
 563              	.LFE2471:
 565              		.globl	_Z10createVectPK8obstaclehf
 567              	_Z10createVectPK8obstaclehf:
 568              	.LVL53:
 569              	.LFB2475:
  97:Src/main.cpp  **** 	struct vect ret;
 570              		.loc 1 97 1 is_stmt 1 view -0
 571              		.cfi_startproc
  97:Src/main.cpp  **** 	struct vect ret;
 572              		.loc 1 97 1 is_stmt 0 view .LVU145
 573 02f2 55       		pushq	%rbp
 574              		.cfi_def_cfa_offset 16
 575              		.cfi_offset 6, -16
 576 02f3 53       		pushq	%rbx
 577              		.cfi_def_cfa_offset 24
GAS LISTING /tmp/cc1DIh6n.s 			page 65


 578              		.cfi_offset 3, -24
 579 02f4 4883EC18 		subq	$24, %rsp
 580              		.cfi_def_cfa_offset 48
 581 02f8 F30F1144 		movss	%xmm0, 8(%rsp)
 581      2408
  98:Src/main.cpp  **** 	struct coords *c = getCoordsOfCorner(obst, corner);
 582              		.loc 1 98 2 is_stmt 1 view .LVU146
  99:Src/main.cpp  **** 	ret = createVect(c, angle);
 583              		.loc 1 99 2 view .LVU147
  99:Src/main.cpp  **** 	ret = createVect(c, angle);
 584              		.loc 1 99 38 is_stmt 0 view .LVU148
 585 02fe 400FB6F6 		movzbl	%sil, %esi
  99:Src/main.cpp  **** 	ret = createVect(c, angle);
 586              		.loc 1 99 38 view .LVU149
 587 0302 E8000000 		call	_Z17getCoordsOfCornerPK8obstacleh@PLT
 587      00
 588              	.LVL54:
  99:Src/main.cpp  **** 	ret = createVect(c, angle);
 589              		.loc 1 99 38 view .LVU150
 590 0307 4889C3   		movq	%rax, %rbx
 591              	.LVL55:
 100:Src/main.cpp  **** 	free(c);
 592              		.loc 1 100 2 is_stmt 1 view .LVU151
 100:Src/main.cpp  **** 	free(c);
 593              		.loc 1 100 27 is_stmt 0 view .LVU152
 594 030a F30F1044 		movss	8(%rsp), %xmm0
 594      2408
 595 0310 4889C7   		movq	%rax, %rdi
 596 0313 E8000000 		call	_Z10createVectPK6coordsf
 596      00
 597              	.LVL56:
 100:Src/main.cpp  **** 	free(c);
 598              		.loc 1 100 27 view .LVU153
 599 0318 4889C5   		movq	%rax, %rbp
 600 031b 660FD644 		movq	%xmm0, 8(%rsp)
 600      2408
 601              	.LVL57:
 101:Src/main.cpp  **** 	return ret;
 602              		.loc 1 101 2 is_stmt 1 view .LVU154
 101:Src/main.cpp  **** 	return ret;
 603              		.loc 1 101 6 is_stmt 0 view .LVU155
 604 0321 4889DF   		movq	%rbx, %rdi
 605 0324 E8000000 		call	free@PLT
 605      00
 606              	.LVL58:
 102:Src/main.cpp  **** }
 607              		.loc 1 102 2 is_stmt 1 view .LVU156
 103:Src/main.cpp  **** 
 608              		.loc 1 103 1 is_stmt 0 view .LVU157
 609 0329 4889E8   		movq	%rbp, %rax
 610 032c F30F7E44 		movq	8(%rsp), %xmm0
 610      2408
 611 0332 4883C418 		addq	$24, %rsp
 612              		.cfi_def_cfa_offset 24
 613 0336 5B       		popq	%rbx
 614              		.cfi_def_cfa_offset 16
 615              	.LVL59:
GAS LISTING /tmp/cc1DIh6n.s 			page 66


 103:Src/main.cpp  **** 
 616              		.loc 1 103 1 view .LVU158
 617 0337 5D       		popq	%rbp
 618              		.cfi_def_cfa_offset 8
 619 0338 C3       		ret
 620              		.cfi_endproc
 621              	.LFE2475:
 623              		.section	.rodata.str1.1
 624              	.LC14:
 625 000e 496E6372 		.string	"Increacing radius\n"
 625      65616369 
 625      6E672072 
 625      61646975 
 625      730A00
 626              	.LC15:
 627 0021 53697A65 		.string	"Size: "
 627      3A2000
 628              		.text
 629              		.globl	_Z10getDataSetPK6coords
 631              	_Z10getDataSetPK6coords:
 632              	.LVL60:
 633              	.LFB2476:
 107:Src/main.cpp  **** 	size_t size = 0;
 634              		.loc 1 107 1 is_stmt 1 view -0
 635              		.cfi_startproc
 107:Src/main.cpp  **** 	size_t size = 0;
 636              		.loc 1 107 1 is_stmt 0 view .LVU160
 637 0339 4155     		pushq	%r13
 638              		.cfi_def_cfa_offset 16
 639              		.cfi_offset 13, -16
 640 033b 4154     		pushq	%r12
 641              		.cfi_def_cfa_offset 24
 642              		.cfi_offset 12, -24
 643 033d 55       		pushq	%rbp
 644              		.cfi_def_cfa_offset 32
 645              		.cfi_offset 6, -32
 646 033e 53       		pushq	%rbx
 647              		.cfi_def_cfa_offset 40
 648              		.cfi_offset 3, -40
 649 033f 4883EC08 		subq	$8, %rsp
 650              		.cfi_def_cfa_offset 48
 651 0343 4889FB   		movq	%rdi, %rbx
 108:Src/main.cpp  **** 	while (size < 2) {
 652              		.loc 1 108 2 is_stmt 1 view .LVU161
 653              	.LVL61:
 108:Src/main.cpp  **** 	while (size < 2) {
 654              		.loc 1 108 9 is_stmt 0 view .LVU162
 655 0346 BD000000 		movl	$0, %ebp
 655      00
 656 034b E9C10000 		jmp	.L40
 656      00
 657              	.LVL62:
 658              	.L43:
 659              	.LBB242:
 660              	.LBB243:
 113:Src/main.cpp  **** 			&& obstacles[i].c->x <= c->x + obstacles[i].a + QUAD_CHECK_SIDE
 661              		.loc 1 113 50 view .LVU163
GAS LISTING /tmp/cc1DIh6n.s 			page 67


 662 0350 4889C6   		movq	%rax, %rsi
 663 0353 48D1EE   		shrq	%rsi
 664 0356 83E001   		andl	$1, %eax
 665 0359 4809C6   		orq	%rax, %rsi
 666 035c 660FEFC0 		pxor	%xmm0, %xmm0
 667 0360 F3480F2A 		cvtsi2ssq	%rsi, %xmm0
 667      C6
 668 0365 F30F58C0 		addss	%xmm0, %xmm0
 669 0369 EB4C     		jmp	.L44
 670              	.L45:
 111:Src/main.cpp  **** 		{
 671              		.loc 1 111 3 discriminator 2 view .LVU164
 672 036b 4883C201 		addq	$1, %rdx
 673              	.LVL63:
 674              	.L50:
 111:Src/main.cpp  **** 		{
 675              		.loc 1 111 23 discriminator 1 view .LVU165
 676 036f 48391500 		cmpq	%rdx, numOfObstacles(%rip)
 676      000000
 677 0376 0F868F00 		jbe	.L42
 677      0000
 113:Src/main.cpp  **** 			&& obstacles[i].c->x <= c->x + obstacles[i].a + QUAD_CHECK_SIDE
 678              		.loc 1 113 4 is_stmt 1 view .LVU166
 113:Src/main.cpp  **** 			&& obstacles[i].c->x <= c->x + obstacles[i].a + QUAD_CHECK_SIDE
 679              		.loc 1 113 18 is_stmt 0 view .LVU167
 680 037c 488D0452 		leaq	(%rdx,%rdx,2), %rax
 681 0380 48C1E004 		salq	$4, %rax
 682 0384 48030500 		addq	obstacles(%rip), %rax
 682      000000
 113:Src/main.cpp  **** 			&& obstacles[i].c->x <= c->x + obstacles[i].a + QUAD_CHECK_SIDE
 683              		.loc 1 113 20 view .LVU168
 684 038b 488B08   		movq	(%rax), %rcx
 113:Src/main.cpp  **** 			&& obstacles[i].c->x <= c->x + obstacles[i].a + QUAD_CHECK_SIDE
 685              		.loc 1 113 23 view .LVU169
 686 038e F30F1019 		movss	(%rcx), %xmm3
 113:Src/main.cpp  **** 			&& obstacles[i].c->x <= c->x + obstacles[i].a + QUAD_CHECK_SIDE
 687              		.loc 1 113 40 view .LVU170
 688 0392 F30F1050 		movss	40(%rax), %xmm2
 688      28
 113:Src/main.cpp  **** 			&& obstacles[i].c->x <= c->x + obstacles[i].a + QUAD_CHECK_SIDE
 689              		.loc 1 113 25 view .LVU171
 690 0397 0F28EB   		movaps	%xmm3, %xmm5
 691 039a F30F58EA 		addss	%xmm2, %xmm5
 113:Src/main.cpp  **** 			&& obstacles[i].c->x <= c->x + obstacles[i].a + QUAD_CHECK_SIDE
 692              		.loc 1 113 48 view .LVU172
 693 039e F30F100B 		movss	(%rbx), %xmm1
 113:Src/main.cpp  **** 			&& obstacles[i].c->x <= c->x + obstacles[i].a + QUAD_CHECK_SIDE
 694              		.loc 1 113 50 view .LVU173
 695 03a2 488B0500 		movq	QUAD_CHECK_SIDE(%rip), %rax
 695      000000
 696 03a9 4885C0   		testq	%rax, %rax
 697 03ac 78A2     		js	.L43
 698 03ae 660FEFC0 		pxor	%xmm0, %xmm0
 699 03b2 F3480F2A 		cvtsi2ssq	%rax, %xmm0
 699      C0
 700              	.L44:
 701 03b7 0F28E1   		movaps	%xmm1, %xmm4
GAS LISTING /tmp/cc1DIh6n.s 			page 68


 702 03ba F30F5CE0 		subss	%xmm0, %xmm4
 113:Src/main.cpp  **** 			&& obstacles[i].c->x <= c->x + obstacles[i].a + QUAD_CHECK_SIDE
 703              		.loc 1 113 4 view .LVU174
 704 03be 0F2FEC   		comiss	%xmm4, %xmm5
 705 03c1 72A8     		jb	.L45
 114:Src/main.cpp  **** 			&& obstacles[i].c->y + obstacles[i].a >= c->y - QUAD_CHECK_SIDE
 706              		.loc 1 114 33 view .LVU175
 707 03c3 F30F58CA 		addss	%xmm2, %xmm1
 114:Src/main.cpp  **** 			&& obstacles[i].c->y + obstacles[i].a >= c->y - QUAD_CHECK_SIDE
 708              		.loc 1 114 50 view .LVU176
 709 03c7 F30F58C8 		addss	%xmm0, %xmm1
 114:Src/main.cpp  **** 			&& obstacles[i].c->y + obstacles[i].a >= c->y - QUAD_CHECK_SIDE
 710              		.loc 1 114 4 view .LVU177
 711 03cb 0F2FCB   		comiss	%xmm3, %xmm1
 712 03ce 729B     		jb	.L45
 115:Src/main.cpp  **** 			&& obstacles[i].c->y <= c->y + obstacles[i].a + QUAD_CHECK_SIDE)
 713              		.loc 1 115 23 view .LVU178
 714 03d0 F30F1049 		movss	4(%rcx), %xmm1
 714      04
 115:Src/main.cpp  **** 			&& obstacles[i].c->y <= c->y + obstacles[i].a + QUAD_CHECK_SIDE)
 715              		.loc 1 115 25 view .LVU179
 716 03d5 0F28EA   		movaps	%xmm2, %xmm5
 717 03d8 F30F58E9 		addss	%xmm1, %xmm5
 115:Src/main.cpp  **** 			&& obstacles[i].c->y <= c->y + obstacles[i].a + QUAD_CHECK_SIDE)
 718              		.loc 1 115 48 view .LVU180
 719 03dc F30F105B 		movss	4(%rbx), %xmm3
 719      04
 115:Src/main.cpp  **** 			&& obstacles[i].c->y <= c->y + obstacles[i].a + QUAD_CHECK_SIDE)
 720              		.loc 1 115 50 view .LVU181
 721 03e1 0F28E3   		movaps	%xmm3, %xmm4
 722 03e4 F30F5CE0 		subss	%xmm0, %xmm4
 115:Src/main.cpp  **** 			&& obstacles[i].c->y <= c->y + obstacles[i].a + QUAD_CHECK_SIDE)
 723              		.loc 1 115 4 view .LVU182
 724 03e8 0F2FEC   		comiss	%xmm4, %xmm5
 725 03eb 0F827AFF 		jb	.L45
 725      FFFF
 116:Src/main.cpp  **** 				size++;
 726              		.loc 1 116 33 view .LVU183
 727 03f1 F30F58D3 		addss	%xmm3, %xmm2
 116:Src/main.cpp  **** 				size++;
 728              		.loc 1 116 50 view .LVU184
 729 03f5 F30F58C2 		addss	%xmm2, %xmm0
 116:Src/main.cpp  **** 				size++;
 730              		.loc 1 116 4 view .LVU185
 731 03f9 0F2FC1   		comiss	%xmm1, %xmm0
 732 03fc 0F8269FF 		jb	.L45
 732      FFFF
 117:Src/main.cpp  **** 		}
 733              		.loc 1 117 5 is_stmt 1 view .LVU186
 117:Src/main.cpp  **** 		}
 734              		.loc 1 117 9 is_stmt 0 view .LVU187
 735 0402 4883C501 		addq	$1, %rbp
 736              	.LVL64:
 117:Src/main.cpp  **** 		}
 737              		.loc 1 117 9 view .LVU188
 738 0406 E960FFFF 		jmp	.L45
 738      FF
GAS LISTING /tmp/cc1DIh6n.s 			page 69


 739              	.L42:
 117:Src/main.cpp  **** 		}
 740              		.loc 1 117 9 view .LVU189
 741              	.LBE243:
 119:Src/main.cpp  **** 		{
 742              		.loc 1 119 3 is_stmt 1 view .LVU190
 743 040b 4883FD01 		cmpq	$1, %rbp
 744 040f 7615     		jbe	.L73
 745              	.LVL65:
 746              	.L40:
 119:Src/main.cpp  **** 		{
 747              		.loc 1 119 3 is_stmt 0 view .LVU191
 748              	.LBE242:
 109:Src/main.cpp  **** 		size = 0;
 749              		.loc 1 109 2 is_stmt 1 view .LVU192
 109:Src/main.cpp  **** 		size = 0;
 750              		.loc 1 109 14 is_stmt 0 view .LVU193
 751 0411 4883FD01 		cmpq	$1, %rbp
 752 0415 7731     		ja	.L41
 753              	.LBB248:
 754              	.LBB244:
 111:Src/main.cpp  **** 		{
 755              		.loc 1 111 14 view .LVU194
 756 0417 BA000000 		movl	$0, %edx
 756      00
 757              	.LBE244:
 110:Src/main.cpp  **** 		for(size_t i = 0; i < numOfObstacles; i++)
 758              		.loc 1 110 8 view .LVU195
 759 041c BD000000 		movl	$0, %ebp
 759      00
 760              	.LVL66:
 110:Src/main.cpp  **** 		for(size_t i = 0; i < numOfObstacles; i++)
 761              		.loc 1 110 8 view .LVU196
 762 0421 E949FFFF 		jmp	.L50
 762      FF
 763              	.LVL67:
 764              	.L73:
 121:Src/main.cpp  **** 			QUAD_CHECK_SIDE += 100;
 765              		.loc 1 121 4 is_stmt 1 view .LVU197
 766              	.LBB245:
 767              	.LBI245:
 565:/usr/include/c++/9.1.0/ostream ****     {
 768              		.loc 3 565 5 view .LVU198
 565:/usr/include/c++/9.1.0/ostream ****     {
 769              		.loc 3 565 5 is_stmt 0 view .LVU199
 770              	.LBE245:
 771              	.LBE248:
 772              		.loc 4 335 2 is_stmt 1 view .LVU200
 773              	.LBB249:
 774              	.LBB247:
 775              	.LBB246:
 570:/usr/include/c++/9.1.0/ostream **** 			 static_cast<streamsize>(_Traits::length(__s)));
 776              		.loc 3 570 18 is_stmt 0 view .LVU201
 777 0426 BA120000 		movl	$18, %edx
 777      00
 778              	.LVL68:
 570:/usr/include/c++/9.1.0/ostream **** 			 static_cast<streamsize>(_Traits::length(__s)));
GAS LISTING /tmp/cc1DIh6n.s 			page 70


 779              		.loc 3 570 18 view .LVU202
 780 042b 488D3500 		leaq	.LC14(%rip), %rsi
 780      000000
 781 0432 488D3D00 		leaq	_ZSt4cout(%rip), %rdi
 781      000000
 782 0439 E8000000 		call	_ZSt16__ostream_insertIcSt11char_traitsIcEERSt13basic_ostreamIT_T0_ES6_PKS3_l@PLT
 782      00
 783              	.LVL69:
 570:/usr/include/c++/9.1.0/ostream **** 			 static_cast<streamsize>(_Traits::length(__s)));
 784              		.loc 3 570 18 view .LVU203
 785              	.LBE246:
 786              	.LBE247:
 122:Src/main.cpp  **** 		}
 787              		.loc 1 122 4 is_stmt 1 view .LVU204
 122:Src/main.cpp  **** 		}
 788              		.loc 1 122 20 is_stmt 0 view .LVU205
 789 043e 48830500 		addq	$100, QUAD_CHECK_SIDE(%rip)
 789      00000064 
 790 0446 EBC9     		jmp	.L40
 791              	.L41:
 122:Src/main.cpp  **** 		}
 792              		.loc 1 122 20 view .LVU206
 793              	.LBE249:
 125:Src/main.cpp  **** 	size_t iter = 0;
 794              		.loc 1 125 2 is_stmt 1 view .LVU207
 795              	.LVL70:
 796              	.LBB250:
 797              	.LBI250:
 565:/usr/include/c++/9.1.0/ostream ****     {
 798              		.loc 3 565 5 view .LVU208
 565:/usr/include/c++/9.1.0/ostream ****     {
 799              		.loc 3 565 5 is_stmt 0 view .LVU209
 800              	.LBE250:
 801              		.loc 4 335 2 is_stmt 1 view .LVU210
 802              	.LBB252:
 803              	.LBB251:
 570:/usr/include/c++/9.1.0/ostream **** 			 static_cast<streamsize>(_Traits::length(__s)));
 804              		.loc 3 570 18 is_stmt 0 view .LVU211
 805 0448 BA060000 		movl	$6, %edx
 805      00
 806 044d 488D3500 		leaq	.LC15(%rip), %rsi
 806      000000
 807 0454 488D3D00 		leaq	_ZSt4cout(%rip), %rdi
 807      000000
 808 045b E8000000 		call	_ZSt16__ostream_insertIcSt11char_traitsIcEERSt13basic_ostreamIT_T0_ES6_PKS3_l@PLT
 808      00
 809              	.LVL71:
 570:/usr/include/c++/9.1.0/ostream **** 			 static_cast<streamsize>(_Traits::length(__s)));
 810              		.loc 3 570 18 view .LVU212
 811              	.LBE251:
 812              	.LBE252:
 813              	.LBB253:
 814              	.LBI253:
 170:/usr/include/c++/9.1.0/ostream ****       { return _M_insert(__n); }
 815              		.loc 3 170 7 is_stmt 1 view .LVU213
 816              	.LBB254:
 171:/usr/include/c++/9.1.0/ostream **** 
GAS LISTING /tmp/cc1DIh6n.s 			page 71


 817              		.loc 3 171 29 is_stmt 0 view .LVU214
 818 0460 4889EE   		movq	%rbp, %rsi
 819 0463 488D3D00 		leaq	_ZSt4cout(%rip), %rdi
 819      000000
 820 046a E8000000 		call	_ZNSo9_M_insertImEERSoT_@PLT
 820      00
 821              	.LVL72:
 822 046f 4989C4   		movq	%rax, %r12
 823              	.LVL73:
 171:/usr/include/c++/9.1.0/ostream **** 
 824              		.loc 3 171 29 view .LVU215
 825              	.LBE254:
 826              	.LBE253:
 827              	.LBB255:
 828              	.LBI255:
 108:/usr/include/c++/9.1.0/ostream ****       {
 829              		.loc 3 108 7 is_stmt 1 view .LVU216
 830              	.LBB256:
 831              	.LBI256:
 599:/usr/include/c++/9.1.0/ostream ****     { return flush(__os.put(__os.widen('\n'))); }
 832              		.loc 3 599 5 view .LVU217
 833              	.LBB257:
 600:/usr/include/c++/9.1.0/ostream **** 
 834              		.loc 3 600 19 is_stmt 0 view .LVU218
 835 0472 488B00   		movq	(%rax), %rax
 836              	.LVL74:
 600:/usr/include/c++/9.1.0/ostream **** 
 837              		.loc 3 600 19 view .LVU219
 838 0475 4C89E7   		movq	%r12, %rdi
 839 0478 480378E8 		addq	-24(%rax), %rdi
 840              	.LVL75:
 841              	.LBB258:
 842              	.LBI258:
 449:/usr/include/c++/9.1.0/bits/basic_ios.h ****       { return __check_facet(_M_ctype).widen(__c); }
 843              		.loc 5 449 7 is_stmt 1 view .LVU220
 844              	.LBB259:
 845              		.loc 5 450 30 is_stmt 0 view .LVU221
 846 047c 4C8BAFF0 		movq	240(%rdi), %r13
 846      000000
 847              	.LVL76:
 848              	.LBB260:
 849              	.LBI260:
  47:/usr/include/c++/9.1.0/bits/basic_ios.h ****     {
 850              		.loc 5 47 5 is_stmt 1 view .LVU222
 851              	.LBB261:
  49:/usr/include/c++/9.1.0/bits/basic_ios.h **** 	__throw_bad_cast();
 852              		.loc 5 49 7 is_stmt 0 view .LVU223
 853 0483 4D85ED   		testq	%r13, %r13
 854 0486 743C     		je	.L74
 855              	.LVL77:
  49:/usr/include/c++/9.1.0/bits/basic_ios.h **** 	__throw_bad_cast();
 856              		.loc 5 49 7 view .LVU224
 857              	.LBE261:
 858              	.LBE260:
 859              	.LBB263:
 860              	.LBI263:
 872:/usr/include/c++/9.1.0/bits/locale_facets.h ****       {
GAS LISTING /tmp/cc1DIh6n.s 			page 72


 861              		.loc 6 872 7 is_stmt 1 view .LVU225
 862              	.LBB264:
 874:/usr/include/c++/9.1.0/bits/locale_facets.h **** 	  return _M_widen[static_cast<unsigned char>(__c)];
 863              		.loc 6 874 2 view .LVU226
 864 0488 41807D38 		cmpb	$0, 56(%r13)
 864      00
 865 048d 743A     		je	.L53
 875:/usr/include/c++/9.1.0/bits/locale_facets.h **** 	this->_M_widen_init();
 866              		.loc 6 875 4 view .LVU227
 875:/usr/include/c++/9.1.0/bits/locale_facets.h **** 	this->_M_widen_init();
 867              		.loc 6 875 51 is_stmt 0 view .LVU228
 868 048f 410FB645 		movzbl	67(%r13), %eax
 868      43
 869              	.LVL78:
 870              	.L54:
 875:/usr/include/c++/9.1.0/bits/locale_facets.h **** 	this->_M_widen_init();
 871              		.loc 6 875 51 view .LVU229
 872              	.LBE264:
 873              	.LBE263:
 874              	.LBE259:
 875              	.LBE258:
 600:/usr/include/c++/9.1.0/ostream **** 
 876              		.loc 3 600 19 view .LVU230
 877 0494 0FBEF0   		movsbl	%al, %esi
 878 0497 4C89E7   		movq	%r12, %rdi
 879 049a E8000000 		call	_ZNSo3putEc@PLT
 879      00
 880              	.LVL79:
 881 049f 4889C7   		movq	%rax, %rdi
 882              	.LVL80:
 883              	.LBB269:
 884              	.LBI269:
 621:/usr/include/c++/9.1.0/ostream ****     { return __os.flush(); }
 885              		.loc 3 621 5 is_stmt 1 view .LVU231
 886              	.LBB270:
 887              		.loc 3 622 25 is_stmt 0 view .LVU232
 888 04a2 E8000000 		call	_ZNSo5flushEv@PLT
 888      00
 889              	.LVL81:
 890              		.loc 3 622 25 view .LVU233
 891              	.LBE270:
 892              	.LBE269:
 893              	.LBE257:
 894              	.LBE256:
 895              	.LBE255:
 126:Src/main.cpp  **** 	struct obstacle **obsts = (struct obstacle**)malloc(sizeof(struct obstacle*) * size);
 896              		.loc 1 126 2 is_stmt 1 view .LVU234
 127:Src/main.cpp  **** 	for(size_t i = 0; i < numOfObstacles; i++)
 897              		.loc 1 127 2 view .LVU235
 127:Src/main.cpp  **** 	for(size_t i = 0; i < numOfObstacles; i++)
 898              		.loc 1 127 53 is_stmt 0 view .LVU236
 899 04a7 488D3CED 		leaq	0(,%rbp,8), %rdi
 899      00000000 
 900 04af E8000000 		call	malloc@PLT
 900      00
 901              	.LVL82:
 902 04b4 4989C4   		movq	%rax, %r12
GAS LISTING /tmp/cc1DIh6n.s 			page 73


 903              	.LVL83:
 128:Src/main.cpp  **** 	{
 904              		.loc 1 128 2 is_stmt 1 view .LVU237
 905              	.LBB274:
 128:Src/main.cpp  **** 	{
 906              		.loc 1 128 13 is_stmt 0 view .LVU238
 907 04b7 B9000000 		movl	$0, %ecx
 907      00
 908              	.LBE274:
 126:Src/main.cpp  **** 	struct obstacle **obsts = (struct obstacle**)malloc(sizeof(struct obstacle*) * size);
 909              		.loc 1 126 9 view .LVU239
 910 04bc 41B80000 		movl	$0, %r8d
 910      0000
 911 04c2 EB3D     		jmp	.L63
 912              	.LVL84:
 913              	.L74:
 914              	.LBB275:
 915              	.LBB273:
 916              	.LBB272:
 917              	.LBB271:
 918              	.LBB268:
 919              	.LBB266:
 920              	.LBB262:
  50:/usr/include/c++/9.1.0/bits/basic_ios.h ****       return *__f;
 921              		.loc 5 50 18 view .LVU240
 922 04c4 E8000000 		call	_ZSt16__throw_bad_castv@PLT
 922      00
 923              	.LVL85:
 924              	.L53:
  50:/usr/include/c++/9.1.0/bits/basic_ios.h ****       return *__f;
 925              		.loc 5 50 18 view .LVU241
 926              	.LBE262:
 927              	.LBE266:
 928              	.LBB267:
 929              	.LBB265:
 876:/usr/include/c++/9.1.0/bits/locale_facets.h **** 	return this->do_widen(__c);
 930              		.loc 6 876 2 is_stmt 1 view .LVU242
 876:/usr/include/c++/9.1.0/bits/locale_facets.h **** 	return this->do_widen(__c);
 931              		.loc 6 876 21 is_stmt 0 view .LVU243
 932 04c9 4C89EF   		movq	%r13, %rdi
 933              	.LVL86:
 876:/usr/include/c++/9.1.0/bits/locale_facets.h **** 	return this->do_widen(__c);
 934              		.loc 6 876 21 view .LVU244
 935 04cc E8000000 		call	_ZNKSt5ctypeIcE13_M_widen_initEv@PLT
 935      00
 936              	.LVL87:
 937              		.loc 6 877 2 is_stmt 1 view .LVU245
 938              		.loc 6 877 27 is_stmt 0 view .LVU246
 939 04d1 498B4500 		movq	0(%r13), %rax
 940              		.loc 6 877 23 view .LVU247
 941 04d5 BE0A0000 		movl	$10, %esi
 941      00
 942 04da 4C89EF   		movq	%r13, %rdi
 943 04dd FF5030   		call	*48(%rax)
 944              	.LVL88:
 945              		.loc 6 877 27 view .LVU248
 946 04e0 EBB2     		jmp	.L54
GAS LISTING /tmp/cc1DIh6n.s 			page 74


 947              	.LVL89:
 948              	.L56:
 949              		.loc 6 877 27 view .LVU249
 950              	.LBE265:
 951              	.LBE267:
 952              	.LBE268:
 953              	.LBE271:
 954              	.LBE272:
 955              	.LBE273:
 956              	.LBE275:
 957              	.LBB276:
 131:Src/main.cpp  **** 		&& obstacles[i].c->x <= c->x + obstacles[i].a + QUAD_CHECK_SIDE
 958              		.loc 1 131 49 view .LVU250
 959 04e2 4889C7   		movq	%rax, %rdi
 960 04e5 48D1EF   		shrq	%rdi
 961 04e8 83E001   		andl	$1, %eax
 962 04eb 4809C7   		orq	%rax, %rdi
 963 04ee 660FEFC0 		pxor	%xmm0, %xmm0
 964 04f2 F3480F2A 		cvtsi2ssq	%rdi, %xmm0
 964      C7
 965 04f7 F30F58C0 		addss	%xmm0, %xmm0
 966 04fb EB4C     		jmp	.L57
 967              	.L58:
 128:Src/main.cpp  **** 	{
 968              		.loc 1 128 2 discriminator 2 view .LVU251
 969 04fd 4883C101 		addq	$1, %rcx
 970              	.LVL90:
 971              	.L63:
 128:Src/main.cpp  **** 	{
 972              		.loc 1 128 22 discriminator 1 view .LVU252
 973 0501 48390D00 		cmpq	%rcx, numOfObstacles(%rip)
 973      000000
 974 0508 0F869300 		jbe	.L55
 974      0000
 131:Src/main.cpp  **** 		&& obstacles[i].c->x <= c->x + obstacles[i].a + QUAD_CHECK_SIDE
 975              		.loc 1 131 3 is_stmt 1 view .LVU253
 131:Src/main.cpp  **** 		&& obstacles[i].c->x <= c->x + obstacles[i].a + QUAD_CHECK_SIDE
 976              		.loc 1 131 17 is_stmt 0 view .LVU254
 977 050e 488D1449 		leaq	(%rcx,%rcx,2), %rdx
 978 0512 48C1E204 		salq	$4, %rdx
 979 0516 48031500 		addq	obstacles(%rip), %rdx
 979      000000
 131:Src/main.cpp  **** 		&& obstacles[i].c->x <= c->x + obstacles[i].a + QUAD_CHECK_SIDE
 980              		.loc 1 131 19 view .LVU255
 981 051d 488B32   		movq	(%rdx), %rsi
 131:Src/main.cpp  **** 		&& obstacles[i].c->x <= c->x + obstacles[i].a + QUAD_CHECK_SIDE
 982              		.loc 1 131 22 view .LVU256
 983 0520 F30F101E 		movss	(%rsi), %xmm3
 131:Src/main.cpp  **** 		&& obstacles[i].c->x <= c->x + obstacles[i].a + QUAD_CHECK_SIDE
 984              		.loc 1 131 39 view .LVU257
 985 0524 F30F1052 		movss	40(%rdx), %xmm2
 985      28
 131:Src/main.cpp  **** 		&& obstacles[i].c->x <= c->x + obstacles[i].a + QUAD_CHECK_SIDE
 986              		.loc 1 131 24 view .LVU258
 987 0529 0F28EB   		movaps	%xmm3, %xmm5
 988 052c F30F58EA 		addss	%xmm2, %xmm5
 131:Src/main.cpp  **** 		&& obstacles[i].c->x <= c->x + obstacles[i].a + QUAD_CHECK_SIDE
GAS LISTING /tmp/cc1DIh6n.s 			page 75


 989              		.loc 1 131 47 view .LVU259
 990 0530 F30F100B 		movss	(%rbx), %xmm1
 131:Src/main.cpp  **** 		&& obstacles[i].c->x <= c->x + obstacles[i].a + QUAD_CHECK_SIDE
 991              		.loc 1 131 49 view .LVU260
 992 0534 488B0500 		movq	QUAD_CHECK_SIDE(%rip), %rax
 992      000000
 993 053b 4885C0   		testq	%rax, %rax
 994 053e 78A2     		js	.L56
 995 0540 660FEFC0 		pxor	%xmm0, %xmm0
 996 0544 F3480F2A 		cvtsi2ssq	%rax, %xmm0
 996      C0
 997              	.L57:
 998 0549 0F28E1   		movaps	%xmm1, %xmm4
 999 054c F30F5CE0 		subss	%xmm0, %xmm4
 131:Src/main.cpp  **** 		&& obstacles[i].c->x <= c->x + obstacles[i].a + QUAD_CHECK_SIDE
 1000              		.loc 1 131 3 view .LVU261
 1001 0550 0F2FEC   		comiss	%xmm4, %xmm5
 1002 0553 72A8     		jb	.L58
 132:Src/main.cpp  **** 		&& obstacles[i].c->y + obstacles[i].a >= c->y - QUAD_CHECK_SIDE
 1003              		.loc 1 132 32 view .LVU262
 1004 0555 F30F58CA 		addss	%xmm2, %xmm1
 132:Src/main.cpp  **** 		&& obstacles[i].c->y + obstacles[i].a >= c->y - QUAD_CHECK_SIDE
 1005              		.loc 1 132 49 view .LVU263
 1006 0559 F30F58C8 		addss	%xmm0, %xmm1
 132:Src/main.cpp  **** 		&& obstacles[i].c->y + obstacles[i].a >= c->y - QUAD_CHECK_SIDE
 1007              		.loc 1 132 3 view .LVU264
 1008 055d 0F2FCB   		comiss	%xmm3, %xmm1
 1009 0560 729B     		jb	.L58
 133:Src/main.cpp  **** 		&& obstacles[i].c->y <= c->y + obstacles[i].a + QUAD_CHECK_SIDE)
 1010              		.loc 1 133 22 view .LVU265
 1011 0562 F30F104E 		movss	4(%rsi), %xmm1
 1011      04
 133:Src/main.cpp  **** 		&& obstacles[i].c->y <= c->y + obstacles[i].a + QUAD_CHECK_SIDE)
 1012              		.loc 1 133 24 view .LVU266
 1013 0567 0F28EA   		movaps	%xmm2, %xmm5
 1014 056a F30F58E9 		addss	%xmm1, %xmm5
 133:Src/main.cpp  **** 		&& obstacles[i].c->y <= c->y + obstacles[i].a + QUAD_CHECK_SIDE)
 1015              		.loc 1 133 47 view .LVU267
 1016 056e F30F105B 		movss	4(%rbx), %xmm3
 1016      04
 133:Src/main.cpp  **** 		&& obstacles[i].c->y <= c->y + obstacles[i].a + QUAD_CHECK_SIDE)
 1017              		.loc 1 133 49 view .LVU268
 1018 0573 0F28E3   		movaps	%xmm3, %xmm4
 1019 0576 F30F5CE0 		subss	%xmm0, %xmm4
 133:Src/main.cpp  **** 		&& obstacles[i].c->y <= c->y + obstacles[i].a + QUAD_CHECK_SIDE)
 1020              		.loc 1 133 3 view .LVU269
 1021 057a 0F2FEC   		comiss	%xmm4, %xmm5
 1022 057d 0F827AFF 		jb	.L58
 1022      FFFF
 134:Src/main.cpp  **** 		obsts[iter++] = &(obstacles[i]);
 1023              		.loc 1 134 32 view .LVU270
 1024 0583 F30F58D3 		addss	%xmm3, %xmm2
 134:Src/main.cpp  **** 		obsts[iter++] = &(obstacles[i]);
 1025              		.loc 1 134 49 view .LVU271
 1026 0587 F30F58C2 		addss	%xmm2, %xmm0
 134:Src/main.cpp  **** 		obsts[iter++] = &(obstacles[i]);
 1027              		.loc 1 134 3 view .LVU272
GAS LISTING /tmp/cc1DIh6n.s 			page 76


 1028 058b 0F2FC1   		comiss	%xmm1, %xmm0
 1029 058e 0F8269FF 		jb	.L58
 1029      FFFF
 135:Src/main.cpp  **** 	}
 1030              		.loc 1 135 3 is_stmt 1 view .LVU273
 1031              	.LVL91:
 135:Src/main.cpp  **** 	}
 1032              		.loc 1 135 17 is_stmt 0 view .LVU274
 1033 0594 4B8914C4 		movq	%rdx, (%r12,%r8,8)
 135:Src/main.cpp  **** 	}
 1034              		.loc 1 135 13 view .LVU275
 1035 0598 4D8D4001 		leaq	1(%r8), %r8
 1036              	.LVL92:
 135:Src/main.cpp  **** 	}
 1037              		.loc 1 135 13 view .LVU276
 1038 059c E95CFFFF 		jmp	.L58
 1038      FF
 1039              	.L55:
 135:Src/main.cpp  **** 	}
 1040              		.loc 1 135 13 view .LVU277
 1041              	.LBE276:
 137:Src/main.cpp  **** 	ret->items = *obsts;
 1042              		.loc 1 137 2 is_stmt 1 view .LVU278
 137:Src/main.cpp  **** 	ret->items = *obsts;
 1043              		.loc 1 137 43 is_stmt 0 view .LVU279
 1044 05a1 BF100000 		movl	$16, %edi
 1044      00
 1045 05a6 E8000000 		call	malloc@PLT
 1045      00
 1046              	.LVL93:
 138:Src/main.cpp  **** 	ret->size = size;
 1047              		.loc 1 138 2 is_stmt 1 view .LVU280
 138:Src/main.cpp  **** 	ret->size = size;
 1048              		.loc 1 138 15 is_stmt 0 view .LVU281
 1049 05ab 498B1424 		movq	(%r12), %rdx
 138:Src/main.cpp  **** 	ret->size = size;
 1050              		.loc 1 138 13 view .LVU282
 1051 05af 488910   		movq	%rdx, (%rax)
 139:Src/main.cpp  **** 	return ret;
 1052              		.loc 1 139 2 is_stmt 1 view .LVU283
 139:Src/main.cpp  **** 	return ret;
 1053              		.loc 1 139 12 is_stmt 0 view .LVU284
 1054 05b2 48896808 		movq	%rbp, 8(%rax)
 140:Src/main.cpp  **** }
 1055              		.loc 1 140 2 is_stmt 1 view .LVU285
 141:Src/main.cpp  **** 
 1056              		.loc 1 141 1 is_stmt 0 view .LVU286
 1057 05b6 4883C408 		addq	$8, %rsp
 1058              		.cfi_def_cfa_offset 40
 1059 05ba 5B       		popq	%rbx
 1060              		.cfi_def_cfa_offset 32
 1061              	.LVL94:
 141:Src/main.cpp  **** 
 1062              		.loc 1 141 1 view .LVU287
 1063 05bb 5D       		popq	%rbp
 1064              		.cfi_def_cfa_offset 24
 1065              	.LVL95:
GAS LISTING /tmp/cc1DIh6n.s 			page 77


 141:Src/main.cpp  **** 
 1066              		.loc 1 141 1 view .LVU288
 1067 05bc 415C     		popq	%r12
 1068              		.cfi_def_cfa_offset 16
 1069              	.LVL96:
 141:Src/main.cpp  **** 
 1070              		.loc 1 141 1 view .LVU289
 1071 05be 415D     		popq	%r13
 1072              		.cfi_def_cfa_offset 8
 1073 05c0 C3       		ret
 1074              		.cfi_endproc
 1075              	.LFE2476:
 1077              		.globl	_Z10getDataSetPK8obstacleh
 1079              	_Z10getDataSetPK8obstacleh:
 1080              	.LVL97:
 1081              	.LFB2477:
 145:Src/main.cpp  **** 	struct graphPoint *p = getPoint(obst, corner);
 1082              		.loc 1 145 1 is_stmt 1 view -0
 1083              		.cfi_startproc
 145:Src/main.cpp  **** 	struct graphPoint *p = getPoint(obst, corner);
 1084              		.loc 1 145 1 is_stmt 0 view .LVU291
 1085 05c1 55       		pushq	%rbp
 1086              		.cfi_def_cfa_offset 16
 1087              		.cfi_offset 6, -16
 1088 05c2 53       		pushq	%rbx
 1089              		.cfi_def_cfa_offset 24
 1090              		.cfi_offset 3, -24
 1091 05c3 4883EC08 		subq	$8, %rsp
 1092              		.cfi_def_cfa_offset 32
 1093 05c7 4889FB   		movq	%rdi, %rbx
 146:Src/main.cpp  **** 	struct coords *c = getCoordsOfCorner(obst, corner);
 1094              		.loc 1 146 2 is_stmt 1 view .LVU292
 146:Src/main.cpp  **** 	struct coords *c = getCoordsOfCorner(obst, corner);
 1095              		.loc 1 146 33 is_stmt 0 view .LVU293
 1096 05ca 400FB6EE 		movzbl	%sil, %ebp
 1097 05ce 89EE     		movl	%ebp, %esi
 146:Src/main.cpp  **** 	struct coords *c = getCoordsOfCorner(obst, corner);
 1098              		.loc 1 146 33 view .LVU294
 1099 05d0 E8000000 		call	_Z8getPointPK8obstacleh@PLT
 1099      00
 1100              	.LVL98:
 147:Src/main.cpp  **** 
 1101              		.loc 1 147 2 is_stmt 1 view .LVU295
 147:Src/main.cpp  **** 
 1102              		.loc 1 147 38 is_stmt 0 view .LVU296
 1103 05d5 89EE     		movl	%ebp, %esi
 1104 05d7 4889DF   		movq	%rbx, %rdi
 1105 05da E8000000 		call	_Z17getCoordsOfCornerPK8obstacleh@PLT
 1105      00
 1106              	.LVL99:
 1107 05df 4889C3   		movq	%rax, %rbx
 1108              	.LVL100:
 149:Src/main.cpp  **** 
 1109              		.loc 1 149 2 is_stmt 1 view .LVU297
 149:Src/main.cpp  **** 
 1110              		.loc 1 149 32 is_stmt 0 view .LVU298
 1111 05e2 4889C7   		movq	%rax, %rdi
GAS LISTING /tmp/cc1DIh6n.s 			page 78


 1112 05e5 E8000000 		call	_Z10getDataSetPK6coords
 1112      00
 1113              	.LVL101:
 149:Src/main.cpp  **** 
 1114              		.loc 1 149 32 view .LVU299
 1115 05ea 4889C5   		movq	%rax, %rbp
 1116              	.LVL102:
 151:Src/main.cpp  **** 
 1117              		.loc 1 151 2 is_stmt 1 view .LVU300
 151:Src/main.cpp  **** 
 1118              		.loc 1 151 6 is_stmt 0 view .LVU301
 1119 05ed 4889DF   		movq	%rbx, %rdi
 1120 05f0 E8000000 		call	free@PLT
 1120      00
 1121              	.LVL103:
 153:Src/main.cpp  **** }
 1122              		.loc 1 153 2 is_stmt 1 view .LVU302
 154:Src/main.cpp  **** 
 1123              		.loc 1 154 1 is_stmt 0 view .LVU303
 1124 05f5 4889E8   		movq	%rbp, %rax
 1125 05f8 4883C408 		addq	$8, %rsp
 1126              		.cfi_def_cfa_offset 24
 1127 05fc 5B       		popq	%rbx
 1128              		.cfi_def_cfa_offset 16
 1129              	.LVL104:
 154:Src/main.cpp  **** 
 1130              		.loc 1 154 1 view .LVU304
 1131 05fd 5D       		popq	%rbp
 1132              		.cfi_def_cfa_offset 8
 1133              	.LVL105:
 154:Src/main.cpp  **** 
 1134              		.loc 1 154 1 view .LVU305
 1135 05fe C3       		ret
 1136              		.cfi_endproc
 1137              	.LFE2477:
 1139              		.globl	_Z16hasIntersectionsPK5arrayPK4vect
 1141              	_Z16hasIntersectionsPK5arrayPK4vect:
 1142              	.LVL106:
 1143              	.LFB2478:
 158:Src/main.cpp  **** 	for(size_t i = 0; i < dataset->size; i++)
 1144              		.loc 1 158 1 is_stmt 1 view -0
 1145              		.cfi_startproc
 158:Src/main.cpp  **** 	for(size_t i = 0; i < dataset->size; i++)
 1146              		.loc 1 158 1 is_stmt 0 view .LVU307
 1147 05ff 4154     		pushq	%r12
 1148              		.cfi_def_cfa_offset 16
 1149              		.cfi_offset 12, -16
 1150 0601 55       		pushq	%rbp
 1151              		.cfi_def_cfa_offset 24
 1152              		.cfi_offset 6, -24
 1153 0602 53       		pushq	%rbx
 1154              		.cfi_def_cfa_offset 32
 1155              		.cfi_offset 3, -32
 1156 0603 4889FD   		movq	%rdi, %rbp
 1157 0606 4989F4   		movq	%rsi, %r12
 159:Src/main.cpp  **** 	{
 1158              		.loc 1 159 2 is_stmt 1 view .LVU308
GAS LISTING /tmp/cc1DIh6n.s 			page 79


 1159              	.LVL107:
 1160              	.LBB277:
 159:Src/main.cpp  **** 	{
 1161              		.loc 1 159 13 is_stmt 0 view .LVU309
 1162 0609 BB000000 		movl	$0, %ebx
 1162      00
 1163              	.LVL108:
 1164              	.L79:
 159:Src/main.cpp  **** 	{
 1165              		.loc 1 159 22 discriminator 1 view .LVU310
 1166 060e 48395D08 		cmpq	%rbx, 8(%rbp)
 1167 0612 761E     		jbe	.L80
 161:Src/main.cpp  **** 			return true;
 1168              		.loc 1 161 3 is_stmt 1 view .LVU311
 161:Src/main.cpp  **** 			return true;
 1169              		.loc 1 161 59 is_stmt 0 view .LVU312
 1170 0614 488D3C5B 		leaq	(%rbx,%rbx,2), %rdi
 1171 0618 48C1E704 		salq	$4, %rdi
 161:Src/main.cpp  **** 			return true;
 1172              		.loc 1 161 21 view .LVU313
 1173 061c 48037D00 		addq	0(%rbp), %rdi
 1174 0620 4C89E6   		movq	%r12, %rsi
 1175 0623 E8000000 		call	_Z15hasIntersectionPK8obstaclePK4vect@PLT
 1175      00
 1176              	.LVL109:
 161:Src/main.cpp  **** 			return true;
 1177              		.loc 1 161 3 view .LVU314
 1178 0628 84C0     		testb	%al, %al
 1179 062a 750B     		jne	.L77
 159:Src/main.cpp  **** 	{
 1180              		.loc 1 159 2 discriminator 2 view .LVU315
 1181 062c 4883C301 		addq	$1, %rbx
 1182              	.LVL110:
 159:Src/main.cpp  **** 	{
 1183              		.loc 1 159 2 discriminator 2 view .LVU316
 1184 0630 EBDC     		jmp	.L79
 1185              	.L80:
 159:Src/main.cpp  **** 	{
 1186              		.loc 1 159 2 discriminator 2 view .LVU317
 1187              	.LBE277:
 164:Src/main.cpp  **** }
 1188              		.loc 1 164 9 view .LVU318
 1189 0632 B8000000 		movl	$0, %eax
 1189      00
 1190              	.L77:
 165:Src/main.cpp  **** 
 1191              		.loc 1 165 1 view .LVU319
 1192 0637 5B       		popq	%rbx
 1193              		.cfi_def_cfa_offset 24
 1194              	.LVL111:
 165:Src/main.cpp  **** 
 1195              		.loc 1 165 1 view .LVU320
 1196 0638 5D       		popq	%rbp
 1197              		.cfi_def_cfa_offset 16
 1198              	.LVL112:
 165:Src/main.cpp  **** 
 1199              		.loc 1 165 1 view .LVU321
GAS LISTING /tmp/cc1DIh6n.s 			page 80


 1200 0639 415C     		popq	%r12
 1201              		.cfi_def_cfa_offset 8
 1202              	.LVL113:
 165:Src/main.cpp  **** 
 1203              		.loc 1 165 1 view .LVU322
 1204 063b C3       		ret
 1205              		.cfi_endproc
 1206              	.LFE2478:
 1208              		.globl	_Z16hasIntersectionsPK4vect
 1210              	_Z16hasIntersectionsPK4vect:
 1211              	.LVL114:
 1212              	.LFB2479:
 168:Src/main.cpp  **** 	for(size_t i = 0; i < numOfObstacles; i++)
 1213              		.loc 1 168 1 is_stmt 1 view -0
 1214              		.cfi_startproc
 168:Src/main.cpp  **** 	for(size_t i = 0; i < numOfObstacles; i++)
 1215              		.loc 1 168 1 is_stmt 0 view .LVU324
 1216 063c 55       		pushq	%rbp
 1217              		.cfi_def_cfa_offset 16
 1218              		.cfi_offset 6, -16
 1219 063d 53       		pushq	%rbx
 1220              		.cfi_def_cfa_offset 24
 1221              		.cfi_offset 3, -24
 1222 063e 4883EC08 		subq	$8, %rsp
 1223              		.cfi_def_cfa_offset 32
 1224 0642 4889FD   		movq	%rdi, %rbp
 169:Src/main.cpp  **** 	{
 1225              		.loc 1 169 2 is_stmt 1 view .LVU325
 1226              	.LVL115:
 1227              	.LBB278:
 169:Src/main.cpp  **** 	{
 1228              		.loc 1 169 13 is_stmt 0 view .LVU326
 1229 0645 BB000000 		movl	$0, %ebx
 1229      00
 1230              	.LVL116:
 1231              	.L84:
 169:Src/main.cpp  **** 	{
 1232              		.loc 1 169 22 discriminator 1 view .LVU327
 1233 064a 48391D00 		cmpq	%rbx, numOfObstacles(%rip)
 1233      000000
 1234 0651 7621     		jbe	.L85
 171:Src/main.cpp  **** 			return true;
 1235              		.loc 1 171 3 is_stmt 1 view .LVU328
 171:Src/main.cpp  **** 			return true;
 1236              		.loc 1 171 34 is_stmt 0 view .LVU329
 1237 0653 488D3C5B 		leaq	(%rbx,%rbx,2), %rdi
 1238 0657 48C1E704 		salq	$4, %rdi
 171:Src/main.cpp  **** 			return true;
 1239              		.loc 1 171 22 view .LVU330
 1240 065b 48033D00 		addq	obstacles(%rip), %rdi
 1240      000000
 171:Src/main.cpp  **** 			return true;
 1241              		.loc 1 171 21 view .LVU331
 1242 0662 4889EE   		movq	%rbp, %rsi
 1243 0665 E8000000 		call	_Z15hasIntersectionPK8obstaclePK4vect@PLT
 1243      00
 1244              	.LVL117:
GAS LISTING /tmp/cc1DIh6n.s 			page 81


 171:Src/main.cpp  **** 			return true;
 1245              		.loc 1 171 3 view .LVU332
 1246 066a 84C0     		testb	%al, %al
 1247 066c 750B     		jne	.L82
 169:Src/main.cpp  **** 	{
 1248              		.loc 1 169 2 discriminator 2 view .LVU333
 1249 066e 4883C301 		addq	$1, %rbx
 1250              	.LVL118:
 169:Src/main.cpp  **** 	{
 1251              		.loc 1 169 2 discriminator 2 view .LVU334
 1252 0672 EBD6     		jmp	.L84
 1253              	.L85:
 169:Src/main.cpp  **** 	{
 1254              		.loc 1 169 2 discriminator 2 view .LVU335
 1255              	.LBE278:
 174:Src/main.cpp  **** }
 1256              		.loc 1 174 9 view .LVU336
 1257 0674 B8000000 		movl	$0, %eax
 1257      00
 1258              	.L82:
 175:Src/main.cpp  **** 
 1259              		.loc 1 175 1 view .LVU337
 1260 0679 4883C408 		addq	$8, %rsp
 1261              		.cfi_def_cfa_offset 24
 1262 067d 5B       		popq	%rbx
 1263              		.cfi_def_cfa_offset 16
 1264              	.LVL119:
 175:Src/main.cpp  **** 
 1265              		.loc 1 175 1 view .LVU338
 1266 067e 5D       		popq	%rbp
 1267              		.cfi_def_cfa_offset 8
 1268              	.LVL120:
 175:Src/main.cpp  **** 
 1269              		.loc 1 175 1 view .LVU339
 1270 067f C3       		ret
 1271              		.cfi_endproc
 1272              	.LFE2479:
 1274              		.globl	_Z15getIntersectionPK5arrayPK4vect
 1276              	_Z15getIntersectionPK5arrayPK4vect:
 1277              	.LVL121:
 1278              	.LFB2480:
 178:Src/main.cpp  **** 	struct obstacle *o = NULL;
 1279              		.loc 1 178 1 is_stmt 1 view -0
 1280              		.cfi_startproc
 178:Src/main.cpp  **** 	struct obstacle *o = NULL;
 1281              		.loc 1 178 1 is_stmt 0 view .LVU341
 1282 0680 4155     		pushq	%r13
 1283              		.cfi_def_cfa_offset 16
 1284              		.cfi_offset 13, -16
 1285 0682 4154     		pushq	%r12
 1286              		.cfi_def_cfa_offset 24
 1287              		.cfi_offset 12, -24
 1288 0684 55       		pushq	%rbp
 1289              		.cfi_def_cfa_offset 32
 1290              		.cfi_offset 6, -32
 1291 0685 53       		pushq	%rbx
 1292              		.cfi_def_cfa_offset 40
GAS LISTING /tmp/cc1DIh6n.s 			page 82


 1293              		.cfi_offset 3, -40
 1294 0686 4883EC08 		subq	$8, %rsp
 1295              		.cfi_def_cfa_offset 48
 1296 068a 4889FD   		movq	%rdi, %rbp
 1297 068d 4989F4   		movq	%rsi, %r12
 179:Src/main.cpp  **** 	for(size_t i = 0; i < dataset->size; i++)
 1298              		.loc 1 179 2 is_stmt 1 view .LVU342
 1299              	.LVL122:
 180:Src/main.cpp  **** 	{
 1300              		.loc 1 180 2 view .LVU343
 1301              	.LBB279:
 180:Src/main.cpp  **** 	{
 1302              		.loc 1 180 13 is_stmt 0 view .LVU344
 1303 0690 BB000000 		movl	$0, %ebx
 1303      00
 1304              	.LVL123:
 1305              	.L90:
 180:Src/main.cpp  **** 	{
 1306              		.loc 1 180 22 discriminator 1 view .LVU345
 1307 0695 48395D08 		cmpq	%rbx, 8(%rbp)
 1308 0699 762A     		jbe	.L93
 182:Src/main.cpp  **** 		{
 1309              		.loc 1 182 3 is_stmt 1 view .LVU346
 182:Src/main.cpp  **** 		{
 1310              		.loc 1 182 59 is_stmt 0 view .LVU347
 1311 069b 488D3C5B 		leaq	(%rbx,%rbx,2), %rdi
 1312 069f 48C1E704 		salq	$4, %rdi
 1313 06a3 4989FD   		movq	%rdi, %r13
 182:Src/main.cpp  **** 		{
 1314              		.loc 1 182 21 view .LVU348
 1315 06a6 48037D00 		addq	0(%rbp), %rdi
 1316 06aa 4C89E6   		movq	%r12, %rsi
 1317 06ad E8000000 		call	_Z15hasIntersectionPK8obstaclePK4vect@PLT
 1317      00
 1318              	.LVL124:
 182:Src/main.cpp  **** 		{
 1319              		.loc 1 182 3 view .LVU349
 1320 06b2 84C0     		testb	%al, %al
 1321 06b4 7506     		jne	.L95
 180:Src/main.cpp  **** 	{
 1322              		.loc 1 180 2 discriminator 2 view .LVU350
 1323 06b6 4883C301 		addq	$1, %rbx
 1324              	.LVL125:
 180:Src/main.cpp  **** 	{
 1325              		.loc 1 180 2 discriminator 2 view .LVU351
 1326 06ba EBD9     		jmp	.L90
 1327              	.L95:
 184:Src/main.cpp  **** 			break;
 1328              		.loc 1 184 4 is_stmt 1 view .LVU352
 184:Src/main.cpp  **** 			break;
 1329              		.loc 1 184 6 is_stmt 0 view .LVU353
 1330 06bc 4C89EF   		movq	%r13, %rdi
 1331 06bf 48037D00 		addq	0(%rbp), %rdi
 1332              	.LVL126:
 185:Src/main.cpp  **** 		}
 1333              		.loc 1 185 4 is_stmt 1 view .LVU354
 1334 06c3 EB05     		jmp	.L88
GAS LISTING /tmp/cc1DIh6n.s 			page 83


 1335              	.LVL127:
 1336              	.L93:
 185:Src/main.cpp  **** 		}
 1337              		.loc 1 185 4 is_stmt 0 view .LVU355
 1338              	.LBE279:
 179:Src/main.cpp  **** 	for(size_t i = 0; i < dataset->size; i++)
 1339              		.loc 1 179 19 view .LVU356
 1340 06c5 BF000000 		movl	$0, %edi
 1340      00
 1341              	.LVL128:
 1342              	.L88:
 188:Src/main.cpp  **** 		return {-1, -1};
 1343              		.loc 1 188 2 is_stmt 1 view .LVU357
 1344 06ca 4885FF   		testq	%rdi, %rdi
 1345 06cd 7422     		je	.L91
 189:Src/main.cpp  **** 
 1346              		.loc 1 189 3 view .LVU358
 189:Src/main.cpp  **** 
 1347              		.loc 1 189 17 is_stmt 0 view .LVU359
 1348 06cf 48BA0000 		movabsq	$-4647714815446351872, %rdx
 1348      00000000 
 1348      80BF
 1349 06d9 B8000080 		movl	$3212836864, %eax
 1349      BF
 1350 06de 4809D0   		orq	%rdx, %rax
 1351 06e1 66480F6E 		movq	%rax, %xmm0
 1351      C0
 1352              	.LVL129:
 1353              	.L92:
 192:Src/main.cpp  **** 
 1354              		.loc 1 192 1 view .LVU360
 1355 06e6 4883C408 		addq	$8, %rsp
 1356              		.cfi_remember_state
 1357              		.cfi_def_cfa_offset 40
 1358 06ea 5B       		popq	%rbx
 1359              		.cfi_def_cfa_offset 32
 1360              	.LVL130:
 192:Src/main.cpp  **** 
 1361              		.loc 1 192 1 view .LVU361
 1362 06eb 5D       		popq	%rbp
 1363              		.cfi_def_cfa_offset 24
 1364              	.LVL131:
 192:Src/main.cpp  **** 
 1365              		.loc 1 192 1 view .LVU362
 1366 06ec 415C     		popq	%r12
 1367              		.cfi_def_cfa_offset 16
 1368              	.LVL132:
 192:Src/main.cpp  **** 
 1369              		.loc 1 192 1 view .LVU363
 1370 06ee 415D     		popq	%r13
 1371              		.cfi_def_cfa_offset 8
 1372 06f0 C3       		ret
 1373              	.LVL133:
 1374              	.L91:
 1375              		.cfi_restore_state
 191:Src/main.cpp  **** }
 1376              		.loc 1 191 2 is_stmt 1 view .LVU364
GAS LISTING /tmp/cc1DIh6n.s 			page 84


 191:Src/main.cpp  **** }
 1377              		.loc 1 191 29 is_stmt 0 view .LVU365
 1378 06f1 4C89E6   		movq	%r12, %rsi
 1379 06f4 E8000000 		call	_Z15getIntersectionPK8obstaclePK4vect@PLT
 1379      00
 1380              	.LVL134:
 191:Src/main.cpp  **** }
 1381              		.loc 1 191 29 view .LVU366
 1382 06f9 EBEB     		jmp	.L92
 1383              		.cfi_endproc
 1384              	.LFE2480:
 1386              		.globl	_Z14getIntersectedPK5arrayPK4vect
 1388              	_Z14getIntersectedPK5arrayPK4vect:
 1389              	.LVL135:
 1390              	.LFB2481:
 196:Src/main.cpp  **** 	struct obstacle *o = NULL;
 1391              		.loc 1 196 1 is_stmt 1 view -0
 1392              		.cfi_startproc
 196:Src/main.cpp  **** 	struct obstacle *o = NULL;
 1393              		.loc 1 196 1 is_stmt 0 view .LVU368
 1394 06fb 4156     		pushq	%r14
 1395              		.cfi_def_cfa_offset 16
 1396              		.cfi_offset 14, -16
 1397 06fd 4155     		pushq	%r13
 1398              		.cfi_def_cfa_offset 24
 1399              		.cfi_offset 13, -24
 1400 06ff 4154     		pushq	%r12
 1401              		.cfi_def_cfa_offset 32
 1402              		.cfi_offset 12, -32
 1403 0701 55       		pushq	%rbp
 1404              		.cfi_def_cfa_offset 40
 1405              		.cfi_offset 6, -40
 1406 0702 53       		pushq	%rbx
 1407              		.cfi_def_cfa_offset 48
 1408              		.cfi_offset 3, -48
 1409 0703 4883EC20 		subq	$32, %rsp
 1410              		.cfi_def_cfa_offset 80
 1411 0707 4989FC   		movq	%rdi, %r12
 1412 070a 4989F5   		movq	%rsi, %r13
 196:Src/main.cpp  **** 	struct obstacle *o = NULL;
 1413              		.loc 1 196 1 view .LVU369
 1414 070d 64488B04 		movq	%fs:40, %rax
 1414      25280000 
 1414      00
 1415 0716 48894424 		movq	%rax, 24(%rsp)
 1415      18
 1416 071b 31C0     		xorl	%eax, %eax
 197:Src/main.cpp  **** 	struct coords	inter;
 1417              		.loc 1 197 2 is_stmt 1 view .LVU370
 1418              	.LVL136:
 198:Src/main.cpp  **** 	COORDS_DATATYPE l = INF;
 1419              		.loc 1 198 2 view .LVU371
 199:Src/main.cpp  **** 	// cout << "Watching for vect " << v->c->x << ":" << v->c->y << "; d" << v->dx << ":d" << v->dy <<
 1420              		.loc 1 199 2 view .LVU372
 199:Src/main.cpp  **** 	// cout << "Watching for vect " << v->c->x << ":" << v->c->y << "; d" << v->dx << ":d" << v->dy <<
 1421              		.loc 1 199 18 is_stmt 0 view .LVU373
 1422 071d F30F1005 		movss	.LC17(%rip), %xmm0
GAS LISTING /tmp/cc1DIh6n.s 			page 85


 1422      00000000 
 1423 0725 F30F5E05 		divss	.LC8(%rip), %xmm0
 1423      00000000 
 1424 072d F30F1144 		movss	%xmm0, 12(%rsp)
 1424      240C
 1425              	.LVL137:
 201:Src/main.cpp  **** 	{
 1426              		.loc 1 201 2 is_stmt 1 view .LVU374
 1427              	.LBB280:
 201:Src/main.cpp  **** 	{
 1428              		.loc 1 201 13 is_stmt 0 view .LVU375
 1429 0733 BB000000 		movl	$0, %ebx
 1429      00
 1430              	.LBE280:
 197:Src/main.cpp  **** 	struct coords	inter;
 1431              		.loc 1 197 19 view .LVU376
 1432 0738 41BE0000 		movl	$0, %r14d
 1432      0000
 1433 073e EB04     		jmp	.L102
 1434              	.LVL138:
 1435              	.L98:
 1436              	.LBB282:
 201:Src/main.cpp  **** 	{
 1437              		.loc 1 201 2 discriminator 2 view .LVU377
 1438 0740 4883C301 		addq	$1, %rbx
 1439              	.LVL139:
 1440              	.L102:
 201:Src/main.cpp  **** 	{
 1441              		.loc 1 201 22 discriminator 1 view .LVU378
 1442 0744 49395C24 		cmpq	%rbx, 8(%r12)
 1442      08
 1443 0749 7667     		jbe	.L96
 1444              	.LBB281:
 204:Src/main.cpp  **** 		COORDS_DATATYPE _l = getLen(v->c, &inter);
 1445              		.loc 1 204 3 is_stmt 1 view .LVU379
 204:Src/main.cpp  **** 		COORDS_DATATYPE _l = getLen(v->c, &inter);
 1446              		.loc 1 204 64 is_stmt 0 view .LVU380
 1447 074b 488D2C5B 		leaq	(%rbx,%rbx,2), %rbp
 1448 074f 48C1E504 		salq	$4, %rbp
 204:Src/main.cpp  **** 		COORDS_DATATYPE _l = getLen(v->c, &inter);
 1449              		.loc 1 204 68 view .LVU381
 1450 0753 4889EF   		movq	%rbp, %rdi
 1451 0756 49033C24 		addq	(%r12), %rdi
 1452 075a 4C89EE   		movq	%r13, %rsi
 1453 075d E8000000 		call	_Z15getIntersectionPK8obstaclePK4vect@PLT
 1453      00
 1454              	.LVL140:
 1455 0762 660FD644 		movq	%xmm0, 16(%rsp)
 1455      2410
 205:Src/main.cpp  **** 		if(inter.x != -1 && inter.y != -1 && _l < l)
 1456              		.loc 1 205 3 is_stmt 1 view .LVU382
 205:Src/main.cpp  **** 		if(inter.x != -1 && inter.y != -1 && _l < l)
 1457              		.loc 1 205 34 is_stmt 0 view .LVU383
 1458 0768 498B7D00 		movq	0(%r13), %rdi
 205:Src/main.cpp  **** 		if(inter.x != -1 && inter.y != -1 && _l < l)
 1459              		.loc 1 205 30 view .LVU384
 1460 076c 488D7424 		leaq	16(%rsp), %rsi
GAS LISTING /tmp/cc1DIh6n.s 			page 86


 1460      10
 1461 0771 E8000000 		call	_Z6getLenPK6coordsS1_@PLT
 1461      00
 1462              	.LVL141:
 206:Src/main.cpp  **** 		{
 1463              		.loc 1 206 3 is_stmt 1 view .LVU385
 206:Src/main.cpp  **** 		{
 1464              		.loc 1 206 12 is_stmt 0 view .LVU386
 1465 0776 F30F104C 		movss	16(%rsp), %xmm1
 1465      2410
 206:Src/main.cpp  **** 		{
 1466              		.loc 1 206 3 view .LVU387
 1467 077c 0F2E0D00 		ucomiss	.LC16(%rip), %xmm1
 1467      000000
 1468 0783 7A02     		jp	.L104
 1469 0785 74B9     		je	.L98
 1470              	.L104:
 206:Src/main.cpp  **** 		{
 1471              		.loc 1 206 29 discriminator 1 view .LVU388
 1472 0787 F30F104C 		movss	20(%rsp), %xmm1
 1472      2414
 206:Src/main.cpp  **** 		{
 1473              		.loc 1 206 20 discriminator 1 view .LVU389
 1474 078d 0F2E0D00 		ucomiss	.LC16(%rip), %xmm1
 1474      000000
 1475 0794 7A02     		jp	.L105
 1476 0796 74A8     		je	.L98
 1477              	.L105:
 206:Src/main.cpp  **** 		{
 1478              		.loc 1 206 37 discriminator 2 view .LVU390
 1479 0798 F30F1054 		movss	12(%rsp), %xmm2
 1479      240C
 1480 079e 0F2FD0   		comiss	%xmm0, %xmm2
 1481 07a1 769D     		jbe	.L98
 209:Src/main.cpp  **** 			l = _l;
 1482              		.loc 1 209 4 is_stmt 1 view .LVU391
 209:Src/main.cpp  **** 			l = _l;
 1483              		.loc 1 209 6 is_stmt 0 view .LVU392
 1484 07a3 4989EE   		movq	%rbp, %r14
 1485              	.LVL142:
 209:Src/main.cpp  **** 			l = _l;
 1486              		.loc 1 209 6 view .LVU393
 1487 07a6 4D033424 		addq	(%r12), %r14
 1488              	.LVL143:
 210:Src/main.cpp  **** 		}
 1489              		.loc 1 210 4 is_stmt 1 view .LVU394
 210:Src/main.cpp  **** 		}
 1490              		.loc 1 210 6 is_stmt 0 view .LVU395
 1491 07aa F30F1144 		movss	%xmm0, 12(%rsp)
 1491      240C
 1492 07b0 EB8E     		jmp	.L98
 1493              	.LVL144:
 1494              	.L96:
 210:Src/main.cpp  **** 		}
 1495              		.loc 1 210 6 view .LVU396
 1496              	.LBE281:
 1497              	.LBE282:
GAS LISTING /tmp/cc1DIh6n.s 			page 87


 214:Src/main.cpp  **** 
 1498              		.loc 1 214 1 view .LVU397
 1499 07b2 488B4424 		movq	24(%rsp), %rax
 1499      18
 1500 07b7 64483304 		xorq	%fs:40, %rax
 1500      25280000 
 1500      00
 1501 07c0 7510     		jne	.L108
 1502 07c2 4C89F0   		movq	%r14, %rax
 1503 07c5 4883C420 		addq	$32, %rsp
 1504              		.cfi_remember_state
 1505              		.cfi_def_cfa_offset 48
 1506 07c9 5B       		popq	%rbx
 1507              		.cfi_def_cfa_offset 40
 1508              	.LVL145:
 214:Src/main.cpp  **** 
 1509              		.loc 1 214 1 view .LVU398
 1510 07ca 5D       		popq	%rbp
 1511              		.cfi_def_cfa_offset 32
 1512 07cb 415C     		popq	%r12
 1513              		.cfi_def_cfa_offset 24
 1514              	.LVL146:
 214:Src/main.cpp  **** 
 1515              		.loc 1 214 1 view .LVU399
 1516 07cd 415D     		popq	%r13
 1517              		.cfi_def_cfa_offset 16
 1518              	.LVL147:
 214:Src/main.cpp  **** 
 1519              		.loc 1 214 1 view .LVU400
 1520 07cf 415E     		popq	%r14
 1521              		.cfi_def_cfa_offset 8
 1522              	.LVL148:
 214:Src/main.cpp  **** 
 1523              		.loc 1 214 1 view .LVU401
 1524 07d1 C3       		ret
 1525              	.LVL149:
 1526              	.L108:
 1527              		.cfi_restore_state
 214:Src/main.cpp  **** 
 1528              		.loc 1 214 1 view .LVU402
 1529 07d2 E8000000 		call	__stack_chk_fail@PLT
 1529      00
 1530              	.LVL150:
 1531              		.cfi_endproc
 1532              	.LFE2481:
 1534              		.section	.rodata.str1.1
 1535              	.LC19:
 1536 0028 2D3E466F 		.string	"->Found intersection"
 1536      756E6420 
 1536      696E7465 
 1536      72736563 
 1536      74696F6E 
 1537              		.text
 1538              		.globl	_Z9initPointP10graphPointPK6coords
 1540              	_Z9initPointP10graphPointPK6coords:
 1541              	.LVL151:
 1542              	.LFB2482:
GAS LISTING /tmp/cc1DIh6n.s 			page 88


 218:Src/main.cpp  **** 	struct array *obsts = getDataSet(c);
 1543              		.loc 1 218 1 is_stmt 1 view -0
 1544              		.cfi_startproc
 218:Src/main.cpp  **** 	struct array *obsts = getDataSet(c);
 1545              		.loc 1 218 1 is_stmt 0 view .LVU404
 1546 07d7 4157     		pushq	%r15
 1547              		.cfi_def_cfa_offset 16
 1548              		.cfi_offset 15, -16
 1549 07d9 4156     		pushq	%r14
 1550              		.cfi_def_cfa_offset 24
 1551              		.cfi_offset 14, -24
 1552 07db 4155     		pushq	%r13
 1553              		.cfi_def_cfa_offset 32
 1554              		.cfi_offset 13, -32
 1555 07dd 4154     		pushq	%r12
 1556              		.cfi_def_cfa_offset 40
 1557              		.cfi_offset 12, -40
 1558 07df 55       		pushq	%rbp
 1559              		.cfi_def_cfa_offset 48
 1560              		.cfi_offset 6, -48
 1561 07e0 53       		pushq	%rbx
 1562              		.cfi_def_cfa_offset 56
 1563              		.cfi_offset 3, -56
 1564 07e1 4883EC38 		subq	$56, %rsp
 1565              		.cfi_def_cfa_offset 112
 1566 07e5 48897C24 		movq	%rdi, 8(%rsp)
 1566      08
 1567 07ea 4889F7   		movq	%rsi, %rdi
 1568              	.LVL152:
 218:Src/main.cpp  **** 	struct array *obsts = getDataSet(c);
 1569              		.loc 1 218 1 view .LVU405
 1570 07ed 48893424 		movq	%rsi, (%rsp)
 218:Src/main.cpp  **** 	struct array *obsts = getDataSet(c);
 1571              		.loc 1 218 1 view .LVU406
 1572 07f1 64488B04 		movq	%fs:40, %rax
 1572      25280000 
 1572      00
 1573 07fa 48894424 		movq	%rax, 40(%rsp)
 1573      28
 1574 07ff 31C0     		xorl	%eax, %eax
 219:Src/main.cpp  **** 	struct vect v;
 1575              		.loc 1 219 2 is_stmt 1 view .LVU407
 219:Src/main.cpp  **** 	struct vect v;
 1576              		.loc 1 219 34 is_stmt 0 view .LVU408
 1577 0801 E8000000 		call	_Z10getDataSetPK6coords
 1577      00
 1578              	.LVL153:
 219:Src/main.cpp  **** 	struct vect v;
 1579              		.loc 1 219 34 view .LVU409
 1580 0806 4989C7   		movq	%rax, %r15
 1581              	.LVL154:
 220:Src/main.cpp  **** 	for(uint8_t i = 0; i < VECTORS_PER_CHECK; i++)
 1582              		.loc 1 220 2 is_stmt 1 view .LVU410
 220:Src/main.cpp  **** 	for(uint8_t i = 0; i < VECTORS_PER_CHECK; i++)
 1583              		.loc 1 220 14 is_stmt 0 view .LVU411
 1584 0809 48C74424 		movq	$0, 16(%rsp)
 1584      10000000 
GAS LISTING /tmp/cc1DIh6n.s 			page 89


 1584      00
 1585 0812 C7442418 		movl	$0x00000000, 24(%rsp)
 1585      00000000 
 1586 081a C744241C 		movl	$0x00000000, 28(%rsp)
 1586      00000000 
 221:Src/main.cpp  **** 	{
 1587              		.loc 1 221 2 is_stmt 1 view .LVU412
 1588              	.LVL155:
 1589              	.LBB302:
 221:Src/main.cpp  **** 	{
 1590              		.loc 1 221 14 is_stmt 0 view .LVU413
 1591 0822 41BE0000 		movl	$0, %r14d
 1591      0000
 1592 0828 E9210100 		jmp	.L119
 1592      00
 1593              	.LVL156:
 1594              	.L123:
 1595              	.LBB303:
 1596              	.LBB304:
 1597              	.LBB305:
 1598              	.LBB306:
 1599              	.LBB307:
 1600              	.LBB308:
 1601              	.LBB309:
 1602              	.LBB310:
 1603              	.LBB311:
 1604              	.LBB312:
 1605              	.LBB313:
  50:/usr/include/c++/9.1.0/bits/basic_ios.h ****       return *__f;
 1606              		.loc 5 50 18 view .LVU414
 1607 082d E8000000 		call	_ZSt16__throw_bad_castv@PLT
 1607      00
 1608              	.LVL157:
 1609              	.L113:
  50:/usr/include/c++/9.1.0/bits/basic_ios.h ****       return *__f;
 1610              		.loc 5 50 18 view .LVU415
 1611              	.LBE313:
 1612              	.LBE312:
 1613              	.LBB315:
 1614              	.LBB316:
 876:/usr/include/c++/9.1.0/bits/locale_facets.h **** 	return this->do_widen(__c);
 1615              		.loc 6 876 2 is_stmt 1 view .LVU416
 876:/usr/include/c++/9.1.0/bits/locale_facets.h **** 	return this->do_widen(__c);
 1616              		.loc 6 876 21 is_stmt 0 view .LVU417
 1617 0832 4889DF   		movq	%rbx, %rdi
 1618 0835 E8000000 		call	_ZNKSt5ctypeIcE13_M_widen_initEv@PLT
 1618      00
 1619              	.LVL158:
 1620              		.loc 6 877 2 is_stmt 1 view .LVU418
 1621              		.loc 6 877 27 is_stmt 0 view .LVU419
 1622 083a 488B03   		movq	(%rbx), %rax
 1623              		.loc 6 877 23 view .LVU420
 1624 083d BE0A0000 		movl	$10, %esi
 1624      00
 1625 0842 4889DF   		movq	%rbx, %rdi
 1626 0845 FF5030   		call	*48(%rax)
 1627              	.LVL159:
GAS LISTING /tmp/cc1DIh6n.s 			page 90


 1628 0848 89C6     		movl	%eax, %esi
 1629              		.loc 6 877 27 view .LVU421
 1630 084a EB6F     		jmp	.L114
 1631              	.LVL160:
 1632              	.L115:
 1633              		.loc 6 877 27 view .LVU422
 1634              	.LBE316:
 1635              	.LBE315:
 1636              	.LBE311:
 1637              	.LBE310:
 1638              	.LBE309:
 1639              	.LBE308:
 1640              	.LBE307:
 236:Src/main.cpp  **** 				{
 1641              		.loc 1 236 50 discriminator 3 view .LVU423
 1642 084c 488D7424 		leaq	16(%rsp), %rsi
 1642      10
 1643 0851 4C89FF   		movq	%r15, %rdi
 1644 0854 E8000000 		call	_Z14getIntersectedPK5arrayPK4vect
 1644      00
 1645              	.LVL161:
 236:Src/main.cpp  **** 				{
 1646              		.loc 1 236 33 discriminator 3 view .LVU424
 1647 0859 4885C0   		testq	%rax, %rax
 1648 085c 0F84D100 		je	.L122
 1648      0000
 1649              	.L116:
 242:Src/main.cpp  **** 			}
 1650              		.loc 1 242 5 is_stmt 1 discriminator 2 view .LVU425
 242:Src/main.cpp  **** 			}
 1651              		.loc 1 242 9 is_stmt 0 discriminator 2 view .LVU426
 1652 0862 4889DF   		movq	%rbx, %rdi
 1653 0865 E8000000 		call	free@PLT
 1653      00
 1654              	.LVL162:
 230:Src/main.cpp  **** 			{
 1655              		.loc 1 230 4 discriminator 2 view .LVU427
 1656 086a 83C501   		addl	$1, %ebp
 1657              	.LVL163:
 1658              	.L118:
 230:Src/main.cpp  **** 			{
 1659              		.loc 1 230 25 discriminator 1 view .LVU428
 1660 086d 4080FD03 		cmpb	$3, %bpl
 1661 0871 0F87D300 		ja	.L111
 1661      0000
 232:Src/main.cpp  **** 				c = getCoordsOfCorner(o, h);
 1662              		.loc 1 232 5 is_stmt 1 view .LVU429
 1663              	.LVL164:
 1664              	.LBB326:
 1665              	.LBI326:
 565:/usr/include/c++/9.1.0/ostream ****     {
 1666              		.loc 3 565 5 view .LVU430
 565:/usr/include/c++/9.1.0/ostream ****     {
 1667              		.loc 3 565 5 is_stmt 0 view .LVU431
 1668              	.LBE326:
 1669              	.LBE306:
 1670              	.LBE305:
GAS LISTING /tmp/cc1DIh6n.s 			page 91


 1671              	.LBE304:
 1672              	.LBE303:
 1673              	.LBE302:
 1674              		.loc 4 335 2 is_stmt 1 view .LVU432
 1675              	.LBB338:
 1676              	.LBB336:
 1677              	.LBB334:
 1678              	.LBB332:
 1679              	.LBB330:
 1680              	.LBB328:
 1681              	.LBB327:
 570:/usr/include/c++/9.1.0/ostream **** 			 static_cast<streamsize>(_Traits::length(__s)));
 1682              		.loc 3 570 18 is_stmt 0 view .LVU433
 1683 0877 BA140000 		movl	$20, %edx
 1683      00
 1684 087c 488D3500 		leaq	.LC19(%rip), %rsi
 1684      000000
 1685 0883 488D3D00 		leaq	_ZSt4cout(%rip), %rdi
 1685      000000
 1686 088a E8000000 		call	_ZSt16__ostream_insertIcSt11char_traitsIcEERSt13basic_ostreamIT_T0_ES6_PKS3_l@PLT
 1686      00
 1687              	.LVL165:
 570:/usr/include/c++/9.1.0/ostream **** 			 static_cast<streamsize>(_Traits::length(__s)));
 1688              		.loc 3 570 18 view .LVU434
 1689              	.LBE327:
 1690              	.LBE328:
 1691              	.LBB329:
 1692              	.LBI307:
 108:/usr/include/c++/9.1.0/ostream ****       {
 1693              		.loc 3 108 7 is_stmt 1 view .LVU435
 1694              	.LBB325:
 1695              	.LBI308:
 599:/usr/include/c++/9.1.0/ostream ****     { return flush(__os.put(__os.widen('\n'))); }
 1696              		.loc 3 599 5 view .LVU436
 1697              	.LBB324:
 600:/usr/include/c++/9.1.0/ostream **** 
 1698              		.loc 3 600 19 is_stmt 0 view .LVU437
 1699 088f 488D0500 		leaq	_ZSt4cout(%rip), %rax
 1699      000000
 1700 0896 488B1500 		movq	_ZSt4cout(%rip), %rdx
 1700      000000
 1701 089d 480342E8 		addq	-24(%rdx), %rax
 1702              	.LVL166:
 1703              	.LBB321:
 1704              	.LBI310:
 449:/usr/include/c++/9.1.0/bits/basic_ios.h ****       { return __check_facet(_M_ctype).widen(__c); }
 1705              		.loc 5 449 7 is_stmt 1 view .LVU438
 1706              	.LBB320:
 1707              		.loc 5 450 30 is_stmt 0 view .LVU439
 1708 08a1 488B98F0 		movq	240(%rax), %rbx
 1708      000000
 1709              	.LVL167:
 1710              	.LBB318:
 1711              	.LBI312:
  47:/usr/include/c++/9.1.0/bits/basic_ios.h ****     {
 1712              		.loc 5 47 5 is_stmt 1 view .LVU440
 1713              	.LBB314:
GAS LISTING /tmp/cc1DIh6n.s 			page 92


  49:/usr/include/c++/9.1.0/bits/basic_ios.h **** 	__throw_bad_cast();
 1714              		.loc 5 49 7 is_stmt 0 view .LVU441
 1715 08a8 4885DB   		testq	%rbx, %rbx
 1716 08ab 7480     		je	.L123
 1717              	.LVL168:
  49:/usr/include/c++/9.1.0/bits/basic_ios.h **** 	__throw_bad_cast();
 1718              		.loc 5 49 7 view .LVU442
 1719              	.LBE314:
 1720              	.LBE318:
 1721              	.LBB319:
 1722              	.LBI315:
 872:/usr/include/c++/9.1.0/bits/locale_facets.h ****       {
 1723              		.loc 6 872 7 is_stmt 1 view .LVU443
 1724              	.LBB317:
 874:/usr/include/c++/9.1.0/bits/locale_facets.h **** 	  return _M_widen[static_cast<unsigned char>(__c)];
 1725              		.loc 6 874 2 view .LVU444
 1726 08ad 807B3800 		cmpb	$0, 56(%rbx)
 1727 08b1 0F847BFF 		je	.L113
 1727      FFFF
 875:/usr/include/c++/9.1.0/bits/locale_facets.h **** 	this->_M_widen_init();
 1728              		.loc 6 875 4 view .LVU445
 875:/usr/include/c++/9.1.0/bits/locale_facets.h **** 	this->_M_widen_init();
 1729              		.loc 6 875 51 is_stmt 0 view .LVU446
 1730 08b7 0FB67343 		movzbl	67(%rbx), %esi
 1731              	.LVL169:
 1732              	.L114:
 875:/usr/include/c++/9.1.0/bits/locale_facets.h **** 	this->_M_widen_init();
 1733              		.loc 6 875 51 view .LVU447
 1734              	.LBE317:
 1735              	.LBE319:
 1736              	.LBE320:
 1737              	.LBE321:
 600:/usr/include/c++/9.1.0/ostream **** 
 1738              		.loc 3 600 19 view .LVU448
 1739 08bb 400FBEF6 		movsbl	%sil, %esi
 1740 08bf 488D3D00 		leaq	_ZSt4cout(%rip), %rdi
 1740      000000
 1741 08c6 E8000000 		call	_ZNSo3putEc@PLT
 1741      00
 1742              	.LVL170:
 1743 08cb 4889C7   		movq	%rax, %rdi
 1744              	.LVL171:
 1745              	.LBB322:
 1746              	.LBI322:
 621:/usr/include/c++/9.1.0/ostream ****     { return __os.flush(); }
 1747              		.loc 3 621 5 is_stmt 1 view .LVU449
 1748              	.LBB323:
 1749              		.loc 3 622 25 is_stmt 0 view .LVU450
 1750 08ce E8000000 		call	_ZNSo5flushEv@PLT
 1750      00
 1751              	.LVL172:
 1752              		.loc 3 622 25 view .LVU451
 1753              	.LBE323:
 1754              	.LBE322:
 1755              	.LBE324:
 1756              	.LBE325:
 1757              	.LBE329:
GAS LISTING /tmp/cc1DIh6n.s 			page 93


 233:Src/main.cpp  **** 				v.dx = (c->x - v.c->x);
 1758              		.loc 1 233 5 is_stmt 1 view .LVU452
 233:Src/main.cpp  **** 				v.dx = (c->x - v.c->x);
 1759              		.loc 1 233 26 is_stmt 0 view .LVU453
 1760 08d3 440FB6ED 		movzbl	%bpl, %r13d
 1761 08d7 4489EE   		movl	%r13d, %esi
 1762 08da 4C89E7   		movq	%r12, %rdi
 1763 08dd E8000000 		call	_Z17getCoordsOfCornerPK8obstacleh@PLT
 1763      00
 1764              	.LVL173:
 1765 08e2 4889C3   		movq	%rax, %rbx
 1766              	.LVL174:
 234:Src/main.cpp  **** 				v.dy = (c->y - v.c->y);
 1767              		.loc 1 234 5 is_stmt 1 view .LVU454
 234:Src/main.cpp  **** 				v.dy = (c->y - v.c->y);
 1768              		.loc 1 234 16 is_stmt 0 view .LVU455
 1769 08e5 F30F1000 		movss	(%rax), %xmm0
 234:Src/main.cpp  **** 				v.dy = (c->y - v.c->y);
 1770              		.loc 1 234 22 view .LVU456
 1771 08e9 488B4424 		movq	16(%rsp), %rax
 1771      10
 1772              	.LVL175:
 234:Src/main.cpp  **** 				v.dy = (c->y - v.c->y);
 1773              		.loc 1 234 18 view .LVU457
 1774 08ee F30F5C00 		subss	(%rax), %xmm0
 234:Src/main.cpp  **** 				v.dy = (c->y - v.c->y);
 1775              		.loc 1 234 10 view .LVU458
 1776 08f2 F30F1144 		movss	%xmm0, 24(%rsp)
 1776      2418
 235:Src/main.cpp  **** 				if((v.dx != 0 || v.dy != 0) && getIntersected(obsts, &v) == NULL)
 1777              		.loc 1 235 5 is_stmt 1 view .LVU459
 235:Src/main.cpp  **** 				if((v.dx != 0 || v.dy != 0) && getIntersected(obsts, &v) == NULL)
 1778              		.loc 1 235 16 is_stmt 0 view .LVU460
 1779 08f8 F30F104B 		movss	4(%rbx), %xmm1
 1779      04
 235:Src/main.cpp  **** 				if((v.dx != 0 || v.dy != 0) && getIntersected(obsts, &v) == NULL)
 1780              		.loc 1 235 18 view .LVU461
 1781 08fd F30F5C48 		subss	4(%rax), %xmm1
 1781      04
 235:Src/main.cpp  **** 				if((v.dx != 0 || v.dy != 0) && getIntersected(obsts, &v) == NULL)
 1782              		.loc 1 235 10 view .LVU462
 1783 0902 F30F114C 		movss	%xmm1, 28(%rsp)
 1783      241C
 236:Src/main.cpp  **** 				{
 1784              		.loc 1 236 5 is_stmt 1 view .LVU463
 236:Src/main.cpp  **** 				{
 1785              		.loc 1 236 33 is_stmt 0 view .LVU464
 1786 0908 0F2E0500 		ucomiss	.LC8(%rip), %xmm0
 1786      000000
 1787 090f 0F8A37FF 		jp	.L115
 1787      FFFF
 236:Src/main.cpp  **** 				{
 1788              		.loc 1 236 33 view .LVU465
 1789 0915 0F8531FF 		jne	.L115
 1789      FFFF
 236:Src/main.cpp  **** 				{
 1790              		.loc 1 236 19 discriminator 2 view .LVU466
GAS LISTING /tmp/cc1DIh6n.s 			page 94


 1791 091b 0F2E0D00 		ucomiss	.LC8(%rip), %xmm1
 1791      000000
 1792 0922 0F8A24FF 		jp	.L115
 1792      FFFF
 1793 0928 0F8434FF 		je	.L116
 1793      FFFF
 1794 092e E919FFFF 		jmp	.L115
 1794      FF
 1795              	.L122:
 240:Src/main.cpp  **** 				}
 1796              		.loc 1 240 6 is_stmt 1 view .LVU467
 240:Src/main.cpp  **** 				}
 1797              		.loc 1 240 15 is_stmt 0 view .LVU468
 1798 0933 4D63ED   		movslq	%r13d, %r13
 1799 0936 4B8B74EC 		movq	8(%r12,%r13,8), %rsi
 1799      08
 1800 093b 488B7C24 		movq	8(%rsp), %rdi
 1800      08
 1801 0940 E8000000 		call	_Z9addTargetP10graphPointS0_@PLT
 1801      00
 1802              	.LVL176:
 1803 0945 E918FFFF 		jmp	.L116
 1803      FF
 1804              	.LVL177:
 1805              	.L111:
 240:Src/main.cpp  **** 				}
 1806              		.loc 1 240 15 view .LVU469
 1807              	.LBE330:
 1808              	.LBE332:
 1809              	.LBE334:
 1810              	.LBE336:
 221:Src/main.cpp  **** 	{
 1811              		.loc 1 221 2 discriminator 2 view .LVU470
 1812 094a 4183C601 		addl	$1, %r14d
 1813              	.LVL178:
 1814              	.L119:
 221:Src/main.cpp  **** 	{
 1815              		.loc 1 221 23 discriminator 1 view .LVU471
 1816 094e 4180FE31 		cmpb	$49, %r14b
 1817 0952 774B     		ja	.L110
 1818              	.LBB337:
 224:Src/main.cpp  **** 		// cout << "Watching vector " << (int)i << endl;
 1819              		.loc 1 224 3 is_stmt 1 view .LVU472
 224:Src/main.cpp  **** 		// cout << "Watching vector " << (int)i << endl;
 1820              		.loc 1 224 52 is_stmt 0 view .LVU473
 1821 0954 410FB6C6 		movzbl	%r14b, %eax
 224:Src/main.cpp  **** 		// cout << "Watching vector " << (int)i << endl;
 1822              		.loc 1 224 50 view .LVU474
 1823 0958 660FEFC0 		pxor	%xmm0, %xmm0
 1824 095c F20F2AC0 		cvtsi2sdl	%eax, %xmm0
 1825 0960 F20F5905 		mulsd	.LC18(%rip), %xmm0
 1825      00000000 
 224:Src/main.cpp  **** 		// cout << "Watching vector " << (int)i << endl;
 1826              		.loc 1 224 54 view .LVU475
 1827 0968 F20F5AC0 		cvtsd2ss	%xmm0, %xmm0
 1828 096c 488B3C24 		movq	(%rsp), %rdi
 1829 0970 E8000000 		call	_Z10createVectPK6coordsf
GAS LISTING /tmp/cc1DIh6n.s 			page 95


 1829      00
 1830              	.LVL179:
 1831 0975 48894424 		movq	%rax, 16(%rsp)
 1831      10
 1832 097a 660FD644 		movq	%xmm0, 24(%rsp)
 1832      2418
 226:Src/main.cpp  **** 		if(o != NULL)
 1833              		.loc 1 226 3 is_stmt 1 view .LVU476
 226:Src/main.cpp  **** 		if(o != NULL)
 1834              		.loc 1 226 38 is_stmt 0 view .LVU477
 1835 0980 488D7424 		leaq	16(%rsp), %rsi
 1835      10
 1836 0985 4C89FF   		movq	%r15, %rdi
 1837 0988 E8000000 		call	_Z14getIntersectedPK5arrayPK4vect
 1837      00
 1838              	.LVL180:
 1839 098d 4989C4   		movq	%rax, %r12
 1840              	.LVL181:
 227:Src/main.cpp  **** 		{
 1841              		.loc 1 227 3 is_stmt 1 view .LVU478
 1842              	.LBB335:
 1843 0990 4885C0   		testq	%rax, %rax
 1844 0993 74B5     		je	.L111
 1845              	.LBB333:
 1846              	.LBB331:
 230:Src/main.cpp  **** 			{
 1847              		.loc 1 230 16 is_stmt 0 view .LVU479
 1848 0995 BD000000 		movl	$0, %ebp
 1848      00
 1849 099a E9CEFEFF 		jmp	.L118
 1849      FF
 1850              	.LVL182:
 1851              	.L110:
 230:Src/main.cpp  **** 			{
 1852              		.loc 1 230 16 view .LVU480
 1853              	.LBE331:
 1854              	.LBE333:
 1855              	.LBE335:
 1856              	.LBE337:
 1857              	.LBE338:
 246:Src/main.cpp  **** }
 1858              		.loc 1 246 2 is_stmt 1 view .LVU481
 246:Src/main.cpp  **** }
 1859              		.loc 1 246 6 is_stmt 0 view .LVU482
 1860 099f 4C89FF   		movq	%r15, %rdi
 1861 09a2 E8000000 		call	free@PLT
 1861      00
 1862              	.LVL183:
 247:Src/main.cpp  **** 
 1863              		.loc 1 247 1 view .LVU483
 1864 09a7 488B4424 		movq	40(%rsp), %rax
 1864      28
 1865 09ac 64483304 		xorq	%fs:40, %rax
 1865      25280000 
 1865      00
 1866 09b5 750F     		jne	.L124
 1867 09b7 4883C438 		addq	$56, %rsp
GAS LISTING /tmp/cc1DIh6n.s 			page 96


 1868              		.cfi_remember_state
 1869              		.cfi_def_cfa_offset 56
 1870              	.LVL184:
 247:Src/main.cpp  **** 
 1871              		.loc 1 247 1 view .LVU484
 1872 09bb 5B       		popq	%rbx
 1873              		.cfi_def_cfa_offset 48
 1874 09bc 5D       		popq	%rbp
 1875              		.cfi_def_cfa_offset 40
 1876 09bd 415C     		popq	%r12
 1877              		.cfi_def_cfa_offset 32
 1878 09bf 415D     		popq	%r13
 1879              		.cfi_def_cfa_offset 24
 1880 09c1 415E     		popq	%r14
 1881              		.cfi_def_cfa_offset 16
 1882              	.LVL185:
 247:Src/main.cpp  **** 
 1883              		.loc 1 247 1 view .LVU485
 1884 09c3 415F     		popq	%r15
 1885              		.cfi_def_cfa_offset 8
 1886              	.LVL186:
 247:Src/main.cpp  **** 
 1887              		.loc 1 247 1 view .LVU486
 1888 09c5 C3       		ret
 1889              	.LVL187:
 1890              	.L124:
 1891              		.cfi_restore_state
 247:Src/main.cpp  **** 
 1892              		.loc 1 247 1 view .LVU487
 1893 09c6 E8000000 		call	__stack_chk_fail@PLT
 1893      00
 1894              	.LVL188:
 1895              		.cfi_endproc
 1896              	.LFE2482:
 1898              		.section	.rodata.str1.1
 1899              	.LC20:
 1900 003d 57617463 		.string	"Watching corner "
 1900      68696E67 
 1900      20636F72 
 1900      6E657220 
 1900      00
 1901              	.LC21:
 1902 004e 206F6620 		.string	" of obstacle "
 1902      6F627374 
 1902      61636C65 
 1902      2000
 1903              		.text
 1904              		.globl	_Z14initObstCornerPK8obstacleh
 1906              	_Z14initObstCornerPK8obstacleh:
 1907              	.LVL189:
 1908              	.LFB2483:
 251:Src/main.cpp  **** 	cout << "Watching corner " << (int)corner << " of obstacle " << obst << endl;
 1909              		.loc 1 251 1 is_stmt 1 view -0
 1910              		.cfi_startproc
 251:Src/main.cpp  **** 	cout << "Watching corner " << (int)corner << " of obstacle " << obst << endl;
 1911              		.loc 1 251 1 is_stmt 0 view .LVU489
 1912 09cb 4155     		pushq	%r13
GAS LISTING /tmp/cc1DIh6n.s 			page 97


 1913              		.cfi_def_cfa_offset 16
 1914              		.cfi_offset 13, -16
 1915 09cd 4154     		pushq	%r12
 1916              		.cfi_def_cfa_offset 24
 1917              		.cfi_offset 12, -24
 1918 09cf 55       		pushq	%rbp
 1919              		.cfi_def_cfa_offset 32
 1920              		.cfi_offset 6, -32
 1921 09d0 53       		pushq	%rbx
 1922              		.cfi_def_cfa_offset 40
 1923              		.cfi_offset 3, -40
 1924 09d1 4883EC08 		subq	$8, %rsp
 1925              		.cfi_def_cfa_offset 48
 1926 09d5 4989FC   		movq	%rdi, %r12
 1927 09d8 89F3     		movl	%esi, %ebx
 252:Src/main.cpp  **** 	struct graphPoint *point = getPoint(obst, corner);
 1928              		.loc 1 252 2 is_stmt 1 view .LVU490
 1929              	.LVL190:
 1930              	.LBB357:
 1931              	.LBI357:
 565:/usr/include/c++/9.1.0/ostream ****     {
 1932              		.loc 3 565 5 view .LVU491
 565:/usr/include/c++/9.1.0/ostream ****     {
 1933              		.loc 3 565 5 is_stmt 0 view .LVU492
 1934              	.LBE357:
 1935              		.loc 4 335 2 is_stmt 1 view .LVU493
 1936              	.LBB359:
 1937              	.LBB358:
 570:/usr/include/c++/9.1.0/ostream **** 			 static_cast<streamsize>(_Traits::length(__s)));
 1938              		.loc 3 570 18 is_stmt 0 view .LVU494
 1939 09da BA100000 		movl	$16, %edx
 1939      00
 1940 09df 488D3500 		leaq	.LC20(%rip), %rsi
 1940      000000
 1941              	.LVL191:
 570:/usr/include/c++/9.1.0/ostream **** 			 static_cast<streamsize>(_Traits::length(__s)));
 1942              		.loc 3 570 18 view .LVU495
 1943 09e6 488D3D00 		leaq	_ZSt4cout(%rip), %rdi
 1943      000000
 1944              	.LVL192:
 570:/usr/include/c++/9.1.0/ostream **** 			 static_cast<streamsize>(_Traits::length(__s)));
 1945              		.loc 3 570 18 view .LVU496
 1946 09ed E8000000 		call	_ZSt16__ostream_insertIcSt11char_traitsIcEERSt13basic_ostreamIT_T0_ES6_PKS3_l@PLT
 1946      00
 1947              	.LVL193:
 570:/usr/include/c++/9.1.0/ostream **** 			 static_cast<streamsize>(_Traits::length(__s)));
 1948              		.loc 3 570 18 view .LVU497
 1949              	.LBE358:
 1950              	.LBE359:
 252:Src/main.cpp  **** 	struct graphPoint *point = getPoint(obst, corner);
 1951              		.loc 1 252 47 view .LVU498
 1952 09f2 0FB6DB   		movzbl	%bl, %ebx
 1953 09f5 89DE     		movl	%ebx, %esi
 1954 09f7 488D3D00 		leaq	_ZSt4cout(%rip), %rdi
 1954      000000
 1955 09fe E8000000 		call	_ZNSolsEi@PLT
 1955      00
GAS LISTING /tmp/cc1DIh6n.s 			page 98


 1956              	.LVL194:
 1957 0a03 4889C5   		movq	%rax, %rbp
 1958              	.LVL195:
 1959              	.LBB360:
 1960              	.LBI360:
 565:/usr/include/c++/9.1.0/ostream ****     {
 1961              		.loc 3 565 5 is_stmt 1 view .LVU499
 565:/usr/include/c++/9.1.0/ostream ****     {
 1962              		.loc 3 565 5 is_stmt 0 view .LVU500
 1963              	.LBE360:
 1964              		.loc 4 335 2 is_stmt 1 view .LVU501
 1965              	.LBB362:
 1966              	.LBB361:
 570:/usr/include/c++/9.1.0/ostream **** 			 static_cast<streamsize>(_Traits::length(__s)));
 1967              		.loc 3 570 18 is_stmt 0 view .LVU502
 1968 0a06 BA0D0000 		movl	$13, %edx
 1968      00
 1969 0a0b 488D3500 		leaq	.LC21(%rip), %rsi
 1969      000000
 1970 0a12 4889C7   		movq	%rax, %rdi
 1971 0a15 E8000000 		call	_ZSt16__ostream_insertIcSt11char_traitsIcEERSt13basic_ostreamIT_T0_ES6_PKS3_l@PLT
 1971      00
 1972              	.LVL196:
 570:/usr/include/c++/9.1.0/ostream **** 			 static_cast<streamsize>(_Traits::length(__s)));
 1973              		.loc 3 570 18 view .LVU503
 1974              	.LBE361:
 1975              	.LBE362:
 1976              	.LBB363:
 1977              	.LBI363:
 245:/usr/include/c++/9.1.0/ostream ****       { return _M_insert(__p); }
 1978              		.loc 3 245 7 is_stmt 1 view .LVU504
 1979              	.LBB364:
 246:/usr/include/c++/9.1.0/ostream **** 
 1980              		.loc 3 246 29 is_stmt 0 view .LVU505
 1981 0a1a 4C89E6   		movq	%r12, %rsi
 1982 0a1d 4889EF   		movq	%rbp, %rdi
 1983 0a20 E8000000 		call	_ZNSo9_M_insertIPKvEERSoT_@PLT
 1983      00
 1984              	.LVL197:
 1985 0a25 4889C5   		movq	%rax, %rbp
 1986              	.LVL198:
 246:/usr/include/c++/9.1.0/ostream **** 
 1987              		.loc 3 246 29 view .LVU506
 1988              	.LBE364:
 1989              	.LBE363:
 1990              	.LBB365:
 1991              	.LBI365:
 108:/usr/include/c++/9.1.0/ostream ****       {
 1992              		.loc 3 108 7 is_stmt 1 view .LVU507
 1993              	.LBB366:
 1994              	.LBI366:
 599:/usr/include/c++/9.1.0/ostream ****     { return flush(__os.put(__os.widen('\n'))); }
 1995              		.loc 3 599 5 view .LVU508
 1996              	.LBB367:
 600:/usr/include/c++/9.1.0/ostream **** 
 1997              		.loc 3 600 19 is_stmt 0 view .LVU509
 1998 0a28 488B00   		movq	(%rax), %rax
GAS LISTING /tmp/cc1DIh6n.s 			page 99


 1999              	.LVL199:
 600:/usr/include/c++/9.1.0/ostream **** 
 2000              		.loc 3 600 19 view .LVU510
 2001 0a2b 4889E9   		movq	%rbp, %rcx
 2002 0a2e 480348E8 		addq	-24(%rax), %rcx
 2003              	.LVL200:
 2004              	.LBB368:
 2005              	.LBI368:
 449:/usr/include/c++/9.1.0/bits/basic_ios.h ****       { return __check_facet(_M_ctype).widen(__c); }
 2006              		.loc 5 449 7 is_stmt 1 view .LVU511
 2007              	.LBB369:
 2008              		.loc 5 450 30 is_stmt 0 view .LVU512
 2009 0a32 4C8BA9F0 		movq	240(%rcx), %r13
 2009      000000
 2010              	.LVL201:
 2011              	.LBB370:
 2012              	.LBI370:
  47:/usr/include/c++/9.1.0/bits/basic_ios.h ****     {
 2013              		.loc 5 47 5 is_stmt 1 view .LVU513
 2014              	.LBB371:
  49:/usr/include/c++/9.1.0/bits/basic_ios.h **** 	__throw_bad_cast();
 2015              		.loc 5 49 7 is_stmt 0 view .LVU514
 2016 0a39 4D85ED   		testq	%r13, %r13
 2017 0a3c 744D     		je	.L130
 2018              	.LVL202:
  49:/usr/include/c++/9.1.0/bits/basic_ios.h **** 	__throw_bad_cast();
 2019              		.loc 5 49 7 view .LVU515
 2020              	.LBE371:
 2021              	.LBE370:
 2022              	.LBB373:
 2023              	.LBI373:
 872:/usr/include/c++/9.1.0/bits/locale_facets.h ****       {
 2024              		.loc 6 872 7 is_stmt 1 view .LVU516
 2025              	.LBB374:
 874:/usr/include/c++/9.1.0/bits/locale_facets.h **** 	  return _M_widen[static_cast<unsigned char>(__c)];
 2026              		.loc 6 874 2 view .LVU517
 2027 0a3e 41807D38 		cmpb	$0, 56(%r13)
 2027      00
 2028 0a43 744B     		je	.L127
 875:/usr/include/c++/9.1.0/bits/locale_facets.h **** 	this->_M_widen_init();
 2029              		.loc 6 875 4 view .LVU518
 875:/usr/include/c++/9.1.0/bits/locale_facets.h **** 	this->_M_widen_init();
 2030              		.loc 6 875 51 is_stmt 0 view .LVU519
 2031 0a45 410FB675 		movzbl	67(%r13), %esi
 2031      43
 2032              	.LVL203:
 2033              	.L128:
 875:/usr/include/c++/9.1.0/bits/locale_facets.h **** 	this->_M_widen_init();
 2034              		.loc 6 875 51 view .LVU520
 2035              	.LBE374:
 2036              	.LBE373:
 2037              	.LBE369:
 2038              	.LBE368:
 600:/usr/include/c++/9.1.0/ostream **** 
 2039              		.loc 3 600 19 view .LVU521
 2040 0a4a 400FBEF6 		movsbl	%sil, %esi
 2041 0a4e 4889EF   		movq	%rbp, %rdi
GAS LISTING /tmp/cc1DIh6n.s 			page 100


 2042 0a51 E8000000 		call	_ZNSo3putEc@PLT
 2042      00
 2043              	.LVL204:
 2044 0a56 4889C7   		movq	%rax, %rdi
 2045              	.LVL205:
 2046              	.LBB379:
 2047              	.LBI379:
 621:/usr/include/c++/9.1.0/ostream ****     { return __os.flush(); }
 2048              		.loc 3 621 5 is_stmt 1 view .LVU522
 2049              	.LBB380:
 2050              		.loc 3 622 25 is_stmt 0 view .LVU523
 2051 0a59 E8000000 		call	_ZNSo5flushEv@PLT
 2051      00
 2052              	.LVL206:
 2053              		.loc 3 622 25 view .LVU524
 2054              	.LBE380:
 2055              	.LBE379:
 2056              	.LBE367:
 2057              	.LBE366:
 2058              	.LBE365:
 253:Src/main.cpp  **** 	struct coords *c = getCoordsOfCorner(obst, corner);
 2059              		.loc 1 253 2 is_stmt 1 view .LVU525
 253:Src/main.cpp  **** 	struct coords *c = getCoordsOfCorner(obst, corner);
 2060              		.loc 1 253 37 is_stmt 0 view .LVU526
 2061 0a5e 89DE     		movl	%ebx, %esi
 2062 0a60 4C89E7   		movq	%r12, %rdi
 2063 0a63 E8000000 		call	_Z8getPointPK8obstacleh@PLT
 2063      00
 2064              	.LVL207:
 2065 0a68 4889C5   		movq	%rax, %rbp
 2066              	.LVL208:
 254:Src/main.cpp  **** 	initPoint(point, c);
 2067              		.loc 1 254 2 is_stmt 1 view .LVU527
 254:Src/main.cpp  **** 	initPoint(point, c);
 2068              		.loc 1 254 38 is_stmt 0 view .LVU528
 2069 0a6b 89DE     		movl	%ebx, %esi
 2070 0a6d 4C89E7   		movq	%r12, %rdi
 2071 0a70 E8000000 		call	_Z17getCoordsOfCornerPK8obstacleh@PLT
 2071      00
 2072              	.LVL209:
 254:Src/main.cpp  **** 	initPoint(point, c);
 2073              		.loc 1 254 38 view .LVU529
 2074 0a75 4889C6   		movq	%rax, %rsi
 2075              	.LVL210:
 255:Src/main.cpp  **** }
 2076              		.loc 1 255 2 is_stmt 1 view .LVU530
 255:Src/main.cpp  **** }
 2077              		.loc 1 255 11 is_stmt 0 view .LVU531
 2078 0a78 4889EF   		movq	%rbp, %rdi
 2079 0a7b E8000000 		call	_Z9initPointP10graphPointPK6coords
 2079      00
 2080              	.LVL211:
 256:Src/main.cpp  **** 
 2081              		.loc 1 256 1 view .LVU532
 2082 0a80 4883C408 		addq	$8, %rsp
 2083              		.cfi_remember_state
 2084              		.cfi_def_cfa_offset 40
GAS LISTING /tmp/cc1DIh6n.s 			page 101


 2085 0a84 5B       		popq	%rbx
 2086              		.cfi_def_cfa_offset 32
 2087 0a85 5D       		popq	%rbp
 2088              		.cfi_def_cfa_offset 24
 2089              	.LVL212:
 256:Src/main.cpp  **** 
 2090              		.loc 1 256 1 view .LVU533
 2091 0a86 415C     		popq	%r12
 2092              		.cfi_def_cfa_offset 16
 2093              	.LVL213:
 256:Src/main.cpp  **** 
 2094              		.loc 1 256 1 view .LVU534
 2095 0a88 415D     		popq	%r13
 2096              		.cfi_def_cfa_offset 8
 2097 0a8a C3       		ret
 2098              	.LVL214:
 2099              	.L130:
 2100              		.cfi_restore_state
 2101              	.LBB384:
 2102              	.LBB383:
 2103              	.LBB382:
 2104              	.LBB381:
 2105              	.LBB378:
 2106              	.LBB376:
 2107              	.LBB372:
  50:/usr/include/c++/9.1.0/bits/basic_ios.h ****       return *__f;
 2108              		.loc 5 50 18 view .LVU535
 2109 0a8b E8000000 		call	_ZSt16__throw_bad_castv@PLT
 2109      00
 2110              	.LVL215:
 2111              	.L127:
  50:/usr/include/c++/9.1.0/bits/basic_ios.h ****       return *__f;
 2112              		.loc 5 50 18 view .LVU536
 2113              	.LBE372:
 2114              	.LBE376:
 2115              	.LBB377:
 2116              	.LBB375:
 876:/usr/include/c++/9.1.0/bits/locale_facets.h **** 	return this->do_widen(__c);
 2117              		.loc 6 876 2 is_stmt 1 view .LVU537
 876:/usr/include/c++/9.1.0/bits/locale_facets.h **** 	return this->do_widen(__c);
 2118              		.loc 6 876 21 is_stmt 0 view .LVU538
 2119 0a90 4C89EF   		movq	%r13, %rdi
 2120 0a93 E8000000 		call	_ZNKSt5ctypeIcE13_M_widen_initEv@PLT
 2120      00
 2121              	.LVL216:
 2122              		.loc 6 877 2 is_stmt 1 view .LVU539
 2123              		.loc 6 877 27 is_stmt 0 view .LVU540
 2124 0a98 498B4500 		movq	0(%r13), %rax
 2125              		.loc 6 877 23 view .LVU541
 2126 0a9c BE0A0000 		movl	$10, %esi
 2126      00
 2127 0aa1 4C89EF   		movq	%r13, %rdi
 2128 0aa4 FF5030   		call	*48(%rax)
 2129              	.LVL217:
 2130 0aa7 89C6     		movl	%eax, %esi
 2131              		.loc 6 877 27 view .LVU542
 2132 0aa9 EB9F     		jmp	.L128
GAS LISTING /tmp/cc1DIh6n.s 			page 102


 2133              	.LBE375:
 2134              	.LBE377:
 2135              	.LBE378:
 2136              	.LBE381:
 2137              	.LBE382:
 2138              	.LBE383:
 2139              	.LBE384:
 2140              		.cfi_endproc
 2141              	.LFE2483:
 2143              		.globl	_Z8initObstPK8obstacle
 2145              	_Z8initObstPK8obstacle:
 2146              	.LVL218:
 2147              	.LFB2484:
 261:Src/main.cpp  **** 	for(uint8_t i = 0; i < 4; i++)
 2148              		.loc 1 261 1 is_stmt 1 view -0
 2149              		.cfi_startproc
 261:Src/main.cpp  **** 	for(uint8_t i = 0; i < 4; i++)
 2150              		.loc 1 261 1 is_stmt 0 view .LVU544
 2151 0aab 55       		pushq	%rbp
 2152              		.cfi_def_cfa_offset 16
 2153              		.cfi_offset 6, -16
 2154 0aac 53       		pushq	%rbx
 2155              		.cfi_def_cfa_offset 24
 2156              		.cfi_offset 3, -24
 2157 0aad 4883EC08 		subq	$8, %rsp
 2158              		.cfi_def_cfa_offset 32
 2159 0ab1 4889FD   		movq	%rdi, %rbp
 262:Src/main.cpp  **** 		initObstCorner(obst, i);
 2160              		.loc 1 262 2 is_stmt 1 view .LVU545
 2161              	.LVL219:
 2162              	.LBB385:
 262:Src/main.cpp  **** 		initObstCorner(obst, i);
 2163              		.loc 1 262 14 is_stmt 0 view .LVU546
 2164 0ab4 BB000000 		movl	$0, %ebx
 2164      00
 2165 0ab9 EB0E     		jmp	.L133
 2166              	.LVL220:
 2167              	.L135:
 263:Src/main.cpp  **** }
 2168              		.loc 1 263 3 is_stmt 1 discriminator 2 view .LVU547
 263:Src/main.cpp  **** }
 2169              		.loc 1 263 17 is_stmt 0 discriminator 2 view .LVU548
 2170 0abb 0FB6F3   		movzbl	%bl, %esi
 2171 0abe 4889EF   		movq	%rbp, %rdi
 2172 0ac1 E8000000 		call	_Z14initObstCornerPK8obstacleh
 2172      00
 2173              	.LVL221:
 262:Src/main.cpp  **** 		initObstCorner(obst, i);
 2174              		.loc 1 262 2 discriminator 2 view .LVU549
 2175 0ac6 83C301   		addl	$1, %ebx
 2176              	.LVL222:
 2177              	.L133:
 262:Src/main.cpp  **** 		initObstCorner(obst, i);
 2178              		.loc 1 262 23 discriminator 3 view .LVU550
 2179 0ac9 80FB03   		cmpb	$3, %bl
 2180 0acc 76ED     		jbe	.L135
 2181              	.LBE385:
GAS LISTING /tmp/cc1DIh6n.s 			page 103


 264:Src/main.cpp  **** 
 2182              		.loc 1 264 1 view .LVU551
 2183 0ace 4883C408 		addq	$8, %rsp
 2184              		.cfi_def_cfa_offset 24
 2185 0ad2 5B       		popq	%rbx
 2186              		.cfi_def_cfa_offset 16
 2187              	.LVL223:
 264:Src/main.cpp  **** 
 2188              		.loc 1 264 1 view .LVU552
 2189 0ad3 5D       		popq	%rbp
 2190              		.cfi_def_cfa_offset 8
 2191              	.LVL224:
 264:Src/main.cpp  **** 
 2192              		.loc 1 264 1 view .LVU553
 2193 0ad4 C3       		ret
 2194              		.cfi_endproc
 2195              	.LFE2484:
 2197              		.globl	_Z16getCoordsOfPointPK10graphPoint
 2199              	_Z16getCoordsOfPointPK10graphPoint:
 2200              	.LVL225:
 2201              	.LFB2485:
 281:Src/main.cpp  **** 	return p->c;
 2202              		.loc 1 281 1 is_stmt 1 view -0
 2203              		.cfi_startproc
 282:Src/main.cpp  **** 
 2204              		.loc 1 282 2 view .LVU555
 282:Src/main.cpp  **** 
 2205              		.loc 1 282 12 is_stmt 0 view .LVU556
 2206 0ad5 F30F7E47 		movq	16(%rdi), %xmm0
 2206      10
 302:Src/main.cpp  **** 
 2207              		.loc 1 302 1 view .LVU557
 2208 0ada C3       		ret
 2209              		.cfi_endproc
 2210              	.LFE2485:
 2212              		.section	.rodata.str1.1
 2213              	.LC22:
 2214 005c 094C696E 		.string	"\tLine: "
 2214      653A2000 
 2215              	.LC23:
 2216 0064 090900   		.string	"\t\t"
 2217              	.LC24:
 2218 0067 3A00     		.string	":"
 2219              	.LC25:
 2220 0069 202D3E20 		.string	" -> "
 2220      00
 2221              		.text
 2222              		.globl	_Z9drawEdgesPK10graphPoint
 2224              	_Z9drawEdgesPK10graphPoint:
 2225              	.LVL226:
 2226              	.LFB2486:
 307:Src/main.cpp  **** 	if(p == NULL || p->numOfTargets == 0)
 2227              		.loc 1 307 1 is_stmt 1 view -0
 2228              		.cfi_startproc
 308:Src/main.cpp  **** 		return;
 2229              		.loc 1 308 2 view .LVU559
 2230 0adb 4885FF   		testq	%rdi, %rdi
GAS LISTING /tmp/cc1DIh6n.s 			page 104


 2231 0ade 0F841D02 		je	.L150
 2231      0000
 307:Src/main.cpp  **** 	if(p == NULL || p->numOfTargets == 0)
 2232              		.loc 1 307 1 is_stmt 0 discriminator 1 view .LVU560
 2233 0ae4 4156     		pushq	%r14
 2234              		.cfi_def_cfa_offset 16
 2235              		.cfi_offset 14, -16
 2236 0ae6 4155     		pushq	%r13
 2237              		.cfi_def_cfa_offset 24
 2238              		.cfi_offset 13, -24
 2239 0ae8 4154     		pushq	%r12
 2240              		.cfi_def_cfa_offset 32
 2241              		.cfi_offset 12, -32
 2242 0aea 55       		pushq	%rbp
 2243              		.cfi_def_cfa_offset 40
 2244              		.cfi_offset 6, -40
 2245 0aeb 53       		pushq	%rbx
 2246              		.cfi_def_cfa_offset 48
 2247              		.cfi_offset 3, -48
 2248 0aec 4883EC10 		subq	$16, %rsp
 2249              		.cfi_def_cfa_offset 64
 2250 0af0 4989FC   		movq	%rdi, %r12
 308:Src/main.cpp  **** 		return;
 2251              		.loc 1 308 15 discriminator 1 view .LVU561
 2252 0af3 48837F08 		cmpq	$0, 8(%rdi)
 2252      00
 2253 0af8 0F84F601 		je	.L137
 2253      0000
 311:Src/main.cpp  **** 	start = getCoordsOfPoint(p);
 2254              		.loc 1 311 2 is_stmt 1 view .LVU562
 312:Src/main.cpp  **** 	for(size_t i = 0; i < p->numOfTargets; i++)
 2255              		.loc 1 312 2 view .LVU563
 312:Src/main.cpp  **** 	for(size_t i = 0; i < p->numOfTargets; i++)
 2256              		.loc 1 312 28 is_stmt 0 view .LVU564
 2257 0afe E8000000 		call	_Z16getCoordsOfPointPK10graphPoint
 2257      00
 2258              	.LVL227:
 312:Src/main.cpp  **** 	for(size_t i = 0; i < p->numOfTargets; i++)
 2259              		.loc 1 312 28 view .LVU565
 2260 0b03 66490F7E 		movq	%xmm0, %r13
 2260      C5
 2261              	.LVL228:
 313:Src/main.cpp  **** 	{
 2262              		.loc 1 313 2 is_stmt 1 view .LVU566
 2263              	.LBB429:
 313:Src/main.cpp  **** 	{
 2264              		.loc 1 313 13 is_stmt 0 view .LVU567
 2265 0b08 BD000000 		movl	$0, %ebp
 2265      00
 2266 0b0d EB57     		jmp	.L148
 2267              	.LVL229:
 2268              	.L153:
 2269              	.LBB430:
 2270              	.LBB431:
 2271              	.LBB432:
 2272              	.LBB433:
 2273              	.LBB434:
GAS LISTING /tmp/cc1DIh6n.s 			page 105


 2274              	.LBB435:
 2275              	.LBB436:
  50:/usr/include/c++/9.1.0/bits/basic_ios.h ****       return *__f;
 2276              		.loc 5 50 18 view .LVU568
 2277 0b0f E8000000 		call	_ZSt16__throw_bad_castv@PLT
 2277      00
 2278              	.LVL230:
 2279              	.L143:
  50:/usr/include/c++/9.1.0/bits/basic_ios.h ****       return *__f;
 2280              		.loc 5 50 18 view .LVU569
 2281              	.LBE436:
 2282              	.LBE435:
 2283              	.LBB438:
 2284              	.LBB439:
 876:/usr/include/c++/9.1.0/bits/locale_facets.h **** 	return this->do_widen(__c);
 2285              		.loc 6 876 2 is_stmt 1 view .LVU570
 876:/usr/include/c++/9.1.0/bits/locale_facets.h **** 	return this->do_widen(__c);
 2286              		.loc 6 876 21 is_stmt 0 view .LVU571
 2287 0b14 4889DF   		movq	%rbx, %rdi
 2288 0b17 E8000000 		call	_ZNKSt5ctypeIcE13_M_widen_initEv@PLT
 2288      00
 2289              	.LVL231:
 2290              		.loc 6 877 2 is_stmt 1 view .LVU572
 2291              		.loc 6 877 27 is_stmt 0 view .LVU573
 2292 0b1c 488B03   		movq	(%rbx), %rax
 2293              		.loc 6 877 23 view .LVU574
 2294 0b1f BE0A0000 		movl	$10, %esi
 2294      00
 2295 0b24 4889DF   		movq	%rbx, %rdi
 2296 0b27 FF5030   		call	*48(%rax)
 2297              	.LVL232:
 2298 0b2a 89C6     		movl	%eax, %esi
 2299              		.loc 6 877 27 view .LVU575
 2300 0b2c E9D60000 		jmp	.L144
 2300      00
 2301              	.LVL233:
 2302              	.L154:
 2303              		.loc 6 877 27 view .LVU576
 2304              	.LBE439:
 2305              	.LBE438:
 2306              	.LBE434:
 2307              	.LBE433:
 2308              	.LBE432:
 2309              	.LBE431:
 2310              	.LBE430:
 2311              	.LBB449:
 2312              	.LBB450:
 2313              	.LBB451:
 2314              	.LBB452:
 2315              	.LBB453:
 2316              	.LBB454:
 2317              	.LBB455:
  50:/usr/include/c++/9.1.0/bits/basic_ios.h ****       return *__f;
 2318              		.loc 5 50 18 view .LVU577
 2319 0b31 E8000000 		call	_ZSt16__throw_bad_castv@PLT
 2319      00
 2320              	.LVL234:
GAS LISTING /tmp/cc1DIh6n.s 			page 106


 2321              	.L146:
  50:/usr/include/c++/9.1.0/bits/basic_ios.h ****       return *__f;
 2322              		.loc 5 50 18 view .LVU578
 2323              	.LBE455:
 2324              	.LBE454:
 2325              	.LBB457:
 2326              	.LBB458:
 876:/usr/include/c++/9.1.0/bits/locale_facets.h **** 	return this->do_widen(__c);
 2327              		.loc 6 876 2 is_stmt 1 view .LVU579
 876:/usr/include/c++/9.1.0/bits/locale_facets.h **** 	return this->do_widen(__c);
 2328              		.loc 6 876 21 is_stmt 0 view .LVU580
 2329 0b36 4C89F7   		movq	%r14, %rdi
 2330 0b39 E8000000 		call	_ZNKSt5ctypeIcE13_M_widen_initEv@PLT
 2330      00
 2331              	.LVL235:
 2332              		.loc 6 877 2 is_stmt 1 view .LVU581
 2333              		.loc 6 877 27 is_stmt 0 view .LVU582
 2334 0b3e 498B06   		movq	(%r14), %rax
 2335              		.loc 6 877 23 view .LVU583
 2336 0b41 BE0A0000 		movl	$10, %esi
 2336      00
 2337 0b46 4C89F7   		movq	%r14, %rdi
 2338 0b49 FF5030   		call	*48(%rax)
 2339              	.LVL236:
 2340 0b4c 89C6     		movl	%eax, %esi
 2341              	.L147:
 2342              	.LVL237:
 2343              		.loc 6 877 23 view .LVU584
 2344              	.LBE458:
 2345              	.LBE457:
 2346              	.LBE453:
 2347              	.LBE452:
 600:/usr/include/c++/9.1.0/ostream **** 
 2348              		.loc 3 600 19 view .LVU585
 2349 0b4e 400FBEF6 		movsbl	%sil, %esi
 2350 0b52 4889DF   		movq	%rbx, %rdi
 2351 0b55 E8000000 		call	_ZNSo3putEc@PLT
 2351      00
 2352              	.LVL238:
 2353 0b5a 4889C7   		movq	%rax, %rdi
 2354              	.LVL239:
 2355              	.LBB463:
 2356              	.LBI463:
 621:/usr/include/c++/9.1.0/ostream ****     { return __os.flush(); }
 2357              		.loc 3 621 5 is_stmt 1 view .LVU586
 2358              	.LBB464:
 2359              		.loc 3 622 25 is_stmt 0 view .LVU587
 2360 0b5d E8000000 		call	_ZNSo5flushEv@PLT
 2360      00
 2361              	.LVL240:
 2362              		.loc 3 622 25 view .LVU588
 2363              	.LBE464:
 2364              	.LBE463:
 2365              	.LBE451:
 2366              	.LBE450:
 2367              	.LBE449:
 313:Src/main.cpp  **** 	{
GAS LISTING /tmp/cc1DIh6n.s 			page 107


 2368              		.loc 1 313 2 view .LVU589
 2369 0b62 4883C501 		addq	$1, %rbp
 2370              	.LVL241:
 2371              	.L148:
 313:Src/main.cpp  **** 	{
 2372              		.loc 1 313 22 discriminator 1 view .LVU590
 2373 0b66 49396C24 		cmpq	%rbp, 8(%r12)
 2373      08
 2374 0b6b 0F868301 		jbe	.L137
 2374      0000
 315:Src/main.cpp  **** 		drawLine(start.x, start.y, end.x, end.y);
 2375              		.loc 1 315 3 is_stmt 1 view .LVU591
 315:Src/main.cpp  **** 		drawLine(start.x, start.y, end.x, end.y);
 2376              		.loc 1 315 38 is_stmt 0 view .LVU592
 2377 0b71 488D04ED 		leaq	0(,%rbp,8), %rax
 2377      00000000 
 2378 0b79 49030424 		addq	(%r12), %rax
 315:Src/main.cpp  **** 		drawLine(start.x, start.y, end.x, end.y);
 2379              		.loc 1 315 39 view .LVU593
 2380 0b7d 488B38   		movq	(%rax), %rdi
 2381 0b80 E8000000 		call	_Z16getCoordsOfPointPK10graphPoint
 2381      00
 2382              	.LVL242:
 316:Src/main.cpp  **** 		cout 	<< "\tLine: " << endl
 2383              		.loc 1 316 3 is_stmt 1 view .LVU594
 316:Src/main.cpp  **** 		cout 	<< "\tLine: " << endl
 2384              		.loc 1 316 11 is_stmt 0 view .LVU595
 2385 0b85 66480F7E 		movq	%xmm0, %rcx
 2385      C1
 2386 0b8a 48C1E920 		shrq	$32, %rcx
 2387 0b8e 660F6ED9 		movd	%ecx, %xmm3
 2388 0b92 894C2408 		movl	%ecx, 8(%rsp)
 2389 0b96 660F7E04 		movd	%xmm0, (%rsp)
 2389      24
 2390 0b9b 4C89E8   		movq	%r13, %rax
 2391 0b9e 48C1E820 		shrq	$32, %rax
 2392 0ba2 660F6EC8 		movd	%eax, %xmm1
 2393 0ba6 8944240C 		movl	%eax, 12(%rsp)
 2394 0baa 44896C24 		movl	%r13d, 4(%rsp)
 2394      04
 2395 0baf F30F1014 		movss	(%rsp), %xmm2
 2395      24
 2396 0bb4 F30F1044 		movss	4(%rsp), %xmm0
 2396      2404
 2397              	.LVL243:
 316:Src/main.cpp  **** 		cout 	<< "\tLine: " << endl
 2398              		.loc 1 316 11 view .LVU596
 2399 0bba E8000000 		call	_Z8drawLineffff@PLT
 2399      00
 2400              	.LVL244:
 317:Src/main.cpp  **** 				<< "\t\t" << start.x << ":" << start.y << " -> " << end.x << ":" << end.y << endl;
 2401              		.loc 1 317 3 is_stmt 1 view .LVU597
 2402              	.LBB468:
 2403              	.LBI468:
 565:/usr/include/c++/9.1.0/ostream ****     {
 2404              		.loc 3 565 5 view .LVU598
 565:/usr/include/c++/9.1.0/ostream ****     {
GAS LISTING /tmp/cc1DIh6n.s 			page 108


 2405              		.loc 3 565 5 is_stmt 0 view .LVU599
 2406              	.LBE468:
 2407              	.LBE429:
 2408              		.loc 4 335 2 is_stmt 1 view .LVU600
 2409              	.LBB493:
 2410              	.LBB470:
 2411              	.LBB469:
 570:/usr/include/c++/9.1.0/ostream **** 			 static_cast<streamsize>(_Traits::length(__s)));
 2412              		.loc 3 570 18 is_stmt 0 view .LVU601
 2413 0bbf BA070000 		movl	$7, %edx
 2413      00
 2414 0bc4 488D3500 		leaq	.LC22(%rip), %rsi
 2414      000000
 2415 0bcb 488D3D00 		leaq	_ZSt4cout(%rip), %rdi
 2415      000000
 2416 0bd2 E8000000 		call	_ZSt16__ostream_insertIcSt11char_traitsIcEERSt13basic_ostreamIT_T0_ES6_PKS3_l@PLT
 2416      00
 2417              	.LVL245:
 570:/usr/include/c++/9.1.0/ostream **** 			 static_cast<streamsize>(_Traits::length(__s)));
 2418              		.loc 3 570 18 view .LVU602
 2419              	.LBE469:
 2420              	.LBE470:
 2421              	.LBB471:
 2422              	.LBI430:
 108:/usr/include/c++/9.1.0/ostream ****       {
 2423              		.loc 3 108 7 is_stmt 1 view .LVU603
 2424              	.LBB448:
 2425              	.LBI431:
 599:/usr/include/c++/9.1.0/ostream ****     { return flush(__os.put(__os.widen('\n'))); }
 2426              		.loc 3 599 5 view .LVU604
 2427              	.LBB447:
 600:/usr/include/c++/9.1.0/ostream **** 
 2428              		.loc 3 600 19 is_stmt 0 view .LVU605
 2429 0bd7 488D0500 		leaq	_ZSt4cout(%rip), %rax
 2429      000000
 2430 0bde 488B1500 		movq	_ZSt4cout(%rip), %rdx
 2430      000000
 2431 0be5 480342E8 		addq	-24(%rdx), %rax
 2432              	.LVL246:
 2433              	.LBB444:
 2434              	.LBI433:
 449:/usr/include/c++/9.1.0/bits/basic_ios.h ****       { return __check_facet(_M_ctype).widen(__c); }
 2435              		.loc 5 449 7 is_stmt 1 view .LVU606
 2436              	.LBB443:
 2437              		.loc 5 450 30 is_stmt 0 view .LVU607
 2438 0be9 488B98F0 		movq	240(%rax), %rbx
 2438      000000
 2439              	.LVL247:
 2440              	.LBB441:
 2441              	.LBI435:
  47:/usr/include/c++/9.1.0/bits/basic_ios.h ****     {
 2442              		.loc 5 47 5 is_stmt 1 view .LVU608
 2443              	.LBB437:
  49:/usr/include/c++/9.1.0/bits/basic_ios.h **** 	__throw_bad_cast();
 2444              		.loc 5 49 7 is_stmt 0 view .LVU609
 2445 0bf0 4885DB   		testq	%rbx, %rbx
 2446 0bf3 0F8416FF 		je	.L153
GAS LISTING /tmp/cc1DIh6n.s 			page 109


 2446      FFFF
 2447              	.LVL248:
  49:/usr/include/c++/9.1.0/bits/basic_ios.h **** 	__throw_bad_cast();
 2448              		.loc 5 49 7 view .LVU610
 2449              	.LBE437:
 2450              	.LBE441:
 2451              	.LBB442:
 2452              	.LBI438:
 872:/usr/include/c++/9.1.0/bits/locale_facets.h ****       {
 2453              		.loc 6 872 7 is_stmt 1 view .LVU611
 2454              	.LBB440:
 874:/usr/include/c++/9.1.0/bits/locale_facets.h **** 	  return _M_widen[static_cast<unsigned char>(__c)];
 2455              		.loc 6 874 2 view .LVU612
 2456 0bf9 807B3800 		cmpb	$0, 56(%rbx)
 2457 0bfd 0F8411FF 		je	.L143
 2457      FFFF
 875:/usr/include/c++/9.1.0/bits/locale_facets.h **** 	this->_M_widen_init();
 2458              		.loc 6 875 4 view .LVU613
 875:/usr/include/c++/9.1.0/bits/locale_facets.h **** 	this->_M_widen_init();
 2459              		.loc 6 875 51 is_stmt 0 view .LVU614
 2460 0c03 0FB67343 		movzbl	67(%rbx), %esi
 2461              	.LVL249:
 2462              	.L144:
 875:/usr/include/c++/9.1.0/bits/locale_facets.h **** 	this->_M_widen_init();
 2463              		.loc 6 875 51 view .LVU615
 2464              	.LBE440:
 2465              	.LBE442:
 2466              	.LBE443:
 2467              	.LBE444:
 600:/usr/include/c++/9.1.0/ostream **** 
 2468              		.loc 3 600 19 view .LVU616
 2469 0c07 400FBEF6 		movsbl	%sil, %esi
 2470 0c0b 488D3D00 		leaq	_ZSt4cout(%rip), %rdi
 2470      000000
 2471 0c12 E8000000 		call	_ZNSo3putEc@PLT
 2471      00
 2472              	.LVL250:
 2473 0c17 4889C7   		movq	%rax, %rdi
 2474              	.LVL251:
 2475              	.LBB445:
 2476              	.LBI445:
 621:/usr/include/c++/9.1.0/ostream ****     { return __os.flush(); }
 2477              		.loc 3 621 5 is_stmt 1 view .LVU617
 2478              	.LBB446:
 2479              		.loc 3 622 25 is_stmt 0 view .LVU618
 2480 0c1a E8000000 		call	_ZNSo5flushEv@PLT
 2480      00
 2481              	.LVL252:
 2482              		.loc 3 622 25 view .LVU619
 2483 0c1f 4889C3   		movq	%rax, %rbx
 2484              	.LVL253:
 2485              		.loc 3 622 25 view .LVU620
 2486              	.LBE446:
 2487              	.LBE445:
 2488              	.LBE447:
 2489              	.LBE448:
 2490              	.LBE471:
GAS LISTING /tmp/cc1DIh6n.s 			page 110


 2491              	.LBB472:
 2492              	.LBI472:
 565:/usr/include/c++/9.1.0/ostream ****     {
 2493              		.loc 3 565 5 is_stmt 1 view .LVU621
 565:/usr/include/c++/9.1.0/ostream ****     {
 2494              		.loc 3 565 5 is_stmt 0 view .LVU622
 2495              	.LBE472:
 2496              	.LBE493:
 2497              		.loc 4 335 2 is_stmt 1 view .LVU623
 2498              	.LBB494:
 2499              	.LBB474:
 2500              	.LBB473:
 570:/usr/include/c++/9.1.0/ostream **** 			 static_cast<streamsize>(_Traits::length(__s)));
 2501              		.loc 3 570 18 is_stmt 0 view .LVU624
 2502 0c22 BA020000 		movl	$2, %edx
 2502      00
 2503 0c27 488D3500 		leaq	.LC23(%rip), %rsi
 2503      000000
 2504 0c2e 4889C7   		movq	%rax, %rdi
 2505 0c31 E8000000 		call	_ZSt16__ostream_insertIcSt11char_traitsIcEERSt13basic_ostreamIT_T0_ES6_PKS3_l@PLT
 2505      00
 2506              	.LVL254:
 570:/usr/include/c++/9.1.0/ostream **** 			 static_cast<streamsize>(_Traits::length(__s)));
 2507              		.loc 3 570 18 view .LVU625
 2508              	.LBE473:
 2509              	.LBE474:
 2510              	.LBB475:
 2511              	.LBI475:
 224:/usr/include/c++/9.1.0/ostream ****       {
 2512              		.loc 3 224 7 is_stmt 1 view .LVU626
 2513              	.LBB476:
 228:/usr/include/c++/9.1.0/ostream ****       }
 2514              		.loc 3 228 43 is_stmt 0 view .LVU627
 2515 0c36 660FEFC0 		pxor	%xmm0, %xmm0
 2516 0c3a F30F5A44 		cvtss2sd	4(%rsp), %xmm0
 2516      2404
 2517 0c40 4889DF   		movq	%rbx, %rdi
 2518 0c43 E8000000 		call	_ZNSo9_M_insertIdEERSoT_@PLT
 2518      00
 2519              	.LVL255:
 2520 0c48 4889C3   		movq	%rax, %rbx
 2521              	.LVL256:
 228:/usr/include/c++/9.1.0/ostream ****       }
 2522              		.loc 3 228 43 view .LVU628
 2523              	.LBE476:
 2524              	.LBE475:
 2525              	.LBB477:
 2526              	.LBI477:
 565:/usr/include/c++/9.1.0/ostream ****     {
 2527              		.loc 3 565 5 is_stmt 1 view .LVU629
 565:/usr/include/c++/9.1.0/ostream ****     {
 2528              		.loc 3 565 5 is_stmt 0 view .LVU630
 2529              	.LBE477:
 2530              	.LBE494:
 2531              		.loc 4 335 2 is_stmt 1 view .LVU631
 2532              	.LBB495:
 2533              	.LBB479:
GAS LISTING /tmp/cc1DIh6n.s 			page 111


 2534              	.LBB478:
 570:/usr/include/c++/9.1.0/ostream **** 			 static_cast<streamsize>(_Traits::length(__s)));
 2535              		.loc 3 570 18 is_stmt 0 view .LVU632
 2536 0c4b BA010000 		movl	$1, %edx
 2536      00
 2537 0c50 488D3500 		leaq	.LC24(%rip), %rsi
 2537      000000
 2538 0c57 4889C7   		movq	%rax, %rdi
 2539 0c5a E8000000 		call	_ZSt16__ostream_insertIcSt11char_traitsIcEERSt13basic_ostreamIT_T0_ES6_PKS3_l@PLT
 2539      00
 2540              	.LVL257:
 570:/usr/include/c++/9.1.0/ostream **** 			 static_cast<streamsize>(_Traits::length(__s)));
 2541              		.loc 3 570 18 view .LVU633
 2542              	.LBE478:
 2543              	.LBE479:
 2544              	.LBB480:
 2545              	.LBI480:
 224:/usr/include/c++/9.1.0/ostream ****       {
 2546              		.loc 3 224 7 is_stmt 1 view .LVU634
 2547              	.LBB481:
 228:/usr/include/c++/9.1.0/ostream ****       }
 2548              		.loc 3 228 43 is_stmt 0 view .LVU635
 2549 0c5f 660FEFC0 		pxor	%xmm0, %xmm0
 2550 0c63 F30F5A44 		cvtss2sd	12(%rsp), %xmm0
 2550      240C
 2551 0c69 4889DF   		movq	%rbx, %rdi
 2552 0c6c E8000000 		call	_ZNSo9_M_insertIdEERSoT_@PLT
 2552      00
 2553              	.LVL258:
 2554 0c71 4889C3   		movq	%rax, %rbx
 2555              	.LVL259:
 228:/usr/include/c++/9.1.0/ostream ****       }
 2556              		.loc 3 228 43 view .LVU636
 2557              	.LBE481:
 2558              	.LBE480:
 2559              	.LBB482:
 2560              	.LBI482:
 565:/usr/include/c++/9.1.0/ostream ****     {
 2561              		.loc 3 565 5 is_stmt 1 view .LVU637
 565:/usr/include/c++/9.1.0/ostream ****     {
 2562              		.loc 3 565 5 is_stmt 0 view .LVU638
 2563              	.LBE482:
 2564              	.LBE495:
 2565              		.loc 4 335 2 is_stmt 1 view .LVU639
 2566              	.LBB496:
 2567              	.LBB484:
 2568              	.LBB483:
 570:/usr/include/c++/9.1.0/ostream **** 			 static_cast<streamsize>(_Traits::length(__s)));
 2569              		.loc 3 570 18 is_stmt 0 view .LVU640
 2570 0c74 BA040000 		movl	$4, %edx
 2570      00
 2571 0c79 488D3500 		leaq	.LC25(%rip), %rsi
 2571      000000
 2572 0c80 4889C7   		movq	%rax, %rdi
 2573 0c83 E8000000 		call	_ZSt16__ostream_insertIcSt11char_traitsIcEERSt13basic_ostreamIT_T0_ES6_PKS3_l@PLT
 2573      00
 2574              	.LVL260:
GAS LISTING /tmp/cc1DIh6n.s 			page 112


 570:/usr/include/c++/9.1.0/ostream **** 			 static_cast<streamsize>(_Traits::length(__s)));
 2575              		.loc 3 570 18 view .LVU641
 2576              	.LBE483:
 2577              	.LBE484:
 2578              	.LBB485:
 2579              	.LBI485:
 224:/usr/include/c++/9.1.0/ostream ****       {
 2580              		.loc 3 224 7 is_stmt 1 view .LVU642
 2581              	.LBB486:
 228:/usr/include/c++/9.1.0/ostream ****       }
 2582              		.loc 3 228 43 is_stmt 0 view .LVU643
 2583 0c88 660FEFC0 		pxor	%xmm0, %xmm0
 2584 0c8c F30F5A04 		cvtss2sd	(%rsp), %xmm0
 2584      24
 2585 0c91 4889DF   		movq	%rbx, %rdi
 2586 0c94 E8000000 		call	_ZNSo9_M_insertIdEERSoT_@PLT
 2586      00
 2587              	.LVL261:
 2588 0c99 4889C3   		movq	%rax, %rbx
 2589              	.LVL262:
 228:/usr/include/c++/9.1.0/ostream ****       }
 2590              		.loc 3 228 43 view .LVU644
 2591              	.LBE486:
 2592              	.LBE485:
 2593              	.LBB487:
 2594              	.LBI487:
 565:/usr/include/c++/9.1.0/ostream ****     {
 2595              		.loc 3 565 5 is_stmt 1 view .LVU645
 565:/usr/include/c++/9.1.0/ostream ****     {
 2596              		.loc 3 565 5 is_stmt 0 view .LVU646
 2597              	.LBE487:
 2598              	.LBE496:
 2599              		.loc 4 335 2 is_stmt 1 view .LVU647
 2600              	.LBB497:
 2601              	.LBB489:
 2602              	.LBB488:
 570:/usr/include/c++/9.1.0/ostream **** 			 static_cast<streamsize>(_Traits::length(__s)));
 2603              		.loc 3 570 18 is_stmt 0 view .LVU648
 2604 0c9c BA010000 		movl	$1, %edx
 2604      00
 2605 0ca1 488D3500 		leaq	.LC24(%rip), %rsi
 2605      000000
 2606 0ca8 4889C7   		movq	%rax, %rdi
 2607 0cab E8000000 		call	_ZSt16__ostream_insertIcSt11char_traitsIcEERSt13basic_ostreamIT_T0_ES6_PKS3_l@PLT
 2607      00
 2608              	.LVL263:
 570:/usr/include/c++/9.1.0/ostream **** 			 static_cast<streamsize>(_Traits::length(__s)));
 2609              		.loc 3 570 18 view .LVU649
 2610              	.LBE488:
 2611              	.LBE489:
 2612              	.LBB490:
 2613              	.LBI490:
 224:/usr/include/c++/9.1.0/ostream ****       {
 2614              		.loc 3 224 7 is_stmt 1 view .LVU650
 2615              	.LBB491:
 228:/usr/include/c++/9.1.0/ostream ****       }
 2616              		.loc 3 228 43 is_stmt 0 view .LVU651
GAS LISTING /tmp/cc1DIh6n.s 			page 113


 2617 0cb0 660FEFC0 		pxor	%xmm0, %xmm0
 2618 0cb4 F30F5A44 		cvtss2sd	8(%rsp), %xmm0
 2618      2408
 2619 0cba 4889DF   		movq	%rbx, %rdi
 2620 0cbd E8000000 		call	_ZNSo9_M_insertIdEERSoT_@PLT
 2620      00
 2621              	.LVL264:
 2622 0cc2 4889C3   		movq	%rax, %rbx
 2623              	.LVL265:
 228:/usr/include/c++/9.1.0/ostream ****       }
 2624              		.loc 3 228 43 view .LVU652
 2625              	.LBE491:
 2626              	.LBE490:
 2627              	.LBB492:
 2628              	.LBI449:
 108:/usr/include/c++/9.1.0/ostream ****       {
 2629              		.loc 3 108 7 is_stmt 1 view .LVU653
 2630              	.LBB467:
 2631              	.LBI450:
 599:/usr/include/c++/9.1.0/ostream ****     { return flush(__os.put(__os.widen('\n'))); }
 2632              		.loc 3 599 5 view .LVU654
 2633              	.LBB466:
 600:/usr/include/c++/9.1.0/ostream **** 
 2634              		.loc 3 600 19 is_stmt 0 view .LVU655
 2635 0cc5 488B00   		movq	(%rax), %rax
 2636              	.LVL266:
 600:/usr/include/c++/9.1.0/ostream **** 
 2637              		.loc 3 600 19 view .LVU656
 2638 0cc8 4889D9   		movq	%rbx, %rcx
 2639 0ccb 480348E8 		addq	-24(%rax), %rcx
 2640              	.LVL267:
 2641              	.LBB465:
 2642              	.LBI452:
 449:/usr/include/c++/9.1.0/bits/basic_ios.h ****       { return __check_facet(_M_ctype).widen(__c); }
 2643              		.loc 5 449 7 is_stmt 1 view .LVU657
 2644              	.LBB462:
 2645              		.loc 5 450 30 is_stmt 0 view .LVU658
 2646 0ccf 4C8BB1F0 		movq	240(%rcx), %r14
 2646      000000
 2647              	.LVL268:
 2648              	.LBB460:
 2649              	.LBI454:
  47:/usr/include/c++/9.1.0/bits/basic_ios.h ****     {
 2650              		.loc 5 47 5 is_stmt 1 view .LVU659
 2651              	.LBB456:
  49:/usr/include/c++/9.1.0/bits/basic_ios.h **** 	__throw_bad_cast();
 2652              		.loc 5 49 7 is_stmt 0 view .LVU660
 2653 0cd6 4D85F6   		testq	%r14, %r14
 2654 0cd9 0F8452FE 		je	.L154
 2654      FFFF
 2655              	.LVL269:
  49:/usr/include/c++/9.1.0/bits/basic_ios.h **** 	__throw_bad_cast();
 2656              		.loc 5 49 7 view .LVU661
 2657              	.LBE456:
 2658              	.LBE460:
 2659              	.LBB461:
 2660              	.LBI457:
GAS LISTING /tmp/cc1DIh6n.s 			page 114


 872:/usr/include/c++/9.1.0/bits/locale_facets.h ****       {
 2661              		.loc 6 872 7 is_stmt 1 view .LVU662
 2662              	.LBB459:
 874:/usr/include/c++/9.1.0/bits/locale_facets.h **** 	  return _M_widen[static_cast<unsigned char>(__c)];
 2663              		.loc 6 874 2 view .LVU663
 2664 0cdf 41807E38 		cmpb	$0, 56(%r14)
 2664      00
 2665 0ce4 0F844CFE 		je	.L146
 2665      FFFF
 875:/usr/include/c++/9.1.0/bits/locale_facets.h **** 	this->_M_widen_init();
 2666              		.loc 6 875 4 view .LVU664
 875:/usr/include/c++/9.1.0/bits/locale_facets.h **** 	this->_M_widen_init();
 2667              		.loc 6 875 51 is_stmt 0 view .LVU665
 2668 0cea 410FB676 		movzbl	67(%r14), %esi
 2668      43
 2669 0cef E95AFEFF 		jmp	.L147
 2669      FF
 2670              	.LVL270:
 2671              	.L137:
 875:/usr/include/c++/9.1.0/bits/locale_facets.h **** 	this->_M_widen_init();
 2672              		.loc 6 875 51 view .LVU666
 2673              	.LBE459:
 2674              	.LBE461:
 2675              	.LBE462:
 2676              	.LBE465:
 2677              	.LBE466:
 2678              	.LBE467:
 2679              	.LBE492:
 2680              	.LBE497:
 320:Src/main.cpp  **** 
 2681              		.loc 1 320 1 view .LVU667
 2682 0cf4 4883C410 		addq	$16, %rsp
 2683              		.cfi_def_cfa_offset 48
 2684 0cf8 5B       		popq	%rbx
 2685              		.cfi_def_cfa_offset 40
 2686 0cf9 5D       		popq	%rbp
 2687              		.cfi_def_cfa_offset 32
 2688 0cfa 415C     		popq	%r12
 2689              		.cfi_def_cfa_offset 24
 2690              	.LVL271:
 320:Src/main.cpp  **** 
 2691              		.loc 1 320 1 view .LVU668
 2692 0cfc 415D     		popq	%r13
 2693              		.cfi_def_cfa_offset 16
 2694              	.LVL272:
 320:Src/main.cpp  **** 
 2695              		.loc 1 320 1 view .LVU669
 2696 0cfe 415E     		popq	%r14
 2697              		.cfi_def_cfa_offset 8
 2698 0d00 C3       		ret
 2699              	.LVL273:
 2700              	.L150:
 2701              		.cfi_restore 3
 2702              		.cfi_restore 6
 2703              		.cfi_restore 12
 2704              		.cfi_restore 13
 2705              		.cfi_restore 14
GAS LISTING /tmp/cc1DIh6n.s 			page 115


 320:Src/main.cpp  **** 
 2706              		.loc 1 320 1 view .LVU670
 2707 0d01 C3       		ret
 2708              		.cfi_endproc
 2709              	.LFE2486:
 2711              		.globl	_Z12drawObstaclePK8obstacle
 2713              	_Z12drawObstaclePK8obstacle:
 2714              	.LVL274:
 2715              	.LFB2487:
 326:Src/main.cpp  **** 	glSetColor(OBST_COLOR);
 2716              		.loc 1 326 1 is_stmt 1 view -0
 2717              		.cfi_startproc
 326:Src/main.cpp  **** 	glSetColor(OBST_COLOR);
 2718              		.loc 1 326 1 is_stmt 0 view .LVU672
 2719 0d02 53       		pushq	%rbx
 2720              		.cfi_def_cfa_offset 16
 2721              		.cfi_offset 3, -16
 2722 0d03 4889FB   		movq	%rdi, %rbx
 327:Src/main.cpp  **** 	drawQuad(o->c->x, o->c->y, o->a);
 2723              		.loc 1 327 2 is_stmt 1 view .LVU673
 327:Src/main.cpp  **** 	drawQuad(o->c->x, o->c->y, o->a);
 2724              		.loc 1 327 12 is_stmt 0 view .LVU674
 2725 0d06 BF0000FF 		movl	$16711680, %edi
 2725      00
 2726              	.LVL275:
 327:Src/main.cpp  **** 	drawQuad(o->c->x, o->c->y, o->a);
 2727              		.loc 1 327 12 view .LVU675
 2728 0d0b E8000000 		call	_Z10glSetColorj@PLT
 2728      00
 2729              	.LVL276:
 328:Src/main.cpp  **** 	glSetColor(GRAPH_COLOR);
 2730              		.loc 1 328 2 is_stmt 1 view .LVU676
 328:Src/main.cpp  **** 	glSetColor(GRAPH_COLOR);
 2731              		.loc 1 328 23 is_stmt 0 view .LVU677
 2732 0d10 488B03   		movq	(%rbx), %rax
 328:Src/main.cpp  **** 	glSetColor(GRAPH_COLOR);
 2733              		.loc 1 328 10 view .LVU678
 2734 0d13 F30F1053 		movss	40(%rbx), %xmm2
 2734      28
 2735 0d18 F30F1048 		movss	4(%rax), %xmm1
 2735      04
 2736 0d1d F30F1000 		movss	(%rax), %xmm0
 2737 0d21 E8000000 		call	_Z8drawQuadfff@PLT
 2737      00
 2738              	.LVL277:
 329:Src/main.cpp  **** 	// for(int i = 0; i < 4; i++)
 2739              		.loc 1 329 2 is_stmt 1 view .LVU679
 329:Src/main.cpp  **** 	// for(int i = 0; i < 4; i++)
 2740              		.loc 1 329 12 is_stmt 0 view .LVU680
 2741 0d26 BFFFFF00 		movl	$65535, %edi
 2741      00
 2742 0d2b E8000000 		call	_Z10glSetColorj@PLT
 2742      00
 2743              	.LVL278:
 332:Src/main.cpp  **** 
 2744              		.loc 1 332 1 view .LVU681
 2745 0d30 5B       		popq	%rbx
GAS LISTING /tmp/cc1DIh6n.s 			page 116


 2746              		.cfi_def_cfa_offset 8
 2747              	.LVL279:
 332:Src/main.cpp  **** 
 2748              		.loc 1 332 1 view .LVU682
 2749 0d31 C3       		ret
 2750              		.cfi_endproc
 2751              	.LFE2487:
 2753              		.globl	_Z11renderScenev
 2755              	_Z11renderScenev:
 2756              	.LFB2488:
 335:Src/main.cpp  **** 	glClear(GL_COLOR_BUFFER_BIT);
 2757              		.loc 1 335 1 is_stmt 1 view -0
 2758              		.cfi_startproc
 2759 0d32 53       		pushq	%rbx
 2760              		.cfi_def_cfa_offset 16
 2761              		.cfi_offset 3, -16
 336:Src/main.cpp  **** 
 2762              		.loc 1 336 2 view .LVU684
 336:Src/main.cpp  **** 
 2763              		.loc 1 336 9 is_stmt 0 view .LVU685
 2764 0d33 BF004000 		movl	$16384, %edi
 2764      00
 2765 0d38 E8000000 		call	glClear@PLT
 2765      00
 2766              	.LVL280:
 340:Src/main.cpp  **** 		{
 2767              		.loc 1 340 3 is_stmt 1 view .LVU686
 2768              	.LBB498:
 340:Src/main.cpp  **** 		{
 2769              		.loc 1 340 14 is_stmt 0 view .LVU687
 2770 0d3d BB000000 		movl	$0, %ebx
 2770      00
 2771              	.LVL281:
 2772              	.L159:
 340:Src/main.cpp  **** 		{
 2773              		.loc 1 340 23 discriminator 3 view .LVU688
 2774 0d42 48391D00 		cmpq	%rbx, numOfObstacles(%rip)
 2774      000000
 2775 0d49 761D     		jbe	.L161
 342:Src/main.cpp  **** 		}
 2776              		.loc 1 342 4 is_stmt 1 discriminator 2 view .LVU689
 342:Src/main.cpp  **** 		}
 2777              		.loc 1 342 29 is_stmt 0 discriminator 2 view .LVU690
 2778 0d4b 488D045B 		leaq	(%rbx,%rbx,2), %rax
 2779 0d4f 48C1E004 		salq	$4, %rax
 2780 0d53 4889C7   		movq	%rax, %rdi
 342:Src/main.cpp  **** 		}
 2781              		.loc 1 342 17 discriminator 2 view .LVU691
 2782 0d56 48033D00 		addq	obstacles(%rip), %rdi
 2782      000000
 342:Src/main.cpp  **** 		}
 2783              		.loc 1 342 16 discriminator 2 view .LVU692
 2784 0d5d E8000000 		call	_Z12drawObstaclePK8obstacle
 2784      00
 2785              	.LVL282:
 340:Src/main.cpp  **** 		{
 2786              		.loc 1 340 3 discriminator 2 view .LVU693
GAS LISTING /tmp/cc1DIh6n.s 			page 117


 2787 0d62 4883C301 		addq	$1, %rbx
 2788              	.LVL283:
 340:Src/main.cpp  **** 		{
 2789              		.loc 1 340 3 discriminator 2 view .LVU694
 2790 0d66 EBDA     		jmp	.L159
 2791              	.L161:
 340:Src/main.cpp  **** 		{
 2792              		.loc 1 340 3 discriminator 2 view .LVU695
 2793              	.LBE498:
 2794              	.LBB499:
 344:Src/main.cpp  **** 		{
 2795              		.loc 1 344 14 view .LVU696
 2796 0d68 BB000000 		movl	$0, %ebx
 2796      00
 2797              	.LVL284:
 2798              	.L158:
 344:Src/main.cpp  **** 		{
 2799              		.loc 1 344 23 discriminator 3 view .LVU697
 2800 0d6d 48391D00 		cmpq	%rbx, graphSize(%rip)
 2800      000000
 2801 0d74 7616     		jbe	.L160
 346:Src/main.cpp  **** 		}
 2802              		.loc 1 346 4 is_stmt 1 discriminator 2 view .LVU698
 346:Src/main.cpp  **** 		}
 2803              		.loc 1 346 13 is_stmt 0 discriminator 2 view .LVU699
 2804 0d76 488B0500 		movq	graph(%rip), %rax
 2804      000000
 2805 0d7d 488B3CD8 		movq	(%rax,%rbx,8), %rdi
 2806 0d81 E8000000 		call	_Z9drawEdgesPK10graphPoint
 2806      00
 2807              	.LVL285:
 344:Src/main.cpp  **** 		{
 2808              		.loc 1 344 3 discriminator 2 view .LVU700
 2809 0d86 4883C301 		addq	$1, %rbx
 2810              	.LVL286:
 344:Src/main.cpp  **** 		{
 2811              		.loc 1 344 3 discriminator 2 view .LVU701
 2812 0d8a EBE1     		jmp	.L158
 2813              	.L160:
 344:Src/main.cpp  **** 		{
 2814              		.loc 1 344 3 discriminator 2 view .LVU702
 2815              	.LBE499:
 353:Src/main.cpp  **** }
 2816              		.loc 1 353 5 is_stmt 1 view .LVU703
 353:Src/main.cpp  **** }
 2817              		.loc 1 353 20 is_stmt 0 view .LVU704
 2818 0d8c E8000000 		call	glutSwapBuffers@PLT
 2818      00
 2819              	.LVL287:
 354:Src/main.cpp  **** 
 2820              		.loc 1 354 1 view .LVU705
 2821 0d91 5B       		popq	%rbx
 2822              		.cfi_def_cfa_offset 8
 2823              	.LVL288:
 354:Src/main.cpp  **** 
 2824              		.loc 1 354 1 view .LVU706
 2825 0d92 C3       		ret
GAS LISTING /tmp/cc1DIh6n.s 			page 118


 2826              		.cfi_endproc
 2827              	.LFE2488:
 2829              		.section	.rodata.str1.1
 2830              	.LC34:
 2831 006e 676C7574 		.string	"glut init\n"
 2831      20696E69 
 2831      740A00
 2832              	.LC35:
 2833 0079 64697370 		.string	"dispmode\n"
 2833      6D6F6465 
 2833      0A00
 2834              	.LC36:
 2835 0083 666C6F61 		.string	"floating"
 2835      74696E67 
 2835      00
 2836              	.LC37:
 2837 008c 72657368 		.string	"reshape\n"
 2837      6170650A 
 2837      00
 2838              	.LC38:
 2839 0095 64697370 		.string	"dispfunc\n"
 2839      66756E63 
 2839      0A00
 2840              	.LC39:
 2841 009f 6B657966 		.string	"keyfunc\n"
 2841      756E630A 
 2841      00
 2842              	.LC40:
 2843 00a8 74696D65 		.string	"timer\n"
 2843      720A00
 2844              	.LC41:
 2845 00af 6D61696E 		.string	"mainloop\n"
 2845      6C6F6F70 
 2845      0A00
 2846              		.text
 2847              		.globl	main
 2849              	main:
 2850              	.LVL289:
 2851              	.LFB2492:
 405:Src/main.cpp  **** 	numOfObstacles = 3;
 2852              		.loc 1 405 1 is_stmt 1 view -0
 2853              		.cfi_startproc
 405:Src/main.cpp  **** 	numOfObstacles = 3;
 2854              		.loc 1 405 1 is_stmt 0 view .LVU708
 2855 0d93 4155     		pushq	%r13
 2856              		.cfi_def_cfa_offset 16
 2857              		.cfi_offset 13, -16
 2858 0d95 4154     		pushq	%r12
 2859              		.cfi_def_cfa_offset 24
 2860              		.cfi_offset 12, -24
 2861 0d97 55       		pushq	%rbp
 2862              		.cfi_def_cfa_offset 32
 2863              		.cfi_offset 6, -32
 2864 0d98 53       		pushq	%rbx
 2865              		.cfi_def_cfa_offset 40
 2866              		.cfi_offset 3, -40
 2867 0d99 4883EC68 		subq	$104, %rsp
GAS LISTING /tmp/cc1DIh6n.s 			page 119


 2868              		.cfi_def_cfa_offset 144
 2869 0d9d 897C240C 		movl	%edi, 12(%rsp)
 2870 0da1 4889F3   		movq	%rsi, %rbx
 405:Src/main.cpp  **** 	numOfObstacles = 3;
 2871              		.loc 1 405 1 view .LVU709
 2872 0da4 64488B04 		movq	%fs:40, %rax
 2872      25280000 
 2872      00
 2873 0dad 48894424 		movq	%rax, 88(%rsp)
 2873      58
 2874 0db2 31C0     		xorl	%eax, %eax
 406:Src/main.cpp  **** 	obstacles = (struct obstacle*)malloc(sizeof(struct obstacle) * numOfObstacles);
 2875              		.loc 1 406 2 is_stmt 1 view .LVU710
 406:Src/main.cpp  **** 	obstacles = (struct obstacle*)malloc(sizeof(struct obstacle) * numOfObstacles);
 2876              		.loc 1 406 17 is_stmt 0 view .LVU711
 2877 0db4 48C70500 		movq	$3, numOfObstacles(%rip)
 2877      00000003 
 2877      000000
 407:Src/main.cpp  **** 	obstacles[0] = createObstacle(200, 200, 20);
 2878              		.loc 1 407 2 is_stmt 1 view .LVU712
 407:Src/main.cpp  **** 	obstacles[0] = createObstacle(200, 200, 20);
 2879              		.loc 1 407 38 is_stmt 0 view .LVU713
 2880 0dbf BF900000 		movl	$144, %edi
 2880      00
 2881              	.LVL290:
 407:Src/main.cpp  **** 	obstacles[0] = createObstacle(200, 200, 20);
 2882              		.loc 1 407 38 view .LVU714
 2883 0dc4 E8000000 		call	malloc@PLT
 2883      00
 2884              	.LVL291:
 407:Src/main.cpp  **** 	obstacles[0] = createObstacle(200, 200, 20);
 2885              		.loc 1 407 12 view .LVU715
 2886 0dc9 48890500 		movq	%rax, obstacles(%rip)
 2886      000000
 408:Src/main.cpp  **** 	obstacles[1] = createObstacle(45, 55, 20);
 2887              		.loc 1 408 2 is_stmt 1 view .LVU716
 408:Src/main.cpp  **** 	obstacles[1] = createObstacle(45, 55, 20);
 2888              		.loc 1 408 44 is_stmt 0 view .LVU717
 2889 0dd0 488D6C24 		leaq	32(%rsp), %rbp
 2889      20
 2890 0dd5 F30F1015 		movss	.LC26(%rip), %xmm2
 2890      00000000 
 2891 0ddd F30F100D 		movss	.LC27(%rip), %xmm1
 2891      00000000 
 2892 0de5 0F28C1   		movaps	%xmm1, %xmm0
 2893 0de8 4889EF   		movq	%rbp, %rdi
 2894 0deb E8000000 		call	_Z14createObstaclefff@PLT
 2894      00
 2895              	.LVL292:
 408:Src/main.cpp  **** 	obstacles[1] = createObstacle(45, 55, 20);
 2896              		.loc 1 408 15 view .LVU718
 2897 0df0 488B0500 		movq	obstacles(%rip), %rax
 2897      000000
 2898 0df7 660F6F5C 		movdqa	32(%rsp), %xmm3
 2898      2420
 2899 0dfd 0F1118   		movups	%xmm3, (%rax)
 2900 0e00 660F6F64 		movdqa	48(%rsp), %xmm4
GAS LISTING /tmp/cc1DIh6n.s 			page 120


 2900      2430
 2901 0e06 0F116010 		movups	%xmm4, 16(%rax)
 2902 0e0a 488B5424 		movq	64(%rsp), %rdx
 2902      40
 2903 0e0f 48895020 		movq	%rdx, 32(%rax)
 2904 0e13 8B542448 		movl	72(%rsp), %edx
 2905 0e17 895028   		movl	%edx, 40(%rax)
 409:Src/main.cpp  **** 	// obstacles[2] = createObstacle(70, 20, 20);
 2906              		.loc 1 409 2 is_stmt 1 view .LVU719
 409:Src/main.cpp  **** 	// obstacles[2] = createObstacle(70, 20, 20);
 2907              		.loc 1 409 42 is_stmt 0 view .LVU720
 2908 0e1a F30F1015 		movss	.LC26(%rip), %xmm2
 2908      00000000 
 2909 0e22 F30F100D 		movss	.LC28(%rip), %xmm1
 2909      00000000 
 2910 0e2a F30F1005 		movss	.LC29(%rip), %xmm0
 2910      00000000 
 2911 0e32 4889EF   		movq	%rbp, %rdi
 2912 0e35 E8000000 		call	_Z14createObstaclefff@PLT
 2912      00
 2913              	.LVL293:
 409:Src/main.cpp  **** 	// obstacles[2] = createObstacle(70, 20, 20);
 2914              		.loc 1 409 15 view .LVU721
 2915 0e3a 488B0500 		movq	obstacles(%rip), %rax
 2915      000000
 2916 0e41 660F6F6C 		movdqa	32(%rsp), %xmm5
 2916      2420
 2917 0e47 0F116830 		movups	%xmm5, 48(%rax)
 2918 0e4b 660F6F74 		movdqa	48(%rsp), %xmm6
 2918      2430
 2919 0e51 0F117040 		movups	%xmm6, 64(%rax)
 2920 0e55 488B5424 		movq	64(%rsp), %rdx
 2920      40
 2921 0e5a 48895050 		movq	%rdx, 80(%rax)
 2922 0e5e 8B542448 		movl	72(%rsp), %edx
 2923 0e62 895058   		movl	%edx, 88(%rax)
 411:Src/main.cpp  **** 
 2924              		.loc 1 411 2 is_stmt 1 view .LVU722
 411:Src/main.cpp  **** 
 2925              		.loc 1 411 41 is_stmt 0 view .LVU723
 2926 0e65 F30F1015 		movss	.LC26(%rip), %xmm2
 2926      00000000 
 2927 0e6d F30F100D 		movss	.LC28(%rip), %xmm1
 2927      00000000 
 2928 0e75 F30F1005 		movss	.LC30(%rip), %xmm0
 2928      00000000 
 2929 0e7d 4889EF   		movq	%rbp, %rdi
 2930 0e80 E8000000 		call	_Z14createObstaclefff@PLT
 2930      00
 2931              	.LVL294:
 411:Src/main.cpp  **** 
 2932              		.loc 1 411 15 view .LVU724
 2933 0e85 488B0500 		movq	obstacles(%rip), %rax
 2933      000000
 2934 0e8c 660F6F7C 		movdqa	32(%rsp), %xmm7
 2934      2420
 2935 0e92 0F117860 		movups	%xmm7, 96(%rax)
GAS LISTING /tmp/cc1DIh6n.s 			page 121


 2936 0e96 660F6F5C 		movdqa	48(%rsp), %xmm3
 2936      2430
 2937 0e9c 0F115870 		movups	%xmm3, 112(%rax)
 2938 0ea0 488B5424 		movq	64(%rsp), %rdx
 2938      40
 2939 0ea5 48899080 		movq	%rdx, 128(%rax)
 2939      000000
 2940 0eac 8B542448 		movl	72(%rsp), %edx
 2941 0eb0 89908800 		movl	%edx, 136(%rax)
 2941      0000
 413:Src/main.cpp  **** 
 2942              		.loc 1 413 2 is_stmt 1 view .LVU725
 413:Src/main.cpp  **** 
 2943              		.loc 1 413 29 is_stmt 0 view .LVU726
 2944 0eb6 488B2D00 		movq	numOfObstacles(%rip), %rbp
 2944      000000
 413:Src/main.cpp  **** 
 2945              		.loc 1 413 33 view .LVU727
 2946 0ebd 4C8D2CAD 		leaq	1(,%rbp,4), %r13
 2946      01000000 
 413:Src/main.cpp  **** 
 2947              		.loc 1 413 12 view .LVU728
 2948 0ec5 4C892D00 		movq	%r13, graphSize(%rip)
 2948      000000
 415:Src/main.cpp  **** 
 2949              		.loc 1 415 2 is_stmt 1 view .LVU729
 415:Src/main.cpp  **** 
 2950              		.loc 1 415 51 is_stmt 0 view .LVU730
 2951 0ecc BF180000 		movl	$24, %edi
 2951      00
 2952 0ed1 E8000000 		call	malloc@PLT
 2952      00
 2953              	.LVL295:
 2954 0ed6 4989C4   		movq	%rax, %r12
 2955              	.LVL296:
 418:Src/main.cpp  **** 	c.x = 100;
 2956              		.loc 1 418 2 is_stmt 1 view .LVU731
 419:Src/main.cpp  **** 	c.y = 10;
 2957              		.loc 1 419 2 view .LVU732
 419:Src/main.cpp  **** 	c.y = 10;
 2958              		.loc 1 419 6 is_stmt 0 view .LVU733
 2959 0ed9 C7442418 		movl	$0x42c80000, 24(%rsp)
 2959      0000C842 
 420:Src/main.cpp  **** 	p->c = c;
 2960              		.loc 1 420 2 is_stmt 1 view .LVU734
 420:Src/main.cpp  **** 	p->c = c;
 2961              		.loc 1 420 6 is_stmt 0 view .LVU735
 2962 0ee1 C744241C 		movl	$0x41200000, 28(%rsp)
 2962      00002041 
 421:Src/main.cpp  **** 
 2963              		.loc 1 421 2 is_stmt 1 view .LVU736
 421:Src/main.cpp  **** 
 2964              		.loc 1 421 7 is_stmt 0 view .LVU737
 2965 0ee9 488B4424 		movq	24(%rsp), %rax
 2965      18
 2966              	.LVL297:
 421:Src/main.cpp  **** 
GAS LISTING /tmp/cc1DIh6n.s 			page 122


 2967              		.loc 1 421 7 view .LVU738
 2968 0eee 49894424 		movq	%rax, 16(%r12)
 2968      10
 423:Src/main.cpp  **** 	graph[numOfObstacles * 4] = p;
 2969              		.loc 1 423 2 is_stmt 1 view .LVU739
 423:Src/main.cpp  **** 	graph[numOfObstacles * 4] = p;
 2970              		.loc 1 423 37 is_stmt 0 view .LVU740
 2971 0ef3 4A8D3CED 		leaq	0(,%r13,8), %rdi
 2971      00000000 
 2972 0efb E8000000 		call	malloc@PLT
 2972      00
 2973              	.LVL298:
 423:Src/main.cpp  **** 	graph[numOfObstacles * 4] = p;
 2974              		.loc 1 423 8 view .LVU741
 2975 0f00 48890500 		movq	%rax, graph(%rip)
 2975      000000
 424:Src/main.cpp  **** 	for(size_t i = 0; i < numOfObstacles * 4; i++)
 2976              		.loc 1 424 2 is_stmt 1 view .LVU742
 424:Src/main.cpp  **** 	for(size_t i = 0; i < numOfObstacles * 4; i++)
 2977              		.loc 1 424 26 is_stmt 0 view .LVU743
 2978 0f07 48C1E505 		salq	$5, %rbp
 424:Src/main.cpp  **** 	for(size_t i = 0; i < numOfObstacles * 4; i++)
 2979              		.loc 1 424 28 view .LVU744
 2980 0f0b 4C892428 		movq	%r12, (%rax,%rbp)
 425:Src/main.cpp  **** 	{
 2981              		.loc 1 425 2 is_stmt 1 view .LVU745
 2982              	.LVL299:
 2983              	.LBB500:
 425:Src/main.cpp  **** 	{
 2984              		.loc 1 425 13 is_stmt 0 view .LVU746
 2985 0f0f B8000000 		movl	$0, %eax
 2985      00
 2986              	.LVL300:
 2987              	.L165:
 425:Src/main.cpp  **** 	{
 2988              		.loc 1 425 39 discriminator 3 view .LVU747
 2989 0f14 488B3500 		movq	numOfObstacles(%rip), %rsi
 2989      000000
 2990 0f1b 488D14B5 		leaq	0(,%rsi,4), %rdx
 2990      00000000 
 425:Src/main.cpp  **** 	{
 2991              		.loc 1 425 22 discriminator 3 view .LVU748
 2992 0f23 4839C2   		cmpq	%rax, %rdx
 2993 0f26 7632     		jbe	.L164
 427:Src/main.cpp  **** 	}
 2994              		.loc 1 427 3 is_stmt 1 discriminator 2 view .LVU749
 427:Src/main.cpp  **** 	}
 2995              		.loc 1 427 26 is_stmt 0 discriminator 2 view .LVU750
 2996 0f28 4889C2   		movq	%rax, %rdx
 2997 0f2b 48C1EA02 		shrq	$2, %rdx
 427:Src/main.cpp  **** 	}
 2998              		.loc 1 427 29 discriminator 2 view .LVU751
 2999 0f2f 488D1452 		leaq	(%rdx,%rdx,2), %rdx
 3000 0f33 48C1E204 		salq	$4, %rdx
 3001 0f37 48031500 		addq	obstacles(%rip), %rdx
 3001      000000
 427:Src/main.cpp  **** 	}
GAS LISTING /tmp/cc1DIh6n.s 			page 123


 3002              		.loc 1 427 41 discriminator 2 view .LVU752
 3003 0f3e 4889C1   		movq	%rax, %rcx
 3004 0f41 83E103   		andl	$3, %ecx
 427:Src/main.cpp  **** 	}
 3005              		.loc 1 427 44 discriminator 2 view .LVU753
 3006 0f44 488B4CCA 		movq	8(%rdx,%rcx,8), %rcx
 3006      08
 427:Src/main.cpp  **** 	}
 3007              		.loc 1 427 12 discriminator 2 view .LVU754
 3008 0f49 488B1500 		movq	graph(%rip), %rdx
 3008      000000
 3009 0f50 48890CC2 		movq	%rcx, (%rdx,%rax,8)
 425:Src/main.cpp  **** 	{
 3010              		.loc 1 425 2 discriminator 2 view .LVU755
 3011 0f54 4883C001 		addq	$1, %rax
 3012              	.LVL301:
 425:Src/main.cpp  **** 	{
 3013              		.loc 1 425 2 discriminator 2 view .LVU756
 3014 0f58 EBBA     		jmp	.L165
 3015              	.L164:
 425:Src/main.cpp  **** 	{
 3016              		.loc 1 425 2 discriminator 2 view .LVU757
 3017              	.LBE500:
 430:Src/main.cpp  **** 	startway.y 	= 0;
 3018              		.loc 1 430 2 is_stmt 1 view .LVU758
 430:Src/main.cpp  **** 	startway.y 	= 0;
 3019              		.loc 1 430 14 is_stmt 0 view .LVU759
 3020 0f5a C7050000 		movl	$0x00000000, startway(%rip)
 3020      00000000 
 3020      0000
 431:Src/main.cpp  **** 	endway.x	= 150;
 3021              		.loc 1 431 2 is_stmt 1 view .LVU760
 431:Src/main.cpp  **** 	endway.x	= 150;
 3022              		.loc 1 431 14 is_stmt 0 view .LVU761
 3023 0f64 C7050000 		movl	$0x00000000, 4+startway(%rip)
 3023      00000000 
 3023      0000
 432:Src/main.cpp  **** 	endway.y	= 150;
 3024              		.loc 1 432 2 is_stmt 1 view .LVU762
 432:Src/main.cpp  **** 	endway.y	= 150;
 3025              		.loc 1 432 11 is_stmt 0 view .LVU763
 3026 0f6e F30F1005 		movss	.LC33(%rip), %xmm0
 3026      00000000 
 3027 0f76 F30F1105 		movss	%xmm0, endway(%rip)
 3027      00000000 
 433:Src/main.cpp  **** 
 3028              		.loc 1 433 2 is_stmt 1 view .LVU764
 433:Src/main.cpp  **** 
 3029              		.loc 1 433 11 is_stmt 0 view .LVU765
 3030 0f7e F30F1105 		movss	%xmm0, 4+endway(%rip)
 3030      00000000 
 441:Src/main.cpp  **** 
 3031              		.loc 1 441 2 is_stmt 1 view .LVU766
 441:Src/main.cpp  **** 
 3032              		.loc 1 441 11 is_stmt 0 view .LVU767
 3033 0f86 488D7424 		leaq	24(%rsp), %rsi
 3033      18
GAS LISTING /tmp/cc1DIh6n.s 			page 124


 3034 0f8b 488B1500 		movq	graphSize(%rip), %rdx
 3034      000000
 3035 0f92 488B0500 		movq	graph(%rip), %rax
 3035      000000
 3036              	.LVL302:
 441:Src/main.cpp  **** 
 3037              		.loc 1 441 11 view .LVU768
 3038 0f99 488B7CD0 		movq	-8(%rax,%rdx,8), %rdi
 3038      F8
 3039 0f9e E8000000 		call	_Z9initPointP10graphPointPK6coords
 3039      00
 3040              	.LVL303:
 478:Src/main.cpp  **** 	glutInit(&argc, argv);
 3041              		.loc 1 478 3 is_stmt 1 view .LVU769
 478:Src/main.cpp  **** 	glutInit(&argc, argv);
 3042              		.loc 1 478 11 is_stmt 0 view .LVU770
 3043 0fa3 488D3500 		leaq	.LC34(%rip), %rsi
 3043      000000
 3044 0faa 488D3D00 		leaq	_ZSt4cout(%rip), %rdi
 3044      000000
 3045 0fb1 E8000000 		call	_ZStlsISt11char_traitsIcEERSt13basic_ostreamIcT_ES5_PKc@PLT
 3045      00
 3046              	.LVL304:
 479:Src/main.cpp  **** 	cout << "dispmode\n";
 3047              		.loc 1 479 2 is_stmt 1 view .LVU771
 479:Src/main.cpp  **** 	cout << "dispmode\n";
 3048              		.loc 1 479 10 is_stmt 0 view .LVU772
 3049 0fb6 488D7C24 		leaq	12(%rsp), %rdi
 3049      0C
 3050 0fbb 4889DE   		movq	%rbx, %rsi
 3051 0fbe E8000000 		call	glutInit@PLT
 3051      00
 3052              	.LVL305:
 480:Src/main.cpp  **** 	glutInitDisplayMode(GLUT_DOUBLE | GLUT_RGBA);
 3053              		.loc 1 480 2 is_stmt 1 view .LVU773
 480:Src/main.cpp  **** 	glutInitDisplayMode(GLUT_DOUBLE | GLUT_RGBA);
 3054              		.loc 1 480 10 is_stmt 0 view .LVU774
 3055 0fc3 488D3500 		leaq	.LC35(%rip), %rsi
 3055      000000
 3056 0fca 488D3D00 		leaq	_ZSt4cout(%rip), %rdi
 3056      000000
 3057 0fd1 E8000000 		call	_ZStlsISt11char_traitsIcEERSt13basic_ostreamIcT_ES5_PKc@PLT
 3057      00
 3058              	.LVL306:
 481:Src/main.cpp  **** 	glutCreateWindow("floating");
 3059              		.loc 1 481 2 is_stmt 1 view .LVU775
 481:Src/main.cpp  **** 	glutCreateWindow("floating");
 3060              		.loc 1 481 21 is_stmt 0 view .LVU776
 3061 0fd6 BF020000 		movl	$2, %edi
 3061      00
 3062 0fdb E8000000 		call	glutInitDisplayMode@PLT
 3062      00
 3063              	.LVL307:
 482:Src/main.cpp  **** 	cout << "reshape\n";
 3064              		.loc 1 482 2 is_stmt 1 view .LVU777
 482:Src/main.cpp  **** 	cout << "reshape\n";
 3065              		.loc 1 482 18 is_stmt 0 view .LVU778
GAS LISTING /tmp/cc1DIh6n.s 			page 125


 3066 0fe0 488D3D00 		leaq	.LC36(%rip), %rdi
 3066      000000
 3067 0fe7 E8000000 		call	glutCreateWindow@PLT
 3067      00
 3068              	.LVL308:
 483:Src/main.cpp  **** 	glutReshapeFunc(reshape);
 3069              		.loc 1 483 2 is_stmt 1 view .LVU779
 483:Src/main.cpp  **** 	glutReshapeFunc(reshape);
 3070              		.loc 1 483 10 is_stmt 0 view .LVU780
 3071 0fec 488D3500 		leaq	.LC37(%rip), %rsi
 3071      000000
 3072 0ff3 488D3D00 		leaq	_ZSt4cout(%rip), %rdi
 3072      000000
 3073 0ffa E8000000 		call	_ZStlsISt11char_traitsIcEERSt13basic_ostreamIcT_ES5_PKc@PLT
 3073      00
 3074              	.LVL309:
 484:Src/main.cpp  **** 	cout << "dispfunc\n";
 3075              		.loc 1 484 2 is_stmt 1 view .LVU781
 484:Src/main.cpp  **** 	cout << "dispfunc\n";
 3076              		.loc 1 484 17 is_stmt 0 view .LVU782
 3077 0fff 488D3D00 		leaq	_Z7reshapeii(%rip), %rdi
 3077      000000
 3078 1006 E8000000 		call	glutReshapeFunc@PLT
 3078      00
 3079              	.LVL310:
 485:Src/main.cpp  **** 	glutDisplayFunc(renderScene);
 3080              		.loc 1 485 2 is_stmt 1 view .LVU783
 485:Src/main.cpp  **** 	glutDisplayFunc(renderScene);
 3081              		.loc 1 485 10 is_stmt 0 view .LVU784
 3082 100b 488D3500 		leaq	.LC38(%rip), %rsi
 3082      000000
 3083 1012 488D3D00 		leaq	_ZSt4cout(%rip), %rdi
 3083      000000
 3084 1019 E8000000 		call	_ZStlsISt11char_traitsIcEERSt13basic_ostreamIcT_ES5_PKc@PLT
 3084      00
 3085              	.LVL311:
 486:Src/main.cpp  ****     cout << "keyfunc\n";
 3086              		.loc 1 486 2 is_stmt 1 view .LVU785
 486:Src/main.cpp  ****     cout << "keyfunc\n";
 3087              		.loc 1 486 17 is_stmt 0 view .LVU786
 3088 101e 488D3D00 		leaq	_Z11renderScenev(%rip), %rdi
 3088      000000
 3089 1025 E8000000 		call	glutDisplayFunc@PLT
 3089      00
 3090              	.LVL312:
 487:Src/main.cpp  ****     glutKeyboardFunc(handleKeypress);
 3091              		.loc 1 487 5 is_stmt 1 view .LVU787
 487:Src/main.cpp  ****     glutKeyboardFunc(handleKeypress);
 3092              		.loc 1 487 13 is_stmt 0 view .LVU788
 3093 102a 488D3500 		leaq	.LC39(%rip), %rsi
 3093      000000
 3094 1031 488D3D00 		leaq	_ZSt4cout(%rip), %rdi
 3094      000000
 3095 1038 E8000000 		call	_ZStlsISt11char_traitsIcEERSt13basic_ostreamIcT_ES5_PKc@PLT
 3095      00
 3096              	.LVL313:
 488:Src/main.cpp  **** 	cout << "timer\n";
GAS LISTING /tmp/cc1DIh6n.s 			page 126


 3097              		.loc 1 488 5 is_stmt 1 view .LVU789
 488:Src/main.cpp  **** 	cout << "timer\n";
 3098              		.loc 1 488 21 is_stmt 0 view .LVU790
 3099 103d 488D3D00 		leaq	_Z14handleKeypresshii(%rip), %rdi
 3099      000000
 3100 1044 E8000000 		call	glutKeyboardFunc@PLT
 3100      00
 3101              	.LVL314:
 489:Src/main.cpp  **** 	glutTimerFunc(GL_TIMER_DELAY, timf, 0);
 3102              		.loc 1 489 2 is_stmt 1 view .LVU791
 489:Src/main.cpp  **** 	glutTimerFunc(GL_TIMER_DELAY, timf, 0);
 3103              		.loc 1 489 10 is_stmt 0 view .LVU792
 3104 1049 488D3500 		leaq	.LC40(%rip), %rsi
 3104      000000
 3105 1050 488D3D00 		leaq	_ZSt4cout(%rip), %rdi
 3105      000000
 3106 1057 E8000000 		call	_ZStlsISt11char_traitsIcEERSt13basic_ostreamIcT_ES5_PKc@PLT
 3106      00
 3107              	.LVL315:
 490:Src/main.cpp  **** 	cout << "mainloop\n";
 3108              		.loc 1 490 2 is_stmt 1 view .LVU793
 490:Src/main.cpp  **** 	cout << "mainloop\n";
 3109              		.loc 1 490 15 is_stmt 0 view .LVU794
 3110 105c BA000000 		movl	$0, %edx
 3110      00
 3111 1061 488D3500 		leaq	_Z4timfi(%rip), %rsi
 3111      000000
 3112 1068 BF900100 		movl	$400, %edi
 3112      00
 3113 106d E8000000 		call	glutTimerFunc@PLT
 3113      00
 3114              	.LVL316:
 491:Src/main.cpp  **** 	glutMainLoop();
 3115              		.loc 1 491 2 is_stmt 1 view .LVU795
 491:Src/main.cpp  **** 	glutMainLoop();
 3116              		.loc 1 491 10 is_stmt 0 view .LVU796
 3117 1072 488D3500 		leaq	.LC41(%rip), %rsi
 3117      000000
 3118 1079 488D3D00 		leaq	_ZSt4cout(%rip), %rdi
 3118      000000
 3119 1080 E8000000 		call	_ZStlsISt11char_traitsIcEERSt13basic_ostreamIcT_ES5_PKc@PLT
 3119      00
 3120              	.LVL317:
 492:Src/main.cpp  **** 
 3121              		.loc 1 492 2 is_stmt 1 view .LVU797
 492:Src/main.cpp  **** 
 3122              		.loc 1 492 14 is_stmt 0 view .LVU798
 3123 1085 E8000000 		call	glutMainLoop@PLT
 3123      00
 3124              	.LVL318:
 495:Src/main.cpp  **** }
 3125              		.loc 1 495 2 is_stmt 1 view .LVU799
 3126              		.loc 1 496 1 is_stmt 0 view .LVU800
 3127 108a 488B4424 		movq	88(%rsp), %rax
 3127      58
 3128 108f 64483304 		xorq	%fs:40, %rax
 3128      25280000 
GAS LISTING /tmp/cc1DIh6n.s 			page 127


 3128      00
 3129 1098 7510     		jne	.L168
 3130 109a B8010000 		movl	$1, %eax
 3130      00
 3131 109f 4883C468 		addq	$104, %rsp
 3132              		.cfi_remember_state
 3133              		.cfi_def_cfa_offset 40
 3134 10a3 5B       		popq	%rbx
 3135              		.cfi_def_cfa_offset 32
 3136              	.LVL319:
 3137              		.loc 1 496 1 view .LVU801
 3138 10a4 5D       		popq	%rbp
 3139              		.cfi_def_cfa_offset 24
 3140 10a5 415C     		popq	%r12
 3141              		.cfi_def_cfa_offset 16
 3142              	.LVL320:
 3143              		.loc 1 496 1 view .LVU802
 3144 10a7 415D     		popq	%r13
 3145              		.cfi_def_cfa_offset 8
 3146 10a9 C3       		ret
 3147              	.LVL321:
 3148              	.L168:
 3149              		.cfi_restore_state
 3150              		.loc 1 496 1 view .LVU803
 3151 10aa E8000000 		call	__stack_chk_fail@PLT
 3151      00
 3152              	.LVL322:
 3153              		.cfi_endproc
 3154              	.LFE2492:
 3157              	_GLOBAL__sub_I_QUAD_CHECK_SIDE:
 3158              	.LFB2841:
 3159              		.loc 1 496 1 is_stmt 1 view -0
 3160              		.cfi_startproc
 3161 10af 4883EC08 		subq	$8, %rsp
 3162              		.cfi_def_cfa_offset 16
 3163              		.loc 1 496 1 is_stmt 0 view .LVU805
 3164 10b3 BEFFFF00 		movl	$65535, %esi
 3164      00
 3165 10b8 BF010000 		movl	$1, %edi
 3165      00
 3166 10bd E8DBEFFF 		call	_Z41__static_initialization_and_destruction_0ii
 3166      FF
 3167              	.LVL323:
 3168 10c2 4883C408 		addq	$8, %rsp
 3169              		.cfi_def_cfa_offset 8
 3170 10c6 C3       		ret
 3171              		.cfi_endproc
 3172              	.LFE2841:
 3174              		.section	.init_array,"aw"
 3175              		.align 8
 3176 0000 00000000 		.quad	_GLOBAL__sub_I_QUAD_CHECK_SIDE
 3176      00000000 
 3177              		.globl	graph
 3178              		.bss
 3179              		.align 8
 3182              	graph:
 3183 0000 00000000 		.zero	8
GAS LISTING /tmp/cc1DIh6n.s 			page 128


 3183      00000000 
 3184              		.globl	endway
 3185              		.align 8
 3188              	endway:
 3189 0008 00000000 		.zero	8
 3189      00000000 
 3190              		.globl	startway
 3191              		.align 8
 3194              	startway:
 3195 0010 00000000 		.zero	8
 3195      00000000 
 3196              		.globl	obstacles
 3197              		.align 8
 3200              	obstacles:
 3201 0018 00000000 		.zero	8
 3201      00000000 
 3202              		.globl	graphSize
 3203              		.align 8
 3206              	graphSize:
 3207 0020 00000000 		.zero	8
 3207      00000000 
 3208              		.globl	numOfObstacles
 3209              		.align 8
 3212              	numOfObstacles:
 3213 0028 00000000 		.zero	8
 3213      00000000 
 3214              		.globl	terminated
 3217              	terminated:
 3218 0030 00       		.zero	1
 3219              		.globl	QUAD_CHECK_SIDE
 3220              		.data
 3221              		.align 8
 3224              	QUAD_CHECK_SIDE:
 3225 0000 05000000 		.quad	5
 3225      00000000 
 3226              		.local	_ZStL8__ioinit
 3227              		.comm	_ZStL8__ioinit,1,1
 3228              		.section	.rodata.cst8,"aM",@progbits,8
 3229              		.align 8
 3230              	.LC3:
 3231 0000 00000000 		.long	0
 3232 0004 00002440 		.long	1076101120
 3233              		.align 8
 3234              	.LC4:
 3235 0008 00000000 		.long	0
 3236 000c 00806640 		.long	1080459264
 3237              		.align 8
 3238              	.LC5:
 3239 0010 6E861BF0 		.long	4028335726
 3240 0014 F9210940 		.long	1074340345
 3241              		.section	.rodata.cst16,"aM",@progbits,16
 3242              		.align 16
 3243              	.LC6:
 3244 0000 FFFFFF7F 		.long	2147483647
 3245 0004 00000000 		.long	0
 3246 0008 00000000 		.long	0
 3247 000c 00000000 		.long	0
GAS LISTING /tmp/cc1DIh6n.s 			page 129


 3248              		.section	.rodata.cst4,"aM",@progbits,4
 3249              		.align 4
 3250              	.LC7:
 3251 0000 00003443 		.long	1127481344
 3252              		.align 4
 3253              	.LC8:
 3254 0004 00000000 		.long	0
 3255              		.section	.rodata.cst16
 3256              		.align 16
 3257              	.LC9:
 3258 0010 00000080 		.long	2147483648
 3259 0014 00000000 		.long	0
 3260 0018 00000000 		.long	0
 3261 001c 00000000 		.long	0
 3262              		.section	.rodata.cst4
 3263              		.align 4
 3264              	.LC10:
 3265 0008 0000B4C2 		.long	3266576384
 3266              		.align 4
 3267              	.LC11:
 3268 000c 0000B442 		.long	1119092736
 3269              		.align 4
 3270              	.LC12:
 3271 0010 00008C43 		.long	1133248512
 3272              		.align 4
 3273              	.LC13:
 3274 0014 0000E143 		.long	1138819072
 3275              		.align 4
 3276              	.LC16:
 3277 0018 000080BF 		.long	3212836864
 3278              		.align 4
 3279              	.LC17:
 3280 001c 0000803F 		.long	1065353216
 3281              		.section	.rodata.cst8
 3282              		.align 8
 3283              	.LC18:
 3284 0018 CDCCCCCC 		.long	3435973837
 3285 001c CCCC1C40 		.long	1075629260
 3286              		.section	.rodata.cst4
 3287              		.align 4
 3288              	.LC26:
 3289 0020 0000A041 		.long	1101004800
 3290              		.align 4
 3291              	.LC27:
 3292 0024 00004843 		.long	1128792064
 3293              		.align 4
 3294              	.LC28:
 3295 0028 00005C42 		.long	1113325568
 3296              		.align 4
 3297              	.LC29:
 3298 002c 00003442 		.long	1110704128
 3299              		.align 4
 3300              	.LC30:
 3301 0030 0000A040 		.long	1084227584
 3302              		.align 4
 3303              	.LC33:
 3304 0034 00001643 		.long	1125515264
GAS LISTING /tmp/cc1DIh6n.s 			page 130


 3305              		.text
 3306              	.Letext0:
 3307              		.file 8 "/usr/include/c++/9.1.0/cwchar"
 3308              		.file 9 "/usr/include/c++/9.1.0/new"
 3309              		.file 10 "/usr/include/c++/9.1.0/bits/exception_ptr.h"
 3310              		.file 11 "/usr/include/c++/9.1.0/type_traits"
 3311              		.file 12 "/usr/include/c++/9.1.0/x86_64-pc-linux-gnu/bits/c++config.h"
 3312              		.file 13 "/usr/include/c++/9.1.0/bits/stl_pair.h"
 3313              		.file 14 "/usr/include/c++/9.1.0/debug/debug.h"
 3314              		.file 15 "/usr/include/c++/9.1.0/cstdint"
 3315              		.file 16 "/usr/include/c++/9.1.0/clocale"
 3316              		.file 17 "/usr/include/c++/9.1.0/cstdlib"
 3317              		.file 18 "/usr/include/c++/9.1.0/cstdio"
 3318              		.file 19 "/usr/include/c++/9.1.0/system_error"
 3319              		.file 20 "/usr/include/c++/9.1.0/bits/ios_base.h"
 3320              		.file 21 "/usr/include/c++/9.1.0/cwctype"
 3321              		.file 22 "/usr/include/c++/9.1.0/bits/ostream.tcc"
 3322              		.file 23 "/usr/include/c++/9.1.0/iosfwd"
 3323              		.file 24 "/usr/include/c++/9.1.0/cmath"
 3324              		.file 25 "/usr/include/c++/9.1.0/bits/functexcept.h"
 3325              		.file 26 "/usr/include/c++/9.1.0/bits/ostream_insert.h"
 3326              		.file 27 "/usr/include/c++/9.1.0/bits/predefined_ops.h"
 3327              		.file 28 "/usr/include/c++/9.1.0/ext/new_allocator.h"
 3328              		.file 29 "/usr/include/c++/9.1.0/ext/numeric_traits.h"
 3329              		.file 30 "/usr/lib/gcc/x86_64-pc-linux-gnu/9.1.0/include/stddef.h"
 3330              		.file 31 "<built-in>"
 3331              		.file 32 "/usr/include/bits/types/wint_t.h"
 3332              		.file 33 "/usr/include/bits/types/__mbstate_t.h"
 3333              		.file 34 "/usr/include/bits/types/mbstate_t.h"
 3334              		.file 35 "/usr/include/bits/types/__FILE.h"
 3335              		.file 36 "/usr/include/bits/types/struct_FILE.h"
 3336              		.file 37 "/usr/include/bits/types/FILE.h"
 3337              		.file 38 "/usr/include/wchar.h"
 3338              		.file 39 "/usr/include/bits/types/struct_tm.h"
 3339              		.file 40 "/usr/include/bits/types.h"
 3340              		.file 41 "/usr/include/bits/stdint-intn.h"
 3341              		.file 42 "/usr/include/bits/stdint-uintn.h"
 3342              		.file 43 "/usr/include/stdint.h"
 3343              		.file 44 "/usr/include/locale.h"
 3344              		.file 45 "/usr/include/time.h"
 3345              		.file 46 "/usr/include/c++/9.1.0/x86_64-pc-linux-gnu/bits/atomic_word.h"
 3346              		.file 47 "/usr/include/stdlib.h"
 3347              		.file 48 "/usr/include/bits/stdlib-float.h"
 3348              		.file 49 "/usr/include/bits/stdlib-bsearch.h"
 3349              		.file 50 "/usr/include/bits/types/__fpos_t.h"
 3350              		.file 51 "/usr/include/stdio.h"
 3351              		.file 52 "/usr/include/bits/sys_errlist.h"
 3352              		.file 53 "/usr/include/bits/stdio.h"
 3353              		.file 54 "/usr/include/errno.h"
 3354              		.file 55 "/usr/include/bits/wctype-wchar.h"
 3355              		.file 56 "/usr/include/wctype.h"
 3356              		.file 57 "/usr/include/c++/9.1.0/stdlib.h"
 3357              		.file 58 "/usr/include/unistd.h"
 3358              		.file 59 "/usr/include/bits/getopt_core.h"
 3359              		.file 60 "/usr/include/signal.h"
 3360              		.file 61 "/usr/include/GL/glew.h"
 3361              		.file 62 "/usr/include/GL/freeglut_std.h"
GAS LISTING /tmp/cc1DIh6n.s 			page 131


 3362              		.file 63 "/usr/include/FTGL/ftgl.h"
 3363              		.file 64 "/usr/include/math.h"
 3364              		.file 65 "/usr/include/c++/9.1.0/math.h"
 3365              		.file 66 "/usr/include/bits/mathcalls.h"
 3366              		.file 67 "Includes/findwayBases.hpp"
 3367              		.file 68 "/usr/include/GL/glu.h"
 3368              		.file 69 "Includes/routines.hpp"
GAS LISTING /tmp/cc1DIh6n.s 			page 132


DEFINED SYMBOLS
                            *ABS*:0000000000000000 main.cpp
     /tmp/cc1DIh6n.s:6      .text:0000000000000000 _Z7reshapeii
     /tmp/cc1DIh6n.s:80     .text:000000000000005f _Z4timfi
     /tmp/cc1DIh6n.s:3217   .bss:0000000000000030 terminated
     /tmp/cc1DIh6n.s:124    .text:000000000000009d _Z41__static_initialization_and_destruction_0ii
                             .bss:0000000000000031 _ZStL8__ioinit
     /tmp/cc1DIh6n.s:169    .text:00000000000000da _Z14handleKeypresshii
     /tmp/cc1DIh6n.s:376    .text:000000000000018f _Z12calculateWayv
     /tmp/cc1DIh6n.s:387    .text:0000000000000190 _Z10createVectPK6coordsf
     /tmp/cc1DIh6n.s:3224   .data:0000000000000000 QUAD_CHECK_SIDE
     /tmp/cc1DIh6n.s:567    .text:00000000000002f2 _Z10createVectPK8obstaclehf
     /tmp/cc1DIh6n.s:631    .text:0000000000000339 _Z10getDataSetPK6coords
     /tmp/cc1DIh6n.s:3212   .bss:0000000000000028 numOfObstacles
     /tmp/cc1DIh6n.s:3200   .bss:0000000000000018 obstacles
     /tmp/cc1DIh6n.s:1079   .text:00000000000005c1 _Z10getDataSetPK8obstacleh
     /tmp/cc1DIh6n.s:1141   .text:00000000000005ff _Z16hasIntersectionsPK5arrayPK4vect
     /tmp/cc1DIh6n.s:1210   .text:000000000000063c _Z16hasIntersectionsPK4vect
     /tmp/cc1DIh6n.s:1276   .text:0000000000000680 _Z15getIntersectionPK5arrayPK4vect
     /tmp/cc1DIh6n.s:1388   .text:00000000000006fb _Z14getIntersectedPK5arrayPK4vect
     /tmp/cc1DIh6n.s:1540   .text:00000000000007d7 _Z9initPointP10graphPointPK6coords
     /tmp/cc1DIh6n.s:1906   .text:00000000000009cb _Z14initObstCornerPK8obstacleh
     /tmp/cc1DIh6n.s:2145   .text:0000000000000aab _Z8initObstPK8obstacle
     /tmp/cc1DIh6n.s:2199   .text:0000000000000ad5 _Z16getCoordsOfPointPK10graphPoint
     /tmp/cc1DIh6n.s:2224   .text:0000000000000adb _Z9drawEdgesPK10graphPoint
     /tmp/cc1DIh6n.s:2713   .text:0000000000000d02 _Z12drawObstaclePK8obstacle
     /tmp/cc1DIh6n.s:2755   .text:0000000000000d32 _Z11renderScenev
     /tmp/cc1DIh6n.s:3206   .bss:0000000000000020 graphSize
     /tmp/cc1DIh6n.s:3182   .bss:0000000000000000 graph
     /tmp/cc1DIh6n.s:2849   .text:0000000000000d93 main
     /tmp/cc1DIh6n.s:3194   .bss:0000000000000010 startway
     /tmp/cc1DIh6n.s:3188   .bss:0000000000000008 endway
     /tmp/cc1DIh6n.s:3157   .text:00000000000010af _GLOBAL__sub_I_QUAD_CHECK_SIDE
     /tmp/cc1DIh6n.s:162    .rodata.str1.1:0000000000000000 .LC1
     /tmp/cc1DIh6n.s:164    .rodata.str1.1:0000000000000009 .LC2
     /tmp/cc1DIh6n.s:3230   .rodata.cst8:0000000000000000 .LC3
     /tmp/cc1DIh6n.s:3234   .rodata.cst8:0000000000000008 .LC4
     /tmp/cc1DIh6n.s:3238   .rodata.cst8:0000000000000010 .LC5
     /tmp/cc1DIh6n.s:3243   .rodata.cst16:0000000000000000 .LC6
     /tmp/cc1DIh6n.s:3250   .rodata.cst4:0000000000000000 .LC7
     /tmp/cc1DIh6n.s:3257   .rodata.cst16:0000000000000010 .LC9
     /tmp/cc1DIh6n.s:3264   .rodata.cst4:0000000000000008 .LC10
     /tmp/cc1DIh6n.s:3267   .rodata.cst4:000000000000000c .LC11
     /tmp/cc1DIh6n.s:3270   .rodata.cst4:0000000000000010 .LC12
     /tmp/cc1DIh6n.s:3273   .rodata.cst4:0000000000000014 .LC13
     /tmp/cc1DIh6n.s:624    .rodata.str1.1:000000000000000e .LC14
     /tmp/cc1DIh6n.s:626    .rodata.str1.1:0000000000000021 .LC15
     /tmp/cc1DIh6n.s:3279   .rodata.cst4:000000000000001c .LC17
     /tmp/cc1DIh6n.s:3253   .rodata.cst4:0000000000000004 .LC8
     /tmp/cc1DIh6n.s:3276   .rodata.cst4:0000000000000018 .LC16
     /tmp/cc1DIh6n.s:1535   .rodata.str1.1:0000000000000028 .LC19
     /tmp/cc1DIh6n.s:3283   .rodata.cst8:0000000000000018 .LC18
     /tmp/cc1DIh6n.s:1899   .rodata.str1.1:000000000000003d .LC20
     /tmp/cc1DIh6n.s:1901   .rodata.str1.1:000000000000004e .LC21
     /tmp/cc1DIh6n.s:2213   .rodata.str1.1:000000000000005c .LC22
     /tmp/cc1DIh6n.s:2215   .rodata.str1.1:0000000000000064 .LC23
     /tmp/cc1DIh6n.s:2217   .rodata.str1.1:0000000000000067 .LC24
GAS LISTING /tmp/cc1DIh6n.s 			page 133


     /tmp/cc1DIh6n.s:2219   .rodata.str1.1:0000000000000069 .LC25
     /tmp/cc1DIh6n.s:3288   .rodata.cst4:0000000000000020 .LC26
     /tmp/cc1DIh6n.s:3291   .rodata.cst4:0000000000000024 .LC27
     /tmp/cc1DIh6n.s:3294   .rodata.cst4:0000000000000028 .LC28
     /tmp/cc1DIh6n.s:3297   .rodata.cst4:000000000000002c .LC29
     /tmp/cc1DIh6n.s:3300   .rodata.cst4:0000000000000030 .LC30
     /tmp/cc1DIh6n.s:3303   .rodata.cst4:0000000000000034 .LC33
     /tmp/cc1DIh6n.s:2830   .rodata.str1.1:000000000000006e .LC34
     /tmp/cc1DIh6n.s:2832   .rodata.str1.1:0000000000000079 .LC35
     /tmp/cc1DIh6n.s:2834   .rodata.str1.1:0000000000000083 .LC36
     /tmp/cc1DIh6n.s:2836   .rodata.str1.1:000000000000008c .LC37
     /tmp/cc1DIh6n.s:2838   .rodata.str1.1:0000000000000095 .LC38
     /tmp/cc1DIh6n.s:2840   .rodata.str1.1:000000000000009f .LC39
     /tmp/cc1DIh6n.s:2842   .rodata.str1.1:00000000000000a8 .LC40
     /tmp/cc1DIh6n.s:2844   .rodata.str1.1:00000000000000af .LC41

UNDEFINED SYMBOLS
_GLOBAL_OFFSET_TABLE_
glViewport
glMatrixMode
glLoadIdentity
gluOrtho2D
glutPostRedisplay
glutTimerFunc
exit
_ZNSt8ios_base4InitC1Ev
__dso_handle
_ZNSt8ios_base4InitD1Ev
__cxa_atexit
_ZSt4cout
_ZSt16__ostream_insertIcSt11char_traitsIcEERSt13basic_ostreamIT_T0_ES6_PKS3_l
_ZNSolsEi
_ZNSo3putEc
_ZNSo5flushEv
_ZSt16__throw_bad_castv
_ZNKSt5ctypeIcE13_M_widen_initEv
malloc
tan
_Z17getCoordsOfCornerPK8obstacleh
free
_ZNSo9_M_insertImEERSoT_
_Z8getPointPK8obstacleh
_Z15hasIntersectionPK8obstaclePK4vect
_Z15getIntersectionPK8obstaclePK4vect
_Z6getLenPK6coordsS1_
__stack_chk_fail
_Z9addTargetP10graphPointS0_
_ZNSo9_M_insertIPKvEERSoT_
_Z8drawLineffff
_ZNSo9_M_insertIdEERSoT_
_Z10glSetColorj
_Z8drawQuadfff
glClear
glutSwapBuffers
_Z14createObstaclefff
_ZStlsISt11char_traitsIcEERSt13basic_ostreamIcT_ES5_PKc
glutInit
GAS LISTING /tmp/cc1DIh6n.s 			page 134


glutInitDisplayMode
glutCreateWindow
glutReshapeFunc
glutDisplayFunc
glutKeyboardFunc
glutMainLoop
