GAS LISTING /tmp/ccjNsti9.s 			page 1


   1              		.file	"main.cpp"
   2              		.text
   3              		.globl	_Z7reshapeii
   5              	_Z7reshapeii:
   6              	.LFB2473:
   7              		.cfi_startproc
   8 0000 55       		pushq	%rbp
   9              		.cfi_def_cfa_offset 16
  10              		.cfi_offset 6, -16
  11 0001 53       		pushq	%rbx
  12              		.cfi_def_cfa_offset 24
  13              		.cfi_offset 3, -24
  14 0002 4883EC08 		subq	$8, %rsp
  15              		.cfi_def_cfa_offset 32
  16 0006 89FB     		movl	%edi, %ebx
  17 0008 89F5     		movl	%esi, %ebp
  18 000a 89F1     		movl	%esi, %ecx
  19 000c 89FA     		movl	%edi, %edx
  20 000e BE000000 		movl	$0, %esi
  20      00
  21 0013 BF000000 		movl	$0, %edi
  21      00
  22 0018 E8000000 		call	glViewport@PLT
  22      00
  23 001d BF011700 		movl	$5889, %edi
  23      00
  24 0022 E8000000 		call	glMatrixMode@PLT
  24      00
  25 0027 E8000000 		call	glLoadIdentity@PLT
  25      00
  26 002c 660FEFDB 		pxor	%xmm3, %xmm3
  27 0030 F20F2ADD 		cvtsi2sdl	%ebp, %xmm3
  28 0034 660FEFD2 		pxor	%xmm2, %xmm2
  29 0038 660FEFC9 		pxor	%xmm1, %xmm1
  30 003c F20F2ACB 		cvtsi2sdl	%ebx, %xmm1
  31 0040 660F28C2 		movapd	%xmm2, %xmm0
  32 0044 E8000000 		call	gluOrtho2D@PLT
  32      00
  33 0049 BF001700 		movl	$5888, %edi
  33      00
  34 004e E8000000 		call	glMatrixMode@PLT
  34      00
  35 0053 E8000000 		call	glLoadIdentity@PLT
  35      00
  36 0058 4883C408 		addq	$8, %rsp
  37              		.cfi_def_cfa_offset 24
  38 005c 5B       		popq	%rbx
  39              		.cfi_def_cfa_offset 16
  40 005d 5D       		popq	%rbp
  41              		.cfi_def_cfa_offset 8
  42 005e C3       		ret
  43              		.cfi_endproc
  44              	.LFE2473:
  46              		.globl	_Z4timfi
  48              	_Z4timfi:
  49              	.LFB2474:
  50              		.cfi_startproc
GAS LISTING /tmp/ccjNsti9.s 			page 2


  51 005f 4883EC08 		subq	$8, %rsp
  52              		.cfi_def_cfa_offset 16
  53 0063 803D0000 		cmpb	$0, terminated(%rip)
  53      000000
  54 006a 7520     		jne	.L4
  55 006c E8000000 		call	glutPostRedisplay@PLT
  55      00
  56 0071 BA000000 		movl	$0, %edx
  56      00
  57 0076 488D3500 		leaq	_Z4timfi(%rip), %rsi
  57      000000
  58 007d BF280000 		movl	$40, %edi
  58      00
  59 0082 E8000000 		call	glutTimerFunc@PLT
  59      00
  60 0087 4883C408 		addq	$8, %rsp
  61              		.cfi_remember_state
  62              		.cfi_def_cfa_offset 8
  63 008b C3       		ret
  64              	.L4:
  65              		.cfi_restore_state
  66 008c C6050000 		movb	$0, terminated(%rip)
  66      000000
  67 0093 BF000000 		movl	$0, %edi
  67      00
  68 0098 E8000000 		call	exit@PLT
  68      00
  69              		.cfi_endproc
  70              	.LFE2474:
  73              	_Z41__static_initialization_and_destruction_0ii:
  74              	.LFB2820:
  75              		.cfi_startproc
  76 009d 83FF01   		cmpl	$1, %edi
  77 00a0 7401     		je	.L13
  78              	.L10:
  79 00a2 C3       		ret
  80              	.L13:
  81 00a3 81FEFFFF 		cmpl	$65535, %esi
  81      0000
  82 00a9 75F7     		jne	.L10
  83 00ab 4883EC08 		subq	$8, %rsp
  84              		.cfi_def_cfa_offset 16
  85 00af 488D3D00 		leaq	_ZStL8__ioinit(%rip), %rdi
  85      000000
  86 00b6 E8000000 		call	_ZNSt8ios_base4InitC1Ev@PLT
  86      00
  87 00bb 488D1500 		leaq	__dso_handle(%rip), %rdx
  87      000000
  88 00c2 488D3500 		leaq	_ZStL8__ioinit(%rip), %rsi
  88      000000
  89 00c9 488B3D00 		movq	_ZNSt8ios_base4InitD1Ev@GOTPCREL(%rip), %rdi
  89      000000
  90 00d0 E8000000 		call	__cxa_atexit@PLT
  90      00
  91 00d5 4883C408 		addq	$8, %rsp
  92              		.cfi_def_cfa_offset 8
  93 00d9 C3       		ret
GAS LISTING /tmp/ccjNsti9.s 			page 3


  94              		.cfi_endproc
  95              	.LFE2820:
  97              		.section	.rodata.str1.1,"aMS",@progbits,1
  98              	.LC1:
  99 0000 50524553 		.string	"PRESSED\n"
  99      5345440A 
  99      00
 100              	.LC2:
 101 0009 4553430A 		.string	"ESC\n"
 101      00
 102              		.text
 103              		.globl	_Z14handleKeypresshii
 105              	_Z14handleKeypresshii:
 106              	.LFB2472:
 107              		.cfi_startproc
 108 00da 4154     		pushq	%r12
 109              		.cfi_def_cfa_offset 16
 110              		.cfi_offset 12, -16
 111 00dc 55       		pushq	%rbp
 112              		.cfi_def_cfa_offset 24
 113              		.cfi_offset 6, -24
 114 00dd 53       		pushq	%rbx
 115              		.cfi_def_cfa_offset 32
 116              		.cfi_offset 3, -32
 117 00de 89FD     		movl	%edi, %ebp
 118 00e0 BA080000 		movl	$8, %edx
 118      00
 119 00e5 488D3500 		leaq	.LC1(%rip), %rsi
 119      000000
 120 00ec 488D3D00 		leaq	_ZSt4cout(%rip), %rdi
 120      000000
 121 00f3 E8000000 		call	_ZSt16__ostream_insertIcSt11char_traitsIcEERSt13basic_ostreamIT_T0_ES6_PKS3_l@PLT
 121      00
 122 00f8 400FB6F5 		movzbl	%bpl, %esi
 123 00fc 488D3D00 		leaq	_ZSt4cout(%rip), %rdi
 123      000000
 124 0103 E8000000 		call	_ZNSolsEi@PLT
 124      00
 125 0108 4889C3   		movq	%rax, %rbx
 126 010b 488B00   		movq	(%rax), %rax
 127 010e 4889D9   		movq	%rbx, %rcx
 128 0111 480348E8 		addq	-24(%rax), %rcx
 129 0115 4C8BA1F0 		movq	240(%rcx), %r12
 129      000000
 130 011c 4D85E4   		testq	%r12, %r12
 131 011f 742D     		je	.L20
 132 0121 41807C24 		cmpb	$0, 56(%r12)
 132      3800
 133 0127 742A     		je	.L16
 134 0129 410FB674 		movzbl	67(%r12), %esi
 134      2443
 135              	.L17:
 136 012f 400FBEF6 		movsbl	%sil, %esi
 137 0133 4889DF   		movq	%rbx, %rdi
 138 0136 E8000000 		call	_ZNSo3putEc@PLT
 138      00
 139 013b 4889C7   		movq	%rax, %rdi
GAS LISTING /tmp/ccjNsti9.s 			page 4


 140 013e E8000000 		call	_ZNSo5flushEv@PLT
 140      00
 141 0143 4080FD1B 		cmpb	$27, %bpl
 142 0147 7425     		je	.L21
 143              	.L14:
 144 0149 5B       		popq	%rbx
 145              		.cfi_remember_state
 146              		.cfi_def_cfa_offset 24
 147 014a 5D       		popq	%rbp
 148              		.cfi_def_cfa_offset 16
 149 014b 415C     		popq	%r12
 150              		.cfi_def_cfa_offset 8
 151 014d C3       		ret
 152              	.L20:
 153              		.cfi_restore_state
 154 014e E8000000 		call	_ZSt16__throw_bad_castv@PLT
 154      00
 155              	.L16:
 156 0153 4C89E7   		movq	%r12, %rdi
 157 0156 E8000000 		call	_ZNKSt5ctypeIcE13_M_widen_initEv@PLT
 157      00
 158 015b 498B0424 		movq	(%r12), %rax
 159 015f BE0A0000 		movl	$10, %esi
 159      00
 160 0164 4C89E7   		movq	%r12, %rdi
 161 0167 FF5030   		call	*48(%rax)
 162 016a 89C6     		movl	%eax, %esi
 163 016c EBC1     		jmp	.L17
 164              	.L21:
 165 016e BA040000 		movl	$4, %edx
 165      00
 166 0173 488D3500 		leaq	.LC2(%rip), %rsi
 166      000000
 167 017a 488D3D00 		leaq	_ZSt4cout(%rip), %rdi
 167      000000
 168 0181 E8000000 		call	_ZSt16__ostream_insertIcSt11char_traitsIcEERSt13basic_ostreamIT_T0_ES6_PKS3_l@PLT
 168      00
 169 0186 C6050000 		movb	$1, terminated(%rip)
 169      000001
 170 018d EBBA     		jmp	.L14
 171              		.cfi_endproc
 172              	.LFE2472:
 174              		.globl	_Z12drawObstaclePK8obstacle
 176              	_Z12drawObstaclePK8obstacle:
 177              	.LFB2470:
 178              		.cfi_startproc
 179 018f 53       		pushq	%rbx
 180              		.cfi_def_cfa_offset 16
 181              		.cfi_offset 3, -16
 182 0190 4889FB   		movq	%rdi, %rbx
 183 0193 BF0000FF 		movl	$16711680, %edi
 183      00
 184 0198 E8000000 		call	_Z10glSetColorj@PLT
 184      00
 185 019d 488B03   		movq	(%rbx), %rax
 186 01a0 F30F1053 		movss	8(%rbx), %xmm2
 186      08
GAS LISTING /tmp/ccjNsti9.s 			page 5


 187 01a5 F30F1048 		movss	4(%rax), %xmm1
 187      04
 188 01aa F30F1000 		movss	(%rax), %xmm0
 189 01ae E8000000 		call	_Z8drawQuadfff@PLT
 189      00
 190 01b3 5B       		popq	%rbx
 191              		.cfi_def_cfa_offset 8
 192 01b4 C3       		ret
 193              		.cfi_endproc
 194              	.LFE2470:
 196              		.globl	_Z11renderScenev
 198              	_Z11renderScenev:
 199              	.LFB2471:
 200              		.cfi_startproc
 201 01b5 53       		pushq	%rbx
 202              		.cfi_def_cfa_offset 16
 203              		.cfi_offset 3, -16
 204 01b6 BF004000 		movl	$16384, %edi
 204      00
 205 01bb E8000000 		call	glClear@PLT
 205      00
 206 01c0 BB000000 		movl	$0, %ebx
 206      00
 207              	.L26:
 208 01c5 48391D00 		cmpq	%rbx, numOfObstacles(%rip)
 208      000000
 209 01cc 7619     		jbe	.L25
 210 01ce 4889DF   		movq	%rbx, %rdi
 211 01d1 48C1E704 		salq	$4, %rdi
 212 01d5 48033D00 		addq	obstacles(%rip), %rdi
 212      000000
 213 01dc E8000000 		call	_Z12drawObstaclePK8obstacle
 213      00
 214 01e1 4883C301 		addq	$1, %rbx
 215 01e5 EBDE     		jmp	.L26
 216              	.L25:
 217 01e7 BF00FF00 		movl	$65280, %edi
 217      00
 218 01ec E8000000 		call	_Z10glSetColorj@PLT
 218      00
 219 01f1 F30F101D 		movss	4+endway(%rip), %xmm3
 219      00000000 
 220 01f9 F30F1015 		movss	endway(%rip), %xmm2
 220      00000000 
 221 0201 F30F100D 		movss	4+startway(%rip), %xmm1
 221      00000000 
 222 0209 F30F1005 		movss	startway(%rip), %xmm0
 222      00000000 
 223 0211 E8000000 		call	_Z8drawLineffff@PLT
 223      00
 224 0216 E8000000 		call	glutSwapBuffers@PLT
 224      00
 225 021b 5B       		popq	%rbx
 226              		.cfi_def_cfa_offset 8
 227 021c C3       		ret
 228              		.cfi_endproc
 229              	.LFE2471:
GAS LISTING /tmp/ccjNsti9.s 			page 6


 231              		.section	.rodata.str1.1
 232              	.LC9:
 233 000e 676C7574 		.string	"glut init\n"
 233      20696E69 
 233      740A00
 234              	.LC10:
 235 0019 64697370 		.string	"dispmode\n"
 235      6D6F6465 
 235      0A00
 236              	.LC11:
 237 0023 666C6F61 		.string	"floating"
 237      74696E67 
 237      00
 238              	.LC12:
 239 002c 72657368 		.string	"reshape\n"
 239      6170650A 
 239      00
 240              	.LC13:
 241 0035 64697370 		.string	"dispfunc\n"
 241      66756E63 
 241      0A00
 242              	.LC14:
 243 003f 6B657966 		.string	"keyfunc\n"
 243      756E630A 
 243      00
 244              	.LC15:
 245 0048 74696D65 		.string	"timer\n"
 245      720A00
 246              	.LC16:
 247 004f 6D61696E 		.string	"mainloop\n"
 247      6C6F6F70 
 247      0A00
 248              		.text
 249              		.globl	main
 251              	main:
 252              	.LFB2475:
 253              		.cfi_startproc
 254 021d 4154     		pushq	%r12
 255              		.cfi_def_cfa_offset 16
 256              		.cfi_offset 12, -16
 257 021f 55       		pushq	%rbp
 258              		.cfi_def_cfa_offset 24
 259              		.cfi_offset 6, -24
 260 0220 53       		pushq	%rbx
 261              		.cfi_def_cfa_offset 32
 262              		.cfi_offset 3, -32
 263 0221 4883EC10 		subq	$16, %rsp
 264              		.cfi_def_cfa_offset 48
 265 0225 897C240C 		movl	%edi, 12(%rsp)
 266 0229 4889F5   		movq	%rsi, %rbp
 267 022c 488B3D00 		movq	numOfObstacles(%rip), %rdi
 267      000000
 268 0233 48C1E704 		salq	$4, %rdi
 269 0237 E8000000 		call	malloc@PLT
 269      00
 270 023c 4889C3   		movq	%rax, %rbx
 271 023f 48890500 		movq	%rax, obstacles(%rip)
GAS LISTING /tmp/ccjNsti9.s 			page 7


 271      000000
 272 0246 F30F1015 		movss	.LC3(%rip), %xmm2
 272      00000000 
 273 024e 0F28CA   		movaps	%xmm2, %xmm1
 274 0251 0F28C2   		movaps	%xmm2, %xmm0
 275 0254 E8000000 		call	_Z14createObstaclefff@PLT
 275      00
 276 0259 488903   		movq	%rax, (%rbx)
 277 025c F30F1143 		movss	%xmm0, 8(%rbx)
 277      08
 278 0261 488B1D00 		movq	obstacles(%rip), %rbx
 278      000000
 279 0268 F30F1015 		movss	.LC3(%rip), %xmm2
 279      00000000 
 280 0270 F30F100D 		movss	.LC4(%rip), %xmm1
 280      00000000 
 281 0278 0F28C1   		movaps	%xmm1, %xmm0
 282 027b E8000000 		call	_Z14createObstaclefff@PLT
 282      00
 283 0280 48894310 		movq	%rax, 16(%rbx)
 284 0284 F30F1143 		movss	%xmm0, 24(%rbx)
 284      18
 285 0289 488B1D00 		movq	obstacles(%rip), %rbx
 285      000000
 286 0290 F30F1015 		movss	.LC3(%rip), %xmm2
 286      00000000 
 287 0298 F30F100D 		movss	.LC5(%rip), %xmm1
 287      00000000 
 288 02a0 0F28C1   		movaps	%xmm1, %xmm0
 289 02a3 E8000000 		call	_Z14createObstaclefff@PLT
 289      00
 290 02a8 48894320 		movq	%rax, 32(%rbx)
 291 02ac F30F1143 		movss	%xmm0, 40(%rbx)
 291      28
 292 02b1 488B1D00 		movq	obstacles(%rip), %rbx
 292      000000
 293 02b8 F30F1015 		movss	.LC3(%rip), %xmm2
 293      00000000 
 294 02c0 F30F100D 		movss	.LC6(%rip), %xmm1
 294      00000000 
 295 02c8 0F28C1   		movaps	%xmm1, %xmm0
 296 02cb E8000000 		call	_Z14createObstaclefff@PLT
 296      00
 297 02d0 48894330 		movq	%rax, 48(%rbx)
 298 02d4 F30F1143 		movss	%xmm0, 56(%rbx)
 298      38
 299 02d9 C7050000 		movl	$0x00000000, startway(%rip)
 299      00000000 
 299      0000
 300 02e3 C7050000 		movl	$0x00000000, 4+startway(%rip)
 300      00000000 
 300      0000
 301 02ed F30F1005 		movss	.LC8(%rip), %xmm0
 301      00000000 
 302 02f5 F30F1105 		movss	%xmm0, endway(%rip)
 302      00000000 
 303 02fd F30F1105 		movss	%xmm0, 4+endway(%rip)
GAS LISTING /tmp/ccjNsti9.s 			page 8


 303      00000000 
 304 0305 488D3500 		leaq	.LC9(%rip), %rsi
 304      000000
 305 030c 488D3D00 		leaq	_ZSt4cout(%rip), %rdi
 305      000000
 306 0313 E8000000 		call	_ZStlsISt11char_traitsIcEERSt13basic_ostreamIcT_ES5_PKc@PLT
 306      00
 307 0318 488D7C24 		leaq	12(%rsp), %rdi
 307      0C
 308 031d 4889EE   		movq	%rbp, %rsi
 309 0320 E8000000 		call	glutInit@PLT
 309      00
 310 0325 488D3500 		leaq	.LC10(%rip), %rsi
 310      000000
 311 032c 488D3D00 		leaq	_ZSt4cout(%rip), %rdi
 311      000000
 312 0333 E8000000 		call	_ZStlsISt11char_traitsIcEERSt13basic_ostreamIcT_ES5_PKc@PLT
 312      00
 313 0338 BF020000 		movl	$2, %edi
 313      00
 314 033d E8000000 		call	glutInitDisplayMode@PLT
 314      00
 315 0342 488D3D00 		leaq	.LC11(%rip), %rdi
 315      000000
 316 0349 E8000000 		call	glutCreateWindow@PLT
 316      00
 317 034e 488D3500 		leaq	.LC12(%rip), %rsi
 317      000000
 318 0355 488D3D00 		leaq	_ZSt4cout(%rip), %rdi
 318      000000
 319 035c E8000000 		call	_ZStlsISt11char_traitsIcEERSt13basic_ostreamIcT_ES5_PKc@PLT
 319      00
 320 0361 488D3D00 		leaq	_Z7reshapeii(%rip), %rdi
 320      000000
 321 0368 E8000000 		call	glutReshapeFunc@PLT
 321      00
 322 036d 488D3500 		leaq	.LC13(%rip), %rsi
 322      000000
 323 0374 488D3D00 		leaq	_ZSt4cout(%rip), %rdi
 323      000000
 324 037b E8000000 		call	_ZStlsISt11char_traitsIcEERSt13basic_ostreamIcT_ES5_PKc@PLT
 324      00
 325 0380 488D3D00 		leaq	_Z11renderScenev(%rip), %rdi
 325      000000
 326 0387 E8000000 		call	glutDisplayFunc@PLT
 326      00
 327 038c 488D3500 		leaq	.LC14(%rip), %rsi
 327      000000
 328 0393 488D3D00 		leaq	_ZSt4cout(%rip), %rdi
 328      000000
 329 039a E8000000 		call	_ZStlsISt11char_traitsIcEERSt13basic_ostreamIcT_ES5_PKc@PLT
 329      00
 330 039f 488D3D00 		leaq	_Z14handleKeypresshii(%rip), %rdi
 330      000000
 331 03a6 E8000000 		call	glutKeyboardFunc@PLT
 331      00
 332 03ab 488D3500 		leaq	.LC15(%rip), %rsi
GAS LISTING /tmp/ccjNsti9.s 			page 9


 332      000000
 333 03b2 488D3D00 		leaq	_ZSt4cout(%rip), %rdi
 333      000000
 334 03b9 E8000000 		call	_ZStlsISt11char_traitsIcEERSt13basic_ostreamIcT_ES5_PKc@PLT
 334      00
 335 03be BA000000 		movl	$0, %edx
 335      00
 336 03c3 488D3500 		leaq	_Z4timfi(%rip), %rsi
 336      000000
 337 03ca BF280000 		movl	$40, %edi
 337      00
 338 03cf E8000000 		call	glutTimerFunc@PLT
 338      00
 339 03d4 488D3500 		leaq	.LC16(%rip), %rsi
 339      000000
 340 03db 488D3D00 		leaq	_ZSt4cout(%rip), %rdi
 340      000000
 341 03e2 E8000000 		call	_ZStlsISt11char_traitsIcEERSt13basic_ostreamIcT_ES5_PKc@PLT
 341      00
 342 03e7 E8000000 		call	glutMainLoop@PLT
 342      00
 343 03ec B8010000 		movl	$1, %eax
 343      00
 344 03f1 4883C410 		addq	$16, %rsp
 345              		.cfi_def_cfa_offset 32
 346 03f5 5B       		popq	%rbx
 347              		.cfi_def_cfa_offset 24
 348 03f6 5D       		popq	%rbp
 349              		.cfi_def_cfa_offset 16
 350 03f7 415C     		popq	%r12
 351              		.cfi_def_cfa_offset 8
 352 03f9 C3       		ret
 353              		.cfi_endproc
 354              	.LFE2475:
 357              	_GLOBAL__sub_I_terminated:
 358              	.LFB2821:
 359              		.cfi_startproc
 360 03fa 4883EC08 		subq	$8, %rsp
 361              		.cfi_def_cfa_offset 16
 362 03fe BEFFFF00 		movl	$65535, %esi
 362      00
 363 0403 BF010000 		movl	$1, %edi
 363      00
 364 0408 E890FCFF 		call	_Z41__static_initialization_and_destruction_0ii
 364      FF
 365 040d 4883C408 		addq	$8, %rsp
 366              		.cfi_def_cfa_offset 8
 367 0411 C3       		ret
 368              		.cfi_endproc
 369              	.LFE2821:
 371              		.section	.init_array,"aw"
 372              		.align 8
 373 0000 00000000 		.quad	_GLOBAL__sub_I_terminated
 373      00000000 
 374              		.globl	endway
 375              		.bss
 376              		.align 8
GAS LISTING /tmp/ccjNsti9.s 			page 10


 379              	endway:
 380 0000 00000000 		.zero	8
 380      00000000 
 381              		.globl	startway
 382              		.align 8
 385              	startway:
 386 0008 00000000 		.zero	8
 386      00000000 
 387              		.globl	obstacles
 388              		.align 8
 391              	obstacles:
 392 0010 00000000 		.zero	8
 392      00000000 
 393              		.globl	numOfObstacles
 394              		.data
 395              		.align 8
 398              	numOfObstacles:
 399 0000 04000000 		.quad	4
 399      00000000 
 400              		.globl	terminated
 401              		.bss
 404              	terminated:
 405 0018 00       		.zero	1
 406              		.local	_ZStL8__ioinit
 407              		.comm	_ZStL8__ioinit,1,1
 408              		.section	.rodata.cst4,"aM",@progbits,4
 409              		.align 4
 410              	.LC3:
 411 0000 0000A041 		.long	1101004800
 412              		.align 4
 413              	.LC4:
 414 0004 00004842 		.long	1112014848
 415              		.align 4
 416              	.LC5:
 417 0008 0000A042 		.long	1117782016
 418              		.align 4
 419              	.LC6:
 420 000c 0000DC42 		.long	1121714176
 421              		.align 4
 422              	.LC8:
 423 0010 00001643 		.long	1125515264
 424              		.hidden	__dso_handle
 425              		.ident	"GCC: (GNU) 9.1.0"
 426              		.section	.note.GNU-stack,"",@progbits
GAS LISTING /tmp/ccjNsti9.s 			page 11


DEFINED SYMBOLS
                            *ABS*:0000000000000000 main.cpp
     /tmp/ccjNsti9.s:5      .text:0000000000000000 _Z7reshapeii
     /tmp/ccjNsti9.s:48     .text:000000000000005f _Z4timfi
     /tmp/ccjNsti9.s:404    .bss:0000000000000018 terminated
     /tmp/ccjNsti9.s:73     .text:000000000000009d _Z41__static_initialization_and_destruction_0ii
                             .bss:0000000000000019 _ZStL8__ioinit
     /tmp/ccjNsti9.s:105    .text:00000000000000da _Z14handleKeypresshii
     /tmp/ccjNsti9.s:176    .text:000000000000018f _Z12drawObstaclePK8obstacle
     /tmp/ccjNsti9.s:198    .text:00000000000001b5 _Z11renderScenev
     /tmp/ccjNsti9.s:398    .data:0000000000000000 numOfObstacles
     /tmp/ccjNsti9.s:391    .bss:0000000000000010 obstacles
     /tmp/ccjNsti9.s:379    .bss:0000000000000000 endway
     /tmp/ccjNsti9.s:385    .bss:0000000000000008 startway
     /tmp/ccjNsti9.s:251    .text:000000000000021d main
     /tmp/ccjNsti9.s:357    .text:00000000000003fa _GLOBAL__sub_I_terminated
     /tmp/ccjNsti9.s:98     .rodata.str1.1:0000000000000000 .LC1
     /tmp/ccjNsti9.s:100    .rodata.str1.1:0000000000000009 .LC2
     /tmp/ccjNsti9.s:410    .rodata.cst4:0000000000000000 .LC3
     /tmp/ccjNsti9.s:413    .rodata.cst4:0000000000000004 .LC4
     /tmp/ccjNsti9.s:416    .rodata.cst4:0000000000000008 .LC5
     /tmp/ccjNsti9.s:419    .rodata.cst4:000000000000000c .LC6
     /tmp/ccjNsti9.s:422    .rodata.cst4:0000000000000010 .LC8
     /tmp/ccjNsti9.s:232    .rodata.str1.1:000000000000000e .LC9
     /tmp/ccjNsti9.s:234    .rodata.str1.1:0000000000000019 .LC10
     /tmp/ccjNsti9.s:236    .rodata.str1.1:0000000000000023 .LC11
     /tmp/ccjNsti9.s:238    .rodata.str1.1:000000000000002c .LC12
     /tmp/ccjNsti9.s:240    .rodata.str1.1:0000000000000035 .LC13
     /tmp/ccjNsti9.s:242    .rodata.str1.1:000000000000003f .LC14
     /tmp/ccjNsti9.s:244    .rodata.str1.1:0000000000000048 .LC15
     /tmp/ccjNsti9.s:246    .rodata.str1.1:000000000000004f .LC16

UNDEFINED SYMBOLS
_GLOBAL_OFFSET_TABLE_
glViewport
glMatrixMode
glLoadIdentity
gluOrtho2D
glutPostRedisplay
glutTimerFunc
exit
_ZNSt8ios_base4InitC1Ev
__dso_handle
_ZNSt8ios_base4InitD1Ev
__cxa_atexit
_ZSt4cout
_ZSt16__ostream_insertIcSt11char_traitsIcEERSt13basic_ostreamIT_T0_ES6_PKS3_l
_ZNSolsEi
_ZNSo3putEc
_ZNSo5flushEv
_ZSt16__throw_bad_castv
_ZNKSt5ctypeIcE13_M_widen_initEv
_Z10glSetColorj
_Z8drawQuadfff
glClear
_Z8drawLineffff
glutSwapBuffers
GAS LISTING /tmp/ccjNsti9.s 			page 12


malloc
_Z14createObstaclefff
_ZStlsISt11char_traitsIcEERSt13basic_ostreamIcT_ES5_PKc
glutInit
glutInitDisplayMode
glutCreateWindow
glutReshapeFunc
glutDisplayFunc
glutKeyboardFunc
glutMainLoop
