GAS LISTING /tmp/ccLSN4nF.s 			page 1


   1              		.file	"pathfinder.cpp"
   2              		.text
   3              	.Ltext0:
   5              	_Z41__static_initialization_and_destruction_0ii:
   6              	.LVL0:
   7              	.LFB2043:
   8              		.file 1 "Src/pathfinder.cpp"
   1:Src/pathfinder.cpp **** #include "pathfinder.hpp"
   2:Src/pathfinder.cpp **** #include "bases.hpp"
   3:Src/pathfinder.cpp **** #include "math.hpp"
   4:Src/pathfinder.cpp **** 
   5:Src/pathfinder.cpp **** namespace pathfinder
   6:Src/pathfinder.cpp **** {
   7:Src/pathfinder.cpp **** 
   8:Src/pathfinder.cpp ****     using namespace bases;
   9:Src/pathfinder.cpp **** 
  10:Src/pathfinder.cpp ****     bool hasUncalculatedPoints(const struct graphPoint *p)
  11:Src/pathfinder.cpp ****     {
  12:Src/pathfinder.cpp ****         for(size_t i = 0; i < (p->numOfTargets); i++)
  13:Src/pathfinder.cpp ****         {
  14:Src/pathfinder.cpp ****             if(!(p->targets[i]->calculated))
  15:Src/pathfinder.cpp ****                 return true;
  16:Src/pathfinder.cpp ****         }
  17:Src/pathfinder.cpp ****         return false;
  18:Src/pathfinder.cpp ****     }
  19:Src/pathfinder.cpp **** 
  20:Src/pathfinder.cpp ****     struct graphPoint* getMinTarget(const struct graphPoint *p)
  21:Src/pathfinder.cpp ****     {
  22:Src/pathfinder.cpp ****         COORDS_DATATYPE w = INF;
  23:Src/pathfinder.cpp ****         struct graphPoint * pp = 0;
  24:Src/pathfinder.cpp ****         for(size_t i = 0; i < p->numOfTargets; i++)
  25:Src/pathfinder.cpp ****         {
  26:Src/pathfinder.cpp ****             if(!p->targets[i]->calculated && p->targets[i]->weight <= w)
  27:Src/pathfinder.cpp ****             {
  28:Src/pathfinder.cpp ****                 w = p->targets[i]->weight;
  29:Src/pathfinder.cpp ****                 pp = p->targets[i];
  30:Src/pathfinder.cpp ****             }
  31:Src/pathfinder.cpp ****         }
  32:Src/pathfinder.cpp ****         return pp;
  33:Src/pathfinder.cpp ****     }
  34:Src/pathfinder.cpp **** 
  35:Src/pathfinder.cpp ****     void calculateWay(size_t index) 
  36:Src/pathfinder.cpp ****     {
  37:Src/pathfinder.cpp ****         if(graph[index] == NULL || graph[index]->calculated)
  38:Src/pathfinder.cpp ****             return;
  39:Src/pathfinder.cpp ****         graph[index]->calculated = true;
  40:Src/pathfinder.cpp ****         
  41:Src/pathfinder.cpp ****         if(graph[index]->numOfTargets == 0)
  42:Src/pathfinder.cpp ****             return;
  43:Src/pathfinder.cpp **** 
  44:Src/pathfinder.cpp ****         struct graphPoint * watch;
  45:Src/pathfinder.cpp ****         COORDS_DATATYPE w;
  46:Src/pathfinder.cpp **** 
  47:Src/pathfinder.cpp ****         for(size_t i = 0; i < graph[index]->numOfTargets; i++)
  48:Src/pathfinder.cpp ****         {
  49:Src/pathfinder.cpp ****             watch = graph[index]->targets[i];
  50:Src/pathfinder.cpp ****             w = getWayPrice(graph[index], watch);
GAS LISTING /tmp/ccLSN4nF.s 			page 2


  51:Src/pathfinder.cpp ****             if(watch->weight > graph[index]->weight + w)
  52:Src/pathfinder.cpp ****             {
  53:Src/pathfinder.cpp ****                 watch->weight = w + graph[index]->weight;
  54:Src/pathfinder.cpp ****                 ways[watch->i] = index;
  55:Src/pathfinder.cpp ****             }
  56:Src/pathfinder.cpp ****         }
  57:Src/pathfinder.cpp **** 
  58:Src/pathfinder.cpp ****         while (hasUncalculatedPoints(graph[index]))
  59:Src/pathfinder.cpp ****         {
  60:Src/pathfinder.cpp ****             watch = getMinTarget(graph[index]);
  61:Src/pathfinder.cpp ****             calculateWay(watch->i);
  62:Src/pathfinder.cpp ****         }
  63:Src/pathfinder.cpp ****     }
  64:Src/pathfinder.cpp **** 
  65:Src/pathfinder.cpp **** 
  66:Src/pathfinder.cpp ****     COORDS_DATATYPE getWayPrice(struct graphPoint *start, struct graphPoint *end)
  67:Src/pathfinder.cpp ****     {
  68:Src/pathfinder.cpp ****         return sqrt(pow(start->c.x - end->c.x, 2) + pow(start->c.y - end->c.y, 2));
  69:Src/pathfinder.cpp ****     }
  70:Src/pathfinder.cpp **** 
  71:Src/pathfinder.cpp ****     COORDS_DATATYPE getWayPrice(struct coords *start, struct coords *end)
  72:Src/pathfinder.cpp ****     {
  73:Src/pathfinder.cpp ****         return sqrt(pow(start->x - end->x, 2) + pow(start->y - end->y, 2));
  74:Src/pathfinder.cpp ****     }
  75:Src/pathfinder.cpp **** 
  76:Src/pathfinder.cpp **** }...
   9              		.loc 1 76 1 view -0
  10              		.cfi_startproc
  11              		.loc 1 76 1 is_stmt 0 view .LVU1
  12 0000 83FF01   		cmpl	$1, %edi
  13 0003 7401     		je	.L7
  14              	.L4:
  15 0005 C3       		ret
  16              	.L7:
  17              		.loc 1 76 1 discriminator 1 view .LVU2
  18 0006 81FEFFFF 		cmpl	$65535, %esi
  18      0000
  19 000c 75F7     		jne	.L4
  20              		.loc 1 76 1 view .LVU3
  21 000e 4883EC08 		subq	$8, %rsp
  22              		.cfi_def_cfa_offset 16
  23              		.file 2 "/usr/include/c++/9.2.0/iostream"
   1:/usr/include/c++/9.2.0/iostream **** // Standard iostream objects -*- C++ -*-
   2:/usr/include/c++/9.2.0/iostream **** 
   3:/usr/include/c++/9.2.0/iostream **** // Copyright (C) 1997-2019 Free Software Foundation, Inc.
   4:/usr/include/c++/9.2.0/iostream **** //
   5:/usr/include/c++/9.2.0/iostream **** // This file is part of the GNU ISO C++ Library.  This library is free
   6:/usr/include/c++/9.2.0/iostream **** // software; you can redistribute it and/or modify it under the
   7:/usr/include/c++/9.2.0/iostream **** // terms of the GNU General Public License as published by the
   8:/usr/include/c++/9.2.0/iostream **** // Free Software Foundation; either version 3, or (at your option)
   9:/usr/include/c++/9.2.0/iostream **** // any later version.
  10:/usr/include/c++/9.2.0/iostream **** 
  11:/usr/include/c++/9.2.0/iostream **** // This library is distributed in the hope that it will be useful,
  12:/usr/include/c++/9.2.0/iostream **** // but WITHOUT ANY WARRANTY; without even the implied warranty of
  13:/usr/include/c++/9.2.0/iostream **** // MERCHANTABILITY or FITNESS FOR A PARTICULAR PURPOSE.  See the
  14:/usr/include/c++/9.2.0/iostream **** // GNU General Public License for more details.
  15:/usr/include/c++/9.2.0/iostream **** 
GAS LISTING /tmp/ccLSN4nF.s 			page 3


  16:/usr/include/c++/9.2.0/iostream **** // Under Section 7 of GPL version 3, you are granted additional
  17:/usr/include/c++/9.2.0/iostream **** // permissions described in the GCC Runtime Library Exception, version
  18:/usr/include/c++/9.2.0/iostream **** // 3.1, as published by the Free Software Foundation.
  19:/usr/include/c++/9.2.0/iostream **** 
  20:/usr/include/c++/9.2.0/iostream **** // You should have received a copy of the GNU General Public License and
  21:/usr/include/c++/9.2.0/iostream **** // a copy of the GCC Runtime Library Exception along with this program;
  22:/usr/include/c++/9.2.0/iostream **** // see the files COPYING3 and COPYING.RUNTIME respectively.  If not, see
  23:/usr/include/c++/9.2.0/iostream **** // <http://www.gnu.org/licenses/>.
  24:/usr/include/c++/9.2.0/iostream **** 
  25:/usr/include/c++/9.2.0/iostream **** /** @file include/iostream
  26:/usr/include/c++/9.2.0/iostream ****  *  This is a Standard C++ Library header.
  27:/usr/include/c++/9.2.0/iostream ****  */
  28:/usr/include/c++/9.2.0/iostream **** 
  29:/usr/include/c++/9.2.0/iostream **** //
  30:/usr/include/c++/9.2.0/iostream **** // ISO C++ 14882: 27.3  Standard iostream objects
  31:/usr/include/c++/9.2.0/iostream **** //
  32:/usr/include/c++/9.2.0/iostream **** 
  33:/usr/include/c++/9.2.0/iostream **** #ifndef _GLIBCXX_IOSTREAM
  34:/usr/include/c++/9.2.0/iostream **** #define _GLIBCXX_IOSTREAM 1
  35:/usr/include/c++/9.2.0/iostream **** 
  36:/usr/include/c++/9.2.0/iostream **** #pragma GCC system_header
  37:/usr/include/c++/9.2.0/iostream **** 
  38:/usr/include/c++/9.2.0/iostream **** #include <bits/c++config.h>
  39:/usr/include/c++/9.2.0/iostream **** #include <ostream>
  40:/usr/include/c++/9.2.0/iostream **** #include <istream>
  41:/usr/include/c++/9.2.0/iostream **** 
  42:/usr/include/c++/9.2.0/iostream **** namespace std _GLIBCXX_VISIBILITY(default)
  43:/usr/include/c++/9.2.0/iostream **** {
  44:/usr/include/c++/9.2.0/iostream **** _GLIBCXX_BEGIN_NAMESPACE_VERSION
  45:/usr/include/c++/9.2.0/iostream **** 
  46:/usr/include/c++/9.2.0/iostream ****   /**
  47:/usr/include/c++/9.2.0/iostream ****    *  @name Standard Stream Objects
  48:/usr/include/c++/9.2.0/iostream ****    *
  49:/usr/include/c++/9.2.0/iostream ****    *  The &lt;iostream&gt; header declares the eight <em>standard stream
  50:/usr/include/c++/9.2.0/iostream ****    *  objects</em>.  For other declarations, see
  51:/usr/include/c++/9.2.0/iostream ****    *  http://gcc.gnu.org/onlinedocs/libstdc++/manual/io.html
  52:/usr/include/c++/9.2.0/iostream ****    *  and the @link iosfwd I/O forward declarations @endlink
  53:/usr/include/c++/9.2.0/iostream ****    *
  54:/usr/include/c++/9.2.0/iostream ****    *  They are required by default to cooperate with the global C
  55:/usr/include/c++/9.2.0/iostream ****    *  library's @c FILE streams, and to be available during program
  56:/usr/include/c++/9.2.0/iostream ****    *  startup and termination. For more information, see the section of the
  57:/usr/include/c++/9.2.0/iostream ****    *  manual linked to above.
  58:/usr/include/c++/9.2.0/iostream ****   */
  59:/usr/include/c++/9.2.0/iostream ****   //@{
  60:/usr/include/c++/9.2.0/iostream ****   extern istream cin;		/// Linked to standard input
  61:/usr/include/c++/9.2.0/iostream ****   extern ostream cout;		/// Linked to standard output
  62:/usr/include/c++/9.2.0/iostream ****   extern ostream cerr;		/// Linked to standard error (unbuffered)
  63:/usr/include/c++/9.2.0/iostream ****   extern ostream clog;		/// Linked to standard error (buffered)
  64:/usr/include/c++/9.2.0/iostream **** 
  65:/usr/include/c++/9.2.0/iostream **** #ifdef _GLIBCXX_USE_WCHAR_T
  66:/usr/include/c++/9.2.0/iostream ****   extern wistream wcin;		/// Linked to standard input
  67:/usr/include/c++/9.2.0/iostream ****   extern wostream wcout;	/// Linked to standard output
  68:/usr/include/c++/9.2.0/iostream ****   extern wostream wcerr;	/// Linked to standard error (unbuffered)
  69:/usr/include/c++/9.2.0/iostream ****   extern wostream wclog;	/// Linked to standard error (buffered)
  70:/usr/include/c++/9.2.0/iostream **** #endif
  71:/usr/include/c++/9.2.0/iostream ****   //@}
  72:/usr/include/c++/9.2.0/iostream **** 
GAS LISTING /tmp/ccLSN4nF.s 			page 4


  73:/usr/include/c++/9.2.0/iostream ****   // For construction of filebuffers for cout, cin, cerr, clog et. al.
  74:/usr/include/c++/9.2.0/iostream ****   static ios_base::Init __ioinit;
  24              		.loc 2 74 25 view .LVU4
  25 0012 488D3D00 		leaq	_ZStL8__ioinit(%rip), %rdi
  25      000000
  26              	.LVL1:
  27              		.loc 2 74 25 view .LVU5
  28 0019 E8000000 		call	_ZNSt8ios_base4InitC1Ev@PLT
  28      00
  29              	.LVL2:
  30              		.loc 2 74 25 view .LVU6
  31 001e 488D1500 		leaq	__dso_handle(%rip), %rdx
  31      000000
  32 0025 488D3500 		leaq	_ZStL8__ioinit(%rip), %rsi
  32      000000
  33 002c 488B3D00 		movq	_ZNSt8ios_base4InitD1Ev@GOTPCREL(%rip), %rdi
  33      000000
  34 0033 E8000000 		call	__cxa_atexit@PLT
  34      00
  35              	.LVL3:
  36              		.loc 1 76 1 view .LVU7
  37 0038 4883C408 		addq	$8, %rsp
  38              		.cfi_def_cfa_offset 8
  39 003c C3       		ret
  40              		.cfi_endproc
  41              	.LFE2043:
  43              		.globl	_ZN10pathfinder21hasUncalculatedPointsEPKN5bases10graphPointE
  45              	_ZN10pathfinder21hasUncalculatedPointsEPKN5bases10graphPointE:
  46              	.LVL4:
  47              	.LFB1721:
  11:Src/pathfinder.cpp ****     {
  48              		.loc 1 11 5 is_stmt 1 view -0
  49              		.cfi_startproc
  12:Src/pathfinder.cpp ****         for(size_t i = 0; i < (p->numOfTargets); i++)
  50              		.loc 1 12 9 view .LVU9
  51              	.LBB10:
  12:Src/pathfinder.cpp ****         for(size_t i = 0; i < (p->numOfTargets); i++)
  52              		.loc 1 12 20 is_stmt 0 view .LVU10
  53 003d B8000000 		movl	$0, %eax
  53      00
  54              	.LVL5:
  55              	.L10:
  12:Src/pathfinder.cpp ****         for(size_t i = 0; i < (p->numOfTargets); i++)
  56              		.loc 1 12 29 is_stmt 1 discriminator 1 view .LVU11
  57 0042 48394708 		cmpq	%rax, 8(%rdi)
  58 0046 7613     		jbe	.L11
  14:Src/pathfinder.cpp ****             if(!(p->targets[i]->calculated))
  59              		.loc 1 14 13 view .LVU12
  14:Src/pathfinder.cpp ****             if(!(p->targets[i]->calculated))
  60              		.loc 1 14 21 is_stmt 0 view .LVU13
  61 0048 488B17   		movq	(%rdi), %rdx
  14:Src/pathfinder.cpp ****             if(!(p->targets[i]->calculated))
  62              		.loc 1 14 30 view .LVU14
  63 004b 488B14C2 		movq	(%rdx,%rax,8), %rdx
  14:Src/pathfinder.cpp ****             if(!(p->targets[i]->calculated))
  64              		.loc 1 14 13 view .LVU15
  65 004f 807A1800 		cmpb	$0, 24(%rdx)
GAS LISTING /tmp/ccLSN4nF.s 			page 5


  66 0053 740C     		je	.L12
  12:Src/pathfinder.cpp ****         for(size_t i = 0; i < (p->numOfTargets); i++)
  67              		.loc 1 12 9 is_stmt 1 discriminator 2 view .LVU16
  68 0055 4883C001 		addq	$1, %rax
  69              	.LVL6:
  12:Src/pathfinder.cpp ****         for(size_t i = 0; i < (p->numOfTargets); i++)
  70              		.loc 1 12 9 is_stmt 0 discriminator 2 view .LVU17
  71 0059 EBE7     		jmp	.L10
  72              	.L11:
  12:Src/pathfinder.cpp ****         for(size_t i = 0; i < (p->numOfTargets); i++)
  73              		.loc 1 12 9 discriminator 2 view .LVU18
  74              	.LBE10:
  17:Src/pathfinder.cpp ****         return false;
  75              		.loc 1 17 16 view .LVU19
  76 005b B8000000 		movl	$0, %eax
  76      00
  77              	.LVL7:
  17:Src/pathfinder.cpp ****         return false;
  78              		.loc 1 17 16 view .LVU20
  79 0060 C3       		ret
  80              	.LVL8:
  81              	.L12:
  82              	.LBB11:
  15:Src/pathfinder.cpp ****                 return true;
  83              		.loc 1 15 24 view .LVU21
  84 0061 B8010000 		movl	$1, %eax
  84      00
  85              	.LVL9:
  15:Src/pathfinder.cpp ****                 return true;
  86              		.loc 1 15 24 view .LVU22
  87              	.LBE11:
  18:Src/pathfinder.cpp ****     }
  88              		.loc 1 18 5 view .LVU23
  89 0066 C3       		ret
  90              		.cfi_endproc
  91              	.LFE1721:
  93              		.globl	_ZN10pathfinder12getMinTargetEPKN5bases10graphPointE
  95              	_ZN10pathfinder12getMinTargetEPKN5bases10graphPointE:
  96              	.LVL10:
  97              	.LFB1722:
  21:Src/pathfinder.cpp ****     {
  98              		.loc 1 21 5 is_stmt 1 view -0
  99              		.cfi_startproc
  22:Src/pathfinder.cpp ****         COORDS_DATATYPE w = INF;
 100              		.loc 1 22 9 view .LVU25
  22:Src/pathfinder.cpp ****         COORDS_DATATYPE w = INF;
 101              		.loc 1 22 25 is_stmt 0 view .LVU26
 102 0067 F30F100D 		movss	.LC0(%rip), %xmm1
 102      00000000 
 103 006f F30F5E0D 		divss	.LC1(%rip), %xmm1
 103      00000000 
 104              	.LVL11:
  23:Src/pathfinder.cpp ****         struct graphPoint * pp = 0;
 105              		.loc 1 23 9 is_stmt 1 view .LVU27
  24:Src/pathfinder.cpp ****         for(size_t i = 0; i < p->numOfTargets; i++)
 106              		.loc 1 24 9 view .LVU28
 107              	.LBB12:
GAS LISTING /tmp/ccLSN4nF.s 			page 6


  24:Src/pathfinder.cpp ****         for(size_t i = 0; i < p->numOfTargets; i++)
 108              		.loc 1 24 20 is_stmt 0 view .LVU29
 109 0077 B8000000 		movl	$0, %eax
 109      00
 110              	.LBE12:
  23:Src/pathfinder.cpp ****         struct graphPoint * pp = 0;
 111              		.loc 1 23 29 view .LVU30
 112 007c B9000000 		movl	$0, %ecx
 112      00
 113 0081 EB04     		jmp	.L16
 114              	.LVL12:
 115              	.L15:
 116              	.LBB13:
  24:Src/pathfinder.cpp ****         for(size_t i = 0; i < p->numOfTargets; i++)
 117              		.loc 1 24 9 is_stmt 1 discriminator 2 view .LVU31
 118 0083 4883C001 		addq	$1, %rax
 119              	.LVL13:
 120              	.L16:
  24:Src/pathfinder.cpp ****         for(size_t i = 0; i < p->numOfTargets; i++)
 121              		.loc 1 24 29 discriminator 1 view .LVU32
 122 0087 48394708 		cmpq	%rax, 8(%rdi)
 123 008b 761F     		jbe	.L13
  26:Src/pathfinder.cpp ****             if(!p->targets[i]->calculated && p->targets[i]->weight <= w)
 124              		.loc 1 26 13 view .LVU33
  26:Src/pathfinder.cpp ****             if(!p->targets[i]->calculated && p->targets[i]->weight <= w)
 125              		.loc 1 26 20 is_stmt 0 view .LVU34
 126 008d 488B17   		movq	(%rdi), %rdx
  26:Src/pathfinder.cpp ****             if(!p->targets[i]->calculated && p->targets[i]->weight <= w)
 127              		.loc 1 26 29 view .LVU35
 128 0090 488B14C2 		movq	(%rdx,%rax,8), %rdx
  26:Src/pathfinder.cpp ****             if(!p->targets[i]->calculated && p->targets[i]->weight <= w)
 129              		.loc 1 26 13 view .LVU36
 130 0094 807A1800 		cmpb	$0, 24(%rdx)
 131 0098 75E9     		jne	.L15
  26:Src/pathfinder.cpp ****             if(!p->targets[i]->calculated && p->targets[i]->weight <= w)
 132              		.loc 1 26 61 discriminator 1 view .LVU37
 133 009a F30F1042 		movss	28(%rdx), %xmm0
 133      1C
  26:Src/pathfinder.cpp ****             if(!p->targets[i]->calculated && p->targets[i]->weight <= w)
 134              		.loc 1 26 43 discriminator 1 view .LVU38
 135 009f 0F2FC8   		comiss	%xmm0, %xmm1
 136 00a2 72DF     		jb	.L15
  29:Src/pathfinder.cpp ****                 pp = p->targets[i];
 137              		.loc 1 29 20 view .LVU39
 138 00a4 4889D1   		movq	%rdx, %rcx
 139              	.LVL14:
  28:Src/pathfinder.cpp ****                 w = p->targets[i]->weight;
 140              		.loc 1 28 19 view .LVU40
 141 00a7 0F28C8   		movaps	%xmm0, %xmm1
 142              	.LVL15:
  28:Src/pathfinder.cpp ****                 w = p->targets[i]->weight;
 143              		.loc 1 28 19 view .LVU41
 144 00aa EBD7     		jmp	.L15
 145              	.LVL16:
 146              	.L13:
  28:Src/pathfinder.cpp ****                 w = p->targets[i]->weight;
 147              		.loc 1 28 19 view .LVU42
GAS LISTING /tmp/ccLSN4nF.s 			page 7


 148              	.LBE13:
  33:Src/pathfinder.cpp ****     }
 149              		.loc 1 33 5 view .LVU43
 150 00ac 4889C8   		movq	%rcx, %rax
 151              	.LVL17:
  33:Src/pathfinder.cpp ****     }
 152              		.loc 1 33 5 view .LVU44
 153 00af C3       		ret
 154              		.cfi_endproc
 155              	.LFE1722:
 157              		.globl	_ZN10pathfinder11getWayPriceEPN5bases10graphPointES2_
 159              	_ZN10pathfinder11getWayPriceEPN5bases10graphPointES2_:
 160              	.LVL18:
 161              	.LFB1724:
  67:Src/pathfinder.cpp ****     {
 162              		.loc 1 67 5 is_stmt 1 view -0
 163              		.cfi_startproc
  67:Src/pathfinder.cpp ****     {
 164              		.loc 1 67 5 is_stmt 0 view .LVU46
 165 00b0 55       		pushq	%rbp
 166              		.cfi_def_cfa_offset 16
 167              		.cfi_offset 6, -16
 168 00b1 53       		pushq	%rbx
 169              		.cfi_def_cfa_offset 24
 170              		.cfi_offset 3, -24
 171 00b2 4883EC18 		subq	$24, %rsp
 172              		.cfi_def_cfa_offset 48
 173 00b6 4889FD   		movq	%rdi, %rbp
 174 00b9 4889F3   		movq	%rsi, %rbx
  68:Src/pathfinder.cpp ****         return sqrt(pow(start->c.x - end->c.x, 2) + pow(start->c.y - end->c.y, 2));
 175              		.loc 1 68 9 is_stmt 1 view .LVU47
  68:Src/pathfinder.cpp ****         return sqrt(pow(start->c.x - end->c.x, 2) + pow(start->c.y - end->c.y, 2));
 176              		.loc 1 68 34 is_stmt 0 view .LVU48
 177 00bc F30F1047 		movss	16(%rdi), %xmm0
 177      10
  68:Src/pathfinder.cpp ****         return sqrt(pow(start->c.x - end->c.x, 2) + pow(start->c.y - end->c.y, 2));
 178              		.loc 1 68 24 view .LVU49
 179 00c1 F30F5C46 		subss	16(%rsi), %xmm0
 179      10
 180              	.LVL19:
 181              	.LBB14:
 182              	.LBI14:
 183              		.file 3 "/usr/include/c++/9.2.0/cmath"
   1:/usr/include/c++/9.2.0/cmath **** // -*- C++ -*- C forwarding header.
   2:/usr/include/c++/9.2.0/cmath **** 
   3:/usr/include/c++/9.2.0/cmath **** // Copyright (C) 1997-2019 Free Software Foundation, Inc.
   4:/usr/include/c++/9.2.0/cmath **** //
   5:/usr/include/c++/9.2.0/cmath **** // This file is part of the GNU ISO C++ Library.  This library is free
   6:/usr/include/c++/9.2.0/cmath **** // software; you can redistribute it and/or modify it under the
   7:/usr/include/c++/9.2.0/cmath **** // terms of the GNU General Public License as published by the
   8:/usr/include/c++/9.2.0/cmath **** // Free Software Foundation; either version 3, or (at your option)
   9:/usr/include/c++/9.2.0/cmath **** // any later version.
  10:/usr/include/c++/9.2.0/cmath **** 
  11:/usr/include/c++/9.2.0/cmath **** // This library is distributed in the hope that it will be useful,
  12:/usr/include/c++/9.2.0/cmath **** // but WITHOUT ANY WARRANTY; without even the implied warranty of
  13:/usr/include/c++/9.2.0/cmath **** // MERCHANTABILITY or FITNESS FOR A PARTICULAR PURPOSE.  See the
  14:/usr/include/c++/9.2.0/cmath **** // GNU General Public License for more details.
GAS LISTING /tmp/ccLSN4nF.s 			page 8


  15:/usr/include/c++/9.2.0/cmath **** 
  16:/usr/include/c++/9.2.0/cmath **** // Under Section 7 of GPL version 3, you are granted additional
  17:/usr/include/c++/9.2.0/cmath **** // permissions described in the GCC Runtime Library Exception, version
  18:/usr/include/c++/9.2.0/cmath **** // 3.1, as published by the Free Software Foundation.
  19:/usr/include/c++/9.2.0/cmath **** 
  20:/usr/include/c++/9.2.0/cmath **** // You should have received a copy of the GNU General Public License and
  21:/usr/include/c++/9.2.0/cmath **** // a copy of the GCC Runtime Library Exception along with this program;
  22:/usr/include/c++/9.2.0/cmath **** // see the files COPYING3 and COPYING.RUNTIME respectively.  If not, see
  23:/usr/include/c++/9.2.0/cmath **** // <http://www.gnu.org/licenses/>.
  24:/usr/include/c++/9.2.0/cmath **** 
  25:/usr/include/c++/9.2.0/cmath **** /** @file include/cmath
  26:/usr/include/c++/9.2.0/cmath ****  *  This is a Standard C++ Library file.  You should @c \#include this file
  27:/usr/include/c++/9.2.0/cmath ****  *  in your programs, rather than any of the @a *.h implementation files.
  28:/usr/include/c++/9.2.0/cmath ****  *
  29:/usr/include/c++/9.2.0/cmath ****  *  This is the C++ version of the Standard C Library header @c math.h,
  30:/usr/include/c++/9.2.0/cmath ****  *  and its contents are (mostly) the same as that header, but are all
  31:/usr/include/c++/9.2.0/cmath ****  *  contained in the namespace @c std (except for names which are defined
  32:/usr/include/c++/9.2.0/cmath ****  *  as macros in C).
  33:/usr/include/c++/9.2.0/cmath ****  */
  34:/usr/include/c++/9.2.0/cmath **** 
  35:/usr/include/c++/9.2.0/cmath **** //
  36:/usr/include/c++/9.2.0/cmath **** // ISO C++ 14882: 26.5  C library
  37:/usr/include/c++/9.2.0/cmath **** //
  38:/usr/include/c++/9.2.0/cmath **** 
  39:/usr/include/c++/9.2.0/cmath **** #pragma GCC system_header
  40:/usr/include/c++/9.2.0/cmath **** 
  41:/usr/include/c++/9.2.0/cmath **** #include <bits/c++config.h>
  42:/usr/include/c++/9.2.0/cmath **** #include <bits/cpp_type_traits.h>
  43:/usr/include/c++/9.2.0/cmath **** #include <ext/type_traits.h>
  44:/usr/include/c++/9.2.0/cmath **** #define _GLIBCXX_INCLUDE_NEXT_C_HEADERS
  45:/usr/include/c++/9.2.0/cmath **** #include_next <math.h>
  46:/usr/include/c++/9.2.0/cmath **** #undef _GLIBCXX_INCLUDE_NEXT_C_HEADERS
  47:/usr/include/c++/9.2.0/cmath **** #include <bits/std_abs.h>
  48:/usr/include/c++/9.2.0/cmath **** 
  49:/usr/include/c++/9.2.0/cmath **** #ifndef _GLIBCXX_CMATH
  50:/usr/include/c++/9.2.0/cmath **** #define _GLIBCXX_CMATH 1
  51:/usr/include/c++/9.2.0/cmath **** 
  52:/usr/include/c++/9.2.0/cmath **** // Get rid of those macros defined in <math.h> in lieu of real functions.
  53:/usr/include/c++/9.2.0/cmath **** #undef div
  54:/usr/include/c++/9.2.0/cmath **** #undef acos
  55:/usr/include/c++/9.2.0/cmath **** #undef asin
  56:/usr/include/c++/9.2.0/cmath **** #undef atan
  57:/usr/include/c++/9.2.0/cmath **** #undef atan2
  58:/usr/include/c++/9.2.0/cmath **** #undef ceil
  59:/usr/include/c++/9.2.0/cmath **** #undef cos
  60:/usr/include/c++/9.2.0/cmath **** #undef cosh
  61:/usr/include/c++/9.2.0/cmath **** #undef exp
  62:/usr/include/c++/9.2.0/cmath **** #undef fabs
  63:/usr/include/c++/9.2.0/cmath **** #undef floor
  64:/usr/include/c++/9.2.0/cmath **** #undef fmod
  65:/usr/include/c++/9.2.0/cmath **** #undef frexp
  66:/usr/include/c++/9.2.0/cmath **** #undef ldexp
  67:/usr/include/c++/9.2.0/cmath **** #undef log
  68:/usr/include/c++/9.2.0/cmath **** #undef log10
  69:/usr/include/c++/9.2.0/cmath **** #undef modf
  70:/usr/include/c++/9.2.0/cmath **** #undef pow
  71:/usr/include/c++/9.2.0/cmath **** #undef sin
GAS LISTING /tmp/ccLSN4nF.s 			page 9


  72:/usr/include/c++/9.2.0/cmath **** #undef sinh
  73:/usr/include/c++/9.2.0/cmath **** #undef sqrt
  74:/usr/include/c++/9.2.0/cmath **** #undef tan
  75:/usr/include/c++/9.2.0/cmath **** #undef tanh
  76:/usr/include/c++/9.2.0/cmath **** 
  77:/usr/include/c++/9.2.0/cmath **** extern "C++"
  78:/usr/include/c++/9.2.0/cmath **** {
  79:/usr/include/c++/9.2.0/cmath **** namespace std _GLIBCXX_VISIBILITY(default)
  80:/usr/include/c++/9.2.0/cmath **** {
  81:/usr/include/c++/9.2.0/cmath **** _GLIBCXX_BEGIN_NAMESPACE_VERSION
  82:/usr/include/c++/9.2.0/cmath **** 
  83:/usr/include/c++/9.2.0/cmath ****   using ::acos;
  84:/usr/include/c++/9.2.0/cmath **** 
  85:/usr/include/c++/9.2.0/cmath **** #ifndef __CORRECT_ISO_CPP_MATH_H_PROTO
  86:/usr/include/c++/9.2.0/cmath ****   inline _GLIBCXX_CONSTEXPR float
  87:/usr/include/c++/9.2.0/cmath ****   acos(float __x)
  88:/usr/include/c++/9.2.0/cmath ****   { return __builtin_acosf(__x); }
  89:/usr/include/c++/9.2.0/cmath **** 
  90:/usr/include/c++/9.2.0/cmath ****   inline _GLIBCXX_CONSTEXPR long double
  91:/usr/include/c++/9.2.0/cmath ****   acos(long double __x)
  92:/usr/include/c++/9.2.0/cmath ****   { return __builtin_acosl(__x); }
  93:/usr/include/c++/9.2.0/cmath **** #endif
  94:/usr/include/c++/9.2.0/cmath **** 
  95:/usr/include/c++/9.2.0/cmath ****   template<typename _Tp>
  96:/usr/include/c++/9.2.0/cmath ****     inline _GLIBCXX_CONSTEXPR
  97:/usr/include/c++/9.2.0/cmath ****     typename __gnu_cxx::__enable_if<__is_integer<_Tp>::__value, 
  98:/usr/include/c++/9.2.0/cmath ****                                     double>::__type
  99:/usr/include/c++/9.2.0/cmath ****     acos(_Tp __x)
 100:/usr/include/c++/9.2.0/cmath ****     { return __builtin_acos(__x); }
 101:/usr/include/c++/9.2.0/cmath **** 
 102:/usr/include/c++/9.2.0/cmath ****   using ::asin;
 103:/usr/include/c++/9.2.0/cmath **** 
 104:/usr/include/c++/9.2.0/cmath **** #ifndef __CORRECT_ISO_CPP_MATH_H_PROTO
 105:/usr/include/c++/9.2.0/cmath ****   inline _GLIBCXX_CONSTEXPR float
 106:/usr/include/c++/9.2.0/cmath ****   asin(float __x)
 107:/usr/include/c++/9.2.0/cmath ****   { return __builtin_asinf(__x); }
 108:/usr/include/c++/9.2.0/cmath **** 
 109:/usr/include/c++/9.2.0/cmath ****   inline _GLIBCXX_CONSTEXPR long double
 110:/usr/include/c++/9.2.0/cmath ****   asin(long double __x)
 111:/usr/include/c++/9.2.0/cmath ****   { return __builtin_asinl(__x); }
 112:/usr/include/c++/9.2.0/cmath **** #endif
 113:/usr/include/c++/9.2.0/cmath **** 
 114:/usr/include/c++/9.2.0/cmath ****   template<typename _Tp>
 115:/usr/include/c++/9.2.0/cmath ****     inline _GLIBCXX_CONSTEXPR
 116:/usr/include/c++/9.2.0/cmath ****     typename __gnu_cxx::__enable_if<__is_integer<_Tp>::__value,
 117:/usr/include/c++/9.2.0/cmath ****                                     double>::__type
 118:/usr/include/c++/9.2.0/cmath ****     asin(_Tp __x)
 119:/usr/include/c++/9.2.0/cmath ****     { return __builtin_asin(__x); }
 120:/usr/include/c++/9.2.0/cmath **** 
 121:/usr/include/c++/9.2.0/cmath ****   using ::atan;
 122:/usr/include/c++/9.2.0/cmath **** 
 123:/usr/include/c++/9.2.0/cmath **** #ifndef __CORRECT_ISO_CPP_MATH_H_PROTO
 124:/usr/include/c++/9.2.0/cmath ****   inline _GLIBCXX_CONSTEXPR float
 125:/usr/include/c++/9.2.0/cmath ****   atan(float __x)
 126:/usr/include/c++/9.2.0/cmath ****   { return __builtin_atanf(__x); }
 127:/usr/include/c++/9.2.0/cmath **** 
 128:/usr/include/c++/9.2.0/cmath ****   inline _GLIBCXX_CONSTEXPR long double
GAS LISTING /tmp/ccLSN4nF.s 			page 10


 129:/usr/include/c++/9.2.0/cmath ****   atan(long double __x)
 130:/usr/include/c++/9.2.0/cmath ****   { return __builtin_atanl(__x); }
 131:/usr/include/c++/9.2.0/cmath **** #endif
 132:/usr/include/c++/9.2.0/cmath **** 
 133:/usr/include/c++/9.2.0/cmath ****   template<typename _Tp>
 134:/usr/include/c++/9.2.0/cmath ****     inline _GLIBCXX_CONSTEXPR
 135:/usr/include/c++/9.2.0/cmath ****     typename __gnu_cxx::__enable_if<__is_integer<_Tp>::__value,
 136:/usr/include/c++/9.2.0/cmath ****                                     double>::__type
 137:/usr/include/c++/9.2.0/cmath ****     atan(_Tp __x)
 138:/usr/include/c++/9.2.0/cmath ****     { return __builtin_atan(__x); }
 139:/usr/include/c++/9.2.0/cmath **** 
 140:/usr/include/c++/9.2.0/cmath ****   using ::atan2;
 141:/usr/include/c++/9.2.0/cmath **** 
 142:/usr/include/c++/9.2.0/cmath **** #ifndef __CORRECT_ISO_CPP_MATH_H_PROTO
 143:/usr/include/c++/9.2.0/cmath ****   inline _GLIBCXX_CONSTEXPR float
 144:/usr/include/c++/9.2.0/cmath ****   atan2(float __y, float __x)
 145:/usr/include/c++/9.2.0/cmath ****   { return __builtin_atan2f(__y, __x); }
 146:/usr/include/c++/9.2.0/cmath **** 
 147:/usr/include/c++/9.2.0/cmath ****   inline _GLIBCXX_CONSTEXPR long double
 148:/usr/include/c++/9.2.0/cmath ****   atan2(long double __y, long double __x)
 149:/usr/include/c++/9.2.0/cmath ****   { return __builtin_atan2l(__y, __x); }
 150:/usr/include/c++/9.2.0/cmath **** #endif
 151:/usr/include/c++/9.2.0/cmath **** 
 152:/usr/include/c++/9.2.0/cmath ****   template<typename _Tp, typename _Up>
 153:/usr/include/c++/9.2.0/cmath ****     inline _GLIBCXX_CONSTEXPR
 154:/usr/include/c++/9.2.0/cmath ****     typename __gnu_cxx::__promote_2<_Tp, _Up>::__type
 155:/usr/include/c++/9.2.0/cmath ****     atan2(_Tp __y, _Up __x)
 156:/usr/include/c++/9.2.0/cmath ****     {
 157:/usr/include/c++/9.2.0/cmath ****       typedef typename __gnu_cxx::__promote_2<_Tp, _Up>::__type __type;
 158:/usr/include/c++/9.2.0/cmath ****       return atan2(__type(__y), __type(__x));
 159:/usr/include/c++/9.2.0/cmath ****     }
 160:/usr/include/c++/9.2.0/cmath **** 
 161:/usr/include/c++/9.2.0/cmath ****   using ::ceil;
 162:/usr/include/c++/9.2.0/cmath **** 
 163:/usr/include/c++/9.2.0/cmath **** #ifndef __CORRECT_ISO_CPP_MATH_H_PROTO
 164:/usr/include/c++/9.2.0/cmath ****   inline _GLIBCXX_CONSTEXPR float
 165:/usr/include/c++/9.2.0/cmath ****   ceil(float __x)
 166:/usr/include/c++/9.2.0/cmath ****   { return __builtin_ceilf(__x); }
 167:/usr/include/c++/9.2.0/cmath **** 
 168:/usr/include/c++/9.2.0/cmath ****   inline _GLIBCXX_CONSTEXPR long double
 169:/usr/include/c++/9.2.0/cmath ****   ceil(long double __x)
 170:/usr/include/c++/9.2.0/cmath ****   { return __builtin_ceill(__x); }
 171:/usr/include/c++/9.2.0/cmath **** #endif
 172:/usr/include/c++/9.2.0/cmath **** 
 173:/usr/include/c++/9.2.0/cmath ****   template<typename _Tp>
 174:/usr/include/c++/9.2.0/cmath ****     inline _GLIBCXX_CONSTEXPR
 175:/usr/include/c++/9.2.0/cmath ****     typename __gnu_cxx::__enable_if<__is_integer<_Tp>::__value, 
 176:/usr/include/c++/9.2.0/cmath ****                                     double>::__type
 177:/usr/include/c++/9.2.0/cmath ****     ceil(_Tp __x)
 178:/usr/include/c++/9.2.0/cmath ****     { return __builtin_ceil(__x); }
 179:/usr/include/c++/9.2.0/cmath **** 
 180:/usr/include/c++/9.2.0/cmath ****   using ::cos;
 181:/usr/include/c++/9.2.0/cmath **** 
 182:/usr/include/c++/9.2.0/cmath **** #ifndef __CORRECT_ISO_CPP_MATH_H_PROTO
 183:/usr/include/c++/9.2.0/cmath ****   inline _GLIBCXX_CONSTEXPR float
 184:/usr/include/c++/9.2.0/cmath ****   cos(float __x)
 185:/usr/include/c++/9.2.0/cmath ****   { return __builtin_cosf(__x); }
GAS LISTING /tmp/ccLSN4nF.s 			page 11


 186:/usr/include/c++/9.2.0/cmath **** 
 187:/usr/include/c++/9.2.0/cmath ****   inline _GLIBCXX_CONSTEXPR long double
 188:/usr/include/c++/9.2.0/cmath ****   cos(long double __x)
 189:/usr/include/c++/9.2.0/cmath ****   { return __builtin_cosl(__x); }
 190:/usr/include/c++/9.2.0/cmath **** #endif
 191:/usr/include/c++/9.2.0/cmath **** 
 192:/usr/include/c++/9.2.0/cmath ****   template<typename _Tp>
 193:/usr/include/c++/9.2.0/cmath ****     inline _GLIBCXX_CONSTEXPR
 194:/usr/include/c++/9.2.0/cmath ****     typename __gnu_cxx::__enable_if<__is_integer<_Tp>::__value,
 195:/usr/include/c++/9.2.0/cmath ****                                     double>::__type
 196:/usr/include/c++/9.2.0/cmath ****     cos(_Tp __x)
 197:/usr/include/c++/9.2.0/cmath ****     { return __builtin_cos(__x); }
 198:/usr/include/c++/9.2.0/cmath **** 
 199:/usr/include/c++/9.2.0/cmath ****   using ::cosh;
 200:/usr/include/c++/9.2.0/cmath **** 
 201:/usr/include/c++/9.2.0/cmath **** #ifndef __CORRECT_ISO_CPP_MATH_H_PROTO
 202:/usr/include/c++/9.2.0/cmath ****   inline _GLIBCXX_CONSTEXPR float
 203:/usr/include/c++/9.2.0/cmath ****   cosh(float __x)
 204:/usr/include/c++/9.2.0/cmath ****   { return __builtin_coshf(__x); }
 205:/usr/include/c++/9.2.0/cmath **** 
 206:/usr/include/c++/9.2.0/cmath ****   inline _GLIBCXX_CONSTEXPR long double
 207:/usr/include/c++/9.2.0/cmath ****   cosh(long double __x)
 208:/usr/include/c++/9.2.0/cmath ****   { return __builtin_coshl(__x); }
 209:/usr/include/c++/9.2.0/cmath **** #endif
 210:/usr/include/c++/9.2.0/cmath **** 
 211:/usr/include/c++/9.2.0/cmath ****   template<typename _Tp>
 212:/usr/include/c++/9.2.0/cmath ****     inline _GLIBCXX_CONSTEXPR
 213:/usr/include/c++/9.2.0/cmath ****     typename __gnu_cxx::__enable_if<__is_integer<_Tp>::__value,
 214:/usr/include/c++/9.2.0/cmath ****                                     double>::__type
 215:/usr/include/c++/9.2.0/cmath ****     cosh(_Tp __x)
 216:/usr/include/c++/9.2.0/cmath ****     { return __builtin_cosh(__x); }
 217:/usr/include/c++/9.2.0/cmath **** 
 218:/usr/include/c++/9.2.0/cmath ****   using ::exp;
 219:/usr/include/c++/9.2.0/cmath **** 
 220:/usr/include/c++/9.2.0/cmath **** #ifndef __CORRECT_ISO_CPP_MATH_H_PROTO
 221:/usr/include/c++/9.2.0/cmath ****   inline _GLIBCXX_CONSTEXPR float
 222:/usr/include/c++/9.2.0/cmath ****   exp(float __x)
 223:/usr/include/c++/9.2.0/cmath ****   { return __builtin_expf(__x); }
 224:/usr/include/c++/9.2.0/cmath **** 
 225:/usr/include/c++/9.2.0/cmath ****   inline _GLIBCXX_CONSTEXPR long double
 226:/usr/include/c++/9.2.0/cmath ****   exp(long double __x)
 227:/usr/include/c++/9.2.0/cmath ****   { return __builtin_expl(__x); }
 228:/usr/include/c++/9.2.0/cmath **** #endif
 229:/usr/include/c++/9.2.0/cmath **** 
 230:/usr/include/c++/9.2.0/cmath ****   template<typename _Tp>
 231:/usr/include/c++/9.2.0/cmath ****     inline _GLIBCXX_CONSTEXPR
 232:/usr/include/c++/9.2.0/cmath ****     typename __gnu_cxx::__enable_if<__is_integer<_Tp>::__value,
 233:/usr/include/c++/9.2.0/cmath ****                                     double>::__type
 234:/usr/include/c++/9.2.0/cmath ****     exp(_Tp __x)
 235:/usr/include/c++/9.2.0/cmath ****     { return __builtin_exp(__x); }
 236:/usr/include/c++/9.2.0/cmath **** 
 237:/usr/include/c++/9.2.0/cmath ****   using ::fabs;
 238:/usr/include/c++/9.2.0/cmath **** 
 239:/usr/include/c++/9.2.0/cmath **** #ifndef __CORRECT_ISO_CPP_MATH_H_PROTO
 240:/usr/include/c++/9.2.0/cmath ****   inline _GLIBCXX_CONSTEXPR float
 241:/usr/include/c++/9.2.0/cmath ****   fabs(float __x)
 242:/usr/include/c++/9.2.0/cmath ****   { return __builtin_fabsf(__x); }
GAS LISTING /tmp/ccLSN4nF.s 			page 12


 243:/usr/include/c++/9.2.0/cmath **** 
 244:/usr/include/c++/9.2.0/cmath ****   inline _GLIBCXX_CONSTEXPR long double
 245:/usr/include/c++/9.2.0/cmath ****   fabs(long double __x)
 246:/usr/include/c++/9.2.0/cmath ****   { return __builtin_fabsl(__x); }
 247:/usr/include/c++/9.2.0/cmath **** #endif
 248:/usr/include/c++/9.2.0/cmath **** 
 249:/usr/include/c++/9.2.0/cmath ****   template<typename _Tp>
 250:/usr/include/c++/9.2.0/cmath ****     inline _GLIBCXX_CONSTEXPR
 251:/usr/include/c++/9.2.0/cmath ****     typename __gnu_cxx::__enable_if<__is_integer<_Tp>::__value,
 252:/usr/include/c++/9.2.0/cmath ****                                     double>::__type
 253:/usr/include/c++/9.2.0/cmath ****     fabs(_Tp __x)
 254:/usr/include/c++/9.2.0/cmath ****     { return __builtin_fabs(__x); }
 255:/usr/include/c++/9.2.0/cmath **** 
 256:/usr/include/c++/9.2.0/cmath ****   using ::floor;
 257:/usr/include/c++/9.2.0/cmath **** 
 258:/usr/include/c++/9.2.0/cmath **** #ifndef __CORRECT_ISO_CPP_MATH_H_PROTO
 259:/usr/include/c++/9.2.0/cmath ****   inline _GLIBCXX_CONSTEXPR float
 260:/usr/include/c++/9.2.0/cmath ****   floor(float __x)
 261:/usr/include/c++/9.2.0/cmath ****   { return __builtin_floorf(__x); }
 262:/usr/include/c++/9.2.0/cmath **** 
 263:/usr/include/c++/9.2.0/cmath ****   inline _GLIBCXX_CONSTEXPR long double
 264:/usr/include/c++/9.2.0/cmath ****   floor(long double __x)
 265:/usr/include/c++/9.2.0/cmath ****   { return __builtin_floorl(__x); }
 266:/usr/include/c++/9.2.0/cmath **** #endif
 267:/usr/include/c++/9.2.0/cmath **** 
 268:/usr/include/c++/9.2.0/cmath ****   template<typename _Tp>
 269:/usr/include/c++/9.2.0/cmath ****     inline _GLIBCXX_CONSTEXPR
 270:/usr/include/c++/9.2.0/cmath ****     typename __gnu_cxx::__enable_if<__is_integer<_Tp>::__value,
 271:/usr/include/c++/9.2.0/cmath ****                                     double>::__type
 272:/usr/include/c++/9.2.0/cmath ****     floor(_Tp __x)
 273:/usr/include/c++/9.2.0/cmath ****     { return __builtin_floor(__x); }
 274:/usr/include/c++/9.2.0/cmath **** 
 275:/usr/include/c++/9.2.0/cmath ****   using ::fmod;
 276:/usr/include/c++/9.2.0/cmath **** 
 277:/usr/include/c++/9.2.0/cmath **** #ifndef __CORRECT_ISO_CPP_MATH_H_PROTO
 278:/usr/include/c++/9.2.0/cmath ****   inline _GLIBCXX_CONSTEXPR float
 279:/usr/include/c++/9.2.0/cmath ****   fmod(float __x, float __y)
 280:/usr/include/c++/9.2.0/cmath ****   { return __builtin_fmodf(__x, __y); }
 281:/usr/include/c++/9.2.0/cmath **** 
 282:/usr/include/c++/9.2.0/cmath ****   inline _GLIBCXX_CONSTEXPR long double
 283:/usr/include/c++/9.2.0/cmath ****   fmod(long double __x, long double __y)
 284:/usr/include/c++/9.2.0/cmath ****   { return __builtin_fmodl(__x, __y); }
 285:/usr/include/c++/9.2.0/cmath **** #endif
 286:/usr/include/c++/9.2.0/cmath **** 
 287:/usr/include/c++/9.2.0/cmath ****   template<typename _Tp, typename _Up>
 288:/usr/include/c++/9.2.0/cmath ****     inline _GLIBCXX_CONSTEXPR
 289:/usr/include/c++/9.2.0/cmath ****     typename __gnu_cxx::__promote_2<_Tp, _Up>::__type
 290:/usr/include/c++/9.2.0/cmath ****     fmod(_Tp __x, _Up __y)
 291:/usr/include/c++/9.2.0/cmath ****     {
 292:/usr/include/c++/9.2.0/cmath ****       typedef typename __gnu_cxx::__promote_2<_Tp, _Up>::__type __type;
 293:/usr/include/c++/9.2.0/cmath ****       return fmod(__type(__x), __type(__y));
 294:/usr/include/c++/9.2.0/cmath ****     }
 295:/usr/include/c++/9.2.0/cmath **** 
 296:/usr/include/c++/9.2.0/cmath ****   using ::frexp;
 297:/usr/include/c++/9.2.0/cmath **** 
 298:/usr/include/c++/9.2.0/cmath **** #ifndef __CORRECT_ISO_CPP_MATH_H_PROTO
 299:/usr/include/c++/9.2.0/cmath ****   inline float
GAS LISTING /tmp/ccLSN4nF.s 			page 13


 300:/usr/include/c++/9.2.0/cmath ****   frexp(float __x, int* __exp)
 301:/usr/include/c++/9.2.0/cmath ****   { return __builtin_frexpf(__x, __exp); }
 302:/usr/include/c++/9.2.0/cmath **** 
 303:/usr/include/c++/9.2.0/cmath ****   inline long double
 304:/usr/include/c++/9.2.0/cmath ****   frexp(long double __x, int* __exp)
 305:/usr/include/c++/9.2.0/cmath ****   { return __builtin_frexpl(__x, __exp); }
 306:/usr/include/c++/9.2.0/cmath **** #endif
 307:/usr/include/c++/9.2.0/cmath **** 
 308:/usr/include/c++/9.2.0/cmath ****   template<typename _Tp>
 309:/usr/include/c++/9.2.0/cmath ****     inline _GLIBCXX_CONSTEXPR
 310:/usr/include/c++/9.2.0/cmath ****     typename __gnu_cxx::__enable_if<__is_integer<_Tp>::__value, 
 311:/usr/include/c++/9.2.0/cmath ****                                     double>::__type
 312:/usr/include/c++/9.2.0/cmath ****     frexp(_Tp __x, int* __exp)
 313:/usr/include/c++/9.2.0/cmath ****     { return __builtin_frexp(__x, __exp); }
 314:/usr/include/c++/9.2.0/cmath **** 
 315:/usr/include/c++/9.2.0/cmath ****   using ::ldexp;
 316:/usr/include/c++/9.2.0/cmath **** 
 317:/usr/include/c++/9.2.0/cmath **** #ifndef __CORRECT_ISO_CPP_MATH_H_PROTO
 318:/usr/include/c++/9.2.0/cmath ****   inline _GLIBCXX_CONSTEXPR float
 319:/usr/include/c++/9.2.0/cmath ****   ldexp(float __x, int __exp)
 320:/usr/include/c++/9.2.0/cmath ****   { return __builtin_ldexpf(__x, __exp); }
 321:/usr/include/c++/9.2.0/cmath **** 
 322:/usr/include/c++/9.2.0/cmath ****   inline _GLIBCXX_CONSTEXPR long double
 323:/usr/include/c++/9.2.0/cmath ****   ldexp(long double __x, int __exp)
 324:/usr/include/c++/9.2.0/cmath ****   { return __builtin_ldexpl(__x, __exp); }
 325:/usr/include/c++/9.2.0/cmath **** #endif
 326:/usr/include/c++/9.2.0/cmath **** 
 327:/usr/include/c++/9.2.0/cmath ****   template<typename _Tp>
 328:/usr/include/c++/9.2.0/cmath ****     inline _GLIBCXX_CONSTEXPR
 329:/usr/include/c++/9.2.0/cmath ****     typename __gnu_cxx::__enable_if<__is_integer<_Tp>::__value, 
 330:/usr/include/c++/9.2.0/cmath ****                                     double>::__type
 331:/usr/include/c++/9.2.0/cmath ****     ldexp(_Tp __x, int __exp)
 332:/usr/include/c++/9.2.0/cmath ****     { return __builtin_ldexp(__x, __exp); }
 333:/usr/include/c++/9.2.0/cmath **** 
 334:/usr/include/c++/9.2.0/cmath ****   using ::log;
 335:/usr/include/c++/9.2.0/cmath **** 
 336:/usr/include/c++/9.2.0/cmath **** #ifndef __CORRECT_ISO_CPP_MATH_H_PROTO
 337:/usr/include/c++/9.2.0/cmath ****   inline _GLIBCXX_CONSTEXPR float
 338:/usr/include/c++/9.2.0/cmath ****   log(float __x)
 339:/usr/include/c++/9.2.0/cmath ****   { return __builtin_logf(__x); }
 340:/usr/include/c++/9.2.0/cmath **** 
 341:/usr/include/c++/9.2.0/cmath ****   inline _GLIBCXX_CONSTEXPR long double
 342:/usr/include/c++/9.2.0/cmath ****   log(long double __x)
 343:/usr/include/c++/9.2.0/cmath ****   { return __builtin_logl(__x); }
 344:/usr/include/c++/9.2.0/cmath **** #endif
 345:/usr/include/c++/9.2.0/cmath **** 
 346:/usr/include/c++/9.2.0/cmath ****   template<typename _Tp>
 347:/usr/include/c++/9.2.0/cmath ****     inline _GLIBCXX_CONSTEXPR
 348:/usr/include/c++/9.2.0/cmath ****     typename __gnu_cxx::__enable_if<__is_integer<_Tp>::__value, 
 349:/usr/include/c++/9.2.0/cmath ****                                     double>::__type
 350:/usr/include/c++/9.2.0/cmath ****     log(_Tp __x)
 351:/usr/include/c++/9.2.0/cmath ****     { return __builtin_log(__x); }
 352:/usr/include/c++/9.2.0/cmath **** 
 353:/usr/include/c++/9.2.0/cmath ****   using ::log10;
 354:/usr/include/c++/9.2.0/cmath **** 
 355:/usr/include/c++/9.2.0/cmath **** #ifndef __CORRECT_ISO_CPP_MATH_H_PROTO
 356:/usr/include/c++/9.2.0/cmath ****   inline _GLIBCXX_CONSTEXPR float
GAS LISTING /tmp/ccLSN4nF.s 			page 14


 357:/usr/include/c++/9.2.0/cmath ****   log10(float __x)
 358:/usr/include/c++/9.2.0/cmath ****   { return __builtin_log10f(__x); }
 359:/usr/include/c++/9.2.0/cmath **** 
 360:/usr/include/c++/9.2.0/cmath ****   inline _GLIBCXX_CONSTEXPR long double
 361:/usr/include/c++/9.2.0/cmath ****   log10(long double __x)
 362:/usr/include/c++/9.2.0/cmath ****   { return __builtin_log10l(__x); }
 363:/usr/include/c++/9.2.0/cmath **** #endif
 364:/usr/include/c++/9.2.0/cmath **** 
 365:/usr/include/c++/9.2.0/cmath ****   template<typename _Tp>
 366:/usr/include/c++/9.2.0/cmath ****     inline _GLIBCXX_CONSTEXPR
 367:/usr/include/c++/9.2.0/cmath ****     typename __gnu_cxx::__enable_if<__is_integer<_Tp>::__value,
 368:/usr/include/c++/9.2.0/cmath ****                                     double>::__type
 369:/usr/include/c++/9.2.0/cmath ****     log10(_Tp __x)
 370:/usr/include/c++/9.2.0/cmath ****     { return __builtin_log10(__x); }
 371:/usr/include/c++/9.2.0/cmath **** 
 372:/usr/include/c++/9.2.0/cmath ****   using ::modf;
 373:/usr/include/c++/9.2.0/cmath **** 
 374:/usr/include/c++/9.2.0/cmath **** #ifndef __CORRECT_ISO_CPP_MATH_H_PROTO
 375:/usr/include/c++/9.2.0/cmath ****   inline float
 376:/usr/include/c++/9.2.0/cmath ****   modf(float __x, float* __iptr)
 377:/usr/include/c++/9.2.0/cmath ****   { return __builtin_modff(__x, __iptr); }
 378:/usr/include/c++/9.2.0/cmath **** 
 379:/usr/include/c++/9.2.0/cmath ****   inline long double
 380:/usr/include/c++/9.2.0/cmath ****   modf(long double __x, long double* __iptr)
 381:/usr/include/c++/9.2.0/cmath ****   { return __builtin_modfl(__x, __iptr); }
 382:/usr/include/c++/9.2.0/cmath **** #endif
 383:/usr/include/c++/9.2.0/cmath **** 
 384:/usr/include/c++/9.2.0/cmath ****   using ::pow;
 385:/usr/include/c++/9.2.0/cmath **** 
 386:/usr/include/c++/9.2.0/cmath **** #ifndef __CORRECT_ISO_CPP_MATH_H_PROTO
 387:/usr/include/c++/9.2.0/cmath ****   inline _GLIBCXX_CONSTEXPR float
 388:/usr/include/c++/9.2.0/cmath ****   pow(float __x, float __y)
 389:/usr/include/c++/9.2.0/cmath ****   { return __builtin_powf(__x, __y); }
 390:/usr/include/c++/9.2.0/cmath **** 
 391:/usr/include/c++/9.2.0/cmath ****   inline _GLIBCXX_CONSTEXPR long double
 392:/usr/include/c++/9.2.0/cmath ****   pow(long double __x, long double __y)
 393:/usr/include/c++/9.2.0/cmath ****   { return __builtin_powl(__x, __y); }
 394:/usr/include/c++/9.2.0/cmath **** 
 395:/usr/include/c++/9.2.0/cmath **** #if __cplusplus < 201103L
 396:/usr/include/c++/9.2.0/cmath ****   // _GLIBCXX_RESOLVE_LIB_DEFECTS
 397:/usr/include/c++/9.2.0/cmath ****   // DR 550. What should the return type of pow(float,int) be?
 398:/usr/include/c++/9.2.0/cmath ****   inline double
 399:/usr/include/c++/9.2.0/cmath ****   pow(double __x, int __i)
 400:/usr/include/c++/9.2.0/cmath ****   { return __builtin_powi(__x, __i); }
 401:/usr/include/c++/9.2.0/cmath **** 
 402:/usr/include/c++/9.2.0/cmath ****   inline float
 403:/usr/include/c++/9.2.0/cmath ****   pow(float __x, int __n)
 404:/usr/include/c++/9.2.0/cmath ****   { return __builtin_powif(__x, __n); }
 405:/usr/include/c++/9.2.0/cmath **** 
 406:/usr/include/c++/9.2.0/cmath ****   inline long double
 407:/usr/include/c++/9.2.0/cmath ****   pow(long double __x, int __n)
 408:/usr/include/c++/9.2.0/cmath ****   { return __builtin_powil(__x, __n); }
 409:/usr/include/c++/9.2.0/cmath **** #endif
 410:/usr/include/c++/9.2.0/cmath **** #endif
 411:/usr/include/c++/9.2.0/cmath **** 
 412:/usr/include/c++/9.2.0/cmath ****   template<typename _Tp, typename _Up>
 413:/usr/include/c++/9.2.0/cmath ****     inline _GLIBCXX_CONSTEXPR
GAS LISTING /tmp/ccLSN4nF.s 			page 15


 414:/usr/include/c++/9.2.0/cmath ****     typename __gnu_cxx::__promote_2<_Tp, _Up>::__type
 415:/usr/include/c++/9.2.0/cmath ****     pow(_Tp __x, _Up __y)
 184              		.loc 3 415 5 is_stmt 1 view .LVU50
 185              	.LBB15:
 416:/usr/include/c++/9.2.0/cmath ****     {
 417:/usr/include/c++/9.2.0/cmath ****       typedef typename __gnu_cxx::__promote_2<_Tp, _Up>::__type __type;
 418:/usr/include/c++/9.2.0/cmath ****       return pow(__type(__x), __type(__y));
 186              		.loc 3 418 17 is_stmt 0 view .LVU51
 187 00c6 F30F5AC0 		cvtss2sd	%xmm0, %xmm0
 188              	.LVL20:
 189              		.loc 3 418 17 view .LVU52
 190 00ca 488B0500 		movq	.LC2(%rip), %rax
 190      000000
 191 00d1 66480F6E 		movq	%rax, %xmm1
 191      C8
 192 00d6 E8000000 		call	pow@PLT
 192      00
 193              	.LVL21:
 194              		.loc 3 418 17 view .LVU53
 195 00db F20F1144 		movsd	%xmm0, 8(%rsp)
 195      2408
 196              	.LVL22:
 197              		.loc 3 418 17 view .LVU54
 198              	.LBE15:
 199              	.LBE14:
  68:Src/pathfinder.cpp ****         return sqrt(pow(start->c.x - end->c.x, 2) + pow(start->c.y - end->c.y, 2));
 200              		.loc 1 68 66 view .LVU55
 201 00e1 F30F1045 		movss	20(%rbp), %xmm0
 201      14
  68:Src/pathfinder.cpp ****         return sqrt(pow(start->c.x - end->c.x, 2) + pow(start->c.y - end->c.y, 2));
 202              		.loc 1 68 56 view .LVU56
 203 00e6 F30F5C43 		subss	20(%rbx), %xmm0
 203      14
 204              	.LVL23:
 205              	.LBB16:
 206              	.LBI16:
 415:/usr/include/c++/9.2.0/cmath ****     {
 207              		.loc 3 415 5 is_stmt 1 view .LVU57
 208              	.LBB17:
 209              		.loc 3 418 17 is_stmt 0 view .LVU58
 210 00eb F30F5AC0 		cvtss2sd	%xmm0, %xmm0
 211              	.LVL24:
 212              		.loc 3 418 17 view .LVU59
 213 00ef 488B0500 		movq	.LC2(%rip), %rax
 213      000000
 214 00f6 66480F6E 		movq	%rax, %xmm1
 214      C8
 215 00fb E8000000 		call	pow@PLT
 215      00
 216              	.LVL25:
 217              		.loc 3 418 17 view .LVU60
 218              	.LBE17:
 219              	.LBE16:
  68:Src/pathfinder.cpp ****         return sqrt(pow(start->c.x - end->c.x, 2) + pow(start->c.y - end->c.y, 2));
 220              		.loc 1 68 20 view .LVU61
 221 0100 F20F5844 		addsd	8(%rsp), %xmm0
 221      2408
GAS LISTING /tmp/ccLSN4nF.s 			page 16


 222 0106 E8000000 		call	sqrt@PLT
 222      00
 223              	.LVL26:
  68:Src/pathfinder.cpp ****         return sqrt(pow(start->c.x - end->c.x, 2) + pow(start->c.y - end->c.y, 2));
 224              		.loc 1 68 82 view .LVU62
 225 010b F20F5AC0 		cvtsd2ss	%xmm0, %xmm0
  69:Src/pathfinder.cpp ****     }
 226              		.loc 1 69 5 view .LVU63
 227 010f 4883C418 		addq	$24, %rsp
 228              		.cfi_def_cfa_offset 24
 229 0113 5B       		popq	%rbx
 230              		.cfi_def_cfa_offset 16
 231              	.LVL27:
  69:Src/pathfinder.cpp ****     }
 232              		.loc 1 69 5 view .LVU64
 233 0114 5D       		popq	%rbp
 234              		.cfi_def_cfa_offset 8
 235              	.LVL28:
  69:Src/pathfinder.cpp ****     }
 236              		.loc 1 69 5 view .LVU65
 237 0115 C3       		ret
 238              		.cfi_endproc
 239              	.LFE1724:
 241              		.globl	_ZN10pathfinder12calculateWayEm
 243              	_ZN10pathfinder12calculateWayEm:
 244              	.LVL29:
 245              	.LFB1723:
  36:Src/pathfinder.cpp ****     {
 246              		.loc 1 36 5 is_stmt 1 view -0
 247              		.cfi_startproc
  36:Src/pathfinder.cpp ****     {
 248              		.loc 1 36 5 is_stmt 0 view .LVU67
 249 0116 4155     		pushq	%r13
 250              		.cfi_def_cfa_offset 16
 251              		.cfi_offset 13, -16
 252 0118 4154     		pushq	%r12
 253              		.cfi_def_cfa_offset 24
 254              		.cfi_offset 12, -24
 255 011a 55       		pushq	%rbp
 256              		.cfi_def_cfa_offset 32
 257              		.cfi_offset 6, -32
 258 011b 53       		pushq	%rbx
 259              		.cfi_def_cfa_offset 40
 260              		.cfi_offset 3, -40
 261 011c 4883EC08 		subq	$8, %rsp
 262              		.cfi_def_cfa_offset 48
  37:Src/pathfinder.cpp ****         if(graph[index] == NULL || graph[index]->calculated)
 263              		.loc 1 37 9 is_stmt 1 view .LVU68
  37:Src/pathfinder.cpp ****         if(graph[index] == NULL || graph[index]->calculated)
 264              		.loc 1 37 23 is_stmt 0 view .LVU69
 265 0120 4C8D24FD 		leaq	0(,%rdi,8), %r12
 265      00000000 
 266 0128 4C89E2   		movq	%r12, %rdx
 267 012b 48031500 		addq	graph(%rip), %rdx
 267      000000
 268 0132 488B02   		movq	(%rdx), %rax
  37:Src/pathfinder.cpp ****         if(graph[index] == NULL || graph[index]->calculated)
GAS LISTING /tmp/ccLSN4nF.s 			page 17


 269              		.loc 1 37 9 view .LVU70
 270 0135 4885C0   		testq	%rax, %rax
 271 0138 0F84AD00 		je	.L20
 271      0000
 272 013e 4989FD   		movq	%rdi, %r13
  37:Src/pathfinder.cpp ****         if(graph[index] == NULL || graph[index]->calculated)
 273              		.loc 1 37 33 discriminator 1 view .LVU71
 274 0141 80781800 		cmpb	$0, 24(%rax)
 275 0145 0F85A000 		jne	.L20
 275      0000
  39:Src/pathfinder.cpp ****         graph[index]->calculated = true;
 276              		.loc 1 39 9 is_stmt 1 view .LVU72
  39:Src/pathfinder.cpp ****         graph[index]->calculated = true;
 277              		.loc 1 39 34 is_stmt 0 view .LVU73
 278 014b C6401801 		movb	$1, 24(%rax)
  41:Src/pathfinder.cpp ****         if(graph[index]->numOfTargets == 0)
 279              		.loc 1 41 9 is_stmt 1 view .LVU74
  41:Src/pathfinder.cpp ****         if(graph[index]->numOfTargets == 0)
 280              		.loc 1 41 23 is_stmt 0 view .LVU75
 281 014f 488B02   		movq	(%rdx), %rax
  41:Src/pathfinder.cpp ****         if(graph[index]->numOfTargets == 0)
 282              		.loc 1 41 9 view .LVU76
 283 0152 48837808 		cmpq	$0, 8(%rax)
 283      00
 284 0157 0F848E00 		je	.L20
 284      0000
 285              	.LBB18:
  47:Src/pathfinder.cpp ****         for(size_t i = 0; i < graph[index]->numOfTargets; i++)
 286              		.loc 1 47 20 view .LVU77
 287 015d BB000000 		movl	$0, %ebx
 287      00
 288 0162 EB04     		jmp	.L25
 289              	.LVL30:
 290              	.L23:
  47:Src/pathfinder.cpp ****         for(size_t i = 0; i < graph[index]->numOfTargets; i++)
 291              		.loc 1 47 9 is_stmt 1 discriminator 2 view .LVU78
 292 0164 4883C301 		addq	$1, %rbx
 293              	.LVL31:
 294              	.L25:
  47:Src/pathfinder.cpp ****         for(size_t i = 0; i < graph[index]->numOfTargets; i++)
 295              		.loc 1 47 29 discriminator 1 view .LVU79
  47:Src/pathfinder.cpp ****         for(size_t i = 0; i < graph[index]->numOfTargets; i++)
 296              		.loc 1 47 42 is_stmt 0 discriminator 1 view .LVU80
 297 0168 488B0500 		movq	graph(%rip), %rax
 297      000000
 298 016f 4A8B3C20 		movq	(%rax,%r12), %rdi
  47:Src/pathfinder.cpp ****         for(size_t i = 0; i < graph[index]->numOfTargets; i++)
 299              		.loc 1 47 29 discriminator 1 view .LVU81
 300 0173 48395F08 		cmpq	%rbx, 8(%rdi)
 301 0177 7646     		jbe	.L22
  49:Src/pathfinder.cpp ****             watch = graph[index]->targets[i];
 302              		.loc 1 49 13 is_stmt 1 view .LVU82
  49:Src/pathfinder.cpp ****             watch = graph[index]->targets[i];
 303              		.loc 1 49 44 is_stmt 0 view .LVU83
 304 0179 488D04DD 		leaq	0(,%rbx,8), %rax
 304      00000000 
 305 0181 480307   		addq	(%rdi), %rax
GAS LISTING /tmp/ccLSN4nF.s 			page 18


  49:Src/pathfinder.cpp ****             watch = graph[index]->targets[i];
 306              		.loc 1 49 19 view .LVU84
 307 0184 488B28   		movq	(%rax), %rbp
 308              	.LVL32:
  50:Src/pathfinder.cpp ****             w = getWayPrice(graph[index], watch);
 309              		.loc 1 50 13 is_stmt 1 view .LVU85
  50:Src/pathfinder.cpp ****             w = getWayPrice(graph[index], watch);
 310              		.loc 1 50 28 is_stmt 0 view .LVU86
 311 0187 4889EE   		movq	%rbp, %rsi
 312 018a E8000000 		call	_ZN10pathfinder11getWayPriceEPN5bases10graphPointES2_
 312      00
 313              	.LVL33:
  51:Src/pathfinder.cpp ****             if(watch->weight > graph[index]->weight + w)
 314              		.loc 1 51 13 is_stmt 1 view .LVU87
  51:Src/pathfinder.cpp ****             if(watch->weight > graph[index]->weight + w)
 315              		.loc 1 51 23 is_stmt 0 view .LVU88
 316 018f F30F104D 		movss	28(%rbp), %xmm1
 316      1C
  51:Src/pathfinder.cpp ****             if(watch->weight > graph[index]->weight + w)
 317              		.loc 1 51 43 view .LVU89
 318 0194 488B0500 		movq	graph(%rip), %rax
 318      000000
 319 019b 4A8B0420 		movq	(%rax,%r12), %rax
  51:Src/pathfinder.cpp ****             if(watch->weight > graph[index]->weight + w)
 320              		.loc 1 51 53 view .LVU90
 321 019f F30F5840 		addss	28(%rax), %xmm0
 321      1C
 322              	.LVL34:
  51:Src/pathfinder.cpp ****             if(watch->weight > graph[index]->weight + w)
 323              		.loc 1 51 13 view .LVU91
 324 01a4 0F2FC8   		comiss	%xmm0, %xmm1
 325 01a7 76BB     		jbe	.L23
  53:Src/pathfinder.cpp ****                 watch->weight = w + graph[index]->weight;
 326              		.loc 1 53 17 is_stmt 1 view .LVU92
  53:Src/pathfinder.cpp ****                 watch->weight = w + graph[index]->weight;
 327              		.loc 1 53 31 is_stmt 0 view .LVU93
 328 01a9 F30F1145 		movss	%xmm0, 28(%rbp)
 328      1C
  54:Src/pathfinder.cpp ****                 ways[watch->i] = index;
 329              		.loc 1 54 17 is_stmt 1 view .LVU94
  54:Src/pathfinder.cpp ****                 ways[watch->i] = index;
 330              		.loc 1 54 29 is_stmt 0 view .LVU95
 331 01ae 488B5520 		movq	32(%rbp), %rdx
  54:Src/pathfinder.cpp ****                 ways[watch->i] = index;
 332              		.loc 1 54 32 view .LVU96
 333 01b2 488B0500 		movq	ways(%rip), %rax
 333      000000
 334 01b9 4C892CD0 		movq	%r13, (%rax,%rdx,8)
 335 01bd EBA5     		jmp	.L23
 336              	.LVL35:
 337              	.L22:
  54:Src/pathfinder.cpp ****                 ways[watch->i] = index;
 338              		.loc 1 54 32 view .LVU97
 339              	.LBE18:
  58:Src/pathfinder.cpp ****         while (hasUncalculatedPoints(graph[index]))
 340              		.loc 1 58 9 is_stmt 1 view .LVU98
  58:Src/pathfinder.cpp ****         while (hasUncalculatedPoints(graph[index]))
GAS LISTING /tmp/ccLSN4nF.s 			page 19


 341              		.loc 1 58 37 view .LVU99
  58:Src/pathfinder.cpp ****         while (hasUncalculatedPoints(graph[index]))
 342              		.loc 1 58 49 is_stmt 0 view .LVU100
 343 01bf 4C89E0   		movq	%r12, %rax
 344 01c2 48030500 		addq	graph(%rip), %rax
 344      000000
  58:Src/pathfinder.cpp ****         while (hasUncalculatedPoints(graph[index]))
 345              		.loc 1 58 37 view .LVU101
 346 01c9 488B18   		movq	(%rax), %rbx
 347 01cc 4889DF   		movq	%rbx, %rdi
 348 01cf E8000000 		call	_ZN10pathfinder21hasUncalculatedPointsEPKN5bases10graphPointE
 348      00
 349              	.LVL36:
 350 01d4 84C0     		testb	%al, %al
 351 01d6 7413     		je	.L20
  60:Src/pathfinder.cpp ****             watch = getMinTarget(graph[index]);
 352              		.loc 1 60 13 is_stmt 1 view .LVU102
  60:Src/pathfinder.cpp ****             watch = getMinTarget(graph[index]);
 353              		.loc 1 60 33 is_stmt 0 view .LVU103
 354 01d8 4889DF   		movq	%rbx, %rdi
 355 01db E8000000 		call	_ZN10pathfinder12getMinTargetEPKN5bases10graphPointE
 355      00
 356              	.LVL37:
  61:Src/pathfinder.cpp ****             calculateWay(watch->i);
 357              		.loc 1 61 13 is_stmt 1 view .LVU104
  61:Src/pathfinder.cpp ****             calculateWay(watch->i);
 358              		.loc 1 61 25 is_stmt 0 view .LVU105
 359 01e0 488B7820 		movq	32(%rax), %rdi
 360 01e4 E8000000 		call	_ZN10pathfinder12calculateWayEm
 360      00
 361              	.LVL38:
  58:Src/pathfinder.cpp ****         while (hasUncalculatedPoints(graph[index]))
 362              		.loc 1 58 9 view .LVU106
 363 01e9 EBD4     		jmp	.L22
 364              	.LVL39:
 365              	.L20:
  63:Src/pathfinder.cpp ****     }
 366              		.loc 1 63 5 view .LVU107
 367 01eb 4883C408 		addq	$8, %rsp
 368              		.cfi_def_cfa_offset 40
 369 01ef 5B       		popq	%rbx
 370              		.cfi_def_cfa_offset 32
 371 01f0 5D       		popq	%rbp
 372              		.cfi_def_cfa_offset 24
 373 01f1 415C     		popq	%r12
 374              		.cfi_def_cfa_offset 16
 375 01f3 415D     		popq	%r13
 376              		.cfi_def_cfa_offset 8
 377 01f5 C3       		ret
 378              		.cfi_endproc
 379              	.LFE1723:
 381              		.globl	_ZN10pathfinder11getWayPriceEPN5bases6coordsES2_
 383              	_ZN10pathfinder11getWayPriceEPN5bases6coordsES2_:
 384              	.LVL40:
 385              	.LFB1726:
  72:Src/pathfinder.cpp ****     {
 386              		.loc 1 72 5 is_stmt 1 view -0
GAS LISTING /tmp/ccLSN4nF.s 			page 20


 387              		.cfi_startproc
  72:Src/pathfinder.cpp ****     {
 388              		.loc 1 72 5 is_stmt 0 view .LVU109
 389 01f6 55       		pushq	%rbp
 390              		.cfi_def_cfa_offset 16
 391              		.cfi_offset 6, -16
 392 01f7 53       		pushq	%rbx
 393              		.cfi_def_cfa_offset 24
 394              		.cfi_offset 3, -24
 395 01f8 4883EC18 		subq	$24, %rsp
 396              		.cfi_def_cfa_offset 48
 397 01fc 4889FD   		movq	%rdi, %rbp
 398 01ff 4889F3   		movq	%rsi, %rbx
  73:Src/pathfinder.cpp ****         return sqrt(pow(start->x - end->x, 2) + pow(start->y - end->y, 2));
 399              		.loc 1 73 9 is_stmt 1 view .LVU110
  73:Src/pathfinder.cpp ****         return sqrt(pow(start->x - end->x, 2) + pow(start->y - end->y, 2));
 400              		.loc 1 73 32 is_stmt 0 view .LVU111
 401 0202 F30F1007 		movss	(%rdi), %xmm0
  73:Src/pathfinder.cpp ****         return sqrt(pow(start->x - end->x, 2) + pow(start->y - end->y, 2));
 402              		.loc 1 73 24 view .LVU112
 403 0206 F30F5C06 		subss	(%rsi), %xmm0
 404              	.LVL41:
 405              	.LBB19:
 406              	.LBI19:
 415:/usr/include/c++/9.2.0/cmath ****     {
 407              		.loc 3 415 5 is_stmt 1 view .LVU113
 408              	.LBB20:
 409              		.loc 3 418 17 is_stmt 0 view .LVU114
 410 020a F30F5AC0 		cvtss2sd	%xmm0, %xmm0
 411              	.LVL42:
 412              		.loc 3 418 17 view .LVU115
 413 020e 488B0500 		movq	.LC2(%rip), %rax
 413      000000
 414 0215 66480F6E 		movq	%rax, %xmm1
 414      C8
 415 021a E8000000 		call	pow@PLT
 415      00
 416              	.LVL43:
 417              		.loc 3 418 17 view .LVU116
 418 021f F20F1144 		movsd	%xmm0, 8(%rsp)
 418      2408
 419              	.LVL44:
 420              		.loc 3 418 17 view .LVU117
 421              	.LBE20:
 422              	.LBE19:
  73:Src/pathfinder.cpp ****         return sqrt(pow(start->x - end->x, 2) + pow(start->y - end->y, 2));
 423              		.loc 1 73 60 view .LVU118
 424 0225 F30F1045 		movss	4(%rbp), %xmm0
 424      04
  73:Src/pathfinder.cpp ****         return sqrt(pow(start->x - end->x, 2) + pow(start->y - end->y, 2));
 425              		.loc 1 73 52 view .LVU119
 426 022a F30F5C43 		subss	4(%rbx), %xmm0
 426      04
 427              	.LVL45:
 428              	.LBB21:
 429              	.LBI21:
 415:/usr/include/c++/9.2.0/cmath ****     {
GAS LISTING /tmp/ccLSN4nF.s 			page 21


 430              		.loc 3 415 5 is_stmt 1 view .LVU120
 431              	.LBB22:
 432              		.loc 3 418 17 is_stmt 0 view .LVU121
 433 022f F30F5AC0 		cvtss2sd	%xmm0, %xmm0
 434              	.LVL46:
 435              		.loc 3 418 17 view .LVU122
 436 0233 488B0500 		movq	.LC2(%rip), %rax
 436      000000
 437 023a 66480F6E 		movq	%rax, %xmm1
 437      C8
 438 023f E8000000 		call	pow@PLT
 438      00
 439              	.LVL47:
 440              		.loc 3 418 17 view .LVU123
 441              	.LBE22:
 442              	.LBE21:
  73:Src/pathfinder.cpp ****         return sqrt(pow(start->x - end->x, 2) + pow(start->y - end->y, 2));
 443              		.loc 1 73 20 view .LVU124
 444 0244 F20F5844 		addsd	8(%rsp), %xmm0
 444      2408
 445 024a E8000000 		call	sqrt@PLT
 445      00
 446              	.LVL48:
  73:Src/pathfinder.cpp ****         return sqrt(pow(start->x - end->x, 2) + pow(start->y - end->y, 2));
 447              		.loc 1 73 74 view .LVU125
 448 024f F20F5AC0 		cvtsd2ss	%xmm0, %xmm0
  74:Src/pathfinder.cpp ****     }
 449              		.loc 1 74 5 view .LVU126
 450 0253 4883C418 		addq	$24, %rsp
 451              		.cfi_def_cfa_offset 24
 452 0257 5B       		popq	%rbx
 453              		.cfi_def_cfa_offset 16
 454              	.LVL49:
  74:Src/pathfinder.cpp ****     }
 455              		.loc 1 74 5 view .LVU127
 456 0258 5D       		popq	%rbp
 457              		.cfi_def_cfa_offset 8
 458              	.LVL50:
  74:Src/pathfinder.cpp ****     }
 459              		.loc 1 74 5 view .LVU128
 460 0259 C3       		ret
 461              		.cfi_endproc
 462              	.LFE1726:
 465              	_GLOBAL__sub_I__ZN10pathfinder21hasUncalculatedPointsEPKN5bases10graphPointE:
 466              	.LFB2044:
 467              		.loc 1 76 1 is_stmt 1 view -0
 468              		.cfi_startproc
 469 025a 4883EC08 		subq	$8, %rsp
 470              		.cfi_def_cfa_offset 16
 471              		.loc 1 76 1 is_stmt 0 view .LVU130
 472 025e BEFFFF00 		movl	$65535, %esi
 472      00
 473 0263 BF010000 		movl	$1, %edi
 473      00
 474 0268 E893FDFF 		call	_Z41__static_initialization_and_destruction_0ii
 474      FF
 475              	.LVL51:
GAS LISTING /tmp/ccLSN4nF.s 			page 22


 476 026d 4883C408 		addq	$8, %rsp
 477              		.cfi_def_cfa_offset 8
 478 0271 C3       		ret
 479              		.cfi_endproc
 480              	.LFE2044:
 482              		.section	.init_array,"aw"
 483              		.align 8
 484 0000 00000000 		.quad	_GLOBAL__sub_I__ZN10pathfinder21hasUncalculatedPointsEPKN5bases10graphPointE
 484      00000000 
 485              		.local	_ZStL8__ioinit
 486              		.comm	_ZStL8__ioinit,1,1
 487              		.section	.rodata.cst4,"aM",@progbits,4
 488              		.align 4
 489              	.LC0:
 490 0000 0000803F 		.long	1065353216
 491              		.align 4
 492              	.LC1:
 493 0004 00000000 		.long	0
 494              		.section	.rodata.cst8,"aM",@progbits,8
 495              		.align 8
 496              	.LC2:
 497 0000 00000000 		.long	0
 498 0004 00000040 		.long	1073741824
 499              		.text
 500              	.Letext0:
 501              		.file 4 "/usr/include/c++/9.2.0/cwchar"
 502              		.file 5 "/usr/include/c++/9.2.0/new"
 503              		.file 6 "/usr/include/c++/9.2.0/bits/exception_ptr.h"
 504              		.file 7 "/usr/include/c++/9.2.0/type_traits"
 505              		.file 8 "/usr/include/c++/9.2.0/x86_64-pc-linux-gnu/bits/c++config.h"
 506              		.file 9 "/usr/include/c++/9.2.0/bits/stl_pair.h"
 507              		.file 10 "/usr/include/c++/9.2.0/debug/debug.h"
 508              		.file 11 "/usr/include/c++/9.2.0/bits/char_traits.h"
 509              		.file 12 "/usr/include/c++/9.2.0/cstdint"
 510              		.file 13 "/usr/include/c++/9.2.0/clocale"
 511              		.file 14 "/usr/include/c++/9.2.0/cstdlib"
 512              		.file 15 "/usr/include/c++/9.2.0/cstdio"
 513              		.file 16 "/usr/include/c++/9.2.0/system_error"
 514              		.file 17 "/usr/include/c++/9.2.0/bits/ios_base.h"
 515              		.file 18 "/usr/include/c++/9.2.0/cwctype"
 516              		.file 19 "/usr/include/c++/9.2.0/iosfwd"
 517              		.file 20 "/usr/include/c++/9.2.0/bits/std_abs.h"
 518              		.file 21 "/usr/include/c++/9.2.0/bits/predefined_ops.h"
 519              		.file 22 "/usr/include/c++/9.2.0/ext/new_allocator.h"
 520              		.file 23 "/usr/include/c++/9.2.0/ext/numeric_traits.h"
 521              		.file 24 "/usr/include/c++/9.2.0/ext/type_traits.h"
 522              		.file 25 "/usr/lib/gcc/x86_64-pc-linux-gnu/9.2.0/include/stddef.h"
 523              		.file 26 "<built-in>"
 524              		.file 27 "/usr/include/bits/types/wint_t.h"
 525              		.file 28 "/usr/include/bits/types/__mbstate_t.h"
 526              		.file 29 "/usr/include/bits/types/mbstate_t.h"
 527              		.file 30 "/usr/include/bits/types/__FILE.h"
 528              		.file 31 "/usr/include/bits/types/struct_FILE.h"
 529              		.file 32 "/usr/include/bits/types/FILE.h"
 530              		.file 33 "/usr/include/wchar.h"
 531              		.file 34 "/usr/include/bits/types/struct_tm.h"
 532              		.file 35 "/usr/include/bits/types.h"
GAS LISTING /tmp/ccLSN4nF.s 			page 23


 533              		.file 36 "/usr/include/bits/stdint-intn.h"
 534              		.file 37 "/usr/include/bits/stdint-uintn.h"
 535              		.file 38 "/usr/include/stdint.h"
 536              		.file 39 "/usr/include/locale.h"
 537              		.file 40 "/usr/include/time.h"
 538              		.file 41 "/usr/include/c++/9.2.0/x86_64-pc-linux-gnu/bits/atomic_word.h"
 539              		.file 42 "/usr/include/stdlib.h"
 540              		.file 43 "/usr/include/bits/stdlib-float.h"
 541              		.file 44 "/usr/include/bits/stdlib-bsearch.h"
 542              		.file 45 "/usr/include/bits/types/__fpos_t.h"
 543              		.file 46 "/usr/include/stdio.h"
 544              		.file 47 "/usr/include/bits/sys_errlist.h"
 545              		.file 48 "/usr/include/bits/stdio.h"
 546              		.file 49 "/usr/include/errno.h"
 547              		.file 50 "/usr/include/bits/wctype-wchar.h"
 548              		.file 51 "/usr/include/wctype.h"
 549              		.file 52 "/usr/include/c++/9.2.0/stdlib.h"
 550              		.file 53 "/usr/include/unistd.h"
 551              		.file 54 "/usr/include/bits/getopt_core.h"
 552              		.file 55 "/usr/include/math.h"
 553              		.file 56 "/usr/include/c++/9.2.0/math.h"
 554              		.file 57 "/usr/include/bits/mathcalls.h"
 555              		.file 58 "Includes/bases.hpp"
 556              		.file 59 "Includes/pathfinder.hpp"
GAS LISTING /tmp/ccLSN4nF.s 			page 24

