GAS LISTING /tmp/cceZA1fz.s 			page 1


   1              		.file	"routines.cpp"
   2              		.text
   3              		.globl	_Z10glSetColorj
   5              	_Z10glSetColorj:
   6              	.LFB253:
   7              		.cfi_startproc
   8 0000 4883EC08 		subq	$8, %rsp
   9              		.cfi_def_cfa_offset 16
  10 0004 89F8     		movl	%edi, %eax
  11 0006 400FB6D7 		movzbl	%dil, %edx
  12 000a 660FEFD2 		pxor	%xmm2, %xmm2
  13 000e F3480F2A 		cvtsi2ssq	%rdx, %xmm2
  13      D2
  14 0013 0FB6D4   		movzbl	%ah, %edx
  15 0016 660FEFC9 		pxor	%xmm1, %xmm1
  16 001a F3480F2A 		cvtsi2ssq	%rdx, %xmm1
  16      CA
  17 001f C1E810   		shrl	$16, %eax
  18 0022 0FB6C0   		movzbl	%al, %eax
  19 0025 660FEFC0 		pxor	%xmm0, %xmm0
  20 0029 F3480F2A 		cvtsi2ssq	%rax, %xmm0
  20      C0
  21 002e F30F101D 		movss	.LC0(%rip), %xmm3
  21      00000000 
  22 0036 F30F5EC3 		divss	%xmm3, %xmm0
  23 003a F30F5ED3 		divss	%xmm3, %xmm2
  24 003e F30F5ECB 		divss	%xmm3, %xmm1
  25 0042 E8000000 		call	glColor3f@PLT
  25      00
  26 0047 4883C408 		addq	$8, %rsp
  27              		.cfi_def_cfa_offset 8
  28 004b C3       		ret
  29              		.cfi_endproc
  30              	.LFE253:
  32              		.globl	_Z8drawLineffff
  34              	_Z8drawLineffff:
  35              	.LFB254:
  36              		.cfi_startproc
  37 004c 4883EC18 		subq	$24, %rsp
  38              		.cfi_def_cfa_offset 32
  39 0050 F30F1104 		movss	%xmm0, (%rsp)
  39      24
  40 0055 F30F114C 		movss	%xmm1, 4(%rsp)
  40      2404
  41 005b F30F1154 		movss	%xmm2, 8(%rsp)
  41      2408
  42 0061 F30F115C 		movss	%xmm3, 12(%rsp)
  42      240C
  43 0067 BF010000 		movl	$1, %edi
  43      00
  44 006c E8000000 		call	glBegin@PLT
  44      00
  45 0071 660FEFC0 		pxor	%xmm0, %xmm0
  46 0075 F30F5A04 		cvtss2sd	(%rsp), %xmm0
  46      24
  47 007a 660FEFC9 		pxor	%xmm1, %xmm1
  48 007e F30F5A4C 		cvtss2sd	4(%rsp), %xmm1
GAS LISTING /tmp/cceZA1fz.s 			page 2


  48      2404
  49 0084 E8000000 		call	glVertex2d@PLT
  49      00
  50 0089 660FEFC0 		pxor	%xmm0, %xmm0
  51 008d F30F5A44 		cvtss2sd	8(%rsp), %xmm0
  51      2408
  52 0093 660FEFC9 		pxor	%xmm1, %xmm1
  53 0097 F30F5A4C 		cvtss2sd	12(%rsp), %xmm1
  53      240C
  54 009d E8000000 		call	glVertex2d@PLT
  54      00
  55 00a2 E8000000 		call	glEnd@PLT
  55      00
  56 00a7 4883C418 		addq	$24, %rsp
  57              		.cfi_def_cfa_offset 8
  58 00ab C3       		ret
  59              		.cfi_endproc
  60              	.LFE254:
  62              		.globl	_Z8drawRectffff
  64              	_Z8drawRectffff:
  65              	.LFB255:
  66              		.cfi_startproc
  67 00ac 4883EC38 		subq	$56, %rsp
  68              		.cfi_def_cfa_offset 64
  69 00b0 0F28E0   		movaps	%xmm0, %xmm4
  70 00b3 F30F1005 		movss	.LC1(%rip), %xmm0
  70      00000000 
  71 00bb F30F1154 		movss	%xmm2, 40(%rsp)
  71      2428
  72 00c1 F30F59D0 		mulss	%xmm0, %xmm2
  73 00c5 F30F5CE2 		subss	%xmm2, %xmm4
  74 00c9 F30F1164 		movss	%xmm4, 8(%rsp)
  74      2408
  75 00cf F30F115C 		movss	%xmm3, 44(%rsp)
  75      242C
  76 00d5 F30F59C3 		mulss	%xmm3, %xmm0
  77 00d9 F30F5CC8 		subss	%xmm0, %xmm1
  78 00dd F30F114C 		movss	%xmm1, 16(%rsp)
  78      2410
  79 00e3 BF070000 		movl	$7, %edi
  79      00
  80 00e8 E8000000 		call	glBegin@PLT
  80      00
  81 00ed 660FEFF6 		pxor	%xmm6, %xmm6
  82 00f1 F30F5A74 		cvtss2sd	16(%rsp), %xmm6
  82      2410
  83 00f7 660FEFFF 		pxor	%xmm7, %xmm7
  84 00fb F30F5A7C 		cvtss2sd	8(%rsp), %xmm7
  84      2408
  85 0101 F20F1174 		movsd	%xmm6, 24(%rsp)
  85      2418
  86 0107 660F28CE 		movapd	%xmm6, %xmm1
  87 010b F20F117C 		movsd	%xmm7, 32(%rsp)
  87      2420
  88 0111 660F28C7 		movapd	%xmm7, %xmm0
  89 0115 E8000000 		call	glVertex2d@PLT
  89      00
GAS LISTING /tmp/cceZA1fz.s 			page 3


  90 011a F30F105C 		movss	44(%rsp), %xmm3
  90      242C
  91 0120 F30F585C 		addss	16(%rsp), %xmm3
  91      2410
  92 0126 660FEFED 		pxor	%xmm5, %xmm5
  93 012a F30F5AEB 		cvtss2sd	%xmm3, %xmm5
  94 012e F20F116C 		movsd	%xmm5, 16(%rsp)
  94      2410
  95 0134 660F28CD 		movapd	%xmm5, %xmm1
  96 0138 F20F1044 		movsd	32(%rsp), %xmm0
  96      2420
  97 013e E8000000 		call	glVertex2d@PLT
  97      00
  98 0143 F30F1044 		movss	40(%rsp), %xmm0
  98      2428
  99 0149 F30F5844 		addss	8(%rsp), %xmm0
  99      2408
 100 014f 660FEFFF 		pxor	%xmm7, %xmm7
 101 0153 F30F5AF8 		cvtss2sd	%xmm0, %xmm7
 102 0157 F20F104C 		movsd	16(%rsp), %xmm1
 102      2410
 103 015d F20F117C 		movsd	%xmm7, 8(%rsp)
 103      2408
 104 0163 660F28C7 		movapd	%xmm7, %xmm0
 105 0167 E8000000 		call	glVertex2d@PLT
 105      00
 106 016c F20F104C 		movsd	24(%rsp), %xmm1
 106      2418
 107 0172 F20F1044 		movsd	8(%rsp), %xmm0
 107      2408
 108 0178 E8000000 		call	glVertex2d@PLT
 108      00
 109 017d E8000000 		call	glEnd@PLT
 109      00
 110 0182 4883C438 		addq	$56, %rsp
 111              		.cfi_def_cfa_offset 8
 112 0186 C3       		ret
 113              		.cfi_endproc
 114              	.LFE255:
 116              		.globl	_Z12drawTrianglefff
 118              	_Z12drawTrianglefff:
 119              	.LFB256:
 120              		.cfi_startproc
 121 0187 4883EC28 		subq	$40, %rsp
 122              		.cfi_def_cfa_offset 48
 123 018b F30F1144 		movss	%xmm0, 12(%rsp)
 123      240C
 124 0191 F30F114C 		movss	%xmm1, 16(%rsp)
 124      2410
 125 0197 F30F1154 		movss	%xmm2, 20(%rsp)
 125      2414
 126 019d BF040000 		movl	$4, %edi
 126      00
 127 01a2 E8000000 		call	glBegin@PLT
 127      00
 128 01a7 660FEFED 		pxor	%xmm5, %xmm5
 129 01ab F30F5A6C 		cvtss2sd	16(%rsp), %xmm5
GAS LISTING /tmp/cceZA1fz.s 			page 4


 129      2410
 130 01b1 660FEFC0 		pxor	%xmm0, %xmm0
 131 01b5 F30F5A44 		cvtss2sd	12(%rsp), %xmm0
 131      240C
 132 01bb F20F116C 		movsd	%xmm5, 24(%rsp)
 132      2418
 133 01c1 660F28CD 		movapd	%xmm5, %xmm1
 134 01c5 E8000000 		call	glVertex2d@PLT
 134      00
 135 01ca F30F1044 		movss	12(%rsp), %xmm0
 135      240C
 136 01d0 F30F5844 		addss	20(%rsp), %xmm0
 136      2414
 137 01d6 F30F5AC0 		cvtss2sd	%xmm0, %xmm0
 138 01da F20F104C 		movsd	24(%rsp), %xmm1
 138      2418
 139 01e0 E8000000 		call	glVertex2d@PLT
 139      00
 140 01e5 F30F104C 		movss	16(%rsp), %xmm1
 140      2410
 141 01eb F30F1064 		movss	20(%rsp), %xmm4
 141      2414
 142 01f1 F30F58CC 		addss	%xmm4, %xmm1
 143 01f5 F30F5925 		mulss	.LC1(%rip), %xmm4
 143      00000000 
 144 01fd 0F28C4   		movaps	%xmm4, %xmm0
 145 0200 F30F5844 		addss	12(%rsp), %xmm0
 145      240C
 146 0206 F30F5AC0 		cvtss2sd	%xmm0, %xmm0
 147 020a F30F5AC9 		cvtss2sd	%xmm1, %xmm1
 148 020e E8000000 		call	glVertex2d@PLT
 148      00
 149 0213 E8000000 		call	glEnd@PLT
 149      00
 150 0218 4883C428 		addq	$40, %rsp
 151              		.cfi_def_cfa_offset 8
 152 021c C3       		ret
 153              		.cfi_endproc
 154              	.LFE256:
 156              		.globl	_Z10drawCirclefffi
 158              	_Z10drawCirclefffi:
 159              	.LFB257:
 160              		.cfi_startproc
 161 021d 55       		pushq	%rbp
 162              		.cfi_def_cfa_offset 16
 163              		.cfi_offset 6, -16
 164 021e 53       		pushq	%rbx
 165              		.cfi_def_cfa_offset 24
 166              		.cfi_offset 3, -24
 167 021f 4883EC28 		subq	$40, %rsp
 168              		.cfi_def_cfa_offset 64
 169 0223 F30F1144 		movss	%xmm0, 24(%rsp)
 169      2418
 170 0229 F30F114C 		movss	%xmm1, 28(%rsp)
 170      241C
 171 022f F30F1154 		movss	%xmm2, 12(%rsp)
 171      240C
GAS LISTING /tmp/cceZA1fz.s 			page 5


 172 0235 89FD     		movl	%edi, %ebp
 173 0237 BF020000 		movl	$2, %edi
 173      00
 174 023c E8000000 		call	glBegin@PLT
 174      00
 175 0241 BB000000 		movl	$0, %ebx
 175      00
 176              	.L17:
 177 0246 39EB     		cmpl	%ebp, %ebx
 178 0248 7D66     		jge	.L16
 179 024a 660FEFC0 		pxor	%xmm0, %xmm0
 180 024e F30F2AC3 		cvtsi2ssl	%ebx, %xmm0
 181 0252 F30F5905 		mulss	.LC2(%rip), %xmm0
 181      00000000 
 182 025a 660FEFC9 		pxor	%xmm1, %xmm1
 183 025e F30F2ACD 		cvtsi2ssl	%ebp, %xmm1
 184 0262 F30F5EC1 		divss	%xmm1, %xmm0
 185 0266 F30F1144 		movss	%xmm0, 16(%rsp)
 185      2410
 186 026c E8000000 		call	cosf@PLT
 186      00
 187 0271 0F28D8   		movaps	%xmm0, %xmm3
 188 0274 F30F595C 		mulss	12(%rsp), %xmm3
 188      240C
 189 027a F30F115C 		movss	%xmm3, 20(%rsp)
 189      2414
 190 0280 F30F1044 		movss	16(%rsp), %xmm0
 190      2410
 191 0286 E8000000 		call	sinf@PLT
 191      00
 192 028b 0F28C8   		movaps	%xmm0, %xmm1
 193 028e F30F594C 		mulss	12(%rsp), %xmm1
 193      240C
 194 0294 F30F1044 		movss	20(%rsp), %xmm0
 194      2414
 195 029a F30F5844 		addss	24(%rsp), %xmm0
 195      2418
 196 02a0 F30F584C 		addss	28(%rsp), %xmm1
 196      241C
 197 02a6 E8000000 		call	glVertex2f@PLT
 197      00
 198 02ab 83C301   		addl	$1, %ebx
 199 02ae EB96     		jmp	.L17
 200              	.L16:
 201 02b0 E8000000 		call	glEnd@PLT
 201      00
 202 02b5 4883C428 		addq	$40, %rsp
 203              		.cfi_def_cfa_offset 24
 204 02b9 5B       		popq	%rbx
 205              		.cfi_def_cfa_offset 16
 206 02ba 5D       		popq	%rbp
 207              		.cfi_def_cfa_offset 8
 208 02bb C3       		ret
 209              		.cfi_endproc
 210              	.LFE257:
 212              		.globl	_Z16drawCircleFilledfffi
 214              	_Z16drawCircleFilledfffi:
GAS LISTING /tmp/cceZA1fz.s 			page 6


 215              	.LFB258:
 216              		.cfi_startproc
 217 02bc 55       		pushq	%rbp
 218              		.cfi_def_cfa_offset 16
 219              		.cfi_offset 6, -16
 220 02bd 53       		pushq	%rbx
 221              		.cfi_def_cfa_offset 24
 222              		.cfi_offset 3, -24
 223 02be 4883EC28 		subq	$40, %rsp
 224              		.cfi_def_cfa_offset 64
 225 02c2 F30F1144 		movss	%xmm0, 24(%rsp)
 225      2418
 226 02c8 F30F114C 		movss	%xmm1, 28(%rsp)
 226      241C
 227 02ce F30F1154 		movss	%xmm2, 12(%rsp)
 227      240C
 228 02d4 89FD     		movl	%edi, %ebp
 229 02d6 BF090000 		movl	$9, %edi
 229      00
 230 02db E8000000 		call	glBegin@PLT
 230      00
 231 02e0 BB000000 		movl	$0, %ebx
 231      00
 232              	.L21:
 233 02e5 39EB     		cmpl	%ebp, %ebx
 234 02e7 7D66     		jge	.L20
 235 02e9 660FEFC0 		pxor	%xmm0, %xmm0
 236 02ed F30F2AC3 		cvtsi2ssl	%ebx, %xmm0
 237 02f1 F30F5905 		mulss	.LC2(%rip), %xmm0
 237      00000000 
 238 02f9 660FEFC9 		pxor	%xmm1, %xmm1
 239 02fd F30F2ACD 		cvtsi2ssl	%ebp, %xmm1
 240 0301 F30F5EC1 		divss	%xmm1, %xmm0
 241 0305 F30F1144 		movss	%xmm0, 16(%rsp)
 241      2410
 242 030b E8000000 		call	cosf@PLT
 242      00
 243 0310 0F28D8   		movaps	%xmm0, %xmm3
 244 0313 F30F595C 		mulss	12(%rsp), %xmm3
 244      240C
 245 0319 F30F115C 		movss	%xmm3, 20(%rsp)
 245      2414
 246 031f F30F1044 		movss	16(%rsp), %xmm0
 246      2410
 247 0325 E8000000 		call	sinf@PLT
 247      00
 248 032a 0F28C8   		movaps	%xmm0, %xmm1
 249 032d F30F594C 		mulss	12(%rsp), %xmm1
 249      240C
 250 0333 F30F1044 		movss	20(%rsp), %xmm0
 250      2414
 251 0339 F30F5844 		addss	24(%rsp), %xmm0
 251      2418
 252 033f F30F584C 		addss	28(%rsp), %xmm1
 252      241C
 253 0345 E8000000 		call	glVertex2f@PLT
 253      00
GAS LISTING /tmp/cceZA1fz.s 			page 7


 254 034a 83C301   		addl	$1, %ebx
 255 034d EB96     		jmp	.L21
 256              	.L20:
 257 034f E8000000 		call	glEnd@PLT
 257      00
 258 0354 4883C428 		addq	$40, %rsp
 259              		.cfi_def_cfa_offset 24
 260 0358 5B       		popq	%rbx
 261              		.cfi_def_cfa_offset 16
 262 0359 5D       		popq	%rbp
 263              		.cfi_def_cfa_offset 8
 264 035a C3       		ret
 265              		.cfi_endproc
 266              	.LFE258:
 268              		.globl	_Z7drawOctfff
 270              	_Z7drawOctfff:
 271              	.LFB259:
 272              		.cfi_startproc
 273 035b 4883EC48 		subq	$72, %rsp
 274              		.cfi_def_cfa_offset 80
 275 035f F30F1104 		movss	%xmm0, (%rsp)
 275      24
 276 0364 F30F114C 		movss	%xmm1, 8(%rsp)
 276      2408
 277 036a F30F1154 		movss	%xmm2, 20(%rsp)
 277      2414
 278 0370 BF090000 		movl	$9, %edi
 278      00
 279 0375 E8000000 		call	glBegin@PLT
 279      00
 280 037a F30F105C 		movss	20(%rsp), %xmm3
 280      2414
 281 0380 0F28E3   		movaps	%xmm3, %xmm4
 282 0383 F30F5925 		mulss	.LC3(%rip), %xmm4
 282      00000000 
 283 038b F30F1164 		movss	%xmm4, 20(%rsp)
 283      2414
 284 0391 F30F5864 		addss	8(%rsp), %xmm4
 284      2408
 285 0397 660FEFF6 		pxor	%xmm6, %xmm6
 286 039b F30F5AF4 		cvtss2sd	%xmm4, %xmm6
 287 039f F30F591D 		mulss	.LC4(%rip), %xmm3
 287      00000000 
 288 03a7 F30F115C 		movss	%xmm3, 24(%rsp)
 288      2418
 289 03ad 0F28EB   		movaps	%xmm3, %xmm5
 290 03b0 F30F582C 		addss	(%rsp), %xmm5
 290      24
 291 03b5 660FEFC0 		pxor	%xmm0, %xmm0
 292 03b9 F30F5AC5 		cvtss2sd	%xmm5, %xmm0
 293 03bd F20F1174 		movsd	%xmm6, 32(%rsp)
 293      2420
 294 03c3 660F28CE 		movapd	%xmm6, %xmm1
 295 03c7 F20F1144 		movsd	%xmm0, 40(%rsp)
 295      2428
 296 03cd E8000000 		call	glVertex2d@PLT
 296      00
GAS LISTING /tmp/cceZA1fz.s 			page 8


 297 03d2 F30F1014 		movss	(%rsp), %xmm2
 297      24
 298 03d7 F30F5C54 		subss	24(%rsp), %xmm2
 298      2418
 299 03dd 66450FEF 		pxor	%xmm8, %xmm8
 299      C0
 300 03e2 F3440F5A 		cvtss2sd	%xmm2, %xmm8
 300      C2
 301 03e7 F20F104C 		movsd	32(%rsp), %xmm1
 301      2420
 302 03ed F2440F11 		movsd	%xmm8, 32(%rsp)
 302      442420
 303 03f4 66410F28 		movapd	%xmm8, %xmm0
 303      C0
 304 03f9 E8000000 		call	glVertex2d@PLT
 304      00
 305 03fe F30F1074 		movss	24(%rsp), %xmm6
 305      2418
 306 0404 F30F5874 		addss	8(%rsp), %xmm6
 306      2408
 307 040a 66450FEF 		pxor	%xmm9, %xmm9
 307      C9
 308 040f F3440F5A 		cvtss2sd	%xmm6, %xmm9
 308      CE
 309 0414 F30F100C 		movss	(%rsp), %xmm1
 309      24
 310 0419 F30F5C4C 		subss	20(%rsp), %xmm1
 310      2414
 311 041f 660FEFDB 		pxor	%xmm3, %xmm3
 312 0423 F30F5AD9 		cvtss2sd	%xmm1, %xmm3
 313 0427 F2440F11 		movsd	%xmm9, 48(%rsp)
 313      4C2430
 314 042e 66410F28 		movapd	%xmm9, %xmm1
 314      C9
 315 0433 F20F115C 		movsd	%xmm3, 56(%rsp)
 315      2438
 316 0439 660F28C3 		movapd	%xmm3, %xmm0
 317 043d E8000000 		call	glVertex2d@PLT
 317      00
 318 0442 F30F107C 		movss	8(%rsp), %xmm7
 318      2408
 319 0448 F30F5C7C 		subss	24(%rsp), %xmm7
 319      2418
 320 044e 660FEFED 		pxor	%xmm5, %xmm5
 321 0452 F30F5AEF 		cvtss2sd	%xmm7, %xmm5
 322 0456 F20F116C 		movsd	%xmm5, 24(%rsp)
 322      2418
 323 045c 660F28CD 		movapd	%xmm5, %xmm1
 324 0460 F20F1044 		movsd	56(%rsp), %xmm0
 324      2438
 325 0466 E8000000 		call	glVertex2d@PLT
 325      00
 326 046b F30F107C 		movss	8(%rsp), %xmm7
 326      2408
 327 0471 F30F5C7C 		subss	20(%rsp), %xmm7
 327      2414
 328 0477 660FEFF6 		pxor	%xmm6, %xmm6
GAS LISTING /tmp/cceZA1fz.s 			page 9


 329 047b F30F5AF7 		cvtss2sd	%xmm7, %xmm6
 330 047f F20F1174 		movsd	%xmm6, 8(%rsp)
 330      2408
 331 0485 660F28CE 		movapd	%xmm6, %xmm1
 332 0489 F20F1044 		movsd	32(%rsp), %xmm0
 332      2420
 333 048f E8000000 		call	glVertex2d@PLT
 333      00
 334 0494 F20F104C 		movsd	8(%rsp), %xmm1
 334      2408
 335 049a F20F1044 		movsd	40(%rsp), %xmm0
 335      2428
 336 04a0 E8000000 		call	glVertex2d@PLT
 336      00
 337 04a5 F30F1044 		movss	20(%rsp), %xmm0
 337      2414
 338 04ab F30F5804 		addss	(%rsp), %xmm0
 338      24
 339 04b0 660FEFD2 		pxor	%xmm2, %xmm2
 340 04b4 F30F5AD0 		cvtss2sd	%xmm0, %xmm2
 341 04b8 F20F104C 		movsd	24(%rsp), %xmm1
 341      2418
 342 04be F20F1114 		movsd	%xmm2, (%rsp)
 342      24
 343 04c3 660F28C2 		movapd	%xmm2, %xmm0
 344 04c7 E8000000 		call	glVertex2d@PLT
 344      00
 345 04cc F20F104C 		movsd	48(%rsp), %xmm1
 345      2430
 346 04d2 F20F1004 		movsd	(%rsp), %xmm0
 346      24
 347 04d7 E8000000 		call	glVertex2d@PLT
 347      00
 348 04dc E8000000 		call	glEnd@PLT
 348      00
 349 04e1 4883C448 		addq	$72, %rsp
 350              		.cfi_def_cfa_offset 8
 351 04e5 C3       		ret
 352              		.cfi_endproc
 353              	.LFE259:
 355              		.globl	_Z8drawQuadfff
 357              	_Z8drawQuadfff:
 358              	.LFB260:
 359              		.cfi_startproc
 360 04e6 4883EC08 		subq	$8, %rsp
 361              		.cfi_def_cfa_offset 16
 362 04ea 0F28DA   		movaps	%xmm2, %xmm3
 363 04ed E8000000 		call	_Z8drawRectffff
 363      00
 364 04f2 4883C408 		addq	$8, %rsp
 365              		.cfi_def_cfa_offset 8
 366 04f6 C3       		ret
 367              		.cfi_endproc
 368              	.LFE260:
 370              		.section	.rodata.cst4,"aM",@progbits,4
 371              		.align 4
 372              	.LC0:
GAS LISTING /tmp/cceZA1fz.s 			page 10


 373 0000 00007F43 		.long	1132396544
 374              		.align 4
 375              	.LC1:
 376 0004 0000003F 		.long	1056964608
 377              		.align 4
 378              	.LC2:
 379 0008 DA0FC940 		.long	1086918618
 380              		.align 4
 381              	.LC3:
 382 000c 67B16FBF 		.long	3211768167
 383              		.align 4
 384              	.LC4:
 385 0010 69D0B3BE 		.long	3199455337
 386              		.ident	"GCC: (GNU) 9.1.0"
 387              		.section	.note.GNU-stack,"",@progbits
GAS LISTING /tmp/cceZA1fz.s 			page 11

