GAS LISTING /tmp/ccVy0JI6.s 			page 1


   1              		.file	"routines.cpp"
   2              		.text
   3              	.Ltext0:
   4              		.globl	_Z10glSetColorj
   6              	_Z10glSetColorj:
   7              	.LVL0:
   8              	.LFB1959:
   9              		.file 1 "Src/routines.cpp"
   1:Src/routines.cpp **** #include "routines.hpp"
   2:Src/routines.cpp **** 
   3:Src/routines.cpp **** 
   4:Src/routines.cpp **** void glSetColor(uint32_t color)
   5:Src/routines.cpp **** {
  10              		.loc 1 5 1 view -0
  11              		.cfi_startproc
  12              		.loc 1 5 1 is_stmt 0 view .LVU1
  13 0000 4883EC08 		subq	$8, %rsp
  14              		.cfi_def_cfa_offset 16
  15 0004 89F8     		movl	%edi, %eax
   6:Src/routines.cpp **** 	glColor3f((float)((color >> 16) & 0xFF) / 255, (float)((color >> 8) & 0xFF) / 255, (float)(color &
  16              		.loc 1 6 2 is_stmt 1 view .LVU2
  17              		.loc 1 6 85 is_stmt 0 view .LVU3
  18 0006 400FB6D7 		movzbl	%dil, %edx
  19 000a 660FEFD2 		pxor	%xmm2, %xmm2
  20 000e F3480F2A 		cvtsi2ssq	%rdx, %xmm2
  20      D2
  21              		.loc 1 6 49 view .LVU4
  22 0013 0FB6D4   		movzbl	%ah, %edx
  23 0016 660FEFC9 		pxor	%xmm1, %xmm1
  24 001a F3480F2A 		cvtsi2ssq	%rdx, %xmm1
  24      CA
  25              		.loc 1 6 27 view .LVU5
  26 001f C1E810   		shrl	$16, %eax
  27              		.loc 1 6 12 view .LVU6
  28 0022 0FB6C0   		movzbl	%al, %eax
  29 0025 660FEFC0 		pxor	%xmm0, %xmm0
  30 0029 F3480F2A 		cvtsi2ssq	%rax, %xmm0
  30      C0
  31              		.loc 1 6 11 view .LVU7
  32 002e F30F101D 		movss	.LC0(%rip), %xmm3
  32      00000000 
  33 0036 F30F5EC3 		divss	%xmm3, %xmm0
  34 003a F30F5ED3 		divss	%xmm3, %xmm2
  35 003e F30F5ECB 		divss	%xmm3, %xmm1
  36 0042 E8000000 		call	glColor3f@PLT
  36      00
  37              	.LVL1:
   7:Src/routines.cpp **** }
  38              		.loc 1 7 1 view .LVU8
  39 0047 4883C408 		addq	$8, %rsp
  40              		.cfi_def_cfa_offset 8
  41 004b C3       		ret
  42              		.cfi_endproc
  43              	.LFE1959:
  45              		.globl	_Z8drawRectffff
  47              	_Z8drawRectffff:
  48              	.LVL2:
GAS LISTING /tmp/ccVy0JI6.s 			page 2


  49              	.LFB1961:
   8:Src/routines.cpp **** 
   9:Src/routines.cpp **** 
  10:Src/routines.cpp **** void drawLine(float x1, float y1, float x2, float y2)
  11:Src/routines.cpp **** {
  12:Src/routines.cpp **** 	glBegin(GL_LINES);
  13:Src/routines.cpp **** 	glVertex2d(x1, y1);
  14:Src/routines.cpp **** 	glVertex2d(x2, y2);
  15:Src/routines.cpp **** 	glEnd();
  16:Src/routines.cpp **** 	
  17:Src/routines.cpp ****     drawCircleFilled(x2, y2, 1, 10);
  18:Src/routines.cpp ****     drawCircleFilled(x1, y1, 1, 10);
  19:Src/routines.cpp **** }
  20:Src/routines.cpp **** 
  21:Src/routines.cpp **** void drawRect(float x, float y, float a, float b)
  22:Src/routines.cpp **** {
  50              		.loc 1 22 1 is_stmt 1 view -0
  51              		.cfi_startproc
  52              		.loc 1 22 1 is_stmt 0 view .LVU10
  53 004c 4883EC38 		subq	$56, %rsp
  54              		.cfi_def_cfa_offset 64
  55 0050 F30F1144 		movss	%xmm0, 8(%rsp)
  55      2408
  56 0056 F30F114C 		movss	%xmm1, 16(%rsp)
  56      2410
  57 005c F30F1154 		movss	%xmm2, 40(%rsp)
  57      2428
  58 0062 F30F115C 		movss	%xmm3, 44(%rsp)
  58      242C
  23:Src/routines.cpp **** 	// x -= a / 2;
  24:Src/routines.cpp **** 	// y -= b / 2;
  25:Src/routines.cpp **** 	glBegin(GL_QUADS);
  59              		.loc 1 25 2 is_stmt 1 view .LVU11
  60              		.loc 1 25 9 is_stmt 0 view .LVU12
  61 0068 BF070000 		movl	$7, %edi
  61      00
  62 006d E8000000 		call	glBegin@PLT
  62      00
  63              	.LVL3:
  26:Src/routines.cpp **** 	glVertex2d(x, y);
  64              		.loc 1 26 2 is_stmt 1 view .LVU13
  65              		.loc 1 26 12 is_stmt 0 view .LVU14
  66 0072 660FEFED 		pxor	%xmm5, %xmm5
  67 0076 F30F5A6C 		cvtss2sd	16(%rsp), %xmm5
  67      2410
  68 007c 660FEFF6 		pxor	%xmm6, %xmm6
  69 0080 F30F5A74 		cvtss2sd	8(%rsp), %xmm6
  69      2408
  70 0086 F20F116C 		movsd	%xmm5, 24(%rsp)
  70      2418
  71 008c 660F28CD 		movapd	%xmm5, %xmm1
  72 0090 F20F1174 		movsd	%xmm6, 32(%rsp)
  72      2420
  73 0096 660F28C6 		movapd	%xmm6, %xmm0
  74 009a E8000000 		call	glVertex2d@PLT
  74      00
  75              	.LVL4:
GAS LISTING /tmp/ccVy0JI6.s 			page 3


  27:Src/routines.cpp **** 	glVertex2d(x, y + b);
  76              		.loc 1 27 2 is_stmt 1 view .LVU15
  77              		.loc 1 27 18 is_stmt 0 view .LVU16
  78 009f F30F1064 		movss	16(%rsp), %xmm4
  78      2410
  79 00a5 F30F5864 		addss	44(%rsp), %xmm4
  79      242C
  80              		.loc 1 27 12 view .LVU17
  81 00ab 660FEFFF 		pxor	%xmm7, %xmm7
  82 00af F30F5AFC 		cvtss2sd	%xmm4, %xmm7
  83 00b3 F20F117C 		movsd	%xmm7, 16(%rsp)
  83      2410
  84              	.LVL5:
  85              		.loc 1 27 12 view .LVU18
  86 00b9 660F28CF 		movapd	%xmm7, %xmm1
  87 00bd F20F1044 		movsd	32(%rsp), %xmm0
  87      2420
  88 00c3 E8000000 		call	glVertex2d@PLT
  88      00
  89              	.LVL6:
  28:Src/routines.cpp **** 	glVertex2d(x + a, y + b);
  90              		.loc 1 28 2 is_stmt 1 view .LVU19
  91              		.loc 1 28 15 is_stmt 0 view .LVU20
  92 00c8 F30F1044 		movss	8(%rsp), %xmm0
  92      2408
  93 00ce F30F5844 		addss	40(%rsp), %xmm0
  93      2428
  94              		.loc 1 28 12 view .LVU21
  95 00d4 660FEFD2 		pxor	%xmm2, %xmm2
  96 00d8 F30F5AD0 		cvtss2sd	%xmm0, %xmm2
  97 00dc F20F104C 		movsd	16(%rsp), %xmm1
  97      2410
  98 00e2 F20F1154 		movsd	%xmm2, 8(%rsp)
  98      2408
  99              	.LVL7:
 100              		.loc 1 28 12 view .LVU22
 101 00e8 660F28C2 		movapd	%xmm2, %xmm0
 102 00ec E8000000 		call	glVertex2d@PLT
 102      00
 103              	.LVL8:
  29:Src/routines.cpp **** 	glVertex2d(x + a, y);
 104              		.loc 1 29 2 is_stmt 1 view .LVU23
 105              		.loc 1 29 12 is_stmt 0 view .LVU24
 106 00f1 F20F104C 		movsd	24(%rsp), %xmm1
 106      2418
 107 00f7 F20F1044 		movsd	8(%rsp), %xmm0
 107      2408
 108 00fd E8000000 		call	glVertex2d@PLT
 108      00
 109              	.LVL9:
  30:Src/routines.cpp **** 	glEnd();
 110              		.loc 1 30 2 is_stmt 1 view .LVU25
 111              		.loc 1 30 7 is_stmt 0 view .LVU26
 112 0102 E8000000 		call	glEnd@PLT
 112      00
 113              	.LVL10:
  31:Src/routines.cpp **** }
GAS LISTING /tmp/ccVy0JI6.s 			page 4


 114              		.loc 1 31 1 view .LVU27
 115 0107 4883C438 		addq	$56, %rsp
 116              		.cfi_def_cfa_offset 8
 117 010b C3       		ret
 118              		.cfi_endproc
 119              	.LFE1961:
 121              		.globl	_Z12drawTrianglefff
 123              	_Z12drawTrianglefff:
 124              	.LVL11:
 125              	.LFB1962:
  32:Src/routines.cpp **** 
  33:Src/routines.cpp **** void drawTriangle(float x, float y, float a)
  34:Src/routines.cpp **** {
 126              		.loc 1 34 1 is_stmt 1 view -0
 127              		.cfi_startproc
 128              		.loc 1 34 1 is_stmt 0 view .LVU29
 129 010c 4883EC28 		subq	$40, %rsp
 130              		.cfi_def_cfa_offset 48
 131 0110 F30F1144 		movss	%xmm0, 12(%rsp)
 131      240C
 132 0116 F30F114C 		movss	%xmm1, 16(%rsp)
 132      2410
 133 011c F30F1154 		movss	%xmm2, 20(%rsp)
 133      2414
  35:Src/routines.cpp **** 	glBegin(GL_TRIANGLES);
 134              		.loc 1 35 2 is_stmt 1 view .LVU30
 135              		.loc 1 35 9 is_stmt 0 view .LVU31
 136 0122 BF040000 		movl	$4, %edi
 136      00
 137 0127 E8000000 		call	glBegin@PLT
 137      00
 138              	.LVL12:
  36:Src/routines.cpp **** 	glVertex2d(x, y);
 139              		.loc 1 36 2 is_stmt 1 view .LVU32
 140              		.loc 1 36 12 is_stmt 0 view .LVU33
 141 012c 660FEFED 		pxor	%xmm5, %xmm5
 142 0130 F30F5A6C 		cvtss2sd	16(%rsp), %xmm5
 142      2410
 143 0136 660FEFC0 		pxor	%xmm0, %xmm0
 144 013a F30F5A44 		cvtss2sd	12(%rsp), %xmm0
 144      240C
 145 0140 F20F116C 		movsd	%xmm5, 24(%rsp)
 145      2418
 146 0146 660F28CD 		movapd	%xmm5, %xmm1
 147 014a E8000000 		call	glVertex2d@PLT
 147      00
 148              	.LVL13:
  37:Src/routines.cpp **** 	glVertex2d(x + a, y);
 149              		.loc 1 37 2 is_stmt 1 view .LVU34
 150              		.loc 1 37 15 is_stmt 0 view .LVU35
 151 014f F30F1044 		movss	12(%rsp), %xmm0
 151      240C
 152 0155 F30F5844 		addss	20(%rsp), %xmm0
 152      2414
 153              		.loc 1 37 12 view .LVU36
 154 015b F30F5AC0 		cvtss2sd	%xmm0, %xmm0
 155 015f F20F104C 		movsd	24(%rsp), %xmm1
GAS LISTING /tmp/ccVy0JI6.s 			page 5


 155      2418
 156 0165 E8000000 		call	glVertex2d@PLT
 156      00
 157              	.LVL14:
  38:Src/routines.cpp **** 	glVertex2d(x + (a / 2), y + a);
 158              		.loc 1 38 2 is_stmt 1 view .LVU37
 159              		.loc 1 38 28 is_stmt 0 view .LVU38
 160 016a F30F104C 		movss	16(%rsp), %xmm1
 160      2410
 161 0170 F30F1064 		movss	20(%rsp), %xmm4
 161      2414
 162 0176 F30F58CC 		addss	%xmm4, %xmm1
 163              		.loc 1 38 20 view .LVU39
 164 017a F30F5925 		mulss	.LC1(%rip), %xmm4
 164      00000000 
 165 0182 0F28C4   		movaps	%xmm4, %xmm0
 166              		.loc 1 38 15 view .LVU40
 167 0185 F30F5844 		addss	12(%rsp), %xmm0
 167      240C
 168              		.loc 1 38 12 view .LVU41
 169 018b F30F5AC0 		cvtss2sd	%xmm0, %xmm0
 170 018f F30F5AC9 		cvtss2sd	%xmm1, %xmm1
 171 0193 E8000000 		call	glVertex2d@PLT
 171      00
 172              	.LVL15:
  39:Src/routines.cpp **** 	glEnd();
 173              		.loc 1 39 2 is_stmt 1 view .LVU42
 174              		.loc 1 39 7 is_stmt 0 view .LVU43
 175 0198 E8000000 		call	glEnd@PLT
 175      00
 176              	.LVL16:
  40:Src/routines.cpp **** }
 177              		.loc 1 40 1 view .LVU44
 178 019d 4883C428 		addq	$40, %rsp
 179              		.cfi_def_cfa_offset 8
 180 01a1 C3       		ret
 181              		.cfi_endproc
 182              	.LFE1962:
 184              		.globl	_Z10drawCirclefffi
 186              	_Z10drawCirclefffi:
 187              	.LVL17:
 188              	.LFB1963:
  41:Src/routines.cpp **** 
  42:Src/routines.cpp **** void drawCircle(float cx, float cy, float r, int num_segments)
  43:Src/routines.cpp **** {
 189              		.loc 1 43 1 is_stmt 1 view -0
 190              		.cfi_startproc
 191              		.loc 1 43 1 is_stmt 0 view .LVU46
 192 01a2 55       		pushq	%rbp
 193              		.cfi_def_cfa_offset 16
 194              		.cfi_offset 6, -16
 195 01a3 53       		pushq	%rbx
 196              		.cfi_def_cfa_offset 24
 197              		.cfi_offset 3, -24
 198 01a4 4883EC28 		subq	$40, %rsp
 199              		.cfi_def_cfa_offset 64
 200 01a8 F30F1144 		movss	%xmm0, 24(%rsp)
GAS LISTING /tmp/ccVy0JI6.s 			page 6


 200      2418
 201 01ae F30F114C 		movss	%xmm1, 28(%rsp)
 201      241C
 202 01b4 F30F1154 		movss	%xmm2, 12(%rsp)
 202      240C
 203 01ba 89FD     		movl	%edi, %ebp
  44:Src/routines.cpp ****     glBegin(GL_LINE_LOOP);
 204              		.loc 1 44 5 is_stmt 1 view .LVU47
 205              		.loc 1 44 12 is_stmt 0 view .LVU48
 206 01bc BF020000 		movl	$2, %edi
 206      00
 207              	.LVL18:
 208              		.loc 1 44 12 view .LVU49
 209 01c1 E8000000 		call	glBegin@PLT
 209      00
 210              	.LVL19:
  45:Src/routines.cpp ****     for(int ii = 0; ii < num_segments; ii++)
 211              		.loc 1 45 5 is_stmt 1 view .LVU50
 212              	.LBB46:
 213              		.loc 1 45 13 is_stmt 0 view .LVU51
 214 01c6 BB000000 		movl	$0, %ebx
 214      00
 215              	.LVL20:
 216              	.L15:
 217              		.loc 1 45 24 is_stmt 1 discriminator 3 view .LVU52
 218 01cb 39EB     		cmpl	%ebp, %ebx
 219 01cd 7D66     		jge	.L14
 220              	.LBB47:
  46:Src/routines.cpp ****     {
  47:Src/routines.cpp ****         float theta = 2.0f * 3.1415926f * float(ii) / float(num_segments);//get the current angle
 221              		.loc 1 47 9 discriminator 2 view .LVU53
 222              		.loc 1 47 43 is_stmt 0 discriminator 2 view .LVU54
 223 01cf 660FEFC0 		pxor	%xmm0, %xmm0
 224 01d3 F30F2AC3 		cvtsi2ssl	%ebx, %xmm0
 225              		.loc 1 47 41 discriminator 2 view .LVU55
 226 01d7 F30F5905 		mulss	.LC2(%rip), %xmm0
 226      00000000 
 227              		.loc 1 47 55 discriminator 2 view .LVU56
 228 01df 660FEFC9 		pxor	%xmm1, %xmm1
 229 01e3 F30F2ACD 		cvtsi2ssl	%ebp, %xmm1
 230              		.loc 1 47 15 discriminator 2 view .LVU57
 231 01e7 F30F5EC1 		divss	%xmm1, %xmm0
 232              	.LVL21:
  48:Src/routines.cpp ****         float x = r * cosf(theta);//calculate the x component
 233              		.loc 1 48 9 is_stmt 1 discriminator 2 view .LVU58
 234              		.loc 1 48 27 is_stmt 0 discriminator 2 view .LVU59
 235 01eb F30F1144 		movss	%xmm0, 16(%rsp)
 235      2410
 236 01f1 E8000000 		call	cosf@PLT
 236      00
 237              	.LVL22:
 238              		.loc 1 48 15 discriminator 2 view .LVU60
 239 01f6 0F28D8   		movaps	%xmm0, %xmm3
 240 01f9 F30F595C 		mulss	12(%rsp), %xmm3
 240      240C
 241 01ff F30F115C 		movss	%xmm3, 20(%rsp)
 241      2414
GAS LISTING /tmp/ccVy0JI6.s 			page 7


 242              	.LVL23:
  49:Src/routines.cpp ****         float y = r * sinf(theta);//calculate the y component
 243              		.loc 1 49 9 is_stmt 1 discriminator 2 view .LVU61
 244              		.loc 1 49 27 is_stmt 0 discriminator 2 view .LVU62
 245 0205 F30F1044 		movss	16(%rsp), %xmm0
 245      2410
 246 020b E8000000 		call	sinf@PLT
 246      00
 247              	.LVL24:
 248              		.loc 1 49 15 discriminator 2 view .LVU63
 249 0210 0F28C8   		movaps	%xmm0, %xmm1
 250 0213 F30F594C 		mulss	12(%rsp), %xmm1
 250      240C
 251              	.LVL25:
  50:Src/routines.cpp ****         glVertex2f(x + cx, y + cy);//output vertex
 252              		.loc 1 50 9 is_stmt 1 discriminator 2 view .LVU64
 253              		.loc 1 50 19 is_stmt 0 discriminator 2 view .LVU65
 254 0219 F30F1044 		movss	20(%rsp), %xmm0
 254      2414
 255 021f F30F5844 		addss	24(%rsp), %xmm0
 255      2418
 256 0225 F30F584C 		addss	28(%rsp), %xmm1
 256      241C
 257              	.LVL26:
 258              		.loc 1 50 19 discriminator 2 view .LVU66
 259 022b E8000000 		call	glVertex2f@PLT
 259      00
 260              	.LVL27:
 261              	.LBE47:
  45:Src/routines.cpp ****     {
 262              		.loc 1 45 5 is_stmt 1 discriminator 2 view .LVU67
 263 0230 83C301   		addl	$1, %ebx
 264              	.LVL28:
  45:Src/routines.cpp ****     {
 265              		.loc 1 45 5 is_stmt 0 discriminator 2 view .LVU68
 266 0233 EB96     		jmp	.L15
 267              	.LVL29:
 268              	.L14:
  45:Src/routines.cpp ****     {
 269              		.loc 1 45 5 discriminator 2 view .LVU69
 270              	.LBE46:
  51:Src/routines.cpp ****     }
  52:Src/routines.cpp ****     glEnd();
 271              		.loc 1 52 5 is_stmt 1 view .LVU70
 272              		.loc 1 52 10 is_stmt 0 view .LVU71
 273 0235 E8000000 		call	glEnd@PLT
 273      00
 274              	.LVL30:
  53:Src/routines.cpp **** }
 275              		.loc 1 53 1 view .LVU72
 276 023a 4883C428 		addq	$40, %rsp
 277              		.cfi_def_cfa_offset 24
 278 023e 5B       		popq	%rbx
 279              		.cfi_def_cfa_offset 16
 280              	.LVL31:
 281              		.loc 1 53 1 view .LVU73
 282 023f 5D       		popq	%rbp
GAS LISTING /tmp/ccVy0JI6.s 			page 8


 283              		.cfi_def_cfa_offset 8
 284              	.LVL32:
 285              		.loc 1 53 1 view .LVU74
 286 0240 C3       		ret
 287              		.cfi_endproc
 288              	.LFE1963:
 290              		.globl	_Z16drawCircleFilledfffi
 292              	_Z16drawCircleFilledfffi:
 293              	.LVL33:
 294              	.LFB1964:
  54:Src/routines.cpp **** 
  55:Src/routines.cpp **** void drawCircleFilled(float cx, float cy, float r, int numSegments)
  56:Src/routines.cpp **** {
 295              		.loc 1 56 1 is_stmt 1 view -0
 296              		.cfi_startproc
 297              		.loc 1 56 1 is_stmt 0 view .LVU76
 298 0241 55       		pushq	%rbp
 299              		.cfi_def_cfa_offset 16
 300              		.cfi_offset 6, -16
 301 0242 53       		pushq	%rbx
 302              		.cfi_def_cfa_offset 24
 303              		.cfi_offset 3, -24
 304 0243 4883EC28 		subq	$40, %rsp
 305              		.cfi_def_cfa_offset 64
 306 0247 F30F1144 		movss	%xmm0, 24(%rsp)
 306      2418
 307 024d F30F114C 		movss	%xmm1, 28(%rsp)
 307      241C
 308 0253 F30F1154 		movss	%xmm2, 12(%rsp)
 308      240C
 309 0259 89FD     		movl	%edi, %ebp
  57:Src/routines.cpp **** 	glBegin(GL_POLYGON);
 310              		.loc 1 57 2 is_stmt 1 view .LVU77
 311              		.loc 1 57 9 is_stmt 0 view .LVU78
 312 025b BF090000 		movl	$9, %edi
 312      00
 313              	.LVL34:
 314              		.loc 1 57 9 view .LVU79
 315 0260 E8000000 		call	glBegin@PLT
 315      00
 316              	.LVL35:
  58:Src/routines.cpp ****     for(int ii = 0; ii < numSegments; ii++)
 317              		.loc 1 58 5 is_stmt 1 view .LVU80
 318              	.LBB48:
 319              		.loc 1 58 13 is_stmt 0 view .LVU81
 320 0265 BB000000 		movl	$0, %ebx
 320      00
 321              	.LVL36:
 322              	.L19:
 323              		.loc 1 58 24 is_stmt 1 discriminator 3 view .LVU82
 324 026a 39EB     		cmpl	%ebp, %ebx
 325 026c 7D66     		jge	.L18
 326              	.LBB49:
  59:Src/routines.cpp ****     {
  60:Src/routines.cpp ****         float theta = 2.0f * 3.1415926f * float(ii) / float(numSegments);//get the current angle
 327              		.loc 1 60 9 discriminator 2 view .LVU83
 328              		.loc 1 60 43 is_stmt 0 discriminator 2 view .LVU84
GAS LISTING /tmp/ccVy0JI6.s 			page 9


 329 026e 660FEFC0 		pxor	%xmm0, %xmm0
 330 0272 F30F2AC3 		cvtsi2ssl	%ebx, %xmm0
 331              		.loc 1 60 41 discriminator 2 view .LVU85
 332 0276 F30F5905 		mulss	.LC2(%rip), %xmm0
 332      00000000 
 333              		.loc 1 60 55 discriminator 2 view .LVU86
 334 027e 660FEFC9 		pxor	%xmm1, %xmm1
 335 0282 F30F2ACD 		cvtsi2ssl	%ebp, %xmm1
 336              		.loc 1 60 15 discriminator 2 view .LVU87
 337 0286 F30F5EC1 		divss	%xmm1, %xmm0
 338              	.LVL37:
  61:Src/routines.cpp **** 
  62:Src/routines.cpp ****         float x = r * cosf(theta);//calculate the x component
 339              		.loc 1 62 9 is_stmt 1 discriminator 2 view .LVU88
 340              		.loc 1 62 27 is_stmt 0 discriminator 2 view .LVU89
 341 028a F30F1144 		movss	%xmm0, 16(%rsp)
 341      2410
 342 0290 E8000000 		call	cosf@PLT
 342      00
 343              	.LVL38:
 344              		.loc 1 62 15 discriminator 2 view .LVU90
 345 0295 0F28D8   		movaps	%xmm0, %xmm3
 346 0298 F30F595C 		mulss	12(%rsp), %xmm3
 346      240C
 347 029e F30F115C 		movss	%xmm3, 20(%rsp)
 347      2414
 348              	.LVL39:
  63:Src/routines.cpp ****         float y = r * sinf(theta);//calculate the y component
 349              		.loc 1 63 9 is_stmt 1 discriminator 2 view .LVU91
 350              		.loc 1 63 27 is_stmt 0 discriminator 2 view .LVU92
 351 02a4 F30F1044 		movss	16(%rsp), %xmm0
 351      2410
 352 02aa E8000000 		call	sinf@PLT
 352      00
 353              	.LVL40:
 354              		.loc 1 63 15 discriminator 2 view .LVU93
 355 02af 0F28C8   		movaps	%xmm0, %xmm1
 356 02b2 F30F594C 		mulss	12(%rsp), %xmm1
 356      240C
 357              	.LVL41:
  64:Src/routines.cpp **** 
  65:Src/routines.cpp ****         glVertex2f(x + cx, y + cy);//output vertex
 358              		.loc 1 65 9 is_stmt 1 discriminator 2 view .LVU94
 359              		.loc 1 65 19 is_stmt 0 discriminator 2 view .LVU95
 360 02b8 F30F1044 		movss	20(%rsp), %xmm0
 360      2414
 361 02be F30F5844 		addss	24(%rsp), %xmm0
 361      2418
 362 02c4 F30F584C 		addss	28(%rsp), %xmm1
 362      241C
 363              	.LVL42:
 364              		.loc 1 65 19 discriminator 2 view .LVU96
 365 02ca E8000000 		call	glVertex2f@PLT
 365      00
 366              	.LVL43:
 367              	.LBE49:
  58:Src/routines.cpp ****     {
GAS LISTING /tmp/ccVy0JI6.s 			page 10


 368              		.loc 1 58 5 is_stmt 1 discriminator 2 view .LVU97
 369 02cf 83C301   		addl	$1, %ebx
 370              	.LVL44:
  58:Src/routines.cpp ****     {
 371              		.loc 1 58 5 is_stmt 0 discriminator 2 view .LVU98
 372 02d2 EB96     		jmp	.L19
 373              	.LVL45:
 374              	.L18:
  58:Src/routines.cpp ****     {
 375              		.loc 1 58 5 discriminator 2 view .LVU99
 376              	.LBE48:
  66:Src/routines.cpp ****     }
  67:Src/routines.cpp ****     glEnd();
 377              		.loc 1 67 5 is_stmt 1 view .LVU100
 378              		.loc 1 67 10 is_stmt 0 view .LVU101
 379 02d4 E8000000 		call	glEnd@PLT
 379      00
 380              	.LVL46:
  68:Src/routines.cpp **** }
 381              		.loc 1 68 1 view .LVU102
 382 02d9 4883C428 		addq	$40, %rsp
 383              		.cfi_def_cfa_offset 24
 384 02dd 5B       		popq	%rbx
 385              		.cfi_def_cfa_offset 16
 386              	.LVL47:
 387              		.loc 1 68 1 view .LVU103
 388 02de 5D       		popq	%rbp
 389              		.cfi_def_cfa_offset 8
 390              	.LVL48:
 391              		.loc 1 68 1 view .LVU104
 392 02df C3       		ret
 393              		.cfi_endproc
 394              	.LFE1964:
 396              		.globl	_Z8drawLineffff
 398              	_Z8drawLineffff:
 399              	.LVL49:
 400              	.LFB1960:
  11:Src/routines.cpp **** 	glBegin(GL_LINES);
 401              		.loc 1 11 1 is_stmt 1 view -0
 402              		.cfi_startproc
  11:Src/routines.cpp **** 	glBegin(GL_LINES);
 403              		.loc 1 11 1 is_stmt 0 view .LVU106
 404 02e0 4883EC18 		subq	$24, %rsp
 405              		.cfi_def_cfa_offset 32
 406 02e4 F30F1104 		movss	%xmm0, (%rsp)
 406      24
 407 02e9 F30F114C 		movss	%xmm1, 4(%rsp)
 407      2404
 408 02ef F30F1154 		movss	%xmm2, 8(%rsp)
 408      2408
 409 02f5 F30F115C 		movss	%xmm3, 12(%rsp)
 409      240C
  12:Src/routines.cpp **** 	glVertex2d(x1, y1);
 410              		.loc 1 12 2 is_stmt 1 view .LVU107
  12:Src/routines.cpp **** 	glVertex2d(x1, y1);
 411              		.loc 1 12 9 is_stmt 0 view .LVU108
 412 02fb BF010000 		movl	$1, %edi
GAS LISTING /tmp/ccVy0JI6.s 			page 11


 412      00
 413 0300 E8000000 		call	glBegin@PLT
 413      00
 414              	.LVL50:
  13:Src/routines.cpp **** 	glVertex2d(x2, y2);
 415              		.loc 1 13 2 is_stmt 1 view .LVU109
  13:Src/routines.cpp **** 	glVertex2d(x2, y2);
 416              		.loc 1 13 12 is_stmt 0 view .LVU110
 417 0305 660FEFC0 		pxor	%xmm0, %xmm0
 418 0309 F30F5A04 		cvtss2sd	(%rsp), %xmm0
 418      24
 419 030e 660FEFC9 		pxor	%xmm1, %xmm1
 420 0312 F30F5A4C 		cvtss2sd	4(%rsp), %xmm1
 420      2404
 421 0318 E8000000 		call	glVertex2d@PLT
 421      00
 422              	.LVL51:
  14:Src/routines.cpp **** 	glEnd();
 423              		.loc 1 14 2 is_stmt 1 view .LVU111
  14:Src/routines.cpp **** 	glEnd();
 424              		.loc 1 14 12 is_stmt 0 view .LVU112
 425 031d 660FEFC0 		pxor	%xmm0, %xmm0
 426 0321 F30F5A44 		cvtss2sd	8(%rsp), %xmm0
 426      2408
 427 0327 660FEFC9 		pxor	%xmm1, %xmm1
 428 032b F30F5A4C 		cvtss2sd	12(%rsp), %xmm1
 428      240C
 429 0331 E8000000 		call	glVertex2d@PLT
 429      00
 430              	.LVL52:
  15:Src/routines.cpp **** 	
 431              		.loc 1 15 2 is_stmt 1 view .LVU113
  15:Src/routines.cpp **** 	
 432              		.loc 1 15 7 is_stmt 0 view .LVU114
 433 0336 E8000000 		call	glEnd@PLT
 433      00
 434              	.LVL53:
  17:Src/routines.cpp ****     drawCircleFilled(x1, y1, 1, 10);
 435              		.loc 1 17 5 is_stmt 1 view .LVU115
  17:Src/routines.cpp ****     drawCircleFilled(x1, y1, 1, 10);
 436              		.loc 1 17 21 is_stmt 0 view .LVU116
 437 033b BF0A0000 		movl	$10, %edi
 437      00
 438 0340 F30F1015 		movss	.LC3(%rip), %xmm2
 438      00000000 
 439 0348 F30F104C 		movss	12(%rsp), %xmm1
 439      240C
 440 034e F30F1044 		movss	8(%rsp), %xmm0
 440      2408
 441 0354 E8000000 		call	_Z16drawCircleFilledfffi
 441      00
 442              	.LVL54:
  18:Src/routines.cpp **** }
 443              		.loc 1 18 5 is_stmt 1 view .LVU117
  18:Src/routines.cpp **** }
 444              		.loc 1 18 21 is_stmt 0 view .LVU118
 445 0359 BF0A0000 		movl	$10, %edi
GAS LISTING /tmp/ccVy0JI6.s 			page 12


 445      00
 446 035e F30F1015 		movss	.LC3(%rip), %xmm2
 446      00000000 
 447 0366 F30F104C 		movss	4(%rsp), %xmm1
 447      2404
 448 036c F30F1004 		movss	(%rsp), %xmm0
 448      24
 449 0371 E8000000 		call	_Z16drawCircleFilledfffi
 449      00
 450              	.LVL55:
  19:Src/routines.cpp **** 
 451              		.loc 1 19 1 view .LVU119
 452 0376 4883C418 		addq	$24, %rsp
 453              		.cfi_def_cfa_offset 8
 454              	.LVL56:
  19:Src/routines.cpp **** 
 455              		.loc 1 19 1 view .LVU120
 456 037a C3       		ret
 457              		.cfi_endproc
 458              	.LFE1960:
 460              		.globl	_Z7drawOctfff
 462              	_Z7drawOctfff:
 463              	.LVL57:
 464              	.LFB1965:
  69:Src/routines.cpp **** 
  70:Src/routines.cpp **** void drawOct(float x, float y, float a)
  71:Src/routines.cpp **** {
 465              		.loc 1 71 1 is_stmt 1 view -0
 466              		.cfi_startproc
 467              		.loc 1 71 1 is_stmt 0 view .LVU122
 468 037b 4883EC48 		subq	$72, %rsp
 469              		.cfi_def_cfa_offset 80
 470 037f F30F1104 		movss	%xmm0, (%rsp)
 470      24
 471 0384 F30F114C 		movss	%xmm1, 8(%rsp)
 471      2408
 472 038a F30F1154 		movss	%xmm2, 20(%rsp)
 472      2414
  72:Src/routines.cpp **** 	float alpha = 22.35;
 473              		.loc 1 72 2 is_stmt 1 view .LVU123
 474              	.LVL58:
  73:Src/routines.cpp **** 
  74:Src/routines.cpp **** 	glBegin(GL_POLYGON);
 475              		.loc 1 74 2 view .LVU124
 476              		.loc 1 74 9 is_stmt 0 view .LVU125
 477 0390 BF090000 		movl	$9, %edi
 477      00
 478 0395 E8000000 		call	glBegin@PLT
 478      00
 479              	.LVL59:
  75:Src/routines.cpp **** 	glVertex2d(x + a * sin(alpha), y + a * cos(alpha));
 480              		.loc 1 75 2 is_stmt 1 view .LVU126
 481              		.file 2 "/usr/include/c++/9.2.0/cmath"
   1:/usr/include/c++/9.2.0/cmath **** // -*- C++ -*- C forwarding header.
   2:/usr/include/c++/9.2.0/cmath **** 
   3:/usr/include/c++/9.2.0/cmath **** // Copyright (C) 1997-2019 Free Software Foundation, Inc.
   4:/usr/include/c++/9.2.0/cmath **** //
GAS LISTING /tmp/ccVy0JI6.s 			page 13


   5:/usr/include/c++/9.2.0/cmath **** // This file is part of the GNU ISO C++ Library.  This library is free
   6:/usr/include/c++/9.2.0/cmath **** // software; you can redistribute it and/or modify it under the
   7:/usr/include/c++/9.2.0/cmath **** // terms of the GNU General Public License as published by the
   8:/usr/include/c++/9.2.0/cmath **** // Free Software Foundation; either version 3, or (at your option)
   9:/usr/include/c++/9.2.0/cmath **** // any later version.
  10:/usr/include/c++/9.2.0/cmath **** 
  11:/usr/include/c++/9.2.0/cmath **** // This library is distributed in the hope that it will be useful,
  12:/usr/include/c++/9.2.0/cmath **** // but WITHOUT ANY WARRANTY; without even the implied warranty of
  13:/usr/include/c++/9.2.0/cmath **** // MERCHANTABILITY or FITNESS FOR A PARTICULAR PURPOSE.  See the
  14:/usr/include/c++/9.2.0/cmath **** // GNU General Public License for more details.
  15:/usr/include/c++/9.2.0/cmath **** 
  16:/usr/include/c++/9.2.0/cmath **** // Under Section 7 of GPL version 3, you are granted additional
  17:/usr/include/c++/9.2.0/cmath **** // permissions described in the GCC Runtime Library Exception, version
  18:/usr/include/c++/9.2.0/cmath **** // 3.1, as published by the Free Software Foundation.
  19:/usr/include/c++/9.2.0/cmath **** 
  20:/usr/include/c++/9.2.0/cmath **** // You should have received a copy of the GNU General Public License and
  21:/usr/include/c++/9.2.0/cmath **** // a copy of the GCC Runtime Library Exception along with this program;
  22:/usr/include/c++/9.2.0/cmath **** // see the files COPYING3 and COPYING.RUNTIME respectively.  If not, see
  23:/usr/include/c++/9.2.0/cmath **** // <http://www.gnu.org/licenses/>.
  24:/usr/include/c++/9.2.0/cmath **** 
  25:/usr/include/c++/9.2.0/cmath **** /** @file include/cmath
  26:/usr/include/c++/9.2.0/cmath ****  *  This is a Standard C++ Library file.  You should @c \#include this file
  27:/usr/include/c++/9.2.0/cmath ****  *  in your programs, rather than any of the @a *.h implementation files.
  28:/usr/include/c++/9.2.0/cmath ****  *
  29:/usr/include/c++/9.2.0/cmath ****  *  This is the C++ version of the Standard C Library header @c math.h,
  30:/usr/include/c++/9.2.0/cmath ****  *  and its contents are (mostly) the same as that header, but are all
  31:/usr/include/c++/9.2.0/cmath ****  *  contained in the namespace @c std (except for names which are defined
  32:/usr/include/c++/9.2.0/cmath ****  *  as macros in C).
  33:/usr/include/c++/9.2.0/cmath ****  */
  34:/usr/include/c++/9.2.0/cmath **** 
  35:/usr/include/c++/9.2.0/cmath **** //
  36:/usr/include/c++/9.2.0/cmath **** // ISO C++ 14882: 26.5  C library
  37:/usr/include/c++/9.2.0/cmath **** //
  38:/usr/include/c++/9.2.0/cmath **** 
  39:/usr/include/c++/9.2.0/cmath **** #pragma GCC system_header
  40:/usr/include/c++/9.2.0/cmath **** 
  41:/usr/include/c++/9.2.0/cmath **** #include <bits/c++config.h>
  42:/usr/include/c++/9.2.0/cmath **** #include <bits/cpp_type_traits.h>
  43:/usr/include/c++/9.2.0/cmath **** #include <ext/type_traits.h>
  44:/usr/include/c++/9.2.0/cmath **** #define _GLIBCXX_INCLUDE_NEXT_C_HEADERS
  45:/usr/include/c++/9.2.0/cmath **** #include_next <math.h>
  46:/usr/include/c++/9.2.0/cmath **** #undef _GLIBCXX_INCLUDE_NEXT_C_HEADERS
  47:/usr/include/c++/9.2.0/cmath **** #include <bits/std_abs.h>
  48:/usr/include/c++/9.2.0/cmath **** 
  49:/usr/include/c++/9.2.0/cmath **** #ifndef _GLIBCXX_CMATH
  50:/usr/include/c++/9.2.0/cmath **** #define _GLIBCXX_CMATH 1
  51:/usr/include/c++/9.2.0/cmath **** 
  52:/usr/include/c++/9.2.0/cmath **** // Get rid of those macros defined in <math.h> in lieu of real functions.
  53:/usr/include/c++/9.2.0/cmath **** #undef div
  54:/usr/include/c++/9.2.0/cmath **** #undef acos
  55:/usr/include/c++/9.2.0/cmath **** #undef asin
  56:/usr/include/c++/9.2.0/cmath **** #undef atan
  57:/usr/include/c++/9.2.0/cmath **** #undef atan2
  58:/usr/include/c++/9.2.0/cmath **** #undef ceil
  59:/usr/include/c++/9.2.0/cmath **** #undef cos
  60:/usr/include/c++/9.2.0/cmath **** #undef cosh
  61:/usr/include/c++/9.2.0/cmath **** #undef exp
GAS LISTING /tmp/ccVy0JI6.s 			page 14


  62:/usr/include/c++/9.2.0/cmath **** #undef fabs
  63:/usr/include/c++/9.2.0/cmath **** #undef floor
  64:/usr/include/c++/9.2.0/cmath **** #undef fmod
  65:/usr/include/c++/9.2.0/cmath **** #undef frexp
  66:/usr/include/c++/9.2.0/cmath **** #undef ldexp
  67:/usr/include/c++/9.2.0/cmath **** #undef log
  68:/usr/include/c++/9.2.0/cmath **** #undef log10
  69:/usr/include/c++/9.2.0/cmath **** #undef modf
  70:/usr/include/c++/9.2.0/cmath **** #undef pow
  71:/usr/include/c++/9.2.0/cmath **** #undef sin
  72:/usr/include/c++/9.2.0/cmath **** #undef sinh
  73:/usr/include/c++/9.2.0/cmath **** #undef sqrt
  74:/usr/include/c++/9.2.0/cmath **** #undef tan
  75:/usr/include/c++/9.2.0/cmath **** #undef tanh
  76:/usr/include/c++/9.2.0/cmath **** 
  77:/usr/include/c++/9.2.0/cmath **** extern "C++"
  78:/usr/include/c++/9.2.0/cmath **** {
  79:/usr/include/c++/9.2.0/cmath **** namespace std _GLIBCXX_VISIBILITY(default)
  80:/usr/include/c++/9.2.0/cmath **** {
  81:/usr/include/c++/9.2.0/cmath **** _GLIBCXX_BEGIN_NAMESPACE_VERSION
  82:/usr/include/c++/9.2.0/cmath **** 
  83:/usr/include/c++/9.2.0/cmath ****   using ::acos;
  84:/usr/include/c++/9.2.0/cmath **** 
  85:/usr/include/c++/9.2.0/cmath **** #ifndef __CORRECT_ISO_CPP_MATH_H_PROTO
  86:/usr/include/c++/9.2.0/cmath ****   inline _GLIBCXX_CONSTEXPR float
  87:/usr/include/c++/9.2.0/cmath ****   acos(float __x)
  88:/usr/include/c++/9.2.0/cmath ****   { return __builtin_acosf(__x); }
  89:/usr/include/c++/9.2.0/cmath **** 
  90:/usr/include/c++/9.2.0/cmath ****   inline _GLIBCXX_CONSTEXPR long double
  91:/usr/include/c++/9.2.0/cmath ****   acos(long double __x)
  92:/usr/include/c++/9.2.0/cmath ****   { return __builtin_acosl(__x); }
  93:/usr/include/c++/9.2.0/cmath **** #endif
  94:/usr/include/c++/9.2.0/cmath **** 
  95:/usr/include/c++/9.2.0/cmath ****   template<typename _Tp>
  96:/usr/include/c++/9.2.0/cmath ****     inline _GLIBCXX_CONSTEXPR
  97:/usr/include/c++/9.2.0/cmath ****     typename __gnu_cxx::__enable_if<__is_integer<_Tp>::__value, 
  98:/usr/include/c++/9.2.0/cmath ****                                     double>::__type
  99:/usr/include/c++/9.2.0/cmath ****     acos(_Tp __x)
 100:/usr/include/c++/9.2.0/cmath ****     { return __builtin_acos(__x); }
 101:/usr/include/c++/9.2.0/cmath **** 
 102:/usr/include/c++/9.2.0/cmath ****   using ::asin;
 103:/usr/include/c++/9.2.0/cmath **** 
 104:/usr/include/c++/9.2.0/cmath **** #ifndef __CORRECT_ISO_CPP_MATH_H_PROTO
 105:/usr/include/c++/9.2.0/cmath ****   inline _GLIBCXX_CONSTEXPR float
 106:/usr/include/c++/9.2.0/cmath ****   asin(float __x)
 107:/usr/include/c++/9.2.0/cmath ****   { return __builtin_asinf(__x); }
 108:/usr/include/c++/9.2.0/cmath **** 
 109:/usr/include/c++/9.2.0/cmath ****   inline _GLIBCXX_CONSTEXPR long double
 110:/usr/include/c++/9.2.0/cmath ****   asin(long double __x)
 111:/usr/include/c++/9.2.0/cmath ****   { return __builtin_asinl(__x); }
 112:/usr/include/c++/9.2.0/cmath **** #endif
 113:/usr/include/c++/9.2.0/cmath **** 
 114:/usr/include/c++/9.2.0/cmath ****   template<typename _Tp>
 115:/usr/include/c++/9.2.0/cmath ****     inline _GLIBCXX_CONSTEXPR
 116:/usr/include/c++/9.2.0/cmath ****     typename __gnu_cxx::__enable_if<__is_integer<_Tp>::__value,
 117:/usr/include/c++/9.2.0/cmath ****                                     double>::__type
 118:/usr/include/c++/9.2.0/cmath ****     asin(_Tp __x)
GAS LISTING /tmp/ccVy0JI6.s 			page 15


 119:/usr/include/c++/9.2.0/cmath ****     { return __builtin_asin(__x); }
 120:/usr/include/c++/9.2.0/cmath **** 
 121:/usr/include/c++/9.2.0/cmath ****   using ::atan;
 122:/usr/include/c++/9.2.0/cmath **** 
 123:/usr/include/c++/9.2.0/cmath **** #ifndef __CORRECT_ISO_CPP_MATH_H_PROTO
 124:/usr/include/c++/9.2.0/cmath ****   inline _GLIBCXX_CONSTEXPR float
 125:/usr/include/c++/9.2.0/cmath ****   atan(float __x)
 126:/usr/include/c++/9.2.0/cmath ****   { return __builtin_atanf(__x); }
 127:/usr/include/c++/9.2.0/cmath **** 
 128:/usr/include/c++/9.2.0/cmath ****   inline _GLIBCXX_CONSTEXPR long double
 129:/usr/include/c++/9.2.0/cmath ****   atan(long double __x)
 130:/usr/include/c++/9.2.0/cmath ****   { return __builtin_atanl(__x); }
 131:/usr/include/c++/9.2.0/cmath **** #endif
 132:/usr/include/c++/9.2.0/cmath **** 
 133:/usr/include/c++/9.2.0/cmath ****   template<typename _Tp>
 134:/usr/include/c++/9.2.0/cmath ****     inline _GLIBCXX_CONSTEXPR
 135:/usr/include/c++/9.2.0/cmath ****     typename __gnu_cxx::__enable_if<__is_integer<_Tp>::__value,
 136:/usr/include/c++/9.2.0/cmath ****                                     double>::__type
 137:/usr/include/c++/9.2.0/cmath ****     atan(_Tp __x)
 138:/usr/include/c++/9.2.0/cmath ****     { return __builtin_atan(__x); }
 139:/usr/include/c++/9.2.0/cmath **** 
 140:/usr/include/c++/9.2.0/cmath ****   using ::atan2;
 141:/usr/include/c++/9.2.0/cmath **** 
 142:/usr/include/c++/9.2.0/cmath **** #ifndef __CORRECT_ISO_CPP_MATH_H_PROTO
 143:/usr/include/c++/9.2.0/cmath ****   inline _GLIBCXX_CONSTEXPR float
 144:/usr/include/c++/9.2.0/cmath ****   atan2(float __y, float __x)
 145:/usr/include/c++/9.2.0/cmath ****   { return __builtin_atan2f(__y, __x); }
 146:/usr/include/c++/9.2.0/cmath **** 
 147:/usr/include/c++/9.2.0/cmath ****   inline _GLIBCXX_CONSTEXPR long double
 148:/usr/include/c++/9.2.0/cmath ****   atan2(long double __y, long double __x)
 149:/usr/include/c++/9.2.0/cmath ****   { return __builtin_atan2l(__y, __x); }
 150:/usr/include/c++/9.2.0/cmath **** #endif
 151:/usr/include/c++/9.2.0/cmath **** 
 152:/usr/include/c++/9.2.0/cmath ****   template<typename _Tp, typename _Up>
 153:/usr/include/c++/9.2.0/cmath ****     inline _GLIBCXX_CONSTEXPR
 154:/usr/include/c++/9.2.0/cmath ****     typename __gnu_cxx::__promote_2<_Tp, _Up>::__type
 155:/usr/include/c++/9.2.0/cmath ****     atan2(_Tp __y, _Up __x)
 156:/usr/include/c++/9.2.0/cmath ****     {
 157:/usr/include/c++/9.2.0/cmath ****       typedef typename __gnu_cxx::__promote_2<_Tp, _Up>::__type __type;
 158:/usr/include/c++/9.2.0/cmath ****       return atan2(__type(__y), __type(__x));
 159:/usr/include/c++/9.2.0/cmath ****     }
 160:/usr/include/c++/9.2.0/cmath **** 
 161:/usr/include/c++/9.2.0/cmath ****   using ::ceil;
 162:/usr/include/c++/9.2.0/cmath **** 
 163:/usr/include/c++/9.2.0/cmath **** #ifndef __CORRECT_ISO_CPP_MATH_H_PROTO
 164:/usr/include/c++/9.2.0/cmath ****   inline _GLIBCXX_CONSTEXPR float
 165:/usr/include/c++/9.2.0/cmath ****   ceil(float __x)
 166:/usr/include/c++/9.2.0/cmath ****   { return __builtin_ceilf(__x); }
 167:/usr/include/c++/9.2.0/cmath **** 
 168:/usr/include/c++/9.2.0/cmath ****   inline _GLIBCXX_CONSTEXPR long double
 169:/usr/include/c++/9.2.0/cmath ****   ceil(long double __x)
 170:/usr/include/c++/9.2.0/cmath ****   { return __builtin_ceill(__x); }
 171:/usr/include/c++/9.2.0/cmath **** #endif
 172:/usr/include/c++/9.2.0/cmath **** 
 173:/usr/include/c++/9.2.0/cmath ****   template<typename _Tp>
 174:/usr/include/c++/9.2.0/cmath ****     inline _GLIBCXX_CONSTEXPR
 175:/usr/include/c++/9.2.0/cmath ****     typename __gnu_cxx::__enable_if<__is_integer<_Tp>::__value, 
GAS LISTING /tmp/ccVy0JI6.s 			page 16


 176:/usr/include/c++/9.2.0/cmath ****                                     double>::__type
 177:/usr/include/c++/9.2.0/cmath ****     ceil(_Tp __x)
 178:/usr/include/c++/9.2.0/cmath ****     { return __builtin_ceil(__x); }
 179:/usr/include/c++/9.2.0/cmath **** 
 180:/usr/include/c++/9.2.0/cmath ****   using ::cos;
 181:/usr/include/c++/9.2.0/cmath **** 
 182:/usr/include/c++/9.2.0/cmath **** #ifndef __CORRECT_ISO_CPP_MATH_H_PROTO
 183:/usr/include/c++/9.2.0/cmath ****   inline _GLIBCXX_CONSTEXPR float
 184:/usr/include/c++/9.2.0/cmath ****   cos(float __x)
 185:/usr/include/c++/9.2.0/cmath ****   { return __builtin_cosf(__x); }
 482              		.loc 2 185 5 view .LVU127
 483              		.loc 1 75 39 is_stmt 0 view .LVU128
 484 039a F30F105C 		movss	20(%rsp), %xmm3
 484      2414
 485 03a0 0F28E3   		movaps	%xmm3, %xmm4
 486 03a3 F30F5925 		mulss	.LC4(%rip), %xmm4
 486      00000000 
 487              		.loc 1 75 35 view .LVU129
 488 03ab F30F1164 		movss	%xmm4, 20(%rsp)
 488      2414
 489              	.LVL60:
 490              		.loc 1 75 35 view .LVU130
 491 03b1 F30F5864 		addss	8(%rsp), %xmm4
 491      2408
 492              		.loc 1 75 12 view .LVU131
 493 03b7 660FEFF6 		pxor	%xmm6, %xmm6
 494 03bb F30F5AF4 		cvtss2sd	%xmm4, %xmm6
 495              	.LVL61:
 186:/usr/include/c++/9.2.0/cmath **** 
 187:/usr/include/c++/9.2.0/cmath ****   inline _GLIBCXX_CONSTEXPR long double
 188:/usr/include/c++/9.2.0/cmath ****   cos(long double __x)
 189:/usr/include/c++/9.2.0/cmath ****   { return __builtin_cosl(__x); }
 190:/usr/include/c++/9.2.0/cmath **** #endif
 191:/usr/include/c++/9.2.0/cmath **** 
 192:/usr/include/c++/9.2.0/cmath ****   template<typename _Tp>
 193:/usr/include/c++/9.2.0/cmath ****     inline _GLIBCXX_CONSTEXPR
 194:/usr/include/c++/9.2.0/cmath ****     typename __gnu_cxx::__enable_if<__is_integer<_Tp>::__value,
 195:/usr/include/c++/9.2.0/cmath ****                                     double>::__type
 196:/usr/include/c++/9.2.0/cmath ****     cos(_Tp __x)
 197:/usr/include/c++/9.2.0/cmath ****     { return __builtin_cos(__x); }
 198:/usr/include/c++/9.2.0/cmath **** 
 199:/usr/include/c++/9.2.0/cmath ****   using ::cosh;
 200:/usr/include/c++/9.2.0/cmath **** 
 201:/usr/include/c++/9.2.0/cmath **** #ifndef __CORRECT_ISO_CPP_MATH_H_PROTO
 202:/usr/include/c++/9.2.0/cmath ****   inline _GLIBCXX_CONSTEXPR float
 203:/usr/include/c++/9.2.0/cmath ****   cosh(float __x)
 204:/usr/include/c++/9.2.0/cmath ****   { return __builtin_coshf(__x); }
 205:/usr/include/c++/9.2.0/cmath **** 
 206:/usr/include/c++/9.2.0/cmath ****   inline _GLIBCXX_CONSTEXPR long double
 207:/usr/include/c++/9.2.0/cmath ****   cosh(long double __x)
 208:/usr/include/c++/9.2.0/cmath ****   { return __builtin_coshl(__x); }
 209:/usr/include/c++/9.2.0/cmath **** #endif
 210:/usr/include/c++/9.2.0/cmath **** 
 211:/usr/include/c++/9.2.0/cmath ****   template<typename _Tp>
 212:/usr/include/c++/9.2.0/cmath ****     inline _GLIBCXX_CONSTEXPR
 213:/usr/include/c++/9.2.0/cmath ****     typename __gnu_cxx::__enable_if<__is_integer<_Tp>::__value,
 214:/usr/include/c++/9.2.0/cmath ****                                     double>::__type
GAS LISTING /tmp/ccVy0JI6.s 			page 17


 215:/usr/include/c++/9.2.0/cmath ****     cosh(_Tp __x)
 216:/usr/include/c++/9.2.0/cmath ****     { return __builtin_cosh(__x); }
 217:/usr/include/c++/9.2.0/cmath **** 
 218:/usr/include/c++/9.2.0/cmath ****   using ::exp;
 219:/usr/include/c++/9.2.0/cmath **** 
 220:/usr/include/c++/9.2.0/cmath **** #ifndef __CORRECT_ISO_CPP_MATH_H_PROTO
 221:/usr/include/c++/9.2.0/cmath ****   inline _GLIBCXX_CONSTEXPR float
 222:/usr/include/c++/9.2.0/cmath ****   exp(float __x)
 223:/usr/include/c++/9.2.0/cmath ****   { return __builtin_expf(__x); }
 224:/usr/include/c++/9.2.0/cmath **** 
 225:/usr/include/c++/9.2.0/cmath ****   inline _GLIBCXX_CONSTEXPR long double
 226:/usr/include/c++/9.2.0/cmath ****   exp(long double __x)
 227:/usr/include/c++/9.2.0/cmath ****   { return __builtin_expl(__x); }
 228:/usr/include/c++/9.2.0/cmath **** #endif
 229:/usr/include/c++/9.2.0/cmath **** 
 230:/usr/include/c++/9.2.0/cmath ****   template<typename _Tp>
 231:/usr/include/c++/9.2.0/cmath ****     inline _GLIBCXX_CONSTEXPR
 232:/usr/include/c++/9.2.0/cmath ****     typename __gnu_cxx::__enable_if<__is_integer<_Tp>::__value,
 233:/usr/include/c++/9.2.0/cmath ****                                     double>::__type
 234:/usr/include/c++/9.2.0/cmath ****     exp(_Tp __x)
 235:/usr/include/c++/9.2.0/cmath ****     { return __builtin_exp(__x); }
 236:/usr/include/c++/9.2.0/cmath **** 
 237:/usr/include/c++/9.2.0/cmath ****   using ::fabs;
 238:/usr/include/c++/9.2.0/cmath **** 
 239:/usr/include/c++/9.2.0/cmath **** #ifndef __CORRECT_ISO_CPP_MATH_H_PROTO
 240:/usr/include/c++/9.2.0/cmath ****   inline _GLIBCXX_CONSTEXPR float
 241:/usr/include/c++/9.2.0/cmath ****   fabs(float __x)
 242:/usr/include/c++/9.2.0/cmath ****   { return __builtin_fabsf(__x); }
 243:/usr/include/c++/9.2.0/cmath **** 
 244:/usr/include/c++/9.2.0/cmath ****   inline _GLIBCXX_CONSTEXPR long double
 245:/usr/include/c++/9.2.0/cmath ****   fabs(long double __x)
 246:/usr/include/c++/9.2.0/cmath ****   { return __builtin_fabsl(__x); }
 247:/usr/include/c++/9.2.0/cmath **** #endif
 248:/usr/include/c++/9.2.0/cmath **** 
 249:/usr/include/c++/9.2.0/cmath ****   template<typename _Tp>
 250:/usr/include/c++/9.2.0/cmath ****     inline _GLIBCXX_CONSTEXPR
 251:/usr/include/c++/9.2.0/cmath ****     typename __gnu_cxx::__enable_if<__is_integer<_Tp>::__value,
 252:/usr/include/c++/9.2.0/cmath ****                                     double>::__type
 253:/usr/include/c++/9.2.0/cmath ****     fabs(_Tp __x)
 254:/usr/include/c++/9.2.0/cmath ****     { return __builtin_fabs(__x); }
 255:/usr/include/c++/9.2.0/cmath **** 
 256:/usr/include/c++/9.2.0/cmath ****   using ::floor;
 257:/usr/include/c++/9.2.0/cmath **** 
 258:/usr/include/c++/9.2.0/cmath **** #ifndef __CORRECT_ISO_CPP_MATH_H_PROTO
 259:/usr/include/c++/9.2.0/cmath ****   inline _GLIBCXX_CONSTEXPR float
 260:/usr/include/c++/9.2.0/cmath ****   floor(float __x)
 261:/usr/include/c++/9.2.0/cmath ****   { return __builtin_floorf(__x); }
 262:/usr/include/c++/9.2.0/cmath **** 
 263:/usr/include/c++/9.2.0/cmath ****   inline _GLIBCXX_CONSTEXPR long double
 264:/usr/include/c++/9.2.0/cmath ****   floor(long double __x)
 265:/usr/include/c++/9.2.0/cmath ****   { return __builtin_floorl(__x); }
 266:/usr/include/c++/9.2.0/cmath **** #endif
 267:/usr/include/c++/9.2.0/cmath **** 
 268:/usr/include/c++/9.2.0/cmath ****   template<typename _Tp>
 269:/usr/include/c++/9.2.0/cmath ****     inline _GLIBCXX_CONSTEXPR
 270:/usr/include/c++/9.2.0/cmath ****     typename __gnu_cxx::__enable_if<__is_integer<_Tp>::__value,
 271:/usr/include/c++/9.2.0/cmath ****                                     double>::__type
GAS LISTING /tmp/ccVy0JI6.s 			page 18


 272:/usr/include/c++/9.2.0/cmath ****     floor(_Tp __x)
 273:/usr/include/c++/9.2.0/cmath ****     { return __builtin_floor(__x); }
 274:/usr/include/c++/9.2.0/cmath **** 
 275:/usr/include/c++/9.2.0/cmath ****   using ::fmod;
 276:/usr/include/c++/9.2.0/cmath **** 
 277:/usr/include/c++/9.2.0/cmath **** #ifndef __CORRECT_ISO_CPP_MATH_H_PROTO
 278:/usr/include/c++/9.2.0/cmath ****   inline _GLIBCXX_CONSTEXPR float
 279:/usr/include/c++/9.2.0/cmath ****   fmod(float __x, float __y)
 280:/usr/include/c++/9.2.0/cmath ****   { return __builtin_fmodf(__x, __y); }
 281:/usr/include/c++/9.2.0/cmath **** 
 282:/usr/include/c++/9.2.0/cmath ****   inline _GLIBCXX_CONSTEXPR long double
 283:/usr/include/c++/9.2.0/cmath ****   fmod(long double __x, long double __y)
 284:/usr/include/c++/9.2.0/cmath ****   { return __builtin_fmodl(__x, __y); }
 285:/usr/include/c++/9.2.0/cmath **** #endif
 286:/usr/include/c++/9.2.0/cmath **** 
 287:/usr/include/c++/9.2.0/cmath ****   template<typename _Tp, typename _Up>
 288:/usr/include/c++/9.2.0/cmath ****     inline _GLIBCXX_CONSTEXPR
 289:/usr/include/c++/9.2.0/cmath ****     typename __gnu_cxx::__promote_2<_Tp, _Up>::__type
 290:/usr/include/c++/9.2.0/cmath ****     fmod(_Tp __x, _Up __y)
 291:/usr/include/c++/9.2.0/cmath ****     {
 292:/usr/include/c++/9.2.0/cmath ****       typedef typename __gnu_cxx::__promote_2<_Tp, _Up>::__type __type;
 293:/usr/include/c++/9.2.0/cmath ****       return fmod(__type(__x), __type(__y));
 294:/usr/include/c++/9.2.0/cmath ****     }
 295:/usr/include/c++/9.2.0/cmath **** 
 296:/usr/include/c++/9.2.0/cmath ****   using ::frexp;
 297:/usr/include/c++/9.2.0/cmath **** 
 298:/usr/include/c++/9.2.0/cmath **** #ifndef __CORRECT_ISO_CPP_MATH_H_PROTO
 299:/usr/include/c++/9.2.0/cmath ****   inline float
 300:/usr/include/c++/9.2.0/cmath ****   frexp(float __x, int* __exp)
 301:/usr/include/c++/9.2.0/cmath ****   { return __builtin_frexpf(__x, __exp); }
 302:/usr/include/c++/9.2.0/cmath **** 
 303:/usr/include/c++/9.2.0/cmath ****   inline long double
 304:/usr/include/c++/9.2.0/cmath ****   frexp(long double __x, int* __exp)
 305:/usr/include/c++/9.2.0/cmath ****   { return __builtin_frexpl(__x, __exp); }
 306:/usr/include/c++/9.2.0/cmath **** #endif
 307:/usr/include/c++/9.2.0/cmath **** 
 308:/usr/include/c++/9.2.0/cmath ****   template<typename _Tp>
 309:/usr/include/c++/9.2.0/cmath ****     inline _GLIBCXX_CONSTEXPR
 310:/usr/include/c++/9.2.0/cmath ****     typename __gnu_cxx::__enable_if<__is_integer<_Tp>::__value, 
 311:/usr/include/c++/9.2.0/cmath ****                                     double>::__type
 312:/usr/include/c++/9.2.0/cmath ****     frexp(_Tp __x, int* __exp)
 313:/usr/include/c++/9.2.0/cmath ****     { return __builtin_frexp(__x, __exp); }
 314:/usr/include/c++/9.2.0/cmath **** 
 315:/usr/include/c++/9.2.0/cmath ****   using ::ldexp;
 316:/usr/include/c++/9.2.0/cmath **** 
 317:/usr/include/c++/9.2.0/cmath **** #ifndef __CORRECT_ISO_CPP_MATH_H_PROTO
 318:/usr/include/c++/9.2.0/cmath ****   inline _GLIBCXX_CONSTEXPR float
 319:/usr/include/c++/9.2.0/cmath ****   ldexp(float __x, int __exp)
 320:/usr/include/c++/9.2.0/cmath ****   { return __builtin_ldexpf(__x, __exp); }
 321:/usr/include/c++/9.2.0/cmath **** 
 322:/usr/include/c++/9.2.0/cmath ****   inline _GLIBCXX_CONSTEXPR long double
 323:/usr/include/c++/9.2.0/cmath ****   ldexp(long double __x, int __exp)
 324:/usr/include/c++/9.2.0/cmath ****   { return __builtin_ldexpl(__x, __exp); }
 325:/usr/include/c++/9.2.0/cmath **** #endif
 326:/usr/include/c++/9.2.0/cmath **** 
 327:/usr/include/c++/9.2.0/cmath ****   template<typename _Tp>
 328:/usr/include/c++/9.2.0/cmath ****     inline _GLIBCXX_CONSTEXPR
GAS LISTING /tmp/ccVy0JI6.s 			page 19


 329:/usr/include/c++/9.2.0/cmath ****     typename __gnu_cxx::__enable_if<__is_integer<_Tp>::__value, 
 330:/usr/include/c++/9.2.0/cmath ****                                     double>::__type
 331:/usr/include/c++/9.2.0/cmath ****     ldexp(_Tp __x, int __exp)
 332:/usr/include/c++/9.2.0/cmath ****     { return __builtin_ldexp(__x, __exp); }
 333:/usr/include/c++/9.2.0/cmath **** 
 334:/usr/include/c++/9.2.0/cmath ****   using ::log;
 335:/usr/include/c++/9.2.0/cmath **** 
 336:/usr/include/c++/9.2.0/cmath **** #ifndef __CORRECT_ISO_CPP_MATH_H_PROTO
 337:/usr/include/c++/9.2.0/cmath ****   inline _GLIBCXX_CONSTEXPR float
 338:/usr/include/c++/9.2.0/cmath ****   log(float __x)
 339:/usr/include/c++/9.2.0/cmath ****   { return __builtin_logf(__x); }
 340:/usr/include/c++/9.2.0/cmath **** 
 341:/usr/include/c++/9.2.0/cmath ****   inline _GLIBCXX_CONSTEXPR long double
 342:/usr/include/c++/9.2.0/cmath ****   log(long double __x)
 343:/usr/include/c++/9.2.0/cmath ****   { return __builtin_logl(__x); }
 344:/usr/include/c++/9.2.0/cmath **** #endif
 345:/usr/include/c++/9.2.0/cmath **** 
 346:/usr/include/c++/9.2.0/cmath ****   template<typename _Tp>
 347:/usr/include/c++/9.2.0/cmath ****     inline _GLIBCXX_CONSTEXPR
 348:/usr/include/c++/9.2.0/cmath ****     typename __gnu_cxx::__enable_if<__is_integer<_Tp>::__value, 
 349:/usr/include/c++/9.2.0/cmath ****                                     double>::__type
 350:/usr/include/c++/9.2.0/cmath ****     log(_Tp __x)
 351:/usr/include/c++/9.2.0/cmath ****     { return __builtin_log(__x); }
 352:/usr/include/c++/9.2.0/cmath **** 
 353:/usr/include/c++/9.2.0/cmath ****   using ::log10;
 354:/usr/include/c++/9.2.0/cmath **** 
 355:/usr/include/c++/9.2.0/cmath **** #ifndef __CORRECT_ISO_CPP_MATH_H_PROTO
 356:/usr/include/c++/9.2.0/cmath ****   inline _GLIBCXX_CONSTEXPR float
 357:/usr/include/c++/9.2.0/cmath ****   log10(float __x)
 358:/usr/include/c++/9.2.0/cmath ****   { return __builtin_log10f(__x); }
 359:/usr/include/c++/9.2.0/cmath **** 
 360:/usr/include/c++/9.2.0/cmath ****   inline _GLIBCXX_CONSTEXPR long double
 361:/usr/include/c++/9.2.0/cmath ****   log10(long double __x)
 362:/usr/include/c++/9.2.0/cmath ****   { return __builtin_log10l(__x); }
 363:/usr/include/c++/9.2.0/cmath **** #endif
 364:/usr/include/c++/9.2.0/cmath **** 
 365:/usr/include/c++/9.2.0/cmath ****   template<typename _Tp>
 366:/usr/include/c++/9.2.0/cmath ****     inline _GLIBCXX_CONSTEXPR
 367:/usr/include/c++/9.2.0/cmath ****     typename __gnu_cxx::__enable_if<__is_integer<_Tp>::__value,
 368:/usr/include/c++/9.2.0/cmath ****                                     double>::__type
 369:/usr/include/c++/9.2.0/cmath ****     log10(_Tp __x)
 370:/usr/include/c++/9.2.0/cmath ****     { return __builtin_log10(__x); }
 371:/usr/include/c++/9.2.0/cmath **** 
 372:/usr/include/c++/9.2.0/cmath ****   using ::modf;
 373:/usr/include/c++/9.2.0/cmath **** 
 374:/usr/include/c++/9.2.0/cmath **** #ifndef __CORRECT_ISO_CPP_MATH_H_PROTO
 375:/usr/include/c++/9.2.0/cmath ****   inline float
 376:/usr/include/c++/9.2.0/cmath ****   modf(float __x, float* __iptr)
 377:/usr/include/c++/9.2.0/cmath ****   { return __builtin_modff(__x, __iptr); }
 378:/usr/include/c++/9.2.0/cmath **** 
 379:/usr/include/c++/9.2.0/cmath ****   inline long double
 380:/usr/include/c++/9.2.0/cmath ****   modf(long double __x, long double* __iptr)
 381:/usr/include/c++/9.2.0/cmath ****   { return __builtin_modfl(__x, __iptr); }
 382:/usr/include/c++/9.2.0/cmath **** #endif
 383:/usr/include/c++/9.2.0/cmath **** 
 384:/usr/include/c++/9.2.0/cmath ****   using ::pow;
 385:/usr/include/c++/9.2.0/cmath **** 
GAS LISTING /tmp/ccVy0JI6.s 			page 20


 386:/usr/include/c++/9.2.0/cmath **** #ifndef __CORRECT_ISO_CPP_MATH_H_PROTO
 387:/usr/include/c++/9.2.0/cmath ****   inline _GLIBCXX_CONSTEXPR float
 388:/usr/include/c++/9.2.0/cmath ****   pow(float __x, float __y)
 389:/usr/include/c++/9.2.0/cmath ****   { return __builtin_powf(__x, __y); }
 390:/usr/include/c++/9.2.0/cmath **** 
 391:/usr/include/c++/9.2.0/cmath ****   inline _GLIBCXX_CONSTEXPR long double
 392:/usr/include/c++/9.2.0/cmath ****   pow(long double __x, long double __y)
 393:/usr/include/c++/9.2.0/cmath ****   { return __builtin_powl(__x, __y); }
 394:/usr/include/c++/9.2.0/cmath **** 
 395:/usr/include/c++/9.2.0/cmath **** #if __cplusplus < 201103L
 396:/usr/include/c++/9.2.0/cmath ****   // _GLIBCXX_RESOLVE_LIB_DEFECTS
 397:/usr/include/c++/9.2.0/cmath ****   // DR 550. What should the return type of pow(float,int) be?
 398:/usr/include/c++/9.2.0/cmath ****   inline double
 399:/usr/include/c++/9.2.0/cmath ****   pow(double __x, int __i)
 400:/usr/include/c++/9.2.0/cmath ****   { return __builtin_powi(__x, __i); }
 401:/usr/include/c++/9.2.0/cmath **** 
 402:/usr/include/c++/9.2.0/cmath ****   inline float
 403:/usr/include/c++/9.2.0/cmath ****   pow(float __x, int __n)
 404:/usr/include/c++/9.2.0/cmath ****   { return __builtin_powif(__x, __n); }
 405:/usr/include/c++/9.2.0/cmath **** 
 406:/usr/include/c++/9.2.0/cmath ****   inline long double
 407:/usr/include/c++/9.2.0/cmath ****   pow(long double __x, int __n)
 408:/usr/include/c++/9.2.0/cmath ****   { return __builtin_powil(__x, __n); }
 409:/usr/include/c++/9.2.0/cmath **** #endif
 410:/usr/include/c++/9.2.0/cmath **** #endif
 411:/usr/include/c++/9.2.0/cmath **** 
 412:/usr/include/c++/9.2.0/cmath ****   template<typename _Tp, typename _Up>
 413:/usr/include/c++/9.2.0/cmath ****     inline _GLIBCXX_CONSTEXPR
 414:/usr/include/c++/9.2.0/cmath ****     typename __gnu_cxx::__promote_2<_Tp, _Up>::__type
 415:/usr/include/c++/9.2.0/cmath ****     pow(_Tp __x, _Up __y)
 416:/usr/include/c++/9.2.0/cmath ****     {
 417:/usr/include/c++/9.2.0/cmath ****       typedef typename __gnu_cxx::__promote_2<_Tp, _Up>::__type __type;
 418:/usr/include/c++/9.2.0/cmath ****       return pow(__type(__x), __type(__y));
 419:/usr/include/c++/9.2.0/cmath ****     }
 420:/usr/include/c++/9.2.0/cmath **** 
 421:/usr/include/c++/9.2.0/cmath ****   using ::sin;
 422:/usr/include/c++/9.2.0/cmath **** 
 423:/usr/include/c++/9.2.0/cmath **** #ifndef __CORRECT_ISO_CPP_MATH_H_PROTO
 424:/usr/include/c++/9.2.0/cmath ****   inline _GLIBCXX_CONSTEXPR float
 425:/usr/include/c++/9.2.0/cmath ****   sin(float __x)
 426:/usr/include/c++/9.2.0/cmath ****   { return __builtin_sinf(__x); }
 496              		.loc 2 426 5 is_stmt 1 view .LVU132
 497              		.loc 1 75 19 is_stmt 0 view .LVU133
 498 03bf F30F591D 		mulss	.LC5(%rip), %xmm3
 498      00000000 
 499              		.loc 1 75 15 view .LVU134
 500 03c7 F30F115C 		movss	%xmm3, 24(%rsp)
 500      2418
 501 03cd 0F28EB   		movaps	%xmm3, %xmm5
 502 03d0 F30F582C 		addss	(%rsp), %xmm5
 502      24
 503              		.loc 1 75 12 view .LVU135
 504 03d5 660FEFC0 		pxor	%xmm0, %xmm0
 505 03d9 F30F5AC5 		cvtss2sd	%xmm5, %xmm0
 506 03dd F20F1174 		movsd	%xmm6, 32(%rsp)
 506      2420
 507 03e3 660F28CE 		movapd	%xmm6, %xmm1
GAS LISTING /tmp/ccVy0JI6.s 			page 21


 508 03e7 F20F1144 		movsd	%xmm0, 40(%rsp)
 508      2428
 509 03ed E8000000 		call	glVertex2d@PLT
 509      00
 510              	.LVL62:
  76:Src/routines.cpp **** 	glVertex2d(x - a * sin(alpha), y + a * cos(alpha));
 511              		.loc 1 76 2 is_stmt 1 view .LVU136
 185:/usr/include/c++/9.2.0/cmath **** 
 512              		.loc 2 185 5 view .LVU137
 513              		.loc 2 426 5 view .LVU138
 514              		.loc 1 76 15 is_stmt 0 view .LVU139
 515 03f2 F30F1014 		movss	(%rsp), %xmm2
 515      24
 516 03f7 F30F5C54 		subss	24(%rsp), %xmm2
 516      2418
 517              		.loc 1 76 12 view .LVU140
 518 03fd 66450FEF 		pxor	%xmm8, %xmm8
 518      C0
 519 0402 F3440F5A 		cvtss2sd	%xmm2, %xmm8
 519      C2
 520 0407 F20F104C 		movsd	32(%rsp), %xmm1
 520      2420
 521 040d F2440F11 		movsd	%xmm8, 32(%rsp)
 521      442420
 522 0414 66410F28 		movapd	%xmm8, %xmm0
 522      C0
 523 0419 E8000000 		call	glVertex2d@PLT
 523      00
 524              	.LVL63:
  77:Src/routines.cpp **** 	glVertex2d(x - a * cos(alpha), y + a * sin(alpha));
 525              		.loc 1 77 2 is_stmt 1 view .LVU141
 526              		.loc 2 426 5 view .LVU142
 527              		.loc 1 77 35 is_stmt 0 view .LVU143
 528 041e F30F1074 		movss	24(%rsp), %xmm6
 528      2418
 529 0424 F30F5874 		addss	8(%rsp), %xmm6
 529      2408
 530              		.loc 1 77 12 view .LVU144
 531 042a 66450FEF 		pxor	%xmm9, %xmm9
 531      C9
 532 042f F3440F5A 		cvtss2sd	%xmm6, %xmm9
 532      CE
 533              	.LVL64:
 185:/usr/include/c++/9.2.0/cmath **** 
 534              		.loc 2 185 5 is_stmt 1 view .LVU145
 535              		.loc 1 77 15 is_stmt 0 view .LVU146
 536 0434 F30F100C 		movss	(%rsp), %xmm1
 536      24
 537 0439 F30F5C4C 		subss	20(%rsp), %xmm1
 537      2414
 538              		.loc 1 77 12 view .LVU147
 539 043f 660FEFDB 		pxor	%xmm3, %xmm3
 540 0443 F30F5AD9 		cvtss2sd	%xmm1, %xmm3
 541 0447 F2440F11 		movsd	%xmm9, 48(%rsp)
 541      4C2430
 542 044e 66410F28 		movapd	%xmm9, %xmm1
 542      C9
GAS LISTING /tmp/ccVy0JI6.s 			page 22


 543 0453 F20F115C 		movsd	%xmm3, 56(%rsp)
 543      2438
 544 0459 660F28C3 		movapd	%xmm3, %xmm0
 545 045d E8000000 		call	glVertex2d@PLT
 545      00
 546              	.LVL65:
  78:Src/routines.cpp **** 	glVertex2d(x - a * cos(alpha), y - a * sin(alpha));
 547              		.loc 1 78 2 is_stmt 1 view .LVU148
 548              		.loc 2 426 5 view .LVU149
 549              		.loc 1 78 35 is_stmt 0 view .LVU150
 550 0462 F30F107C 		movss	8(%rsp), %xmm7
 550      2408
 551 0468 F30F5C7C 		subss	24(%rsp), %xmm7
 551      2418
 552              		.loc 1 78 12 view .LVU151
 553 046e 660FEFED 		pxor	%xmm5, %xmm5
 554 0472 F30F5AEF 		cvtss2sd	%xmm7, %xmm5
 555              	.LVL66:
 185:/usr/include/c++/9.2.0/cmath **** 
 556              		.loc 2 185 5 is_stmt 1 view .LVU152
 557              		.loc 1 78 12 is_stmt 0 view .LVU153
 558 0476 F20F116C 		movsd	%xmm5, 24(%rsp)
 558      2418
 559 047c 660F28CD 		movapd	%xmm5, %xmm1
 560 0480 F20F1044 		movsd	56(%rsp), %xmm0
 560      2438
 561 0486 E8000000 		call	glVertex2d@PLT
 561      00
 562              	.LVL67:
  79:Src/routines.cpp **** 	glVertex2d(x - a * sin(alpha), y - a * cos(alpha));
 563              		.loc 1 79 2 is_stmt 1 view .LVU154
 185:/usr/include/c++/9.2.0/cmath **** 
 564              		.loc 2 185 5 view .LVU155
 565              		.loc 1 79 35 is_stmt 0 view .LVU156
 566 048b F30F107C 		movss	8(%rsp), %xmm7
 566      2408
 567 0491 F30F5C7C 		subss	20(%rsp), %xmm7
 567      2414
 568              		.loc 1 79 12 view .LVU157
 569 0497 660FEFF6 		pxor	%xmm6, %xmm6
 570 049b F30F5AF7 		cvtss2sd	%xmm7, %xmm6
 571              	.LVL68:
 572              		.loc 2 426 5 is_stmt 1 view .LVU158
 573              		.loc 1 79 12 is_stmt 0 view .LVU159
 574 049f F20F1174 		movsd	%xmm6, 8(%rsp)
 574      2408
 575              	.LVL69:
 576              		.loc 1 79 12 view .LVU160
 577 04a5 660F28CE 		movapd	%xmm6, %xmm1
 578 04a9 F20F1044 		movsd	32(%rsp), %xmm0
 578      2420
 579 04af E8000000 		call	glVertex2d@PLT
 579      00
 580              	.LVL70:
  80:Src/routines.cpp **** 	glVertex2d(x + a * sin(alpha), y - a * cos(alpha));
 581              		.loc 1 80 2 is_stmt 1 view .LVU161
 185:/usr/include/c++/9.2.0/cmath **** 
GAS LISTING /tmp/ccVy0JI6.s 			page 23


 582              		.loc 2 185 5 view .LVU162
 583              		.loc 2 426 5 view .LVU163
 584              		.loc 1 80 12 is_stmt 0 view .LVU164
 585 04b4 F20F104C 		movsd	8(%rsp), %xmm1
 585      2408
 586 04ba F20F1044 		movsd	40(%rsp), %xmm0
 586      2428
 587 04c0 E8000000 		call	glVertex2d@PLT
 587      00
 588              	.LVL71:
  81:Src/routines.cpp **** 	glVertex2d(x + a * cos(alpha), y - a * sin(alpha));
 589              		.loc 1 81 2 is_stmt 1 view .LVU165
 590              		.loc 2 426 5 view .LVU166
 185:/usr/include/c++/9.2.0/cmath **** 
 591              		.loc 2 185 5 view .LVU167
 592              		.loc 1 81 15 is_stmt 0 view .LVU168
 593 04c5 F30F1044 		movss	20(%rsp), %xmm0
 593      2414
 594 04cb F30F5804 		addss	(%rsp), %xmm0
 594      24
 595              		.loc 1 81 12 view .LVU169
 596 04d0 660FEFD2 		pxor	%xmm2, %xmm2
 597 04d4 F30F5AD0 		cvtss2sd	%xmm0, %xmm2
 598 04d8 F20F104C 		movsd	24(%rsp), %xmm1
 598      2418
 599 04de F20F1114 		movsd	%xmm2, (%rsp)
 599      24
 600              	.LVL72:
 601              		.loc 1 81 12 view .LVU170
 602 04e3 660F28C2 		movapd	%xmm2, %xmm0
 603 04e7 E8000000 		call	glVertex2d@PLT
 603      00
 604              	.LVL73:
  82:Src/routines.cpp **** 	glVertex2d(x + a * cos(alpha), y + a * sin(alpha));
 605              		.loc 1 82 2 is_stmt 1 view .LVU171
 606              		.loc 2 426 5 view .LVU172
 185:/usr/include/c++/9.2.0/cmath **** 
 607              		.loc 2 185 5 view .LVU173
 608              		.loc 1 82 12 is_stmt 0 view .LVU174
 609 04ec F20F104C 		movsd	48(%rsp), %xmm1
 609      2430
 610 04f2 F20F1004 		movsd	(%rsp), %xmm0
 610      24
 611 04f7 E8000000 		call	glVertex2d@PLT
 611      00
 612              	.LVL74:
  83:Src/routines.cpp **** 	glEnd();
 613              		.loc 1 83 2 is_stmt 1 view .LVU175
 614              		.loc 1 83 7 is_stmt 0 view .LVU176
 615 04fc E8000000 		call	glEnd@PLT
 615      00
 616              	.LVL75:
  84:Src/routines.cpp **** }
 617              		.loc 1 84 1 view .LVU177
 618 0501 4883C448 		addq	$72, %rsp
 619              		.cfi_def_cfa_offset 8
 620 0505 C3       		ret
GAS LISTING /tmp/ccVy0JI6.s 			page 24


 621              		.cfi_endproc
 622              	.LFE1965:
 624              		.globl	_Z8drawQuadfff
 626              	_Z8drawQuadfff:
 627              	.LVL76:
 628              	.LFB1966:
  85:Src/routines.cpp **** 
  86:Src/routines.cpp **** void drawQuad(float x, float y, float a)
  87:Src/routines.cpp **** {
 629              		.loc 1 87 1 is_stmt 1 view -0
 630              		.cfi_startproc
 631              		.loc 1 87 1 is_stmt 0 view .LVU179
 632 0506 4883EC08 		subq	$8, %rsp
 633              		.cfi_def_cfa_offset 16
  88:Src/routines.cpp **** 	drawRect(x, y, a, a);
 634              		.loc 1 88 2 is_stmt 1 view .LVU180
 635              		.loc 1 88 10 is_stmt 0 view .LVU181
 636 050a 0F28DA   		movaps	%xmm2, %xmm3
 637 050d E8000000 		call	_Z8drawRectffff
 637      00
 638              	.LVL77:
  89:Src/routines.cpp **** }
 639              		.loc 1 89 1 view .LVU182
 640 0512 4883C408 		addq	$8, %rsp
 641              		.cfi_def_cfa_offset 8
 642 0516 C3       		ret
 643              		.cfi_endproc
 644              	.LFE1966:
 646              		.section	.rodata.str1.8,"aMS",@progbits,1
 647              		.align 8
 648              	.LC6:
 649 0000 2F757372 		.string	"/usr/share/fonts/TTF/Hack-Italic.ttf"
 649      2F736861 
 649      72652F66 
 649      6F6E7473 
 649      2F545446 
 650              		.text
 651              		.globl	_Z8drawTextNSt7__cxx1112basic_stringIwSt11char_traitsIwESaIwEEEiii
 653              	_Z8drawTextNSt7__cxx1112basic_stringIwSt11char_traitsIwESaIwEEEiii:
 654              	.LVL78:
 655              	.LFB1967:
  90:Src/routines.cpp **** 
  91:Src/routines.cpp **** 
  92:Src/routines.cpp **** void drawText(std::wstring text, int size, int x, int y)
  93:Src/routines.cpp **** {
 656              		.loc 1 93 1 is_stmt 1 view -0
 657              		.cfi_startproc
 658              		.cfi_personality 0x9b,DW.ref.__gxx_personality_v0
 659              		.cfi_lsda 0x1b,.LLSDA1967
 660              		.loc 1 93 1 is_stmt 0 view .LVU184
 661 0517 55       		pushq	%rbp
 662              		.cfi_def_cfa_offset 16
 663              		.cfi_offset 6, -16
 664 0518 4889E5   		movq	%rsp, %rbp
 665              		.cfi_def_cfa_register 6
 666 051b 4157     		pushq	%r15
 667 051d 4156     		pushq	%r14
GAS LISTING /tmp/ccVy0JI6.s 			page 25


 668 051f 4155     		pushq	%r13
 669 0521 4154     		pushq	%r12
 670 0523 53       		pushq	%rbx
 671 0524 4883EC78 		subq	$120, %rsp
 672              		.cfi_offset 15, -24
 673              		.cfi_offset 14, -32
 674              		.cfi_offset 13, -40
 675              		.cfi_offset 12, -48
 676              		.cfi_offset 3, -56
 677 0528 4989FF   		movq	%rdi, %r15
 678 052b 4189F5   		movl	%esi, %r13d
 679 052e 89D3     		movl	%edx, %ebx
 680 0530 4189CE   		movl	%ecx, %r14d
 681              		.loc 1 93 1 view .LVU185
 682 0533 64488B04 		movq	%fs:40, %rax
 682      25280000 
 682      00
 683 053c 488945C8 		movq	%rax, -56(%rbp)
 684 0540 31C0     		xorl	%eax, %eax
  94:Src/routines.cpp **** 	FTGLPixmapFont hack_italic_font("/usr/share/fonts/TTF/Hack-Italic.ttf");
 685              		.loc 1 94 2 is_stmt 1 view .LVU186
 686              		.loc 1 94 72 is_stmt 0 view .LVU187
 687 0542 4C8DA560 		leaq	-160(%rbp), %r12
 687      FFFFFF
 688 0549 488D3500 		leaq	.LC6(%rip), %rsi
 688      000000
 689              	.LVL79:
 690              		.loc 1 94 72 view .LVU188
 691 0550 4C89E7   		movq	%r12, %rdi
 692              	.LVL80:
 693              	.LEHB0:
 694              		.loc 1 94 72 view .LVU189
 695 0553 E8000000 		call	_ZN12FTPixmapFontC1EPKc@PLT
 695      00
 696              	.LVL81:
 697              	.LEHE0:
  95:Src/routines.cpp **** 	if(!hack_italic_font.Error())
 698              		.loc 1 95 2 is_stmt 1 view .LVU190
 699              		.loc 1 95 28 is_stmt 0 view .LVU191
 700 0558 4C89E7   		movq	%r12, %rdi
 701              	.LEHB1:
 702 055b E8000000 		call	_ZNK6FTFont5ErrorEv@PLT
 702      00
 703              	.LVL82:
 704              		.loc 1 95 2 view .LVU192
 705 0560 85C0     		testl	%eax, %eax
 706 0562 0F858400 		jne	.L28
 706      0000
  96:Src/routines.cpp **** 	{
  97:Src/routines.cpp **** 		glPushMatrix();
 707              		.loc 1 97 3 is_stmt 1 view .LVU193
 708              		.loc 1 97 15 is_stmt 0 view .LVU194
 709 0568 E8000000 		call	glPushMatrix@PLT
 709      00
 710              	.LVL83:
  98:Src/routines.cpp **** 		//const wchar_t * tarr = (wchar_t*)malloc(text.length());
  99:Src/routines.cpp **** 		//wstrcpy(tarr, text);
GAS LISTING /tmp/ccVy0JI6.s 			page 26


 100:Src/routines.cpp **** 		hack_italic_font.FaceSize(size);
 711              		.loc 1 100 3 is_stmt 1 view .LVU195
 712              		.loc 1 100 28 is_stmt 0 view .LVU196
 713 056d 4C89E7   		movq	%r12, %rdi
 714 0570 BA480000 		movl	$72, %edx
 714      00
 715 0575 4489EE   		movl	%r13d, %esi
 716 0578 E8000000 		call	_ZN6FTFont8FaceSizeEjj@PLT
 716      00
 717              	.LVL84:
 101:Src/routines.cpp **** 		glRasterPos2f(x, y);//TODO: refactor
 718              		.loc 1 101 3 is_stmt 1 view .LVU197
 719              		.loc 1 101 16 is_stmt 0 view .LVU198
 720 057d 660FEFC0 		pxor	%xmm0, %xmm0
 721 0581 F30F2AC3 		cvtsi2ssl	%ebx, %xmm0
 722 0585 660FEFC9 		pxor	%xmm1, %xmm1
 723 0589 F3410F2A 		cvtsi2ssl	%r14d, %xmm1
 723      CE
 724 058e E8000000 		call	glRasterPos2f@PLT
 724      00
 725              	.LVL85:
 102:Src/routines.cpp **** 		hack_italic_font.Render(text.c_str());
 726              		.loc 1 102 3 is_stmt 1 view .LVU199
 727              	.LBB50:
 728              	.LBI50:
 729              		.file 3 "/usr/include/FTGL/FTPoint.h"
   1:/usr/include/FTGL/FTPoint.h **** /*
   2:/usr/include/FTGL/FTPoint.h ****  * FTGL - OpenGL font library
   3:/usr/include/FTGL/FTPoint.h ****  *
   4:/usr/include/FTGL/FTPoint.h ****  * Copyright (c) 2001-2004 Henry Maddocks <ftgl@opengl.geek.nz>
   5:/usr/include/FTGL/FTPoint.h ****  * Copyright (c) 2008 Sam Hocevar <sam@hocevar.net>
   6:/usr/include/FTGL/FTPoint.h ****  * Copyright (c) 2008 Sean Morrison <learner@brlcad.org>
   7:/usr/include/FTGL/FTPoint.h ****  *
   8:/usr/include/FTGL/FTPoint.h ****  * Permission is hereby granted, free of charge, to any person obtaining
   9:/usr/include/FTGL/FTPoint.h ****  * a copy of this software and associated documentation files (the
  10:/usr/include/FTGL/FTPoint.h ****  * "Software"), to deal in the Software without restriction, including
  11:/usr/include/FTGL/FTPoint.h ****  * without limitation the rights to use, copy, modify, merge, publish,
  12:/usr/include/FTGL/FTPoint.h ****  * distribute, sublicense, and/or sell copies of the Software, and to
  13:/usr/include/FTGL/FTPoint.h ****  * permit persons to whom the Software is furnished to do so, subject to
  14:/usr/include/FTGL/FTPoint.h ****  * the following conditions:
  15:/usr/include/FTGL/FTPoint.h ****  *
  16:/usr/include/FTGL/FTPoint.h ****  * The above copyright notice and this permission notice shall be
  17:/usr/include/FTGL/FTPoint.h ****  * included in all copies or substantial portions of the Software.
  18:/usr/include/FTGL/FTPoint.h ****  *
  19:/usr/include/FTGL/FTPoint.h ****  * THE SOFTWARE IS PROVIDED "AS IS", WITHOUT WARRANTY OF ANY KIND,
  20:/usr/include/FTGL/FTPoint.h ****  * EXPRESS OR IMPLIED, INCLUDING BUT NOT LIMITED TO THE WARRANTIES OF
  21:/usr/include/FTGL/FTPoint.h ****  * MERCHANTABILITY, FITNESS FOR A PARTICULAR PURPOSE AND NONINFRINGEMENT.
  22:/usr/include/FTGL/FTPoint.h ****  * IN NO EVENT SHALL THE AUTHORS OR COPYRIGHT HOLDERS BE LIABLE FOR ANY
  23:/usr/include/FTGL/FTPoint.h ****  * CLAIM, DAMAGES OR OTHER LIABILITY, WHETHER IN AN ACTION OF CONTRACT,
  24:/usr/include/FTGL/FTPoint.h ****  * TORT OR OTHERWISE, ARISING FROM, OUT OF OR IN CONNECTION WITH THE
  25:/usr/include/FTGL/FTPoint.h ****  * SOFTWARE OR THE USE OR OTHER DEALINGS IN THE SOFTWARE.
  26:/usr/include/FTGL/FTPoint.h ****  */
  27:/usr/include/FTGL/FTPoint.h **** 
  28:/usr/include/FTGL/FTPoint.h **** #ifndef __ftgl__
  29:/usr/include/FTGL/FTPoint.h **** #   warning This header is deprecated. Please use <FTGL/ftgl.h> from now.
  30:/usr/include/FTGL/FTPoint.h **** #   include <FTGL/ftgl.h>
  31:/usr/include/FTGL/FTPoint.h **** #endif
GAS LISTING /tmp/ccVy0JI6.s 			page 27


  32:/usr/include/FTGL/FTPoint.h **** 
  33:/usr/include/FTGL/FTPoint.h **** #ifndef __FTPoint__
  34:/usr/include/FTGL/FTPoint.h **** #define __FTPoint__
  35:/usr/include/FTGL/FTPoint.h **** 
  36:/usr/include/FTGL/FTPoint.h **** #ifdef __cplusplus
  37:/usr/include/FTGL/FTPoint.h **** 
  38:/usr/include/FTGL/FTPoint.h **** 
  39:/usr/include/FTGL/FTPoint.h **** /**
  40:/usr/include/FTGL/FTPoint.h ****  * FTPoint class is a basic 3-dimensional point or vector.
  41:/usr/include/FTGL/FTPoint.h ****  */
  42:/usr/include/FTGL/FTPoint.h **** class FTGL_EXPORT FTPoint
  43:/usr/include/FTGL/FTPoint.h **** {
  44:/usr/include/FTGL/FTPoint.h ****     public:
  45:/usr/include/FTGL/FTPoint.h ****         /**
  46:/usr/include/FTGL/FTPoint.h ****          * Default constructor. Point is set to zero.
  47:/usr/include/FTGL/FTPoint.h ****          */
  48:/usr/include/FTGL/FTPoint.h ****         inline FTPoint()
 730              		.loc 3 48 16 view .LVU200
 731              	.LBB51:
 732              	.LBB52:
  49:/usr/include/FTGL/FTPoint.h ****         {
  50:/usr/include/FTGL/FTPoint.h ****             values[0] = 0;
 733              		.loc 3 50 13 view .LVU201
  51:/usr/include/FTGL/FTPoint.h ****             values[1] = 0;
 734              		.loc 3 51 13 view .LVU202
 735              		.loc 3 51 23 is_stmt 0 view .LVU203
 736 0593 48C74598 		movq	$0x000000000, -104(%rbp)
 736      00000000 
  52:/usr/include/FTGL/FTPoint.h ****             values[2] = 0;
 737              		.loc 3 52 13 is_stmt 1 view .LVU204
 738              		.loc 3 52 23 is_stmt 0 view .LVU205
 739 059b 48C745A0 		movq	$0x000000000, -96(%rbp)
 739      00000000 
 740              	.LVL86:
 741              		.loc 3 52 23 view .LVU206
 742              	.LBE52:
 743              	.LBE51:
 744              	.LBE50:
 745              	.LBB53:
 746              	.LBI53:
  48:/usr/include/FTGL/FTPoint.h ****         {
 747              		.loc 3 48 16 is_stmt 1 view .LVU207
 748              	.LBB54:
 749              	.LBB55:
  50:/usr/include/FTGL/FTPoint.h ****             values[1] = 0;
 750              		.loc 3 50 13 view .LVU208
  51:/usr/include/FTGL/FTPoint.h ****             values[2] = 0;
 751              		.loc 3 51 13 view .LVU209
  51:/usr/include/FTGL/FTPoint.h ****             values[2] = 0;
 752              		.loc 3 51 23 is_stmt 0 view .LVU210
 753 05a3 48C78578 		movq	$0x000000000, -136(%rbp)
 753      FFFFFF00 
 753      000000
 754              		.loc 3 52 13 is_stmt 1 view .LVU211
 755              		.loc 3 52 23 is_stmt 0 view .LVU212
 756 05ae 48C74580 		movq	$0x000000000, -128(%rbp)
 756      00000000 
GAS LISTING /tmp/ccVy0JI6.s 			page 28


 757              	.LVL87:
 758              		.loc 3 52 23 view .LVU213
 759              	.LBE55:
 760              	.LBE54:
 761              	.LBE53:
 762              	.LBB56:
 763              	.LBI56:
 764              		.file 4 "/usr/include/c++/9.2.0/bits/basic_string.h"
   1:/usr/include/c++/9.2.0/bits/basic_string.h **** // Components for manipulating sequences of characters -*- C++ -*-
   2:/usr/include/c++/9.2.0/bits/basic_string.h **** 
   3:/usr/include/c++/9.2.0/bits/basic_string.h **** // Copyright (C) 1997-2019 Free Software Foundation, Inc.
   4:/usr/include/c++/9.2.0/bits/basic_string.h **** //
   5:/usr/include/c++/9.2.0/bits/basic_string.h **** // This file is part of the GNU ISO C++ Library.  This library is free
   6:/usr/include/c++/9.2.0/bits/basic_string.h **** // software; you can redistribute it and/or modify it under the
   7:/usr/include/c++/9.2.0/bits/basic_string.h **** // terms of the GNU General Public License as published by the
   8:/usr/include/c++/9.2.0/bits/basic_string.h **** // Free Software Foundation; either version 3, or (at your option)
   9:/usr/include/c++/9.2.0/bits/basic_string.h **** // any later version.
  10:/usr/include/c++/9.2.0/bits/basic_string.h **** 
  11:/usr/include/c++/9.2.0/bits/basic_string.h **** // This library is distributed in the hope that it will be useful,
  12:/usr/include/c++/9.2.0/bits/basic_string.h **** // but WITHOUT ANY WARRANTY; without even the implied warranty of
  13:/usr/include/c++/9.2.0/bits/basic_string.h **** // MERCHANTABILITY or FITNESS FOR A PARTICULAR PURPOSE.  See the
  14:/usr/include/c++/9.2.0/bits/basic_string.h **** // GNU General Public License for more details.
  15:/usr/include/c++/9.2.0/bits/basic_string.h **** 
  16:/usr/include/c++/9.2.0/bits/basic_string.h **** // Under Section 7 of GPL version 3, you are granted additional
  17:/usr/include/c++/9.2.0/bits/basic_string.h **** // permissions described in the GCC Runtime Library Exception, version
  18:/usr/include/c++/9.2.0/bits/basic_string.h **** // 3.1, as published by the Free Software Foundation.
  19:/usr/include/c++/9.2.0/bits/basic_string.h **** 
  20:/usr/include/c++/9.2.0/bits/basic_string.h **** // You should have received a copy of the GNU General Public License and
  21:/usr/include/c++/9.2.0/bits/basic_string.h **** // a copy of the GCC Runtime Library Exception along with this program;
  22:/usr/include/c++/9.2.0/bits/basic_string.h **** // see the files COPYING3 and COPYING.RUNTIME respectively.  If not, see
  23:/usr/include/c++/9.2.0/bits/basic_string.h **** // <http://www.gnu.org/licenses/>.
  24:/usr/include/c++/9.2.0/bits/basic_string.h **** 
  25:/usr/include/c++/9.2.0/bits/basic_string.h **** /** @file bits/basic_string.h
  26:/usr/include/c++/9.2.0/bits/basic_string.h ****  *  This is an internal header file, included by other library headers.
  27:/usr/include/c++/9.2.0/bits/basic_string.h ****  *  Do not attempt to use it directly. @headername{string}
  28:/usr/include/c++/9.2.0/bits/basic_string.h ****  */
  29:/usr/include/c++/9.2.0/bits/basic_string.h **** 
  30:/usr/include/c++/9.2.0/bits/basic_string.h **** //
  31:/usr/include/c++/9.2.0/bits/basic_string.h **** // ISO C++ 14882: 21 Strings library
  32:/usr/include/c++/9.2.0/bits/basic_string.h **** //
  33:/usr/include/c++/9.2.0/bits/basic_string.h **** 
  34:/usr/include/c++/9.2.0/bits/basic_string.h **** #ifndef _BASIC_STRING_H
  35:/usr/include/c++/9.2.0/bits/basic_string.h **** #define _BASIC_STRING_H 1
  36:/usr/include/c++/9.2.0/bits/basic_string.h **** 
  37:/usr/include/c++/9.2.0/bits/basic_string.h **** #pragma GCC system_header
  38:/usr/include/c++/9.2.0/bits/basic_string.h **** 
  39:/usr/include/c++/9.2.0/bits/basic_string.h **** #include <ext/atomicity.h>
  40:/usr/include/c++/9.2.0/bits/basic_string.h **** #include <ext/alloc_traits.h>
  41:/usr/include/c++/9.2.0/bits/basic_string.h **** #include <debug/debug.h>
  42:/usr/include/c++/9.2.0/bits/basic_string.h **** 
  43:/usr/include/c++/9.2.0/bits/basic_string.h **** #if __cplusplus >= 201103L
  44:/usr/include/c++/9.2.0/bits/basic_string.h **** #include <initializer_list>
  45:/usr/include/c++/9.2.0/bits/basic_string.h **** #endif
  46:/usr/include/c++/9.2.0/bits/basic_string.h **** 
  47:/usr/include/c++/9.2.0/bits/basic_string.h **** #if __cplusplus >= 201703L
  48:/usr/include/c++/9.2.0/bits/basic_string.h **** # include <string_view>
  49:/usr/include/c++/9.2.0/bits/basic_string.h **** #endif
GAS LISTING /tmp/ccVy0JI6.s 			page 29


  50:/usr/include/c++/9.2.0/bits/basic_string.h **** 
  51:/usr/include/c++/9.2.0/bits/basic_string.h **** 
  52:/usr/include/c++/9.2.0/bits/basic_string.h **** namespace std _GLIBCXX_VISIBILITY(default)
  53:/usr/include/c++/9.2.0/bits/basic_string.h **** {
  54:/usr/include/c++/9.2.0/bits/basic_string.h **** _GLIBCXX_BEGIN_NAMESPACE_VERSION
  55:/usr/include/c++/9.2.0/bits/basic_string.h **** 
  56:/usr/include/c++/9.2.0/bits/basic_string.h **** #if _GLIBCXX_USE_CXX11_ABI
  57:/usr/include/c++/9.2.0/bits/basic_string.h **** _GLIBCXX_BEGIN_NAMESPACE_CXX11
  58:/usr/include/c++/9.2.0/bits/basic_string.h ****   /**
  59:/usr/include/c++/9.2.0/bits/basic_string.h ****    *  @class basic_string basic_string.h <string>
  60:/usr/include/c++/9.2.0/bits/basic_string.h ****    *  @brief  Managing sequences of characters and character-like objects.
  61:/usr/include/c++/9.2.0/bits/basic_string.h ****    *
  62:/usr/include/c++/9.2.0/bits/basic_string.h ****    *  @ingroup strings
  63:/usr/include/c++/9.2.0/bits/basic_string.h ****    *  @ingroup sequences
  64:/usr/include/c++/9.2.0/bits/basic_string.h ****    *
  65:/usr/include/c++/9.2.0/bits/basic_string.h ****    *  @tparam _CharT  Type of character
  66:/usr/include/c++/9.2.0/bits/basic_string.h ****    *  @tparam _Traits  Traits for character type, defaults to
  67:/usr/include/c++/9.2.0/bits/basic_string.h ****    *                   char_traits<_CharT>.
  68:/usr/include/c++/9.2.0/bits/basic_string.h ****    *  @tparam _Alloc  Allocator type, defaults to allocator<_CharT>.
  69:/usr/include/c++/9.2.0/bits/basic_string.h ****    *
  70:/usr/include/c++/9.2.0/bits/basic_string.h ****    *  Meets the requirements of a <a href="tables.html#65">container</a>, a
  71:/usr/include/c++/9.2.0/bits/basic_string.h ****    *  <a href="tables.html#66">reversible container</a>, and a
  72:/usr/include/c++/9.2.0/bits/basic_string.h ****    *  <a href="tables.html#67">sequence</a>.  Of the
  73:/usr/include/c++/9.2.0/bits/basic_string.h ****    *  <a href="tables.html#68">optional sequence requirements</a>, only
  74:/usr/include/c++/9.2.0/bits/basic_string.h ****    *  @c push_back, @c at, and @c %array access are supported.
  75:/usr/include/c++/9.2.0/bits/basic_string.h ****    */
  76:/usr/include/c++/9.2.0/bits/basic_string.h ****   template<typename _CharT, typename _Traits, typename _Alloc>
  77:/usr/include/c++/9.2.0/bits/basic_string.h ****     class basic_string
  78:/usr/include/c++/9.2.0/bits/basic_string.h ****     {
  79:/usr/include/c++/9.2.0/bits/basic_string.h ****       typedef typename __gnu_cxx::__alloc_traits<_Alloc>::template
  80:/usr/include/c++/9.2.0/bits/basic_string.h **** 	rebind<_CharT>::other _Char_alloc_type;
  81:/usr/include/c++/9.2.0/bits/basic_string.h ****       typedef __gnu_cxx::__alloc_traits<_Char_alloc_type> _Alloc_traits;
  82:/usr/include/c++/9.2.0/bits/basic_string.h **** 
  83:/usr/include/c++/9.2.0/bits/basic_string.h ****       // Types:
  84:/usr/include/c++/9.2.0/bits/basic_string.h ****     public:
  85:/usr/include/c++/9.2.0/bits/basic_string.h ****       typedef _Traits					traits_type;
  86:/usr/include/c++/9.2.0/bits/basic_string.h ****       typedef typename _Traits::char_type		value_type;
  87:/usr/include/c++/9.2.0/bits/basic_string.h ****       typedef _Char_alloc_type				allocator_type;
  88:/usr/include/c++/9.2.0/bits/basic_string.h ****       typedef typename _Alloc_traits::size_type		size_type;
  89:/usr/include/c++/9.2.0/bits/basic_string.h ****       typedef typename _Alloc_traits::difference_type	difference_type;
  90:/usr/include/c++/9.2.0/bits/basic_string.h ****       typedef typename _Alloc_traits::reference		reference;
  91:/usr/include/c++/9.2.0/bits/basic_string.h ****       typedef typename _Alloc_traits::const_reference	const_reference;
  92:/usr/include/c++/9.2.0/bits/basic_string.h ****       typedef typename _Alloc_traits::pointer		pointer;
  93:/usr/include/c++/9.2.0/bits/basic_string.h ****       typedef typename _Alloc_traits::const_pointer	const_pointer;
  94:/usr/include/c++/9.2.0/bits/basic_string.h ****       typedef __gnu_cxx::__normal_iterator<pointer, basic_string>  iterator;
  95:/usr/include/c++/9.2.0/bits/basic_string.h ****       typedef __gnu_cxx::__normal_iterator<const_pointer, basic_string>
  96:/usr/include/c++/9.2.0/bits/basic_string.h **** 							const_iterator;
  97:/usr/include/c++/9.2.0/bits/basic_string.h ****       typedef std::reverse_iterator<const_iterator>	const_reverse_iterator;
  98:/usr/include/c++/9.2.0/bits/basic_string.h ****       typedef std::reverse_iterator<iterator>		reverse_iterator;
  99:/usr/include/c++/9.2.0/bits/basic_string.h **** 
 100:/usr/include/c++/9.2.0/bits/basic_string.h ****       ///  Value returned by various member functions when they fail.
 101:/usr/include/c++/9.2.0/bits/basic_string.h ****       static const size_type	npos = static_cast<size_type>(-1);
 102:/usr/include/c++/9.2.0/bits/basic_string.h **** 
 103:/usr/include/c++/9.2.0/bits/basic_string.h ****     protected:
 104:/usr/include/c++/9.2.0/bits/basic_string.h ****       // type used for positions in insert, erase etc.
 105:/usr/include/c++/9.2.0/bits/basic_string.h **** #if __cplusplus < 201103L
 106:/usr/include/c++/9.2.0/bits/basic_string.h ****       typedef iterator __const_iterator;
GAS LISTING /tmp/ccVy0JI6.s 			page 30


 107:/usr/include/c++/9.2.0/bits/basic_string.h **** #else
 108:/usr/include/c++/9.2.0/bits/basic_string.h ****       typedef const_iterator __const_iterator;
 109:/usr/include/c++/9.2.0/bits/basic_string.h **** #endif
 110:/usr/include/c++/9.2.0/bits/basic_string.h **** 
 111:/usr/include/c++/9.2.0/bits/basic_string.h ****     private:
 112:/usr/include/c++/9.2.0/bits/basic_string.h **** #if __cplusplus >= 201703L
 113:/usr/include/c++/9.2.0/bits/basic_string.h ****       // A helper type for avoiding boiler-plate.
 114:/usr/include/c++/9.2.0/bits/basic_string.h ****       typedef basic_string_view<_CharT, _Traits> __sv_type;
 115:/usr/include/c++/9.2.0/bits/basic_string.h **** 
 116:/usr/include/c++/9.2.0/bits/basic_string.h ****       template<typename _Tp, typename _Res>
 117:/usr/include/c++/9.2.0/bits/basic_string.h **** 	using _If_sv = enable_if_t<
 118:/usr/include/c++/9.2.0/bits/basic_string.h **** 	  __and_<is_convertible<const _Tp&, __sv_type>,
 119:/usr/include/c++/9.2.0/bits/basic_string.h **** 		 __not_<is_convertible<const _Tp*, const basic_string*>>,
 120:/usr/include/c++/9.2.0/bits/basic_string.h **** 		 __not_<is_convertible<const _Tp&, const _CharT*>>>::value,
 121:/usr/include/c++/9.2.0/bits/basic_string.h **** 	  _Res>;
 122:/usr/include/c++/9.2.0/bits/basic_string.h **** 
 123:/usr/include/c++/9.2.0/bits/basic_string.h ****       // Allows an implicit conversion to __sv_type.
 124:/usr/include/c++/9.2.0/bits/basic_string.h ****       static __sv_type
 125:/usr/include/c++/9.2.0/bits/basic_string.h ****       _S_to_string_view(__sv_type __svt) noexcept
 126:/usr/include/c++/9.2.0/bits/basic_string.h ****       { return __svt; }
 127:/usr/include/c++/9.2.0/bits/basic_string.h **** 
 128:/usr/include/c++/9.2.0/bits/basic_string.h ****       // Wraps a string_view by explicit conversion and thus
 129:/usr/include/c++/9.2.0/bits/basic_string.h ****       // allows to add an internal constructor that does not
 130:/usr/include/c++/9.2.0/bits/basic_string.h ****       // participate in overload resolution when a string_view
 131:/usr/include/c++/9.2.0/bits/basic_string.h ****       // is provided.
 132:/usr/include/c++/9.2.0/bits/basic_string.h ****       struct __sv_wrapper
 133:/usr/include/c++/9.2.0/bits/basic_string.h ****       {
 134:/usr/include/c++/9.2.0/bits/basic_string.h **** 	explicit __sv_wrapper(__sv_type __sv) noexcept : _M_sv(__sv) { }
 135:/usr/include/c++/9.2.0/bits/basic_string.h **** 	__sv_type _M_sv;
 136:/usr/include/c++/9.2.0/bits/basic_string.h ****       };
 137:/usr/include/c++/9.2.0/bits/basic_string.h **** 
 138:/usr/include/c++/9.2.0/bits/basic_string.h ****       /**
 139:/usr/include/c++/9.2.0/bits/basic_string.h ****        *  @brief  Only internally used: Construct string from a string view
 140:/usr/include/c++/9.2.0/bits/basic_string.h ****        *          wrapper.
 141:/usr/include/c++/9.2.0/bits/basic_string.h ****        *  @param  __svw  string view wrapper.
 142:/usr/include/c++/9.2.0/bits/basic_string.h ****        *  @param  __a  Allocator to use.
 143:/usr/include/c++/9.2.0/bits/basic_string.h ****        */
 144:/usr/include/c++/9.2.0/bits/basic_string.h ****       explicit
 145:/usr/include/c++/9.2.0/bits/basic_string.h ****       basic_string(__sv_wrapper __svw, const _Alloc& __a)
 146:/usr/include/c++/9.2.0/bits/basic_string.h ****       : basic_string(__svw._M_sv.data(), __svw._M_sv.size(), __a) { }
 147:/usr/include/c++/9.2.0/bits/basic_string.h **** #endif
 148:/usr/include/c++/9.2.0/bits/basic_string.h **** 
 149:/usr/include/c++/9.2.0/bits/basic_string.h ****       // Use empty-base optimization: http://www.cantrip.org/emptyopt.html
 150:/usr/include/c++/9.2.0/bits/basic_string.h ****       struct _Alloc_hider : allocator_type // TODO check __is_final
 151:/usr/include/c++/9.2.0/bits/basic_string.h ****       {
 152:/usr/include/c++/9.2.0/bits/basic_string.h **** #if __cplusplus < 201103L
 153:/usr/include/c++/9.2.0/bits/basic_string.h **** 	_Alloc_hider(pointer __dat, const _Alloc& __a = _Alloc())
 154:/usr/include/c++/9.2.0/bits/basic_string.h **** 	: allocator_type(__a), _M_p(__dat) { }
 155:/usr/include/c++/9.2.0/bits/basic_string.h **** #else
 156:/usr/include/c++/9.2.0/bits/basic_string.h **** 	_Alloc_hider(pointer __dat, const _Alloc& __a)
 157:/usr/include/c++/9.2.0/bits/basic_string.h **** 	: allocator_type(__a), _M_p(__dat) { }
 158:/usr/include/c++/9.2.0/bits/basic_string.h **** 
 159:/usr/include/c++/9.2.0/bits/basic_string.h **** 	_Alloc_hider(pointer __dat, _Alloc&& __a = _Alloc())
 160:/usr/include/c++/9.2.0/bits/basic_string.h **** 	: allocator_type(std::move(__a)), _M_p(__dat) { }
 161:/usr/include/c++/9.2.0/bits/basic_string.h **** #endif
 162:/usr/include/c++/9.2.0/bits/basic_string.h **** 
 163:/usr/include/c++/9.2.0/bits/basic_string.h **** 	pointer _M_p; // The actual data.
GAS LISTING /tmp/ccVy0JI6.s 			page 31


 164:/usr/include/c++/9.2.0/bits/basic_string.h ****       };
 165:/usr/include/c++/9.2.0/bits/basic_string.h **** 
 166:/usr/include/c++/9.2.0/bits/basic_string.h ****       _Alloc_hider	_M_dataplus;
 167:/usr/include/c++/9.2.0/bits/basic_string.h ****       size_type		_M_string_length;
 168:/usr/include/c++/9.2.0/bits/basic_string.h **** 
 169:/usr/include/c++/9.2.0/bits/basic_string.h ****       enum { _S_local_capacity = 15 / sizeof(_CharT) };
 170:/usr/include/c++/9.2.0/bits/basic_string.h **** 
 171:/usr/include/c++/9.2.0/bits/basic_string.h ****       union
 172:/usr/include/c++/9.2.0/bits/basic_string.h ****       {
 173:/usr/include/c++/9.2.0/bits/basic_string.h **** 	_CharT           _M_local_buf[_S_local_capacity + 1];
 174:/usr/include/c++/9.2.0/bits/basic_string.h **** 	size_type        _M_allocated_capacity;
 175:/usr/include/c++/9.2.0/bits/basic_string.h ****       };
 176:/usr/include/c++/9.2.0/bits/basic_string.h **** 
 177:/usr/include/c++/9.2.0/bits/basic_string.h ****       void
 178:/usr/include/c++/9.2.0/bits/basic_string.h ****       _M_data(pointer __p)
 179:/usr/include/c++/9.2.0/bits/basic_string.h ****       { _M_dataplus._M_p = __p; }
 180:/usr/include/c++/9.2.0/bits/basic_string.h **** 
 181:/usr/include/c++/9.2.0/bits/basic_string.h ****       void
 182:/usr/include/c++/9.2.0/bits/basic_string.h ****       _M_length(size_type __length)
 183:/usr/include/c++/9.2.0/bits/basic_string.h ****       { _M_string_length = __length; }
 184:/usr/include/c++/9.2.0/bits/basic_string.h **** 
 185:/usr/include/c++/9.2.0/bits/basic_string.h ****       pointer
 186:/usr/include/c++/9.2.0/bits/basic_string.h ****       _M_data() const
 187:/usr/include/c++/9.2.0/bits/basic_string.h ****       { return _M_dataplus._M_p; }
 188:/usr/include/c++/9.2.0/bits/basic_string.h **** 
 189:/usr/include/c++/9.2.0/bits/basic_string.h ****       pointer
 190:/usr/include/c++/9.2.0/bits/basic_string.h ****       _M_local_data()
 191:/usr/include/c++/9.2.0/bits/basic_string.h ****       {
 192:/usr/include/c++/9.2.0/bits/basic_string.h **** #if __cplusplus >= 201103L
 193:/usr/include/c++/9.2.0/bits/basic_string.h **** 	return std::pointer_traits<pointer>::pointer_to(*_M_local_buf);
 194:/usr/include/c++/9.2.0/bits/basic_string.h **** #else
 195:/usr/include/c++/9.2.0/bits/basic_string.h **** 	return pointer(_M_local_buf);
 196:/usr/include/c++/9.2.0/bits/basic_string.h **** #endif
 197:/usr/include/c++/9.2.0/bits/basic_string.h ****       }
 198:/usr/include/c++/9.2.0/bits/basic_string.h **** 
 199:/usr/include/c++/9.2.0/bits/basic_string.h ****       const_pointer
 200:/usr/include/c++/9.2.0/bits/basic_string.h ****       _M_local_data() const
 201:/usr/include/c++/9.2.0/bits/basic_string.h ****       {
 202:/usr/include/c++/9.2.0/bits/basic_string.h **** #if __cplusplus >= 201103L
 203:/usr/include/c++/9.2.0/bits/basic_string.h **** 	return std::pointer_traits<const_pointer>::pointer_to(*_M_local_buf);
 204:/usr/include/c++/9.2.0/bits/basic_string.h **** #else
 205:/usr/include/c++/9.2.0/bits/basic_string.h **** 	return const_pointer(_M_local_buf);
 206:/usr/include/c++/9.2.0/bits/basic_string.h **** #endif
 207:/usr/include/c++/9.2.0/bits/basic_string.h ****       }
 208:/usr/include/c++/9.2.0/bits/basic_string.h **** 
 209:/usr/include/c++/9.2.0/bits/basic_string.h ****       void
 210:/usr/include/c++/9.2.0/bits/basic_string.h ****       _M_capacity(size_type __capacity)
 211:/usr/include/c++/9.2.0/bits/basic_string.h ****       { _M_allocated_capacity = __capacity; }
 212:/usr/include/c++/9.2.0/bits/basic_string.h **** 
 213:/usr/include/c++/9.2.0/bits/basic_string.h ****       void
 214:/usr/include/c++/9.2.0/bits/basic_string.h ****       _M_set_length(size_type __n)
 215:/usr/include/c++/9.2.0/bits/basic_string.h ****       {
 216:/usr/include/c++/9.2.0/bits/basic_string.h **** 	_M_length(__n);
 217:/usr/include/c++/9.2.0/bits/basic_string.h **** 	traits_type::assign(_M_data()[__n], _CharT());
 218:/usr/include/c++/9.2.0/bits/basic_string.h ****       }
 219:/usr/include/c++/9.2.0/bits/basic_string.h **** 
 220:/usr/include/c++/9.2.0/bits/basic_string.h ****       bool
GAS LISTING /tmp/ccVy0JI6.s 			page 32


 221:/usr/include/c++/9.2.0/bits/basic_string.h ****       _M_is_local() const
 222:/usr/include/c++/9.2.0/bits/basic_string.h ****       { return _M_data() == _M_local_data(); }
 223:/usr/include/c++/9.2.0/bits/basic_string.h **** 
 224:/usr/include/c++/9.2.0/bits/basic_string.h ****       // Create & Destroy
 225:/usr/include/c++/9.2.0/bits/basic_string.h ****       pointer
 226:/usr/include/c++/9.2.0/bits/basic_string.h ****       _M_create(size_type&, size_type);
 227:/usr/include/c++/9.2.0/bits/basic_string.h **** 
 228:/usr/include/c++/9.2.0/bits/basic_string.h ****       void
 229:/usr/include/c++/9.2.0/bits/basic_string.h ****       _M_dispose()
 230:/usr/include/c++/9.2.0/bits/basic_string.h ****       {
 231:/usr/include/c++/9.2.0/bits/basic_string.h **** 	if (!_M_is_local())
 232:/usr/include/c++/9.2.0/bits/basic_string.h **** 	  _M_destroy(_M_allocated_capacity);
 233:/usr/include/c++/9.2.0/bits/basic_string.h ****       }
 234:/usr/include/c++/9.2.0/bits/basic_string.h **** 
 235:/usr/include/c++/9.2.0/bits/basic_string.h ****       void
 236:/usr/include/c++/9.2.0/bits/basic_string.h ****       _M_destroy(size_type __size) throw()
 237:/usr/include/c++/9.2.0/bits/basic_string.h ****       { _Alloc_traits::deallocate(_M_get_allocator(), _M_data(), __size + 1); }
 238:/usr/include/c++/9.2.0/bits/basic_string.h **** 
 239:/usr/include/c++/9.2.0/bits/basic_string.h ****       // _M_construct_aux is used to implement the 21.3.1 para 15 which
 240:/usr/include/c++/9.2.0/bits/basic_string.h ****       // requires special behaviour if _InIterator is an integral type
 241:/usr/include/c++/9.2.0/bits/basic_string.h ****       template<typename _InIterator>
 242:/usr/include/c++/9.2.0/bits/basic_string.h ****         void
 243:/usr/include/c++/9.2.0/bits/basic_string.h ****         _M_construct_aux(_InIterator __beg, _InIterator __end,
 244:/usr/include/c++/9.2.0/bits/basic_string.h **** 			 std::__false_type)
 245:/usr/include/c++/9.2.0/bits/basic_string.h **** 	{
 246:/usr/include/c++/9.2.0/bits/basic_string.h ****           typedef typename iterator_traits<_InIterator>::iterator_category _Tag;
 247:/usr/include/c++/9.2.0/bits/basic_string.h ****           _M_construct(__beg, __end, _Tag());
 248:/usr/include/c++/9.2.0/bits/basic_string.h **** 	}
 249:/usr/include/c++/9.2.0/bits/basic_string.h **** 
 250:/usr/include/c++/9.2.0/bits/basic_string.h ****       // _GLIBCXX_RESOLVE_LIB_DEFECTS
 251:/usr/include/c++/9.2.0/bits/basic_string.h ****       // 438. Ambiguity in the "do the right thing" clause
 252:/usr/include/c++/9.2.0/bits/basic_string.h ****       template<typename _Integer>
 253:/usr/include/c++/9.2.0/bits/basic_string.h ****         void
 254:/usr/include/c++/9.2.0/bits/basic_string.h ****         _M_construct_aux(_Integer __beg, _Integer __end, std::__true_type)
 255:/usr/include/c++/9.2.0/bits/basic_string.h **** 	{ _M_construct_aux_2(static_cast<size_type>(__beg), __end); }
 256:/usr/include/c++/9.2.0/bits/basic_string.h **** 
 257:/usr/include/c++/9.2.0/bits/basic_string.h ****       void
 258:/usr/include/c++/9.2.0/bits/basic_string.h ****       _M_construct_aux_2(size_type __req, _CharT __c)
 259:/usr/include/c++/9.2.0/bits/basic_string.h ****       { _M_construct(__req, __c); }
 260:/usr/include/c++/9.2.0/bits/basic_string.h **** 
 261:/usr/include/c++/9.2.0/bits/basic_string.h ****       template<typename _InIterator>
 262:/usr/include/c++/9.2.0/bits/basic_string.h ****         void
 263:/usr/include/c++/9.2.0/bits/basic_string.h ****         _M_construct(_InIterator __beg, _InIterator __end)
 264:/usr/include/c++/9.2.0/bits/basic_string.h **** 	{
 265:/usr/include/c++/9.2.0/bits/basic_string.h **** 	  typedef typename std::__is_integer<_InIterator>::__type _Integral;
 266:/usr/include/c++/9.2.0/bits/basic_string.h **** 	  _M_construct_aux(__beg, __end, _Integral());
 267:/usr/include/c++/9.2.0/bits/basic_string.h ****         }
 268:/usr/include/c++/9.2.0/bits/basic_string.h **** 
 269:/usr/include/c++/9.2.0/bits/basic_string.h ****       // For Input Iterators, used in istreambuf_iterators, etc.
 270:/usr/include/c++/9.2.0/bits/basic_string.h ****       template<typename _InIterator>
 271:/usr/include/c++/9.2.0/bits/basic_string.h ****         void
 272:/usr/include/c++/9.2.0/bits/basic_string.h ****         _M_construct(_InIterator __beg, _InIterator __end,
 273:/usr/include/c++/9.2.0/bits/basic_string.h **** 		     std::input_iterator_tag);
 274:/usr/include/c++/9.2.0/bits/basic_string.h **** 
 275:/usr/include/c++/9.2.0/bits/basic_string.h ****       // For forward_iterators up to random_access_iterators, used for
 276:/usr/include/c++/9.2.0/bits/basic_string.h ****       // string::iterator, _CharT*, etc.
 277:/usr/include/c++/9.2.0/bits/basic_string.h ****       template<typename _FwdIterator>
GAS LISTING /tmp/ccVy0JI6.s 			page 33


 278:/usr/include/c++/9.2.0/bits/basic_string.h ****         void
 279:/usr/include/c++/9.2.0/bits/basic_string.h ****         _M_construct(_FwdIterator __beg, _FwdIterator __end,
 280:/usr/include/c++/9.2.0/bits/basic_string.h **** 		     std::forward_iterator_tag);
 281:/usr/include/c++/9.2.0/bits/basic_string.h **** 
 282:/usr/include/c++/9.2.0/bits/basic_string.h ****       void
 283:/usr/include/c++/9.2.0/bits/basic_string.h ****       _M_construct(size_type __req, _CharT __c);
 284:/usr/include/c++/9.2.0/bits/basic_string.h **** 
 285:/usr/include/c++/9.2.0/bits/basic_string.h ****       allocator_type&
 286:/usr/include/c++/9.2.0/bits/basic_string.h ****       _M_get_allocator()
 287:/usr/include/c++/9.2.0/bits/basic_string.h ****       { return _M_dataplus; }
 288:/usr/include/c++/9.2.0/bits/basic_string.h **** 
 289:/usr/include/c++/9.2.0/bits/basic_string.h ****       const allocator_type&
 290:/usr/include/c++/9.2.0/bits/basic_string.h ****       _M_get_allocator() const
 291:/usr/include/c++/9.2.0/bits/basic_string.h ****       { return _M_dataplus; }
 292:/usr/include/c++/9.2.0/bits/basic_string.h **** 
 293:/usr/include/c++/9.2.0/bits/basic_string.h ****     private:
 294:/usr/include/c++/9.2.0/bits/basic_string.h **** 
 295:/usr/include/c++/9.2.0/bits/basic_string.h **** #ifdef _GLIBCXX_DISAMBIGUATE_REPLACE_INST
 296:/usr/include/c++/9.2.0/bits/basic_string.h ****       // The explicit instantiations in misc-inst.cc require this due to
 297:/usr/include/c++/9.2.0/bits/basic_string.h ****       // https://gcc.gnu.org/bugzilla/show_bug.cgi?id=64063
 298:/usr/include/c++/9.2.0/bits/basic_string.h ****       template<typename _Tp, bool _Requires =
 299:/usr/include/c++/9.2.0/bits/basic_string.h **** 	       !__are_same<_Tp, _CharT*>::__value
 300:/usr/include/c++/9.2.0/bits/basic_string.h **** 	       && !__are_same<_Tp, const _CharT*>::__value
 301:/usr/include/c++/9.2.0/bits/basic_string.h **** 	       && !__are_same<_Tp, iterator>::__value
 302:/usr/include/c++/9.2.0/bits/basic_string.h **** 	       && !__are_same<_Tp, const_iterator>::__value>
 303:/usr/include/c++/9.2.0/bits/basic_string.h **** 	struct __enable_if_not_native_iterator
 304:/usr/include/c++/9.2.0/bits/basic_string.h **** 	{ typedef basic_string& __type; };
 305:/usr/include/c++/9.2.0/bits/basic_string.h ****       template<typename _Tp>
 306:/usr/include/c++/9.2.0/bits/basic_string.h **** 	struct __enable_if_not_native_iterator<_Tp, false> { };
 307:/usr/include/c++/9.2.0/bits/basic_string.h **** #endif
 308:/usr/include/c++/9.2.0/bits/basic_string.h **** 
 309:/usr/include/c++/9.2.0/bits/basic_string.h ****       size_type
 310:/usr/include/c++/9.2.0/bits/basic_string.h ****       _M_check(size_type __pos, const char* __s) const
 311:/usr/include/c++/9.2.0/bits/basic_string.h ****       {
 312:/usr/include/c++/9.2.0/bits/basic_string.h **** 	if (__pos > this->size())
 313:/usr/include/c++/9.2.0/bits/basic_string.h **** 	  __throw_out_of_range_fmt(__N("%s: __pos (which is %zu) > "
 314:/usr/include/c++/9.2.0/bits/basic_string.h **** 				       "this->size() (which is %zu)"),
 315:/usr/include/c++/9.2.0/bits/basic_string.h **** 				   __s, __pos, this->size());
 316:/usr/include/c++/9.2.0/bits/basic_string.h **** 	return __pos;
 317:/usr/include/c++/9.2.0/bits/basic_string.h ****       }
 318:/usr/include/c++/9.2.0/bits/basic_string.h **** 
 319:/usr/include/c++/9.2.0/bits/basic_string.h ****       void
 320:/usr/include/c++/9.2.0/bits/basic_string.h ****       _M_check_length(size_type __n1, size_type __n2, const char* __s) const
 321:/usr/include/c++/9.2.0/bits/basic_string.h ****       {
 322:/usr/include/c++/9.2.0/bits/basic_string.h **** 	if (this->max_size() - (this->size() - __n1) < __n2)
 323:/usr/include/c++/9.2.0/bits/basic_string.h **** 	  __throw_length_error(__N(__s));
 324:/usr/include/c++/9.2.0/bits/basic_string.h ****       }
 325:/usr/include/c++/9.2.0/bits/basic_string.h **** 
 326:/usr/include/c++/9.2.0/bits/basic_string.h **** 
 327:/usr/include/c++/9.2.0/bits/basic_string.h ****       // NB: _M_limit doesn't check for a bad __pos value.
 328:/usr/include/c++/9.2.0/bits/basic_string.h ****       size_type
 329:/usr/include/c++/9.2.0/bits/basic_string.h ****       _M_limit(size_type __pos, size_type __off) const _GLIBCXX_NOEXCEPT
 330:/usr/include/c++/9.2.0/bits/basic_string.h ****       {
 331:/usr/include/c++/9.2.0/bits/basic_string.h **** 	const bool __testoff =  __off < this->size() - __pos;
 332:/usr/include/c++/9.2.0/bits/basic_string.h **** 	return __testoff ? __off : this->size() - __pos;
 333:/usr/include/c++/9.2.0/bits/basic_string.h ****       }
 334:/usr/include/c++/9.2.0/bits/basic_string.h **** 
GAS LISTING /tmp/ccVy0JI6.s 			page 34


 335:/usr/include/c++/9.2.0/bits/basic_string.h ****       // True if _Rep and source do not overlap.
 336:/usr/include/c++/9.2.0/bits/basic_string.h ****       bool
 337:/usr/include/c++/9.2.0/bits/basic_string.h ****       _M_disjunct(const _CharT* __s) const _GLIBCXX_NOEXCEPT
 338:/usr/include/c++/9.2.0/bits/basic_string.h ****       {
 339:/usr/include/c++/9.2.0/bits/basic_string.h **** 	return (less<const _CharT*>()(__s, _M_data())
 340:/usr/include/c++/9.2.0/bits/basic_string.h **** 		|| less<const _CharT*>()(_M_data() + this->size(), __s));
 341:/usr/include/c++/9.2.0/bits/basic_string.h ****       }
 342:/usr/include/c++/9.2.0/bits/basic_string.h **** 
 343:/usr/include/c++/9.2.0/bits/basic_string.h ****       // When __n = 1 way faster than the general multichar
 344:/usr/include/c++/9.2.0/bits/basic_string.h ****       // traits_type::copy/move/assign.
 345:/usr/include/c++/9.2.0/bits/basic_string.h ****       static void
 346:/usr/include/c++/9.2.0/bits/basic_string.h ****       _S_copy(_CharT* __d, const _CharT* __s, size_type __n)
 347:/usr/include/c++/9.2.0/bits/basic_string.h ****       {
 348:/usr/include/c++/9.2.0/bits/basic_string.h **** 	if (__n == 1)
 349:/usr/include/c++/9.2.0/bits/basic_string.h **** 	  traits_type::assign(*__d, *__s);
 350:/usr/include/c++/9.2.0/bits/basic_string.h **** 	else
 351:/usr/include/c++/9.2.0/bits/basic_string.h **** 	  traits_type::copy(__d, __s, __n);
 352:/usr/include/c++/9.2.0/bits/basic_string.h ****       }
 353:/usr/include/c++/9.2.0/bits/basic_string.h **** 
 354:/usr/include/c++/9.2.0/bits/basic_string.h ****       static void
 355:/usr/include/c++/9.2.0/bits/basic_string.h ****       _S_move(_CharT* __d, const _CharT* __s, size_type __n)
 356:/usr/include/c++/9.2.0/bits/basic_string.h ****       {
 357:/usr/include/c++/9.2.0/bits/basic_string.h **** 	if (__n == 1)
 358:/usr/include/c++/9.2.0/bits/basic_string.h **** 	  traits_type::assign(*__d, *__s);
 359:/usr/include/c++/9.2.0/bits/basic_string.h **** 	else
 360:/usr/include/c++/9.2.0/bits/basic_string.h **** 	  traits_type::move(__d, __s, __n);
 361:/usr/include/c++/9.2.0/bits/basic_string.h ****       }
 362:/usr/include/c++/9.2.0/bits/basic_string.h **** 
 363:/usr/include/c++/9.2.0/bits/basic_string.h ****       static void
 364:/usr/include/c++/9.2.0/bits/basic_string.h ****       _S_assign(_CharT* __d, size_type __n, _CharT __c)
 365:/usr/include/c++/9.2.0/bits/basic_string.h ****       {
 366:/usr/include/c++/9.2.0/bits/basic_string.h **** 	if (__n == 1)
 367:/usr/include/c++/9.2.0/bits/basic_string.h **** 	  traits_type::assign(*__d, __c);
 368:/usr/include/c++/9.2.0/bits/basic_string.h **** 	else
 369:/usr/include/c++/9.2.0/bits/basic_string.h **** 	  traits_type::assign(__d, __n, __c);
 370:/usr/include/c++/9.2.0/bits/basic_string.h ****       }
 371:/usr/include/c++/9.2.0/bits/basic_string.h **** 
 372:/usr/include/c++/9.2.0/bits/basic_string.h ****       // _S_copy_chars is a separate template to permit specialization
 373:/usr/include/c++/9.2.0/bits/basic_string.h ****       // to optimize for the common case of pointers as iterators.
 374:/usr/include/c++/9.2.0/bits/basic_string.h ****       template<class _Iterator>
 375:/usr/include/c++/9.2.0/bits/basic_string.h ****         static void
 376:/usr/include/c++/9.2.0/bits/basic_string.h ****         _S_copy_chars(_CharT* __p, _Iterator __k1, _Iterator __k2)
 377:/usr/include/c++/9.2.0/bits/basic_string.h ****         {
 378:/usr/include/c++/9.2.0/bits/basic_string.h **** 	  for (; __k1 != __k2; ++__k1, (void)++__p)
 379:/usr/include/c++/9.2.0/bits/basic_string.h **** 	    traits_type::assign(*__p, *__k1); // These types are off.
 380:/usr/include/c++/9.2.0/bits/basic_string.h **** 	}
 381:/usr/include/c++/9.2.0/bits/basic_string.h **** 
 382:/usr/include/c++/9.2.0/bits/basic_string.h ****       static void
 383:/usr/include/c++/9.2.0/bits/basic_string.h ****       _S_copy_chars(_CharT* __p, iterator __k1, iterator __k2) _GLIBCXX_NOEXCEPT
 384:/usr/include/c++/9.2.0/bits/basic_string.h ****       { _S_copy_chars(__p, __k1.base(), __k2.base()); }
 385:/usr/include/c++/9.2.0/bits/basic_string.h **** 
 386:/usr/include/c++/9.2.0/bits/basic_string.h ****       static void
 387:/usr/include/c++/9.2.0/bits/basic_string.h ****       _S_copy_chars(_CharT* __p, const_iterator __k1, const_iterator __k2)
 388:/usr/include/c++/9.2.0/bits/basic_string.h ****       _GLIBCXX_NOEXCEPT
 389:/usr/include/c++/9.2.0/bits/basic_string.h ****       { _S_copy_chars(__p, __k1.base(), __k2.base()); }
 390:/usr/include/c++/9.2.0/bits/basic_string.h **** 
 391:/usr/include/c++/9.2.0/bits/basic_string.h ****       static void
GAS LISTING /tmp/ccVy0JI6.s 			page 35


 392:/usr/include/c++/9.2.0/bits/basic_string.h ****       _S_copy_chars(_CharT* __p, _CharT* __k1, _CharT* __k2) _GLIBCXX_NOEXCEPT
 393:/usr/include/c++/9.2.0/bits/basic_string.h ****       { _S_copy(__p, __k1, __k2 - __k1); }
 394:/usr/include/c++/9.2.0/bits/basic_string.h **** 
 395:/usr/include/c++/9.2.0/bits/basic_string.h ****       static void
 396:/usr/include/c++/9.2.0/bits/basic_string.h ****       _S_copy_chars(_CharT* __p, const _CharT* __k1, const _CharT* __k2)
 397:/usr/include/c++/9.2.0/bits/basic_string.h ****       _GLIBCXX_NOEXCEPT
 398:/usr/include/c++/9.2.0/bits/basic_string.h ****       { _S_copy(__p, __k1, __k2 - __k1); }
 399:/usr/include/c++/9.2.0/bits/basic_string.h **** 
 400:/usr/include/c++/9.2.0/bits/basic_string.h ****       static int
 401:/usr/include/c++/9.2.0/bits/basic_string.h ****       _S_compare(size_type __n1, size_type __n2) _GLIBCXX_NOEXCEPT
 402:/usr/include/c++/9.2.0/bits/basic_string.h ****       {
 403:/usr/include/c++/9.2.0/bits/basic_string.h **** 	const difference_type __d = difference_type(__n1 - __n2);
 404:/usr/include/c++/9.2.0/bits/basic_string.h **** 
 405:/usr/include/c++/9.2.0/bits/basic_string.h **** 	if (__d > __gnu_cxx::__numeric_traits<int>::__max)
 406:/usr/include/c++/9.2.0/bits/basic_string.h **** 	  return __gnu_cxx::__numeric_traits<int>::__max;
 407:/usr/include/c++/9.2.0/bits/basic_string.h **** 	else if (__d < __gnu_cxx::__numeric_traits<int>::__min)
 408:/usr/include/c++/9.2.0/bits/basic_string.h **** 	  return __gnu_cxx::__numeric_traits<int>::__min;
 409:/usr/include/c++/9.2.0/bits/basic_string.h **** 	else
 410:/usr/include/c++/9.2.0/bits/basic_string.h **** 	  return int(__d);
 411:/usr/include/c++/9.2.0/bits/basic_string.h ****       }
 412:/usr/include/c++/9.2.0/bits/basic_string.h **** 
 413:/usr/include/c++/9.2.0/bits/basic_string.h ****       void
 414:/usr/include/c++/9.2.0/bits/basic_string.h ****       _M_assign(const basic_string&);
 415:/usr/include/c++/9.2.0/bits/basic_string.h **** 
 416:/usr/include/c++/9.2.0/bits/basic_string.h ****       void
 417:/usr/include/c++/9.2.0/bits/basic_string.h ****       _M_mutate(size_type __pos, size_type __len1, const _CharT* __s,
 418:/usr/include/c++/9.2.0/bits/basic_string.h **** 		size_type __len2);
 419:/usr/include/c++/9.2.0/bits/basic_string.h **** 
 420:/usr/include/c++/9.2.0/bits/basic_string.h ****       void
 421:/usr/include/c++/9.2.0/bits/basic_string.h ****       _M_erase(size_type __pos, size_type __n);
 422:/usr/include/c++/9.2.0/bits/basic_string.h **** 
 423:/usr/include/c++/9.2.0/bits/basic_string.h ****     public:
 424:/usr/include/c++/9.2.0/bits/basic_string.h ****       // Construct/copy/destroy:
 425:/usr/include/c++/9.2.0/bits/basic_string.h ****       // NB: We overload ctors in some cases instead of using default
 426:/usr/include/c++/9.2.0/bits/basic_string.h ****       // arguments, per 17.4.4.4 para. 2 item 2.
 427:/usr/include/c++/9.2.0/bits/basic_string.h **** 
 428:/usr/include/c++/9.2.0/bits/basic_string.h ****       /**
 429:/usr/include/c++/9.2.0/bits/basic_string.h ****        *  @brief  Default constructor creates an empty string.
 430:/usr/include/c++/9.2.0/bits/basic_string.h ****        */
 431:/usr/include/c++/9.2.0/bits/basic_string.h ****       basic_string()
 432:/usr/include/c++/9.2.0/bits/basic_string.h ****       _GLIBCXX_NOEXCEPT_IF(is_nothrow_default_constructible<_Alloc>::value)
 433:/usr/include/c++/9.2.0/bits/basic_string.h ****       : _M_dataplus(_M_local_data())
 434:/usr/include/c++/9.2.0/bits/basic_string.h ****       { _M_set_length(0); }
 435:/usr/include/c++/9.2.0/bits/basic_string.h **** 
 436:/usr/include/c++/9.2.0/bits/basic_string.h ****       /**
 437:/usr/include/c++/9.2.0/bits/basic_string.h ****        *  @brief  Construct an empty string using allocator @a a.
 438:/usr/include/c++/9.2.0/bits/basic_string.h ****        */
 439:/usr/include/c++/9.2.0/bits/basic_string.h ****       explicit
 440:/usr/include/c++/9.2.0/bits/basic_string.h ****       basic_string(const _Alloc& __a) _GLIBCXX_NOEXCEPT
 441:/usr/include/c++/9.2.0/bits/basic_string.h ****       : _M_dataplus(_M_local_data(), __a)
 442:/usr/include/c++/9.2.0/bits/basic_string.h ****       { _M_set_length(0); }
 443:/usr/include/c++/9.2.0/bits/basic_string.h **** 
 444:/usr/include/c++/9.2.0/bits/basic_string.h ****       /**
 445:/usr/include/c++/9.2.0/bits/basic_string.h ****        *  @brief  Construct string with copy of value of @a __str.
 446:/usr/include/c++/9.2.0/bits/basic_string.h ****        *  @param  __str  Source string.
 447:/usr/include/c++/9.2.0/bits/basic_string.h ****        */
 448:/usr/include/c++/9.2.0/bits/basic_string.h ****       basic_string(const basic_string& __str)
GAS LISTING /tmp/ccVy0JI6.s 			page 36


 449:/usr/include/c++/9.2.0/bits/basic_string.h ****       : _M_dataplus(_M_local_data(),
 450:/usr/include/c++/9.2.0/bits/basic_string.h **** 		    _Alloc_traits::_S_select_on_copy(__str._M_get_allocator()))
 451:/usr/include/c++/9.2.0/bits/basic_string.h ****       { _M_construct(__str._M_data(), __str._M_data() + __str.length()); }
 452:/usr/include/c++/9.2.0/bits/basic_string.h **** 
 453:/usr/include/c++/9.2.0/bits/basic_string.h ****       // _GLIBCXX_RESOLVE_LIB_DEFECTS
 454:/usr/include/c++/9.2.0/bits/basic_string.h ****       // 2583. no way to supply an allocator for basic_string(str, pos)
 455:/usr/include/c++/9.2.0/bits/basic_string.h ****       /**
 456:/usr/include/c++/9.2.0/bits/basic_string.h ****        *  @brief  Construct string as copy of a substring.
 457:/usr/include/c++/9.2.0/bits/basic_string.h ****        *  @param  __str  Source string.
 458:/usr/include/c++/9.2.0/bits/basic_string.h ****        *  @param  __pos  Index of first character to copy from.
 459:/usr/include/c++/9.2.0/bits/basic_string.h ****        *  @param  __a  Allocator to use.
 460:/usr/include/c++/9.2.0/bits/basic_string.h ****        */
 461:/usr/include/c++/9.2.0/bits/basic_string.h ****       basic_string(const basic_string& __str, size_type __pos,
 462:/usr/include/c++/9.2.0/bits/basic_string.h **** 		   const _Alloc& __a = _Alloc())
 463:/usr/include/c++/9.2.0/bits/basic_string.h ****       : _M_dataplus(_M_local_data(), __a)
 464:/usr/include/c++/9.2.0/bits/basic_string.h ****       {
 465:/usr/include/c++/9.2.0/bits/basic_string.h **** 	const _CharT* __start = __str._M_data()
 466:/usr/include/c++/9.2.0/bits/basic_string.h **** 	  + __str._M_check(__pos, "basic_string::basic_string");
 467:/usr/include/c++/9.2.0/bits/basic_string.h **** 	_M_construct(__start, __start + __str._M_limit(__pos, npos));
 468:/usr/include/c++/9.2.0/bits/basic_string.h ****       }
 469:/usr/include/c++/9.2.0/bits/basic_string.h **** 
 470:/usr/include/c++/9.2.0/bits/basic_string.h ****       /**
 471:/usr/include/c++/9.2.0/bits/basic_string.h ****        *  @brief  Construct string as copy of a substring.
 472:/usr/include/c++/9.2.0/bits/basic_string.h ****        *  @param  __str  Source string.
 473:/usr/include/c++/9.2.0/bits/basic_string.h ****        *  @param  __pos  Index of first character to copy from.
 474:/usr/include/c++/9.2.0/bits/basic_string.h ****        *  @param  __n  Number of characters to copy.
 475:/usr/include/c++/9.2.0/bits/basic_string.h ****        */
 476:/usr/include/c++/9.2.0/bits/basic_string.h ****       basic_string(const basic_string& __str, size_type __pos,
 477:/usr/include/c++/9.2.0/bits/basic_string.h **** 		   size_type __n)
 478:/usr/include/c++/9.2.0/bits/basic_string.h ****       : _M_dataplus(_M_local_data())
 479:/usr/include/c++/9.2.0/bits/basic_string.h ****       {
 480:/usr/include/c++/9.2.0/bits/basic_string.h **** 	const _CharT* __start = __str._M_data()
 481:/usr/include/c++/9.2.0/bits/basic_string.h **** 	  + __str._M_check(__pos, "basic_string::basic_string");
 482:/usr/include/c++/9.2.0/bits/basic_string.h **** 	_M_construct(__start, __start + __str._M_limit(__pos, __n));
 483:/usr/include/c++/9.2.0/bits/basic_string.h ****       }
 484:/usr/include/c++/9.2.0/bits/basic_string.h **** 
 485:/usr/include/c++/9.2.0/bits/basic_string.h ****       /**
 486:/usr/include/c++/9.2.0/bits/basic_string.h ****        *  @brief  Construct string as copy of a substring.
 487:/usr/include/c++/9.2.0/bits/basic_string.h ****        *  @param  __str  Source string.
 488:/usr/include/c++/9.2.0/bits/basic_string.h ****        *  @param  __pos  Index of first character to copy from.
 489:/usr/include/c++/9.2.0/bits/basic_string.h ****        *  @param  __n  Number of characters to copy.
 490:/usr/include/c++/9.2.0/bits/basic_string.h ****        *  @param  __a  Allocator to use.
 491:/usr/include/c++/9.2.0/bits/basic_string.h ****        */
 492:/usr/include/c++/9.2.0/bits/basic_string.h ****       basic_string(const basic_string& __str, size_type __pos,
 493:/usr/include/c++/9.2.0/bits/basic_string.h **** 		   size_type __n, const _Alloc& __a)
 494:/usr/include/c++/9.2.0/bits/basic_string.h ****       : _M_dataplus(_M_local_data(), __a)
 495:/usr/include/c++/9.2.0/bits/basic_string.h ****       {
 496:/usr/include/c++/9.2.0/bits/basic_string.h **** 	const _CharT* __start
 497:/usr/include/c++/9.2.0/bits/basic_string.h **** 	  = __str._M_data() + __str._M_check(__pos, "string::string");
 498:/usr/include/c++/9.2.0/bits/basic_string.h **** 	_M_construct(__start, __start + __str._M_limit(__pos, __n));
 499:/usr/include/c++/9.2.0/bits/basic_string.h ****       }
 500:/usr/include/c++/9.2.0/bits/basic_string.h **** 
 501:/usr/include/c++/9.2.0/bits/basic_string.h ****       /**
 502:/usr/include/c++/9.2.0/bits/basic_string.h ****        *  @brief  Construct string initialized by a character %array.
 503:/usr/include/c++/9.2.0/bits/basic_string.h ****        *  @param  __s  Source character %array.
 504:/usr/include/c++/9.2.0/bits/basic_string.h ****        *  @param  __n  Number of characters to copy.
 505:/usr/include/c++/9.2.0/bits/basic_string.h ****        *  @param  __a  Allocator to use (default is default allocator).
GAS LISTING /tmp/ccVy0JI6.s 			page 37


 506:/usr/include/c++/9.2.0/bits/basic_string.h ****        *
 507:/usr/include/c++/9.2.0/bits/basic_string.h ****        *  NB: @a __s must have at least @a __n characters, &apos;\\0&apos;
 508:/usr/include/c++/9.2.0/bits/basic_string.h ****        *  has no special meaning.
 509:/usr/include/c++/9.2.0/bits/basic_string.h ****        */
 510:/usr/include/c++/9.2.0/bits/basic_string.h ****       basic_string(const _CharT* __s, size_type __n,
 511:/usr/include/c++/9.2.0/bits/basic_string.h **** 		   const _Alloc& __a = _Alloc())
 512:/usr/include/c++/9.2.0/bits/basic_string.h ****       : _M_dataplus(_M_local_data(), __a)
 513:/usr/include/c++/9.2.0/bits/basic_string.h ****       { _M_construct(__s, __s + __n); }
 514:/usr/include/c++/9.2.0/bits/basic_string.h **** 
 515:/usr/include/c++/9.2.0/bits/basic_string.h ****       /**
 516:/usr/include/c++/9.2.0/bits/basic_string.h ****        *  @brief  Construct string as copy of a C string.
 517:/usr/include/c++/9.2.0/bits/basic_string.h ****        *  @param  __s  Source C string.
 518:/usr/include/c++/9.2.0/bits/basic_string.h ****        *  @param  __a  Allocator to use (default is default allocator).
 519:/usr/include/c++/9.2.0/bits/basic_string.h ****        */
 520:/usr/include/c++/9.2.0/bits/basic_string.h **** #if __cpp_deduction_guides && ! defined _GLIBCXX_DEFINING_STRING_INSTANTIATIONS
 521:/usr/include/c++/9.2.0/bits/basic_string.h ****       // _GLIBCXX_RESOLVE_LIB_DEFECTS
 522:/usr/include/c++/9.2.0/bits/basic_string.h ****       // 3076. basic_string CTAD ambiguity
 523:/usr/include/c++/9.2.0/bits/basic_string.h ****       template<typename = _RequireAllocator<_Alloc>>
 524:/usr/include/c++/9.2.0/bits/basic_string.h **** #endif
 525:/usr/include/c++/9.2.0/bits/basic_string.h ****       basic_string(const _CharT* __s, const _Alloc& __a = _Alloc())
 526:/usr/include/c++/9.2.0/bits/basic_string.h ****       : _M_dataplus(_M_local_data(), __a)
 527:/usr/include/c++/9.2.0/bits/basic_string.h ****       { _M_construct(__s, __s ? __s + traits_type::length(__s) : __s+npos); }
 528:/usr/include/c++/9.2.0/bits/basic_string.h **** 
 529:/usr/include/c++/9.2.0/bits/basic_string.h ****       /**
 530:/usr/include/c++/9.2.0/bits/basic_string.h ****        *  @brief  Construct string as multiple characters.
 531:/usr/include/c++/9.2.0/bits/basic_string.h ****        *  @param  __n  Number of characters.
 532:/usr/include/c++/9.2.0/bits/basic_string.h ****        *  @param  __c  Character to use.
 533:/usr/include/c++/9.2.0/bits/basic_string.h ****        *  @param  __a  Allocator to use (default is default allocator).
 534:/usr/include/c++/9.2.0/bits/basic_string.h ****        */
 535:/usr/include/c++/9.2.0/bits/basic_string.h **** #if __cpp_deduction_guides && ! defined _GLIBCXX_DEFINING_STRING_INSTANTIATIONS
 536:/usr/include/c++/9.2.0/bits/basic_string.h ****       // _GLIBCXX_RESOLVE_LIB_DEFECTS
 537:/usr/include/c++/9.2.0/bits/basic_string.h ****       // 3076. basic_string CTAD ambiguity
 538:/usr/include/c++/9.2.0/bits/basic_string.h ****       template<typename = _RequireAllocator<_Alloc>>
 539:/usr/include/c++/9.2.0/bits/basic_string.h **** #endif
 540:/usr/include/c++/9.2.0/bits/basic_string.h ****       basic_string(size_type __n, _CharT __c, const _Alloc& __a = _Alloc())
 541:/usr/include/c++/9.2.0/bits/basic_string.h ****       : _M_dataplus(_M_local_data(), __a)
 542:/usr/include/c++/9.2.0/bits/basic_string.h ****       { _M_construct(__n, __c); }
 543:/usr/include/c++/9.2.0/bits/basic_string.h **** 
 544:/usr/include/c++/9.2.0/bits/basic_string.h **** #if __cplusplus >= 201103L
 545:/usr/include/c++/9.2.0/bits/basic_string.h ****       /**
 546:/usr/include/c++/9.2.0/bits/basic_string.h ****        *  @brief  Move construct string.
 547:/usr/include/c++/9.2.0/bits/basic_string.h ****        *  @param  __str  Source string.
 548:/usr/include/c++/9.2.0/bits/basic_string.h ****        *
 549:/usr/include/c++/9.2.0/bits/basic_string.h ****        *  The newly-created string contains the exact contents of @a __str.
 550:/usr/include/c++/9.2.0/bits/basic_string.h ****        *  @a __str is a valid, but unspecified string.
 551:/usr/include/c++/9.2.0/bits/basic_string.h ****        **/
 552:/usr/include/c++/9.2.0/bits/basic_string.h ****       basic_string(basic_string&& __str) noexcept
 553:/usr/include/c++/9.2.0/bits/basic_string.h ****       : _M_dataplus(_M_local_data(), std::move(__str._M_get_allocator()))
 554:/usr/include/c++/9.2.0/bits/basic_string.h ****       {
 555:/usr/include/c++/9.2.0/bits/basic_string.h **** 	if (__str._M_is_local())
 556:/usr/include/c++/9.2.0/bits/basic_string.h **** 	  {
 557:/usr/include/c++/9.2.0/bits/basic_string.h **** 	    traits_type::copy(_M_local_buf, __str._M_local_buf,
 558:/usr/include/c++/9.2.0/bits/basic_string.h **** 			      _S_local_capacity + 1);
 559:/usr/include/c++/9.2.0/bits/basic_string.h **** 	  }
 560:/usr/include/c++/9.2.0/bits/basic_string.h **** 	else
 561:/usr/include/c++/9.2.0/bits/basic_string.h **** 	  {
 562:/usr/include/c++/9.2.0/bits/basic_string.h **** 	    _M_data(__str._M_data());
GAS LISTING /tmp/ccVy0JI6.s 			page 38


 563:/usr/include/c++/9.2.0/bits/basic_string.h **** 	    _M_capacity(__str._M_allocated_capacity);
 564:/usr/include/c++/9.2.0/bits/basic_string.h **** 	  }
 565:/usr/include/c++/9.2.0/bits/basic_string.h **** 
 566:/usr/include/c++/9.2.0/bits/basic_string.h **** 	// Must use _M_length() here not _M_set_length() because
 567:/usr/include/c++/9.2.0/bits/basic_string.h **** 	// basic_stringbuf relies on writing into unallocated capacity so
 568:/usr/include/c++/9.2.0/bits/basic_string.h **** 	// we mess up the contents if we put a '\0' in the string.
 569:/usr/include/c++/9.2.0/bits/basic_string.h **** 	_M_length(__str.length());
 570:/usr/include/c++/9.2.0/bits/basic_string.h **** 	__str._M_data(__str._M_local_data());
 571:/usr/include/c++/9.2.0/bits/basic_string.h **** 	__str._M_set_length(0);
 572:/usr/include/c++/9.2.0/bits/basic_string.h ****       }
 573:/usr/include/c++/9.2.0/bits/basic_string.h **** 
 574:/usr/include/c++/9.2.0/bits/basic_string.h ****       /**
 575:/usr/include/c++/9.2.0/bits/basic_string.h ****        *  @brief  Construct string from an initializer %list.
 576:/usr/include/c++/9.2.0/bits/basic_string.h ****        *  @param  __l  std::initializer_list of characters.
 577:/usr/include/c++/9.2.0/bits/basic_string.h ****        *  @param  __a  Allocator to use (default is default allocator).
 578:/usr/include/c++/9.2.0/bits/basic_string.h ****        */
 579:/usr/include/c++/9.2.0/bits/basic_string.h ****       basic_string(initializer_list<_CharT> __l, const _Alloc& __a = _Alloc())
 580:/usr/include/c++/9.2.0/bits/basic_string.h ****       : _M_dataplus(_M_local_data(), __a)
 581:/usr/include/c++/9.2.0/bits/basic_string.h ****       { _M_construct(__l.begin(), __l.end()); }
 582:/usr/include/c++/9.2.0/bits/basic_string.h **** 
 583:/usr/include/c++/9.2.0/bits/basic_string.h ****       basic_string(const basic_string& __str, const _Alloc& __a)
 584:/usr/include/c++/9.2.0/bits/basic_string.h ****       : _M_dataplus(_M_local_data(), __a)
 585:/usr/include/c++/9.2.0/bits/basic_string.h ****       { _M_construct(__str.begin(), __str.end()); }
 586:/usr/include/c++/9.2.0/bits/basic_string.h **** 
 587:/usr/include/c++/9.2.0/bits/basic_string.h ****       basic_string(basic_string&& __str, const _Alloc& __a)
 588:/usr/include/c++/9.2.0/bits/basic_string.h ****       noexcept(_Alloc_traits::_S_always_equal())
 589:/usr/include/c++/9.2.0/bits/basic_string.h ****       : _M_dataplus(_M_local_data(), __a)
 590:/usr/include/c++/9.2.0/bits/basic_string.h ****       {
 591:/usr/include/c++/9.2.0/bits/basic_string.h **** 	if (__str._M_is_local())
 592:/usr/include/c++/9.2.0/bits/basic_string.h **** 	  {
 593:/usr/include/c++/9.2.0/bits/basic_string.h **** 	    traits_type::copy(_M_local_buf, __str._M_local_buf,
 594:/usr/include/c++/9.2.0/bits/basic_string.h **** 			      _S_local_capacity + 1);
 595:/usr/include/c++/9.2.0/bits/basic_string.h **** 	    _M_length(__str.length());
 596:/usr/include/c++/9.2.0/bits/basic_string.h **** 	    __str._M_set_length(0);
 597:/usr/include/c++/9.2.0/bits/basic_string.h **** 	  }
 598:/usr/include/c++/9.2.0/bits/basic_string.h **** 	else if (_Alloc_traits::_S_always_equal()
 599:/usr/include/c++/9.2.0/bits/basic_string.h **** 	    || __str.get_allocator() == __a)
 600:/usr/include/c++/9.2.0/bits/basic_string.h **** 	  {
 601:/usr/include/c++/9.2.0/bits/basic_string.h **** 	    _M_data(__str._M_data());
 602:/usr/include/c++/9.2.0/bits/basic_string.h **** 	    _M_length(__str.length());
 603:/usr/include/c++/9.2.0/bits/basic_string.h **** 	    _M_capacity(__str._M_allocated_capacity);
 604:/usr/include/c++/9.2.0/bits/basic_string.h **** 	    __str._M_data(__str._M_local_buf);
 605:/usr/include/c++/9.2.0/bits/basic_string.h **** 	    __str._M_set_length(0);
 606:/usr/include/c++/9.2.0/bits/basic_string.h **** 	  }
 607:/usr/include/c++/9.2.0/bits/basic_string.h **** 	else
 608:/usr/include/c++/9.2.0/bits/basic_string.h **** 	  _M_construct(__str.begin(), __str.end());
 609:/usr/include/c++/9.2.0/bits/basic_string.h ****       }
 610:/usr/include/c++/9.2.0/bits/basic_string.h **** 
 611:/usr/include/c++/9.2.0/bits/basic_string.h **** #endif // C++11
 612:/usr/include/c++/9.2.0/bits/basic_string.h **** 
 613:/usr/include/c++/9.2.0/bits/basic_string.h ****       /**
 614:/usr/include/c++/9.2.0/bits/basic_string.h ****        *  @brief  Construct string as copy of a range.
 615:/usr/include/c++/9.2.0/bits/basic_string.h ****        *  @param  __beg  Start of range.
 616:/usr/include/c++/9.2.0/bits/basic_string.h ****        *  @param  __end  End of range.
 617:/usr/include/c++/9.2.0/bits/basic_string.h ****        *  @param  __a  Allocator to use (default is default allocator).
 618:/usr/include/c++/9.2.0/bits/basic_string.h ****        */
 619:/usr/include/c++/9.2.0/bits/basic_string.h **** #if __cplusplus >= 201103L
GAS LISTING /tmp/ccVy0JI6.s 			page 39


 620:/usr/include/c++/9.2.0/bits/basic_string.h ****       template<typename _InputIterator,
 621:/usr/include/c++/9.2.0/bits/basic_string.h **** 	       typename = std::_RequireInputIter<_InputIterator>>
 622:/usr/include/c++/9.2.0/bits/basic_string.h **** #else
 623:/usr/include/c++/9.2.0/bits/basic_string.h ****       template<typename _InputIterator>
 624:/usr/include/c++/9.2.0/bits/basic_string.h **** #endif
 625:/usr/include/c++/9.2.0/bits/basic_string.h ****         basic_string(_InputIterator __beg, _InputIterator __end,
 626:/usr/include/c++/9.2.0/bits/basic_string.h **** 		     const _Alloc& __a = _Alloc())
 627:/usr/include/c++/9.2.0/bits/basic_string.h **** 	: _M_dataplus(_M_local_data(), __a)
 628:/usr/include/c++/9.2.0/bits/basic_string.h **** 	{ _M_construct(__beg, __end); }
 629:/usr/include/c++/9.2.0/bits/basic_string.h **** 
 630:/usr/include/c++/9.2.0/bits/basic_string.h **** #if __cplusplus >= 201703L
 631:/usr/include/c++/9.2.0/bits/basic_string.h ****       /**
 632:/usr/include/c++/9.2.0/bits/basic_string.h ****        *  @brief  Construct string from a substring of a string_view.
 633:/usr/include/c++/9.2.0/bits/basic_string.h ****        *  @param  __t   Source object convertible to string view.
 634:/usr/include/c++/9.2.0/bits/basic_string.h ****        *  @param  __pos The index of the first character to copy from __t.
 635:/usr/include/c++/9.2.0/bits/basic_string.h ****        *  @param  __n   The number of characters to copy from __t.
 636:/usr/include/c++/9.2.0/bits/basic_string.h ****        *  @param  __a   Allocator to use.
 637:/usr/include/c++/9.2.0/bits/basic_string.h ****        */
 638:/usr/include/c++/9.2.0/bits/basic_string.h ****       template<typename _Tp, typename = _If_sv<_Tp, void>>
 639:/usr/include/c++/9.2.0/bits/basic_string.h **** 	basic_string(const _Tp& __t, size_type __pos, size_type __n,
 640:/usr/include/c++/9.2.0/bits/basic_string.h **** 		     const _Alloc& __a = _Alloc())
 641:/usr/include/c++/9.2.0/bits/basic_string.h **** 	: basic_string(_S_to_string_view(__t).substr(__pos, __n), __a) { }
 642:/usr/include/c++/9.2.0/bits/basic_string.h **** 
 643:/usr/include/c++/9.2.0/bits/basic_string.h ****       /**
 644:/usr/include/c++/9.2.0/bits/basic_string.h ****        *  @brief  Construct string from a string_view.
 645:/usr/include/c++/9.2.0/bits/basic_string.h ****        *  @param  __t  Source object convertible to string view.
 646:/usr/include/c++/9.2.0/bits/basic_string.h ****        *  @param  __a  Allocator to use (default is default allocator).
 647:/usr/include/c++/9.2.0/bits/basic_string.h ****        */
 648:/usr/include/c++/9.2.0/bits/basic_string.h ****       template<typename _Tp, typename = _If_sv<_Tp, void>>
 649:/usr/include/c++/9.2.0/bits/basic_string.h **** 	explicit
 650:/usr/include/c++/9.2.0/bits/basic_string.h **** 	basic_string(const _Tp& __t, const _Alloc& __a = _Alloc())
 651:/usr/include/c++/9.2.0/bits/basic_string.h **** 	: basic_string(__sv_wrapper(_S_to_string_view(__t)), __a) { }
 652:/usr/include/c++/9.2.0/bits/basic_string.h **** #endif // C++17
 653:/usr/include/c++/9.2.0/bits/basic_string.h **** 
 654:/usr/include/c++/9.2.0/bits/basic_string.h ****       /**
 655:/usr/include/c++/9.2.0/bits/basic_string.h ****        *  @brief  Destroy the string instance.
 656:/usr/include/c++/9.2.0/bits/basic_string.h ****        */
 657:/usr/include/c++/9.2.0/bits/basic_string.h ****       ~basic_string()
 658:/usr/include/c++/9.2.0/bits/basic_string.h ****       { _M_dispose(); }
 659:/usr/include/c++/9.2.0/bits/basic_string.h **** 
 660:/usr/include/c++/9.2.0/bits/basic_string.h ****       /**
 661:/usr/include/c++/9.2.0/bits/basic_string.h ****        *  @brief  Assign the value of @a str to this string.
 662:/usr/include/c++/9.2.0/bits/basic_string.h ****        *  @param  __str  Source string.
 663:/usr/include/c++/9.2.0/bits/basic_string.h ****        */
 664:/usr/include/c++/9.2.0/bits/basic_string.h ****       basic_string&
 665:/usr/include/c++/9.2.0/bits/basic_string.h ****       operator=(const basic_string& __str)
 666:/usr/include/c++/9.2.0/bits/basic_string.h ****       {
 667:/usr/include/c++/9.2.0/bits/basic_string.h **** #if __cplusplus >= 201103L
 668:/usr/include/c++/9.2.0/bits/basic_string.h **** 	if (_Alloc_traits::_S_propagate_on_copy_assign())
 669:/usr/include/c++/9.2.0/bits/basic_string.h **** 	  {
 670:/usr/include/c++/9.2.0/bits/basic_string.h **** 	    if (!_Alloc_traits::_S_always_equal() && !_M_is_local()
 671:/usr/include/c++/9.2.0/bits/basic_string.h **** 		&& _M_get_allocator() != __str._M_get_allocator())
 672:/usr/include/c++/9.2.0/bits/basic_string.h **** 	      {
 673:/usr/include/c++/9.2.0/bits/basic_string.h **** 		// Propagating allocator cannot free existing storage so must
 674:/usr/include/c++/9.2.0/bits/basic_string.h **** 		// deallocate it before replacing current allocator.
 675:/usr/include/c++/9.2.0/bits/basic_string.h **** 		if (__str.size() <= _S_local_capacity)
 676:/usr/include/c++/9.2.0/bits/basic_string.h **** 		  {
GAS LISTING /tmp/ccVy0JI6.s 			page 40


 677:/usr/include/c++/9.2.0/bits/basic_string.h **** 		    _M_destroy(_M_allocated_capacity);
 678:/usr/include/c++/9.2.0/bits/basic_string.h **** 		    _M_data(_M_local_data());
 679:/usr/include/c++/9.2.0/bits/basic_string.h **** 		    _M_set_length(0);
 680:/usr/include/c++/9.2.0/bits/basic_string.h **** 		  }
 681:/usr/include/c++/9.2.0/bits/basic_string.h **** 		else
 682:/usr/include/c++/9.2.0/bits/basic_string.h **** 		  {
 683:/usr/include/c++/9.2.0/bits/basic_string.h **** 		    const auto __len = __str.size();
 684:/usr/include/c++/9.2.0/bits/basic_string.h **** 		    auto __alloc = __str._M_get_allocator();
 685:/usr/include/c++/9.2.0/bits/basic_string.h **** 		    // If this allocation throws there are no effects:
 686:/usr/include/c++/9.2.0/bits/basic_string.h **** 		    auto __ptr = _Alloc_traits::allocate(__alloc, __len + 1);
 687:/usr/include/c++/9.2.0/bits/basic_string.h **** 		    _M_destroy(_M_allocated_capacity);
 688:/usr/include/c++/9.2.0/bits/basic_string.h **** 		    _M_data(__ptr);
 689:/usr/include/c++/9.2.0/bits/basic_string.h **** 		    _M_capacity(__len);
 690:/usr/include/c++/9.2.0/bits/basic_string.h **** 		    _M_set_length(__len);
 691:/usr/include/c++/9.2.0/bits/basic_string.h **** 		  }
 692:/usr/include/c++/9.2.0/bits/basic_string.h **** 	      }
 693:/usr/include/c++/9.2.0/bits/basic_string.h **** 	    std::__alloc_on_copy(_M_get_allocator(), __str._M_get_allocator());
 694:/usr/include/c++/9.2.0/bits/basic_string.h **** 	  }
 695:/usr/include/c++/9.2.0/bits/basic_string.h **** #endif
 696:/usr/include/c++/9.2.0/bits/basic_string.h **** 	return this->assign(__str);
 697:/usr/include/c++/9.2.0/bits/basic_string.h ****       }
 698:/usr/include/c++/9.2.0/bits/basic_string.h **** 
 699:/usr/include/c++/9.2.0/bits/basic_string.h ****       /**
 700:/usr/include/c++/9.2.0/bits/basic_string.h ****        *  @brief  Copy contents of @a s into this string.
 701:/usr/include/c++/9.2.0/bits/basic_string.h ****        *  @param  __s  Source null-terminated string.
 702:/usr/include/c++/9.2.0/bits/basic_string.h ****        */
 703:/usr/include/c++/9.2.0/bits/basic_string.h ****       basic_string&
 704:/usr/include/c++/9.2.0/bits/basic_string.h ****       operator=(const _CharT* __s)
 705:/usr/include/c++/9.2.0/bits/basic_string.h ****       { return this->assign(__s); }
 706:/usr/include/c++/9.2.0/bits/basic_string.h **** 
 707:/usr/include/c++/9.2.0/bits/basic_string.h ****       /**
 708:/usr/include/c++/9.2.0/bits/basic_string.h ****        *  @brief  Set value to string of length 1.
 709:/usr/include/c++/9.2.0/bits/basic_string.h ****        *  @param  __c  Source character.
 710:/usr/include/c++/9.2.0/bits/basic_string.h ****        *
 711:/usr/include/c++/9.2.0/bits/basic_string.h ****        *  Assigning to a character makes this string length 1 and
 712:/usr/include/c++/9.2.0/bits/basic_string.h ****        *  (*this)[0] == @a c.
 713:/usr/include/c++/9.2.0/bits/basic_string.h ****        */
 714:/usr/include/c++/9.2.0/bits/basic_string.h ****       basic_string&
 715:/usr/include/c++/9.2.0/bits/basic_string.h ****       operator=(_CharT __c)
 716:/usr/include/c++/9.2.0/bits/basic_string.h ****       {
 717:/usr/include/c++/9.2.0/bits/basic_string.h **** 	this->assign(1, __c);
 718:/usr/include/c++/9.2.0/bits/basic_string.h **** 	return *this;
 719:/usr/include/c++/9.2.0/bits/basic_string.h ****       }
 720:/usr/include/c++/9.2.0/bits/basic_string.h **** 
 721:/usr/include/c++/9.2.0/bits/basic_string.h **** #if __cplusplus >= 201103L
 722:/usr/include/c++/9.2.0/bits/basic_string.h ****       /**
 723:/usr/include/c++/9.2.0/bits/basic_string.h ****        *  @brief  Move assign the value of @a str to this string.
 724:/usr/include/c++/9.2.0/bits/basic_string.h ****        *  @param  __str  Source string.
 725:/usr/include/c++/9.2.0/bits/basic_string.h ****        *
 726:/usr/include/c++/9.2.0/bits/basic_string.h ****        *  The contents of @a str are moved into this string (without copying).
 727:/usr/include/c++/9.2.0/bits/basic_string.h ****        *  @a str is a valid, but unspecified string.
 728:/usr/include/c++/9.2.0/bits/basic_string.h ****        **/
 729:/usr/include/c++/9.2.0/bits/basic_string.h ****       // _GLIBCXX_RESOLVE_LIB_DEFECTS
 730:/usr/include/c++/9.2.0/bits/basic_string.h ****       // 2063. Contradictory requirements for string move assignment
 731:/usr/include/c++/9.2.0/bits/basic_string.h ****       basic_string&
 732:/usr/include/c++/9.2.0/bits/basic_string.h ****       operator=(basic_string&& __str)
 733:/usr/include/c++/9.2.0/bits/basic_string.h ****       noexcept(_Alloc_traits::_S_nothrow_move())
GAS LISTING /tmp/ccVy0JI6.s 			page 41


 734:/usr/include/c++/9.2.0/bits/basic_string.h ****       {
 735:/usr/include/c++/9.2.0/bits/basic_string.h **** 	if (!_M_is_local() && _Alloc_traits::_S_propagate_on_move_assign()
 736:/usr/include/c++/9.2.0/bits/basic_string.h **** 	    && !_Alloc_traits::_S_always_equal()
 737:/usr/include/c++/9.2.0/bits/basic_string.h **** 	    && _M_get_allocator() != __str._M_get_allocator())
 738:/usr/include/c++/9.2.0/bits/basic_string.h **** 	  {
 739:/usr/include/c++/9.2.0/bits/basic_string.h **** 	    // Destroy existing storage before replacing allocator.
 740:/usr/include/c++/9.2.0/bits/basic_string.h **** 	    _M_destroy(_M_allocated_capacity);
 741:/usr/include/c++/9.2.0/bits/basic_string.h **** 	    _M_data(_M_local_data());
 742:/usr/include/c++/9.2.0/bits/basic_string.h **** 	    _M_set_length(0);
 743:/usr/include/c++/9.2.0/bits/basic_string.h **** 	  }
 744:/usr/include/c++/9.2.0/bits/basic_string.h **** 	// Replace allocator if POCMA is true.
 745:/usr/include/c++/9.2.0/bits/basic_string.h **** 	std::__alloc_on_move(_M_get_allocator(), __str._M_get_allocator());
 746:/usr/include/c++/9.2.0/bits/basic_string.h **** 
 747:/usr/include/c++/9.2.0/bits/basic_string.h **** 	if (__str._M_is_local())
 748:/usr/include/c++/9.2.0/bits/basic_string.h **** 	  {
 749:/usr/include/c++/9.2.0/bits/basic_string.h **** 	    // We've always got room for a short string, just copy it.
 750:/usr/include/c++/9.2.0/bits/basic_string.h **** 	    if (__str.size())
 751:/usr/include/c++/9.2.0/bits/basic_string.h **** 	      this->_S_copy(_M_data(), __str._M_data(), __str.size());
 752:/usr/include/c++/9.2.0/bits/basic_string.h **** 	    _M_set_length(__str.size());
 753:/usr/include/c++/9.2.0/bits/basic_string.h **** 	  }
 754:/usr/include/c++/9.2.0/bits/basic_string.h **** 	else if (_Alloc_traits::_S_propagate_on_move_assign()
 755:/usr/include/c++/9.2.0/bits/basic_string.h **** 	    || _Alloc_traits::_S_always_equal()
 756:/usr/include/c++/9.2.0/bits/basic_string.h **** 	    || _M_get_allocator() == __str._M_get_allocator())
 757:/usr/include/c++/9.2.0/bits/basic_string.h **** 	  {
 758:/usr/include/c++/9.2.0/bits/basic_string.h **** 	    // Just move the allocated pointer, our allocator can free it.
 759:/usr/include/c++/9.2.0/bits/basic_string.h **** 	    pointer __data = nullptr;
 760:/usr/include/c++/9.2.0/bits/basic_string.h **** 	    size_type __capacity;
 761:/usr/include/c++/9.2.0/bits/basic_string.h **** 	    if (!_M_is_local())
 762:/usr/include/c++/9.2.0/bits/basic_string.h **** 	      {
 763:/usr/include/c++/9.2.0/bits/basic_string.h **** 		if (_Alloc_traits::_S_always_equal())
 764:/usr/include/c++/9.2.0/bits/basic_string.h **** 		  {
 765:/usr/include/c++/9.2.0/bits/basic_string.h **** 		    // __str can reuse our existing storage.
 766:/usr/include/c++/9.2.0/bits/basic_string.h **** 		    __data = _M_data();
 767:/usr/include/c++/9.2.0/bits/basic_string.h **** 		    __capacity = _M_allocated_capacity;
 768:/usr/include/c++/9.2.0/bits/basic_string.h **** 		  }
 769:/usr/include/c++/9.2.0/bits/basic_string.h **** 		else // __str can't use it, so free it.
 770:/usr/include/c++/9.2.0/bits/basic_string.h **** 		  _M_destroy(_M_allocated_capacity);
 771:/usr/include/c++/9.2.0/bits/basic_string.h **** 	      }
 772:/usr/include/c++/9.2.0/bits/basic_string.h **** 
 773:/usr/include/c++/9.2.0/bits/basic_string.h **** 	    _M_data(__str._M_data());
 774:/usr/include/c++/9.2.0/bits/basic_string.h **** 	    _M_length(__str.length());
 775:/usr/include/c++/9.2.0/bits/basic_string.h **** 	    _M_capacity(__str._M_allocated_capacity);
 776:/usr/include/c++/9.2.0/bits/basic_string.h **** 	    if (__data)
 777:/usr/include/c++/9.2.0/bits/basic_string.h **** 	      {
 778:/usr/include/c++/9.2.0/bits/basic_string.h **** 		__str._M_data(__data);
 779:/usr/include/c++/9.2.0/bits/basic_string.h **** 		__str._M_capacity(__capacity);
 780:/usr/include/c++/9.2.0/bits/basic_string.h **** 	      }
 781:/usr/include/c++/9.2.0/bits/basic_string.h **** 	    else
 782:/usr/include/c++/9.2.0/bits/basic_string.h **** 	      __str._M_data(__str._M_local_buf);
 783:/usr/include/c++/9.2.0/bits/basic_string.h **** 	  }
 784:/usr/include/c++/9.2.0/bits/basic_string.h **** 	else // Need to do a deep copy
 785:/usr/include/c++/9.2.0/bits/basic_string.h **** 	  assign(__str);
 786:/usr/include/c++/9.2.0/bits/basic_string.h **** 	__str.clear();
 787:/usr/include/c++/9.2.0/bits/basic_string.h **** 	return *this;
 788:/usr/include/c++/9.2.0/bits/basic_string.h ****       }
 789:/usr/include/c++/9.2.0/bits/basic_string.h **** 
 790:/usr/include/c++/9.2.0/bits/basic_string.h ****       /**
GAS LISTING /tmp/ccVy0JI6.s 			page 42


 791:/usr/include/c++/9.2.0/bits/basic_string.h ****        *  @brief  Set value to string constructed from initializer %list.
 792:/usr/include/c++/9.2.0/bits/basic_string.h ****        *  @param  __l  std::initializer_list.
 793:/usr/include/c++/9.2.0/bits/basic_string.h ****        */
 794:/usr/include/c++/9.2.0/bits/basic_string.h ****       basic_string&
 795:/usr/include/c++/9.2.0/bits/basic_string.h ****       operator=(initializer_list<_CharT> __l)
 796:/usr/include/c++/9.2.0/bits/basic_string.h ****       {
 797:/usr/include/c++/9.2.0/bits/basic_string.h **** 	this->assign(__l.begin(), __l.size());
 798:/usr/include/c++/9.2.0/bits/basic_string.h **** 	return *this;
 799:/usr/include/c++/9.2.0/bits/basic_string.h ****       }
 800:/usr/include/c++/9.2.0/bits/basic_string.h **** #endif // C++11
 801:/usr/include/c++/9.2.0/bits/basic_string.h **** 
 802:/usr/include/c++/9.2.0/bits/basic_string.h **** #if __cplusplus >= 201703L
 803:/usr/include/c++/9.2.0/bits/basic_string.h ****       /**
 804:/usr/include/c++/9.2.0/bits/basic_string.h ****        *  @brief  Set value to string constructed from a string_view.
 805:/usr/include/c++/9.2.0/bits/basic_string.h ****        *  @param  __svt  An object convertible to string_view.
 806:/usr/include/c++/9.2.0/bits/basic_string.h ****        */
 807:/usr/include/c++/9.2.0/bits/basic_string.h ****      template<typename _Tp>
 808:/usr/include/c++/9.2.0/bits/basic_string.h ****        _If_sv<_Tp, basic_string&>
 809:/usr/include/c++/9.2.0/bits/basic_string.h ****        operator=(const _Tp& __svt)
 810:/usr/include/c++/9.2.0/bits/basic_string.h ****        { return this->assign(__svt); }
 811:/usr/include/c++/9.2.0/bits/basic_string.h **** 
 812:/usr/include/c++/9.2.0/bits/basic_string.h ****       /**
 813:/usr/include/c++/9.2.0/bits/basic_string.h ****        *  @brief  Convert to a string_view.
 814:/usr/include/c++/9.2.0/bits/basic_string.h ****        *  @return A string_view.
 815:/usr/include/c++/9.2.0/bits/basic_string.h ****        */
 816:/usr/include/c++/9.2.0/bits/basic_string.h ****       operator __sv_type() const noexcept
 817:/usr/include/c++/9.2.0/bits/basic_string.h ****       { return __sv_type(data(), size()); }
 818:/usr/include/c++/9.2.0/bits/basic_string.h **** #endif // C++17
 819:/usr/include/c++/9.2.0/bits/basic_string.h **** 
 820:/usr/include/c++/9.2.0/bits/basic_string.h ****       // Iterators:
 821:/usr/include/c++/9.2.0/bits/basic_string.h ****       /**
 822:/usr/include/c++/9.2.0/bits/basic_string.h ****        *  Returns a read/write iterator that points to the first character in
 823:/usr/include/c++/9.2.0/bits/basic_string.h ****        *  the %string.
 824:/usr/include/c++/9.2.0/bits/basic_string.h ****        */
 825:/usr/include/c++/9.2.0/bits/basic_string.h ****       iterator
 826:/usr/include/c++/9.2.0/bits/basic_string.h ****       begin() _GLIBCXX_NOEXCEPT
 827:/usr/include/c++/9.2.0/bits/basic_string.h ****       { return iterator(_M_data()); }
 828:/usr/include/c++/9.2.0/bits/basic_string.h **** 
 829:/usr/include/c++/9.2.0/bits/basic_string.h ****       /**
 830:/usr/include/c++/9.2.0/bits/basic_string.h ****        *  Returns a read-only (constant) iterator that points to the first
 831:/usr/include/c++/9.2.0/bits/basic_string.h ****        *  character in the %string.
 832:/usr/include/c++/9.2.0/bits/basic_string.h ****        */
 833:/usr/include/c++/9.2.0/bits/basic_string.h ****       const_iterator
 834:/usr/include/c++/9.2.0/bits/basic_string.h ****       begin() const _GLIBCXX_NOEXCEPT
 835:/usr/include/c++/9.2.0/bits/basic_string.h ****       { return const_iterator(_M_data()); }
 836:/usr/include/c++/9.2.0/bits/basic_string.h **** 
 837:/usr/include/c++/9.2.0/bits/basic_string.h ****       /**
 838:/usr/include/c++/9.2.0/bits/basic_string.h ****        *  Returns a read/write iterator that points one past the last
 839:/usr/include/c++/9.2.0/bits/basic_string.h ****        *  character in the %string.
 840:/usr/include/c++/9.2.0/bits/basic_string.h ****        */
 841:/usr/include/c++/9.2.0/bits/basic_string.h ****       iterator
 842:/usr/include/c++/9.2.0/bits/basic_string.h ****       end() _GLIBCXX_NOEXCEPT
 843:/usr/include/c++/9.2.0/bits/basic_string.h ****       { return iterator(_M_data() + this->size()); }
 844:/usr/include/c++/9.2.0/bits/basic_string.h **** 
 845:/usr/include/c++/9.2.0/bits/basic_string.h ****       /**
 846:/usr/include/c++/9.2.0/bits/basic_string.h ****        *  Returns a read-only (constant) iterator that points one past the
 847:/usr/include/c++/9.2.0/bits/basic_string.h ****        *  last character in the %string.
GAS LISTING /tmp/ccVy0JI6.s 			page 43


 848:/usr/include/c++/9.2.0/bits/basic_string.h ****        */
 849:/usr/include/c++/9.2.0/bits/basic_string.h ****       const_iterator
 850:/usr/include/c++/9.2.0/bits/basic_string.h ****       end() const _GLIBCXX_NOEXCEPT
 851:/usr/include/c++/9.2.0/bits/basic_string.h ****       { return const_iterator(_M_data() + this->size()); }
 852:/usr/include/c++/9.2.0/bits/basic_string.h **** 
 853:/usr/include/c++/9.2.0/bits/basic_string.h ****       /**
 854:/usr/include/c++/9.2.0/bits/basic_string.h ****        *  Returns a read/write reverse iterator that points to the last
 855:/usr/include/c++/9.2.0/bits/basic_string.h ****        *  character in the %string.  Iteration is done in reverse element
 856:/usr/include/c++/9.2.0/bits/basic_string.h ****        *  order.
 857:/usr/include/c++/9.2.0/bits/basic_string.h ****        */
 858:/usr/include/c++/9.2.0/bits/basic_string.h ****       reverse_iterator
 859:/usr/include/c++/9.2.0/bits/basic_string.h ****       rbegin() _GLIBCXX_NOEXCEPT
 860:/usr/include/c++/9.2.0/bits/basic_string.h ****       { return reverse_iterator(this->end()); }
 861:/usr/include/c++/9.2.0/bits/basic_string.h **** 
 862:/usr/include/c++/9.2.0/bits/basic_string.h ****       /**
 863:/usr/include/c++/9.2.0/bits/basic_string.h ****        *  Returns a read-only (constant) reverse iterator that points
 864:/usr/include/c++/9.2.0/bits/basic_string.h ****        *  to the last character in the %string.  Iteration is done in
 865:/usr/include/c++/9.2.0/bits/basic_string.h ****        *  reverse element order.
 866:/usr/include/c++/9.2.0/bits/basic_string.h ****        */
 867:/usr/include/c++/9.2.0/bits/basic_string.h ****       const_reverse_iterator
 868:/usr/include/c++/9.2.0/bits/basic_string.h ****       rbegin() const _GLIBCXX_NOEXCEPT
 869:/usr/include/c++/9.2.0/bits/basic_string.h ****       { return const_reverse_iterator(this->end()); }
 870:/usr/include/c++/9.2.0/bits/basic_string.h **** 
 871:/usr/include/c++/9.2.0/bits/basic_string.h ****       /**
 872:/usr/include/c++/9.2.0/bits/basic_string.h ****        *  Returns a read/write reverse iterator that points to one before the
 873:/usr/include/c++/9.2.0/bits/basic_string.h ****        *  first character in the %string.  Iteration is done in reverse
 874:/usr/include/c++/9.2.0/bits/basic_string.h ****        *  element order.
 875:/usr/include/c++/9.2.0/bits/basic_string.h ****        */
 876:/usr/include/c++/9.2.0/bits/basic_string.h ****       reverse_iterator
 877:/usr/include/c++/9.2.0/bits/basic_string.h ****       rend() _GLIBCXX_NOEXCEPT
 878:/usr/include/c++/9.2.0/bits/basic_string.h ****       { return reverse_iterator(this->begin()); }
 879:/usr/include/c++/9.2.0/bits/basic_string.h **** 
 880:/usr/include/c++/9.2.0/bits/basic_string.h ****       /**
 881:/usr/include/c++/9.2.0/bits/basic_string.h ****        *  Returns a read-only (constant) reverse iterator that points
 882:/usr/include/c++/9.2.0/bits/basic_string.h ****        *  to one before the first character in the %string.  Iteration
 883:/usr/include/c++/9.2.0/bits/basic_string.h ****        *  is done in reverse element order.
 884:/usr/include/c++/9.2.0/bits/basic_string.h ****        */
 885:/usr/include/c++/9.2.0/bits/basic_string.h ****       const_reverse_iterator
 886:/usr/include/c++/9.2.0/bits/basic_string.h ****       rend() const _GLIBCXX_NOEXCEPT
 887:/usr/include/c++/9.2.0/bits/basic_string.h ****       { return const_reverse_iterator(this->begin()); }
 888:/usr/include/c++/9.2.0/bits/basic_string.h **** 
 889:/usr/include/c++/9.2.0/bits/basic_string.h **** #if __cplusplus >= 201103L
 890:/usr/include/c++/9.2.0/bits/basic_string.h ****       /**
 891:/usr/include/c++/9.2.0/bits/basic_string.h ****        *  Returns a read-only (constant) iterator that points to the first
 892:/usr/include/c++/9.2.0/bits/basic_string.h ****        *  character in the %string.
 893:/usr/include/c++/9.2.0/bits/basic_string.h ****        */
 894:/usr/include/c++/9.2.0/bits/basic_string.h ****       const_iterator
 895:/usr/include/c++/9.2.0/bits/basic_string.h ****       cbegin() const noexcept
 896:/usr/include/c++/9.2.0/bits/basic_string.h ****       { return const_iterator(this->_M_data()); }
 897:/usr/include/c++/9.2.0/bits/basic_string.h **** 
 898:/usr/include/c++/9.2.0/bits/basic_string.h ****       /**
 899:/usr/include/c++/9.2.0/bits/basic_string.h ****        *  Returns a read-only (constant) iterator that points one past the
 900:/usr/include/c++/9.2.0/bits/basic_string.h ****        *  last character in the %string.
 901:/usr/include/c++/9.2.0/bits/basic_string.h ****        */
 902:/usr/include/c++/9.2.0/bits/basic_string.h ****       const_iterator
 903:/usr/include/c++/9.2.0/bits/basic_string.h ****       cend() const noexcept
 904:/usr/include/c++/9.2.0/bits/basic_string.h ****       { return const_iterator(this->_M_data() + this->size()); }
GAS LISTING /tmp/ccVy0JI6.s 			page 44


 905:/usr/include/c++/9.2.0/bits/basic_string.h **** 
 906:/usr/include/c++/9.2.0/bits/basic_string.h ****       /**
 907:/usr/include/c++/9.2.0/bits/basic_string.h ****        *  Returns a read-only (constant) reverse iterator that points
 908:/usr/include/c++/9.2.0/bits/basic_string.h ****        *  to the last character in the %string.  Iteration is done in
 909:/usr/include/c++/9.2.0/bits/basic_string.h ****        *  reverse element order.
 910:/usr/include/c++/9.2.0/bits/basic_string.h ****        */
 911:/usr/include/c++/9.2.0/bits/basic_string.h ****       const_reverse_iterator
 912:/usr/include/c++/9.2.0/bits/basic_string.h ****       crbegin() const noexcept
 913:/usr/include/c++/9.2.0/bits/basic_string.h ****       { return const_reverse_iterator(this->end()); }
 914:/usr/include/c++/9.2.0/bits/basic_string.h **** 
 915:/usr/include/c++/9.2.0/bits/basic_string.h ****       /**
 916:/usr/include/c++/9.2.0/bits/basic_string.h ****        *  Returns a read-only (constant) reverse iterator that points
 917:/usr/include/c++/9.2.0/bits/basic_string.h ****        *  to one before the first character in the %string.  Iteration
 918:/usr/include/c++/9.2.0/bits/basic_string.h ****        *  is done in reverse element order.
 919:/usr/include/c++/9.2.0/bits/basic_string.h ****        */
 920:/usr/include/c++/9.2.0/bits/basic_string.h ****       const_reverse_iterator
 921:/usr/include/c++/9.2.0/bits/basic_string.h ****       crend() const noexcept
 922:/usr/include/c++/9.2.0/bits/basic_string.h ****       { return const_reverse_iterator(this->begin()); }
 923:/usr/include/c++/9.2.0/bits/basic_string.h **** #endif
 924:/usr/include/c++/9.2.0/bits/basic_string.h **** 
 925:/usr/include/c++/9.2.0/bits/basic_string.h ****     public:
 926:/usr/include/c++/9.2.0/bits/basic_string.h ****       // Capacity:
 927:/usr/include/c++/9.2.0/bits/basic_string.h ****       ///  Returns the number of characters in the string, not including any
 928:/usr/include/c++/9.2.0/bits/basic_string.h ****       ///  null-termination.
 929:/usr/include/c++/9.2.0/bits/basic_string.h ****       size_type
 930:/usr/include/c++/9.2.0/bits/basic_string.h ****       size() const _GLIBCXX_NOEXCEPT
 931:/usr/include/c++/9.2.0/bits/basic_string.h ****       { return _M_string_length; }
 932:/usr/include/c++/9.2.0/bits/basic_string.h **** 
 933:/usr/include/c++/9.2.0/bits/basic_string.h ****       ///  Returns the number of characters in the string, not including any
 934:/usr/include/c++/9.2.0/bits/basic_string.h ****       ///  null-termination.
 935:/usr/include/c++/9.2.0/bits/basic_string.h ****       size_type
 936:/usr/include/c++/9.2.0/bits/basic_string.h ****       length() const _GLIBCXX_NOEXCEPT
 937:/usr/include/c++/9.2.0/bits/basic_string.h ****       { return _M_string_length; }
 938:/usr/include/c++/9.2.0/bits/basic_string.h **** 
 939:/usr/include/c++/9.2.0/bits/basic_string.h ****       ///  Returns the size() of the largest possible %string.
 940:/usr/include/c++/9.2.0/bits/basic_string.h ****       size_type
 941:/usr/include/c++/9.2.0/bits/basic_string.h ****       max_size() const _GLIBCXX_NOEXCEPT
 942:/usr/include/c++/9.2.0/bits/basic_string.h ****       { return (_Alloc_traits::max_size(_M_get_allocator()) - 1) / 2; }
 943:/usr/include/c++/9.2.0/bits/basic_string.h **** 
 944:/usr/include/c++/9.2.0/bits/basic_string.h ****       /**
 945:/usr/include/c++/9.2.0/bits/basic_string.h ****        *  @brief  Resizes the %string to the specified number of characters.
 946:/usr/include/c++/9.2.0/bits/basic_string.h ****        *  @param  __n  Number of characters the %string should contain.
 947:/usr/include/c++/9.2.0/bits/basic_string.h ****        *  @param  __c  Character to fill any new elements.
 948:/usr/include/c++/9.2.0/bits/basic_string.h ****        *
 949:/usr/include/c++/9.2.0/bits/basic_string.h ****        *  This function will %resize the %string to the specified
 950:/usr/include/c++/9.2.0/bits/basic_string.h ****        *  number of characters.  If the number is smaller than the
 951:/usr/include/c++/9.2.0/bits/basic_string.h ****        *  %string's current size the %string is truncated, otherwise
 952:/usr/include/c++/9.2.0/bits/basic_string.h ****        *  the %string is extended and new elements are %set to @a __c.
 953:/usr/include/c++/9.2.0/bits/basic_string.h ****        */
 954:/usr/include/c++/9.2.0/bits/basic_string.h ****       void
 955:/usr/include/c++/9.2.0/bits/basic_string.h ****       resize(size_type __n, _CharT __c);
 956:/usr/include/c++/9.2.0/bits/basic_string.h **** 
 957:/usr/include/c++/9.2.0/bits/basic_string.h ****       /**
 958:/usr/include/c++/9.2.0/bits/basic_string.h ****        *  @brief  Resizes the %string to the specified number of characters.
 959:/usr/include/c++/9.2.0/bits/basic_string.h ****        *  @param  __n  Number of characters the %string should contain.
 960:/usr/include/c++/9.2.0/bits/basic_string.h ****        *
 961:/usr/include/c++/9.2.0/bits/basic_string.h ****        *  This function will resize the %string to the specified length.  If
GAS LISTING /tmp/ccVy0JI6.s 			page 45


 962:/usr/include/c++/9.2.0/bits/basic_string.h ****        *  the new size is smaller than the %string's current size the %string
 963:/usr/include/c++/9.2.0/bits/basic_string.h ****        *  is truncated, otherwise the %string is extended and new characters
 964:/usr/include/c++/9.2.0/bits/basic_string.h ****        *  are default-constructed.  For basic types such as char, this means
 965:/usr/include/c++/9.2.0/bits/basic_string.h ****        *  setting them to 0.
 966:/usr/include/c++/9.2.0/bits/basic_string.h ****        */
 967:/usr/include/c++/9.2.0/bits/basic_string.h ****       void
 968:/usr/include/c++/9.2.0/bits/basic_string.h ****       resize(size_type __n)
 969:/usr/include/c++/9.2.0/bits/basic_string.h ****       { this->resize(__n, _CharT()); }
 970:/usr/include/c++/9.2.0/bits/basic_string.h **** 
 971:/usr/include/c++/9.2.0/bits/basic_string.h **** #if __cplusplus >= 201103L
 972:/usr/include/c++/9.2.0/bits/basic_string.h ****       ///  A non-binding request to reduce capacity() to size().
 973:/usr/include/c++/9.2.0/bits/basic_string.h ****       void
 974:/usr/include/c++/9.2.0/bits/basic_string.h ****       shrink_to_fit() noexcept
 975:/usr/include/c++/9.2.0/bits/basic_string.h ****       {
 976:/usr/include/c++/9.2.0/bits/basic_string.h **** #if __cpp_exceptions
 977:/usr/include/c++/9.2.0/bits/basic_string.h **** 	if (capacity() > size())
 978:/usr/include/c++/9.2.0/bits/basic_string.h **** 	  {
 979:/usr/include/c++/9.2.0/bits/basic_string.h **** 	    try
 980:/usr/include/c++/9.2.0/bits/basic_string.h **** 	      { reserve(0); }
 981:/usr/include/c++/9.2.0/bits/basic_string.h **** 	    catch(...)
 982:/usr/include/c++/9.2.0/bits/basic_string.h **** 	      { }
 983:/usr/include/c++/9.2.0/bits/basic_string.h **** 	  }
 984:/usr/include/c++/9.2.0/bits/basic_string.h **** #endif
 985:/usr/include/c++/9.2.0/bits/basic_string.h ****       }
 986:/usr/include/c++/9.2.0/bits/basic_string.h **** #endif
 987:/usr/include/c++/9.2.0/bits/basic_string.h **** 
 988:/usr/include/c++/9.2.0/bits/basic_string.h ****       /**
 989:/usr/include/c++/9.2.0/bits/basic_string.h ****        *  Returns the total number of characters that the %string can hold
 990:/usr/include/c++/9.2.0/bits/basic_string.h ****        *  before needing to allocate more memory.
 991:/usr/include/c++/9.2.0/bits/basic_string.h ****        */
 992:/usr/include/c++/9.2.0/bits/basic_string.h ****       size_type
 993:/usr/include/c++/9.2.0/bits/basic_string.h ****       capacity() const _GLIBCXX_NOEXCEPT
 994:/usr/include/c++/9.2.0/bits/basic_string.h ****       {
 995:/usr/include/c++/9.2.0/bits/basic_string.h **** 	return _M_is_local() ? size_type(_S_local_capacity)
 996:/usr/include/c++/9.2.0/bits/basic_string.h **** 	                     : _M_allocated_capacity;
 997:/usr/include/c++/9.2.0/bits/basic_string.h ****       }
 998:/usr/include/c++/9.2.0/bits/basic_string.h **** 
 999:/usr/include/c++/9.2.0/bits/basic_string.h ****       /**
1000:/usr/include/c++/9.2.0/bits/basic_string.h ****        *  @brief  Attempt to preallocate enough memory for specified number of
1001:/usr/include/c++/9.2.0/bits/basic_string.h ****        *          characters.
1002:/usr/include/c++/9.2.0/bits/basic_string.h ****        *  @param  __res_arg  Number of characters required.
1003:/usr/include/c++/9.2.0/bits/basic_string.h ****        *  @throw  std::length_error  If @a __res_arg exceeds @c max_size().
1004:/usr/include/c++/9.2.0/bits/basic_string.h ****        *
1005:/usr/include/c++/9.2.0/bits/basic_string.h ****        *  This function attempts to reserve enough memory for the
1006:/usr/include/c++/9.2.0/bits/basic_string.h ****        *  %string to hold the specified number of characters.  If the
1007:/usr/include/c++/9.2.0/bits/basic_string.h ****        *  number requested is more than max_size(), length_error is
1008:/usr/include/c++/9.2.0/bits/basic_string.h ****        *  thrown.
1009:/usr/include/c++/9.2.0/bits/basic_string.h ****        *
1010:/usr/include/c++/9.2.0/bits/basic_string.h ****        *  The advantage of this function is that if optimal code is a
1011:/usr/include/c++/9.2.0/bits/basic_string.h ****        *  necessity and the user can determine the string length that will be
1012:/usr/include/c++/9.2.0/bits/basic_string.h ****        *  required, the user can reserve the memory in %advance, and thus
1013:/usr/include/c++/9.2.0/bits/basic_string.h ****        *  prevent a possible reallocation of memory and copying of %string
1014:/usr/include/c++/9.2.0/bits/basic_string.h ****        *  data.
1015:/usr/include/c++/9.2.0/bits/basic_string.h ****        */
1016:/usr/include/c++/9.2.0/bits/basic_string.h ****       void
1017:/usr/include/c++/9.2.0/bits/basic_string.h ****       reserve(size_type __res_arg = 0);
1018:/usr/include/c++/9.2.0/bits/basic_string.h **** 
GAS LISTING /tmp/ccVy0JI6.s 			page 46


1019:/usr/include/c++/9.2.0/bits/basic_string.h ****       /**
1020:/usr/include/c++/9.2.0/bits/basic_string.h ****        *  Erases the string, making it empty.
1021:/usr/include/c++/9.2.0/bits/basic_string.h ****        */
1022:/usr/include/c++/9.2.0/bits/basic_string.h ****       void
1023:/usr/include/c++/9.2.0/bits/basic_string.h ****       clear() _GLIBCXX_NOEXCEPT
1024:/usr/include/c++/9.2.0/bits/basic_string.h ****       { _M_set_length(0); }
1025:/usr/include/c++/9.2.0/bits/basic_string.h **** 
1026:/usr/include/c++/9.2.0/bits/basic_string.h ****       /**
1027:/usr/include/c++/9.2.0/bits/basic_string.h ****        *  Returns true if the %string is empty.  Equivalent to 
1028:/usr/include/c++/9.2.0/bits/basic_string.h ****        *  <code>*this == ""</code>.
1029:/usr/include/c++/9.2.0/bits/basic_string.h ****        */
1030:/usr/include/c++/9.2.0/bits/basic_string.h ****       _GLIBCXX_NODISCARD bool
1031:/usr/include/c++/9.2.0/bits/basic_string.h ****       empty() const _GLIBCXX_NOEXCEPT
1032:/usr/include/c++/9.2.0/bits/basic_string.h ****       { return this->size() == 0; }
1033:/usr/include/c++/9.2.0/bits/basic_string.h **** 
1034:/usr/include/c++/9.2.0/bits/basic_string.h ****       // Element access:
1035:/usr/include/c++/9.2.0/bits/basic_string.h ****       /**
1036:/usr/include/c++/9.2.0/bits/basic_string.h ****        *  @brief  Subscript access to the data contained in the %string.
1037:/usr/include/c++/9.2.0/bits/basic_string.h ****        *  @param  __pos  The index of the character to access.
1038:/usr/include/c++/9.2.0/bits/basic_string.h ****        *  @return  Read-only (constant) reference to the character.
1039:/usr/include/c++/9.2.0/bits/basic_string.h ****        *
1040:/usr/include/c++/9.2.0/bits/basic_string.h ****        *  This operator allows for easy, array-style, data access.
1041:/usr/include/c++/9.2.0/bits/basic_string.h ****        *  Note that data access with this operator is unchecked and
1042:/usr/include/c++/9.2.0/bits/basic_string.h ****        *  out_of_range lookups are not defined. (For checked lookups
1043:/usr/include/c++/9.2.0/bits/basic_string.h ****        *  see at().)
1044:/usr/include/c++/9.2.0/bits/basic_string.h ****        */
1045:/usr/include/c++/9.2.0/bits/basic_string.h ****       const_reference
1046:/usr/include/c++/9.2.0/bits/basic_string.h ****       operator[] (size_type __pos) const _GLIBCXX_NOEXCEPT
1047:/usr/include/c++/9.2.0/bits/basic_string.h ****       {
1048:/usr/include/c++/9.2.0/bits/basic_string.h **** 	__glibcxx_assert(__pos <= size());
1049:/usr/include/c++/9.2.0/bits/basic_string.h **** 	return _M_data()[__pos];
1050:/usr/include/c++/9.2.0/bits/basic_string.h ****       }
1051:/usr/include/c++/9.2.0/bits/basic_string.h **** 
1052:/usr/include/c++/9.2.0/bits/basic_string.h ****       /**
1053:/usr/include/c++/9.2.0/bits/basic_string.h ****        *  @brief  Subscript access to the data contained in the %string.
1054:/usr/include/c++/9.2.0/bits/basic_string.h ****        *  @param  __pos  The index of the character to access.
1055:/usr/include/c++/9.2.0/bits/basic_string.h ****        *  @return  Read/write reference to the character.
1056:/usr/include/c++/9.2.0/bits/basic_string.h ****        *
1057:/usr/include/c++/9.2.0/bits/basic_string.h ****        *  This operator allows for easy, array-style, data access.
1058:/usr/include/c++/9.2.0/bits/basic_string.h ****        *  Note that data access with this operator is unchecked and
1059:/usr/include/c++/9.2.0/bits/basic_string.h ****        *  out_of_range lookups are not defined. (For checked lookups
1060:/usr/include/c++/9.2.0/bits/basic_string.h ****        *  see at().)
1061:/usr/include/c++/9.2.0/bits/basic_string.h ****        */
1062:/usr/include/c++/9.2.0/bits/basic_string.h ****       reference
1063:/usr/include/c++/9.2.0/bits/basic_string.h ****       operator[](size_type __pos)
1064:/usr/include/c++/9.2.0/bits/basic_string.h ****       {
1065:/usr/include/c++/9.2.0/bits/basic_string.h ****         // Allow pos == size() both in C++98 mode, as v3 extension,
1066:/usr/include/c++/9.2.0/bits/basic_string.h **** 	// and in C++11 mode.
1067:/usr/include/c++/9.2.0/bits/basic_string.h **** 	__glibcxx_assert(__pos <= size());
1068:/usr/include/c++/9.2.0/bits/basic_string.h ****         // In pedantic mode be strict in C++98 mode.
1069:/usr/include/c++/9.2.0/bits/basic_string.h **** 	_GLIBCXX_DEBUG_PEDASSERT(__cplusplus >= 201103L || __pos < size());
1070:/usr/include/c++/9.2.0/bits/basic_string.h **** 	return _M_data()[__pos];
1071:/usr/include/c++/9.2.0/bits/basic_string.h ****       }
1072:/usr/include/c++/9.2.0/bits/basic_string.h **** 
1073:/usr/include/c++/9.2.0/bits/basic_string.h ****       /**
1074:/usr/include/c++/9.2.0/bits/basic_string.h ****        *  @brief  Provides access to the data contained in the %string.
1075:/usr/include/c++/9.2.0/bits/basic_string.h ****        *  @param __n The index of the character to access.
GAS LISTING /tmp/ccVy0JI6.s 			page 47


1076:/usr/include/c++/9.2.0/bits/basic_string.h ****        *  @return  Read-only (const) reference to the character.
1077:/usr/include/c++/9.2.0/bits/basic_string.h ****        *  @throw  std::out_of_range  If @a n is an invalid index.
1078:/usr/include/c++/9.2.0/bits/basic_string.h ****        *
1079:/usr/include/c++/9.2.0/bits/basic_string.h ****        *  This function provides for safer data access.  The parameter is
1080:/usr/include/c++/9.2.0/bits/basic_string.h ****        *  first checked that it is in the range of the string.  The function
1081:/usr/include/c++/9.2.0/bits/basic_string.h ****        *  throws out_of_range if the check fails.
1082:/usr/include/c++/9.2.0/bits/basic_string.h ****        */
1083:/usr/include/c++/9.2.0/bits/basic_string.h ****       const_reference
1084:/usr/include/c++/9.2.0/bits/basic_string.h ****       at(size_type __n) const
1085:/usr/include/c++/9.2.0/bits/basic_string.h ****       {
1086:/usr/include/c++/9.2.0/bits/basic_string.h **** 	if (__n >= this->size())
1087:/usr/include/c++/9.2.0/bits/basic_string.h **** 	  __throw_out_of_range_fmt(__N("basic_string::at: __n "
1088:/usr/include/c++/9.2.0/bits/basic_string.h **** 				       "(which is %zu) >= this->size() "
1089:/usr/include/c++/9.2.0/bits/basic_string.h **** 				       "(which is %zu)"),
1090:/usr/include/c++/9.2.0/bits/basic_string.h **** 				   __n, this->size());
1091:/usr/include/c++/9.2.0/bits/basic_string.h **** 	return _M_data()[__n];
1092:/usr/include/c++/9.2.0/bits/basic_string.h ****       }
1093:/usr/include/c++/9.2.0/bits/basic_string.h **** 
1094:/usr/include/c++/9.2.0/bits/basic_string.h ****       /**
1095:/usr/include/c++/9.2.0/bits/basic_string.h ****        *  @brief  Provides access to the data contained in the %string.
1096:/usr/include/c++/9.2.0/bits/basic_string.h ****        *  @param __n The index of the character to access.
1097:/usr/include/c++/9.2.0/bits/basic_string.h ****        *  @return  Read/write reference to the character.
1098:/usr/include/c++/9.2.0/bits/basic_string.h ****        *  @throw  std::out_of_range  If @a n is an invalid index.
1099:/usr/include/c++/9.2.0/bits/basic_string.h ****        *
1100:/usr/include/c++/9.2.0/bits/basic_string.h ****        *  This function provides for safer data access.  The parameter is
1101:/usr/include/c++/9.2.0/bits/basic_string.h ****        *  first checked that it is in the range of the string.  The function
1102:/usr/include/c++/9.2.0/bits/basic_string.h ****        *  throws out_of_range if the check fails.
1103:/usr/include/c++/9.2.0/bits/basic_string.h ****        */
1104:/usr/include/c++/9.2.0/bits/basic_string.h ****       reference
1105:/usr/include/c++/9.2.0/bits/basic_string.h ****       at(size_type __n)
1106:/usr/include/c++/9.2.0/bits/basic_string.h ****       {
1107:/usr/include/c++/9.2.0/bits/basic_string.h **** 	if (__n >= size())
1108:/usr/include/c++/9.2.0/bits/basic_string.h **** 	  __throw_out_of_range_fmt(__N("basic_string::at: __n "
1109:/usr/include/c++/9.2.0/bits/basic_string.h **** 				       "(which is %zu) >= this->size() "
1110:/usr/include/c++/9.2.0/bits/basic_string.h **** 				       "(which is %zu)"),
1111:/usr/include/c++/9.2.0/bits/basic_string.h **** 				   __n, this->size());
1112:/usr/include/c++/9.2.0/bits/basic_string.h **** 	return _M_data()[__n];
1113:/usr/include/c++/9.2.0/bits/basic_string.h ****       }
1114:/usr/include/c++/9.2.0/bits/basic_string.h **** 
1115:/usr/include/c++/9.2.0/bits/basic_string.h **** #if __cplusplus >= 201103L
1116:/usr/include/c++/9.2.0/bits/basic_string.h ****       /**
1117:/usr/include/c++/9.2.0/bits/basic_string.h ****        *  Returns a read/write reference to the data at the first
1118:/usr/include/c++/9.2.0/bits/basic_string.h ****        *  element of the %string.
1119:/usr/include/c++/9.2.0/bits/basic_string.h ****        */
1120:/usr/include/c++/9.2.0/bits/basic_string.h ****       reference
1121:/usr/include/c++/9.2.0/bits/basic_string.h ****       front() noexcept
1122:/usr/include/c++/9.2.0/bits/basic_string.h ****       {
1123:/usr/include/c++/9.2.0/bits/basic_string.h **** 	__glibcxx_assert(!empty());
1124:/usr/include/c++/9.2.0/bits/basic_string.h **** 	return operator[](0);
1125:/usr/include/c++/9.2.0/bits/basic_string.h ****       }
1126:/usr/include/c++/9.2.0/bits/basic_string.h **** 
1127:/usr/include/c++/9.2.0/bits/basic_string.h ****       /**
1128:/usr/include/c++/9.2.0/bits/basic_string.h ****        *  Returns a read-only (constant) reference to the data at the first
1129:/usr/include/c++/9.2.0/bits/basic_string.h ****        *  element of the %string.
1130:/usr/include/c++/9.2.0/bits/basic_string.h ****        */
1131:/usr/include/c++/9.2.0/bits/basic_string.h ****       const_reference
1132:/usr/include/c++/9.2.0/bits/basic_string.h ****       front() const noexcept
GAS LISTING /tmp/ccVy0JI6.s 			page 48


1133:/usr/include/c++/9.2.0/bits/basic_string.h ****       {
1134:/usr/include/c++/9.2.0/bits/basic_string.h **** 	__glibcxx_assert(!empty());
1135:/usr/include/c++/9.2.0/bits/basic_string.h **** 	return operator[](0);
1136:/usr/include/c++/9.2.0/bits/basic_string.h ****       }
1137:/usr/include/c++/9.2.0/bits/basic_string.h **** 
1138:/usr/include/c++/9.2.0/bits/basic_string.h ****       /**
1139:/usr/include/c++/9.2.0/bits/basic_string.h ****        *  Returns a read/write reference to the data at the last
1140:/usr/include/c++/9.2.0/bits/basic_string.h ****        *  element of the %string.
1141:/usr/include/c++/9.2.0/bits/basic_string.h ****        */
1142:/usr/include/c++/9.2.0/bits/basic_string.h ****       reference
1143:/usr/include/c++/9.2.0/bits/basic_string.h ****       back() noexcept
1144:/usr/include/c++/9.2.0/bits/basic_string.h ****       {
1145:/usr/include/c++/9.2.0/bits/basic_string.h **** 	__glibcxx_assert(!empty());
1146:/usr/include/c++/9.2.0/bits/basic_string.h **** 	return operator[](this->size() - 1);
1147:/usr/include/c++/9.2.0/bits/basic_string.h ****       }
1148:/usr/include/c++/9.2.0/bits/basic_string.h **** 
1149:/usr/include/c++/9.2.0/bits/basic_string.h ****       /**
1150:/usr/include/c++/9.2.0/bits/basic_string.h ****        *  Returns a read-only (constant) reference to the data at the
1151:/usr/include/c++/9.2.0/bits/basic_string.h ****        *  last element of the %string.
1152:/usr/include/c++/9.2.0/bits/basic_string.h ****        */
1153:/usr/include/c++/9.2.0/bits/basic_string.h ****       const_reference
1154:/usr/include/c++/9.2.0/bits/basic_string.h ****       back() const noexcept
1155:/usr/include/c++/9.2.0/bits/basic_string.h ****       {
1156:/usr/include/c++/9.2.0/bits/basic_string.h **** 	__glibcxx_assert(!empty());
1157:/usr/include/c++/9.2.0/bits/basic_string.h **** 	return operator[](this->size() - 1);
1158:/usr/include/c++/9.2.0/bits/basic_string.h ****       }
1159:/usr/include/c++/9.2.0/bits/basic_string.h **** #endif
1160:/usr/include/c++/9.2.0/bits/basic_string.h **** 
1161:/usr/include/c++/9.2.0/bits/basic_string.h ****       // Modifiers:
1162:/usr/include/c++/9.2.0/bits/basic_string.h ****       /**
1163:/usr/include/c++/9.2.0/bits/basic_string.h ****        *  @brief  Append a string to this string.
1164:/usr/include/c++/9.2.0/bits/basic_string.h ****        *  @param __str  The string to append.
1165:/usr/include/c++/9.2.0/bits/basic_string.h ****        *  @return  Reference to this string.
1166:/usr/include/c++/9.2.0/bits/basic_string.h ****        */
1167:/usr/include/c++/9.2.0/bits/basic_string.h ****       basic_string&
1168:/usr/include/c++/9.2.0/bits/basic_string.h ****       operator+=(const basic_string& __str)
1169:/usr/include/c++/9.2.0/bits/basic_string.h ****       { return this->append(__str); }
1170:/usr/include/c++/9.2.0/bits/basic_string.h **** 
1171:/usr/include/c++/9.2.0/bits/basic_string.h ****       /**
1172:/usr/include/c++/9.2.0/bits/basic_string.h ****        *  @brief  Append a C string.
1173:/usr/include/c++/9.2.0/bits/basic_string.h ****        *  @param __s  The C string to append.
1174:/usr/include/c++/9.2.0/bits/basic_string.h ****        *  @return  Reference to this string.
1175:/usr/include/c++/9.2.0/bits/basic_string.h ****        */
1176:/usr/include/c++/9.2.0/bits/basic_string.h ****       basic_string&
1177:/usr/include/c++/9.2.0/bits/basic_string.h ****       operator+=(const _CharT* __s)
1178:/usr/include/c++/9.2.0/bits/basic_string.h ****       { return this->append(__s); }
1179:/usr/include/c++/9.2.0/bits/basic_string.h **** 
1180:/usr/include/c++/9.2.0/bits/basic_string.h ****       /**
1181:/usr/include/c++/9.2.0/bits/basic_string.h ****        *  @brief  Append a character.
1182:/usr/include/c++/9.2.0/bits/basic_string.h ****        *  @param __c  The character to append.
1183:/usr/include/c++/9.2.0/bits/basic_string.h ****        *  @return  Reference to this string.
1184:/usr/include/c++/9.2.0/bits/basic_string.h ****        */
1185:/usr/include/c++/9.2.0/bits/basic_string.h ****       basic_string&
1186:/usr/include/c++/9.2.0/bits/basic_string.h ****       operator+=(_CharT __c)
1187:/usr/include/c++/9.2.0/bits/basic_string.h ****       {
1188:/usr/include/c++/9.2.0/bits/basic_string.h **** 	this->push_back(__c);
1189:/usr/include/c++/9.2.0/bits/basic_string.h **** 	return *this;
GAS LISTING /tmp/ccVy0JI6.s 			page 49


1190:/usr/include/c++/9.2.0/bits/basic_string.h ****       }
1191:/usr/include/c++/9.2.0/bits/basic_string.h **** 
1192:/usr/include/c++/9.2.0/bits/basic_string.h **** #if __cplusplus >= 201103L
1193:/usr/include/c++/9.2.0/bits/basic_string.h ****       /**
1194:/usr/include/c++/9.2.0/bits/basic_string.h ****        *  @brief  Append an initializer_list of characters.
1195:/usr/include/c++/9.2.0/bits/basic_string.h ****        *  @param __l  The initializer_list of characters to be appended.
1196:/usr/include/c++/9.2.0/bits/basic_string.h ****        *  @return  Reference to this string.
1197:/usr/include/c++/9.2.0/bits/basic_string.h ****        */
1198:/usr/include/c++/9.2.0/bits/basic_string.h ****       basic_string&
1199:/usr/include/c++/9.2.0/bits/basic_string.h ****       operator+=(initializer_list<_CharT> __l)
1200:/usr/include/c++/9.2.0/bits/basic_string.h ****       { return this->append(__l.begin(), __l.size()); }
1201:/usr/include/c++/9.2.0/bits/basic_string.h **** #endif // C++11
1202:/usr/include/c++/9.2.0/bits/basic_string.h **** 
1203:/usr/include/c++/9.2.0/bits/basic_string.h **** #if __cplusplus >= 201703L
1204:/usr/include/c++/9.2.0/bits/basic_string.h ****       /**
1205:/usr/include/c++/9.2.0/bits/basic_string.h ****        *  @brief  Append a string_view.
1206:/usr/include/c++/9.2.0/bits/basic_string.h ****        *  @param __svt  An object convertible to string_view to be appended.
1207:/usr/include/c++/9.2.0/bits/basic_string.h ****        *  @return  Reference to this string.
1208:/usr/include/c++/9.2.0/bits/basic_string.h ****        */
1209:/usr/include/c++/9.2.0/bits/basic_string.h ****       template<typename _Tp>
1210:/usr/include/c++/9.2.0/bits/basic_string.h **** 	_If_sv<_Tp, basic_string&>
1211:/usr/include/c++/9.2.0/bits/basic_string.h **** 	operator+=(const _Tp& __svt)
1212:/usr/include/c++/9.2.0/bits/basic_string.h **** 	{ return this->append(__svt); }
1213:/usr/include/c++/9.2.0/bits/basic_string.h **** #endif // C++17
1214:/usr/include/c++/9.2.0/bits/basic_string.h **** 
1215:/usr/include/c++/9.2.0/bits/basic_string.h ****       /**
1216:/usr/include/c++/9.2.0/bits/basic_string.h ****        *  @brief  Append a string to this string.
1217:/usr/include/c++/9.2.0/bits/basic_string.h ****        *  @param __str  The string to append.
1218:/usr/include/c++/9.2.0/bits/basic_string.h ****        *  @return  Reference to this string.
1219:/usr/include/c++/9.2.0/bits/basic_string.h ****        */
1220:/usr/include/c++/9.2.0/bits/basic_string.h ****       basic_string&
1221:/usr/include/c++/9.2.0/bits/basic_string.h ****       append(const basic_string& __str)
1222:/usr/include/c++/9.2.0/bits/basic_string.h ****       { return _M_append(__str._M_data(), __str.size()); }
1223:/usr/include/c++/9.2.0/bits/basic_string.h **** 
1224:/usr/include/c++/9.2.0/bits/basic_string.h ****       /**
1225:/usr/include/c++/9.2.0/bits/basic_string.h ****        *  @brief  Append a substring.
1226:/usr/include/c++/9.2.0/bits/basic_string.h ****        *  @param __str  The string to append.
1227:/usr/include/c++/9.2.0/bits/basic_string.h ****        *  @param __pos  Index of the first character of str to append.
1228:/usr/include/c++/9.2.0/bits/basic_string.h ****        *  @param __n  The number of characters to append.
1229:/usr/include/c++/9.2.0/bits/basic_string.h ****        *  @return  Reference to this string.
1230:/usr/include/c++/9.2.0/bits/basic_string.h ****        *  @throw  std::out_of_range if @a __pos is not a valid index.
1231:/usr/include/c++/9.2.0/bits/basic_string.h ****        *
1232:/usr/include/c++/9.2.0/bits/basic_string.h ****        *  This function appends @a __n characters from @a __str
1233:/usr/include/c++/9.2.0/bits/basic_string.h ****        *  starting at @a __pos to this string.  If @a __n is is larger
1234:/usr/include/c++/9.2.0/bits/basic_string.h ****        *  than the number of available characters in @a __str, the
1235:/usr/include/c++/9.2.0/bits/basic_string.h ****        *  remainder of @a __str is appended.
1236:/usr/include/c++/9.2.0/bits/basic_string.h ****        */
1237:/usr/include/c++/9.2.0/bits/basic_string.h ****       basic_string&
1238:/usr/include/c++/9.2.0/bits/basic_string.h ****       append(const basic_string& __str, size_type __pos, size_type __n = npos)
1239:/usr/include/c++/9.2.0/bits/basic_string.h ****       { return _M_append(__str._M_data()
1240:/usr/include/c++/9.2.0/bits/basic_string.h **** 			 + __str._M_check(__pos, "basic_string::append"),
1241:/usr/include/c++/9.2.0/bits/basic_string.h **** 			 __str._M_limit(__pos, __n)); }
1242:/usr/include/c++/9.2.0/bits/basic_string.h **** 
1243:/usr/include/c++/9.2.0/bits/basic_string.h ****       /**
1244:/usr/include/c++/9.2.0/bits/basic_string.h ****        *  @brief  Append a C substring.
1245:/usr/include/c++/9.2.0/bits/basic_string.h ****        *  @param __s  The C string to append.
1246:/usr/include/c++/9.2.0/bits/basic_string.h ****        *  @param __n  The number of characters to append.
GAS LISTING /tmp/ccVy0JI6.s 			page 50


1247:/usr/include/c++/9.2.0/bits/basic_string.h ****        *  @return  Reference to this string.
1248:/usr/include/c++/9.2.0/bits/basic_string.h ****        */
1249:/usr/include/c++/9.2.0/bits/basic_string.h ****       basic_string&
1250:/usr/include/c++/9.2.0/bits/basic_string.h ****       append(const _CharT* __s, size_type __n)
1251:/usr/include/c++/9.2.0/bits/basic_string.h ****       {
1252:/usr/include/c++/9.2.0/bits/basic_string.h **** 	__glibcxx_requires_string_len(__s, __n);
1253:/usr/include/c++/9.2.0/bits/basic_string.h **** 	_M_check_length(size_type(0), __n, "basic_string::append");
1254:/usr/include/c++/9.2.0/bits/basic_string.h **** 	return _M_append(__s, __n);
1255:/usr/include/c++/9.2.0/bits/basic_string.h ****       }
1256:/usr/include/c++/9.2.0/bits/basic_string.h **** 
1257:/usr/include/c++/9.2.0/bits/basic_string.h ****       /**
1258:/usr/include/c++/9.2.0/bits/basic_string.h ****        *  @brief  Append a C string.
1259:/usr/include/c++/9.2.0/bits/basic_string.h ****        *  @param __s  The C string to append.
1260:/usr/include/c++/9.2.0/bits/basic_string.h ****        *  @return  Reference to this string.
1261:/usr/include/c++/9.2.0/bits/basic_string.h ****        */
1262:/usr/include/c++/9.2.0/bits/basic_string.h ****       basic_string&
1263:/usr/include/c++/9.2.0/bits/basic_string.h ****       append(const _CharT* __s)
1264:/usr/include/c++/9.2.0/bits/basic_string.h ****       {
1265:/usr/include/c++/9.2.0/bits/basic_string.h **** 	__glibcxx_requires_string(__s);
1266:/usr/include/c++/9.2.0/bits/basic_string.h **** 	const size_type __n = traits_type::length(__s);
1267:/usr/include/c++/9.2.0/bits/basic_string.h **** 	_M_check_length(size_type(0), __n, "basic_string::append");
1268:/usr/include/c++/9.2.0/bits/basic_string.h **** 	return _M_append(__s, __n);
1269:/usr/include/c++/9.2.0/bits/basic_string.h ****       }
1270:/usr/include/c++/9.2.0/bits/basic_string.h **** 
1271:/usr/include/c++/9.2.0/bits/basic_string.h ****       /**
1272:/usr/include/c++/9.2.0/bits/basic_string.h ****        *  @brief  Append multiple characters.
1273:/usr/include/c++/9.2.0/bits/basic_string.h ****        *  @param __n  The number of characters to append.
1274:/usr/include/c++/9.2.0/bits/basic_string.h ****        *  @param __c  The character to use.
1275:/usr/include/c++/9.2.0/bits/basic_string.h ****        *  @return  Reference to this string.
1276:/usr/include/c++/9.2.0/bits/basic_string.h ****        *
1277:/usr/include/c++/9.2.0/bits/basic_string.h ****        *  Appends __n copies of __c to this string.
1278:/usr/include/c++/9.2.0/bits/basic_string.h ****        */
1279:/usr/include/c++/9.2.0/bits/basic_string.h ****       basic_string&
1280:/usr/include/c++/9.2.0/bits/basic_string.h ****       append(size_type __n, _CharT __c)
1281:/usr/include/c++/9.2.0/bits/basic_string.h ****       { return _M_replace_aux(this->size(), size_type(0), __n, __c); }
1282:/usr/include/c++/9.2.0/bits/basic_string.h **** 
1283:/usr/include/c++/9.2.0/bits/basic_string.h **** #if __cplusplus >= 201103L
1284:/usr/include/c++/9.2.0/bits/basic_string.h ****       /**
1285:/usr/include/c++/9.2.0/bits/basic_string.h ****        *  @brief  Append an initializer_list of characters.
1286:/usr/include/c++/9.2.0/bits/basic_string.h ****        *  @param __l  The initializer_list of characters to append.
1287:/usr/include/c++/9.2.0/bits/basic_string.h ****        *  @return  Reference to this string.
1288:/usr/include/c++/9.2.0/bits/basic_string.h ****        */
1289:/usr/include/c++/9.2.0/bits/basic_string.h ****       basic_string&
1290:/usr/include/c++/9.2.0/bits/basic_string.h ****       append(initializer_list<_CharT> __l)
1291:/usr/include/c++/9.2.0/bits/basic_string.h ****       { return this->append(__l.begin(), __l.size()); }
1292:/usr/include/c++/9.2.0/bits/basic_string.h **** #endif // C++11
1293:/usr/include/c++/9.2.0/bits/basic_string.h **** 
1294:/usr/include/c++/9.2.0/bits/basic_string.h ****       /**
1295:/usr/include/c++/9.2.0/bits/basic_string.h ****        *  @brief  Append a range of characters.
1296:/usr/include/c++/9.2.0/bits/basic_string.h ****        *  @param __first  Iterator referencing the first character to append.
1297:/usr/include/c++/9.2.0/bits/basic_string.h ****        *  @param __last  Iterator marking the end of the range.
1298:/usr/include/c++/9.2.0/bits/basic_string.h ****        *  @return  Reference to this string.
1299:/usr/include/c++/9.2.0/bits/basic_string.h ****        *
1300:/usr/include/c++/9.2.0/bits/basic_string.h ****        *  Appends characters in the range [__first,__last) to this string.
1301:/usr/include/c++/9.2.0/bits/basic_string.h ****        */
1302:/usr/include/c++/9.2.0/bits/basic_string.h **** #if __cplusplus >= 201103L
1303:/usr/include/c++/9.2.0/bits/basic_string.h ****       template<class _InputIterator,
GAS LISTING /tmp/ccVy0JI6.s 			page 51


1304:/usr/include/c++/9.2.0/bits/basic_string.h **** 	       typename = std::_RequireInputIter<_InputIterator>>
1305:/usr/include/c++/9.2.0/bits/basic_string.h **** #else
1306:/usr/include/c++/9.2.0/bits/basic_string.h ****       template<class _InputIterator>
1307:/usr/include/c++/9.2.0/bits/basic_string.h **** #endif
1308:/usr/include/c++/9.2.0/bits/basic_string.h ****         basic_string&
1309:/usr/include/c++/9.2.0/bits/basic_string.h ****         append(_InputIterator __first, _InputIterator __last)
1310:/usr/include/c++/9.2.0/bits/basic_string.h ****         { return this->replace(end(), end(), __first, __last); }
1311:/usr/include/c++/9.2.0/bits/basic_string.h **** 
1312:/usr/include/c++/9.2.0/bits/basic_string.h **** #if __cplusplus >= 201703L
1313:/usr/include/c++/9.2.0/bits/basic_string.h ****       /**
1314:/usr/include/c++/9.2.0/bits/basic_string.h ****        *  @brief  Append a string_view.
1315:/usr/include/c++/9.2.0/bits/basic_string.h ****        *  @param __svt  An object convertible to string_view to be appended.
1316:/usr/include/c++/9.2.0/bits/basic_string.h ****        *  @return  Reference to this string.
1317:/usr/include/c++/9.2.0/bits/basic_string.h ****        */
1318:/usr/include/c++/9.2.0/bits/basic_string.h ****       template<typename _Tp>
1319:/usr/include/c++/9.2.0/bits/basic_string.h ****         _If_sv<_Tp, basic_string&>
1320:/usr/include/c++/9.2.0/bits/basic_string.h ****         append(const _Tp& __svt)
1321:/usr/include/c++/9.2.0/bits/basic_string.h ****         {
1322:/usr/include/c++/9.2.0/bits/basic_string.h ****           __sv_type __sv = __svt;
1323:/usr/include/c++/9.2.0/bits/basic_string.h ****           return this->append(__sv.data(), __sv.size());
1324:/usr/include/c++/9.2.0/bits/basic_string.h ****         }
1325:/usr/include/c++/9.2.0/bits/basic_string.h **** 
1326:/usr/include/c++/9.2.0/bits/basic_string.h ****       /**
1327:/usr/include/c++/9.2.0/bits/basic_string.h ****        *  @brief  Append a range of characters from a string_view.
1328:/usr/include/c++/9.2.0/bits/basic_string.h ****        *  @param __svt  An object convertible to string_view to be appended from.
1329:/usr/include/c++/9.2.0/bits/basic_string.h ****        *  @param __pos The position in the string_view to append from.
1330:/usr/include/c++/9.2.0/bits/basic_string.h ****        *  @param __n   The number of characters to append from the string_view.
1331:/usr/include/c++/9.2.0/bits/basic_string.h ****        *  @return  Reference to this string.
1332:/usr/include/c++/9.2.0/bits/basic_string.h ****        */
1333:/usr/include/c++/9.2.0/bits/basic_string.h ****       template<typename _Tp>
1334:/usr/include/c++/9.2.0/bits/basic_string.h ****         _If_sv<_Tp, basic_string&>
1335:/usr/include/c++/9.2.0/bits/basic_string.h **** 	append(const _Tp& __svt, size_type __pos, size_type __n = npos)
1336:/usr/include/c++/9.2.0/bits/basic_string.h **** 	{
1337:/usr/include/c++/9.2.0/bits/basic_string.h **** 	  __sv_type __sv = __svt;
1338:/usr/include/c++/9.2.0/bits/basic_string.h **** 	  return _M_append(__sv.data()
1339:/usr/include/c++/9.2.0/bits/basic_string.h **** 	      + std::__sv_check(__sv.size(), __pos, "basic_string::append"),
1340:/usr/include/c++/9.2.0/bits/basic_string.h **** 	      std::__sv_limit(__sv.size(), __pos, __n));
1341:/usr/include/c++/9.2.0/bits/basic_string.h **** 	}
1342:/usr/include/c++/9.2.0/bits/basic_string.h **** #endif // C++17
1343:/usr/include/c++/9.2.0/bits/basic_string.h **** 
1344:/usr/include/c++/9.2.0/bits/basic_string.h ****       /**
1345:/usr/include/c++/9.2.0/bits/basic_string.h ****        *  @brief  Append a single character.
1346:/usr/include/c++/9.2.0/bits/basic_string.h ****        *  @param __c  Character to append.
1347:/usr/include/c++/9.2.0/bits/basic_string.h ****        */
1348:/usr/include/c++/9.2.0/bits/basic_string.h ****       void
1349:/usr/include/c++/9.2.0/bits/basic_string.h ****       push_back(_CharT __c)
1350:/usr/include/c++/9.2.0/bits/basic_string.h ****       {
1351:/usr/include/c++/9.2.0/bits/basic_string.h **** 	const size_type __size = this->size();
1352:/usr/include/c++/9.2.0/bits/basic_string.h **** 	if (__size + 1 > this->capacity())
1353:/usr/include/c++/9.2.0/bits/basic_string.h **** 	  this->_M_mutate(__size, size_type(0), 0, size_type(1));
1354:/usr/include/c++/9.2.0/bits/basic_string.h **** 	traits_type::assign(this->_M_data()[__size], __c);
1355:/usr/include/c++/9.2.0/bits/basic_string.h **** 	this->_M_set_length(__size + 1);
1356:/usr/include/c++/9.2.0/bits/basic_string.h ****       }
1357:/usr/include/c++/9.2.0/bits/basic_string.h **** 
1358:/usr/include/c++/9.2.0/bits/basic_string.h ****       /**
1359:/usr/include/c++/9.2.0/bits/basic_string.h ****        *  @brief  Set value to contents of another string.
1360:/usr/include/c++/9.2.0/bits/basic_string.h ****        *  @param  __str  Source string to use.
GAS LISTING /tmp/ccVy0JI6.s 			page 52


1361:/usr/include/c++/9.2.0/bits/basic_string.h ****        *  @return  Reference to this string.
1362:/usr/include/c++/9.2.0/bits/basic_string.h ****        */
1363:/usr/include/c++/9.2.0/bits/basic_string.h ****       basic_string&
1364:/usr/include/c++/9.2.0/bits/basic_string.h ****       assign(const basic_string& __str)
1365:/usr/include/c++/9.2.0/bits/basic_string.h ****       {
1366:/usr/include/c++/9.2.0/bits/basic_string.h **** 	this->_M_assign(__str);
1367:/usr/include/c++/9.2.0/bits/basic_string.h **** 	return *this;
1368:/usr/include/c++/9.2.0/bits/basic_string.h ****       }
1369:/usr/include/c++/9.2.0/bits/basic_string.h **** 
1370:/usr/include/c++/9.2.0/bits/basic_string.h **** #if __cplusplus >= 201103L
1371:/usr/include/c++/9.2.0/bits/basic_string.h ****       /**
1372:/usr/include/c++/9.2.0/bits/basic_string.h ****        *  @brief  Set value to contents of another string.
1373:/usr/include/c++/9.2.0/bits/basic_string.h ****        *  @param  __str  Source string to use.
1374:/usr/include/c++/9.2.0/bits/basic_string.h ****        *  @return  Reference to this string.
1375:/usr/include/c++/9.2.0/bits/basic_string.h ****        *
1376:/usr/include/c++/9.2.0/bits/basic_string.h ****        *  This function sets this string to the exact contents of @a __str.
1377:/usr/include/c++/9.2.0/bits/basic_string.h ****        *  @a __str is a valid, but unspecified string.
1378:/usr/include/c++/9.2.0/bits/basic_string.h ****        */
1379:/usr/include/c++/9.2.0/bits/basic_string.h ****       basic_string&
1380:/usr/include/c++/9.2.0/bits/basic_string.h ****       assign(basic_string&& __str)
1381:/usr/include/c++/9.2.0/bits/basic_string.h ****       noexcept(_Alloc_traits::_S_nothrow_move())
1382:/usr/include/c++/9.2.0/bits/basic_string.h ****       {
1383:/usr/include/c++/9.2.0/bits/basic_string.h **** 	// _GLIBCXX_RESOLVE_LIB_DEFECTS
1384:/usr/include/c++/9.2.0/bits/basic_string.h **** 	// 2063. Contradictory requirements for string move assignment
1385:/usr/include/c++/9.2.0/bits/basic_string.h **** 	return *this = std::move(__str);
1386:/usr/include/c++/9.2.0/bits/basic_string.h ****       }
1387:/usr/include/c++/9.2.0/bits/basic_string.h **** #endif // C++11
1388:/usr/include/c++/9.2.0/bits/basic_string.h **** 
1389:/usr/include/c++/9.2.0/bits/basic_string.h ****       /**
1390:/usr/include/c++/9.2.0/bits/basic_string.h ****        *  @brief  Set value to a substring of a string.
1391:/usr/include/c++/9.2.0/bits/basic_string.h ****        *  @param __str  The string to use.
1392:/usr/include/c++/9.2.0/bits/basic_string.h ****        *  @param __pos  Index of the first character of str.
1393:/usr/include/c++/9.2.0/bits/basic_string.h ****        *  @param __n  Number of characters to use.
1394:/usr/include/c++/9.2.0/bits/basic_string.h ****        *  @return  Reference to this string.
1395:/usr/include/c++/9.2.0/bits/basic_string.h ****        *  @throw  std::out_of_range if @a pos is not a valid index.
1396:/usr/include/c++/9.2.0/bits/basic_string.h ****        *
1397:/usr/include/c++/9.2.0/bits/basic_string.h ****        *  This function sets this string to the substring of @a __str
1398:/usr/include/c++/9.2.0/bits/basic_string.h ****        *  consisting of @a __n characters at @a __pos.  If @a __n is
1399:/usr/include/c++/9.2.0/bits/basic_string.h ****        *  is larger than the number of available characters in @a
1400:/usr/include/c++/9.2.0/bits/basic_string.h ****        *  __str, the remainder of @a __str is used.
1401:/usr/include/c++/9.2.0/bits/basic_string.h ****        */
1402:/usr/include/c++/9.2.0/bits/basic_string.h ****       basic_string&
1403:/usr/include/c++/9.2.0/bits/basic_string.h ****       assign(const basic_string& __str, size_type __pos, size_type __n = npos)
1404:/usr/include/c++/9.2.0/bits/basic_string.h ****       { return _M_replace(size_type(0), this->size(), __str._M_data()
1405:/usr/include/c++/9.2.0/bits/basic_string.h **** 			  + __str._M_check(__pos, "basic_string::assign"),
1406:/usr/include/c++/9.2.0/bits/basic_string.h **** 			  __str._M_limit(__pos, __n)); }
1407:/usr/include/c++/9.2.0/bits/basic_string.h **** 
1408:/usr/include/c++/9.2.0/bits/basic_string.h ****       /**
1409:/usr/include/c++/9.2.0/bits/basic_string.h ****        *  @brief  Set value to a C substring.
1410:/usr/include/c++/9.2.0/bits/basic_string.h ****        *  @param __s  The C string to use.
1411:/usr/include/c++/9.2.0/bits/basic_string.h ****        *  @param __n  Number of characters to use.
1412:/usr/include/c++/9.2.0/bits/basic_string.h ****        *  @return  Reference to this string.
1413:/usr/include/c++/9.2.0/bits/basic_string.h ****        *
1414:/usr/include/c++/9.2.0/bits/basic_string.h ****        *  This function sets the value of this string to the first @a __n
1415:/usr/include/c++/9.2.0/bits/basic_string.h ****        *  characters of @a __s.  If @a __n is is larger than the number of
1416:/usr/include/c++/9.2.0/bits/basic_string.h ****        *  available characters in @a __s, the remainder of @a __s is used.
1417:/usr/include/c++/9.2.0/bits/basic_string.h ****        */
GAS LISTING /tmp/ccVy0JI6.s 			page 53


1418:/usr/include/c++/9.2.0/bits/basic_string.h ****       basic_string&
1419:/usr/include/c++/9.2.0/bits/basic_string.h ****       assign(const _CharT* __s, size_type __n)
1420:/usr/include/c++/9.2.0/bits/basic_string.h ****       {
1421:/usr/include/c++/9.2.0/bits/basic_string.h **** 	__glibcxx_requires_string_len(__s, __n);
1422:/usr/include/c++/9.2.0/bits/basic_string.h **** 	return _M_replace(size_type(0), this->size(), __s, __n);
1423:/usr/include/c++/9.2.0/bits/basic_string.h ****       }
1424:/usr/include/c++/9.2.0/bits/basic_string.h **** 
1425:/usr/include/c++/9.2.0/bits/basic_string.h ****       /**
1426:/usr/include/c++/9.2.0/bits/basic_string.h ****        *  @brief  Set value to contents of a C string.
1427:/usr/include/c++/9.2.0/bits/basic_string.h ****        *  @param __s  The C string to use.
1428:/usr/include/c++/9.2.0/bits/basic_string.h ****        *  @return  Reference to this string.
1429:/usr/include/c++/9.2.0/bits/basic_string.h ****        *
1430:/usr/include/c++/9.2.0/bits/basic_string.h ****        *  This function sets the value of this string to the value of @a __s.
1431:/usr/include/c++/9.2.0/bits/basic_string.h ****        *  The data is copied, so there is no dependence on @a __s once the
1432:/usr/include/c++/9.2.0/bits/basic_string.h ****        *  function returns.
1433:/usr/include/c++/9.2.0/bits/basic_string.h ****        */
1434:/usr/include/c++/9.2.0/bits/basic_string.h ****       basic_string&
1435:/usr/include/c++/9.2.0/bits/basic_string.h ****       assign(const _CharT* __s)
1436:/usr/include/c++/9.2.0/bits/basic_string.h ****       {
1437:/usr/include/c++/9.2.0/bits/basic_string.h **** 	__glibcxx_requires_string(__s);
1438:/usr/include/c++/9.2.0/bits/basic_string.h **** 	return _M_replace(size_type(0), this->size(), __s,
1439:/usr/include/c++/9.2.0/bits/basic_string.h **** 			  traits_type::length(__s));
1440:/usr/include/c++/9.2.0/bits/basic_string.h ****       }
1441:/usr/include/c++/9.2.0/bits/basic_string.h **** 
1442:/usr/include/c++/9.2.0/bits/basic_string.h ****       /**
1443:/usr/include/c++/9.2.0/bits/basic_string.h ****        *  @brief  Set value to multiple characters.
1444:/usr/include/c++/9.2.0/bits/basic_string.h ****        *  @param __n  Length of the resulting string.
1445:/usr/include/c++/9.2.0/bits/basic_string.h ****        *  @param __c  The character to use.
1446:/usr/include/c++/9.2.0/bits/basic_string.h ****        *  @return  Reference to this string.
1447:/usr/include/c++/9.2.0/bits/basic_string.h ****        *
1448:/usr/include/c++/9.2.0/bits/basic_string.h ****        *  This function sets the value of this string to @a __n copies of
1449:/usr/include/c++/9.2.0/bits/basic_string.h ****        *  character @a __c.
1450:/usr/include/c++/9.2.0/bits/basic_string.h ****        */
1451:/usr/include/c++/9.2.0/bits/basic_string.h ****       basic_string&
1452:/usr/include/c++/9.2.0/bits/basic_string.h ****       assign(size_type __n, _CharT __c)
1453:/usr/include/c++/9.2.0/bits/basic_string.h ****       { return _M_replace_aux(size_type(0), this->size(), __n, __c); }
1454:/usr/include/c++/9.2.0/bits/basic_string.h **** 
1455:/usr/include/c++/9.2.0/bits/basic_string.h ****       /**
1456:/usr/include/c++/9.2.0/bits/basic_string.h ****        *  @brief  Set value to a range of characters.
1457:/usr/include/c++/9.2.0/bits/basic_string.h ****        *  @param __first  Iterator referencing the first character to append.
1458:/usr/include/c++/9.2.0/bits/basic_string.h ****        *  @param __last  Iterator marking the end of the range.
1459:/usr/include/c++/9.2.0/bits/basic_string.h ****        *  @return  Reference to this string.
1460:/usr/include/c++/9.2.0/bits/basic_string.h ****        *
1461:/usr/include/c++/9.2.0/bits/basic_string.h ****        *  Sets value of string to characters in the range [__first,__last).
1462:/usr/include/c++/9.2.0/bits/basic_string.h ****       */
1463:/usr/include/c++/9.2.0/bits/basic_string.h **** #if __cplusplus >= 201103L
1464:/usr/include/c++/9.2.0/bits/basic_string.h ****       template<class _InputIterator,
1465:/usr/include/c++/9.2.0/bits/basic_string.h **** 	       typename = std::_RequireInputIter<_InputIterator>>
1466:/usr/include/c++/9.2.0/bits/basic_string.h **** #else
1467:/usr/include/c++/9.2.0/bits/basic_string.h ****       template<class _InputIterator>
1468:/usr/include/c++/9.2.0/bits/basic_string.h **** #endif
1469:/usr/include/c++/9.2.0/bits/basic_string.h ****         basic_string&
1470:/usr/include/c++/9.2.0/bits/basic_string.h ****         assign(_InputIterator __first, _InputIterator __last)
1471:/usr/include/c++/9.2.0/bits/basic_string.h ****         { return this->replace(begin(), end(), __first, __last); }
1472:/usr/include/c++/9.2.0/bits/basic_string.h **** 
1473:/usr/include/c++/9.2.0/bits/basic_string.h **** #if __cplusplus >= 201103L
1474:/usr/include/c++/9.2.0/bits/basic_string.h ****       /**
GAS LISTING /tmp/ccVy0JI6.s 			page 54


1475:/usr/include/c++/9.2.0/bits/basic_string.h ****        *  @brief  Set value to an initializer_list of characters.
1476:/usr/include/c++/9.2.0/bits/basic_string.h ****        *  @param __l  The initializer_list of characters to assign.
1477:/usr/include/c++/9.2.0/bits/basic_string.h ****        *  @return  Reference to this string.
1478:/usr/include/c++/9.2.0/bits/basic_string.h ****        */
1479:/usr/include/c++/9.2.0/bits/basic_string.h ****       basic_string&
1480:/usr/include/c++/9.2.0/bits/basic_string.h ****       assign(initializer_list<_CharT> __l)
1481:/usr/include/c++/9.2.0/bits/basic_string.h ****       { return this->assign(__l.begin(), __l.size()); }
1482:/usr/include/c++/9.2.0/bits/basic_string.h **** #endif // C++11
1483:/usr/include/c++/9.2.0/bits/basic_string.h **** 
1484:/usr/include/c++/9.2.0/bits/basic_string.h **** #if __cplusplus >= 201703L
1485:/usr/include/c++/9.2.0/bits/basic_string.h ****       /**
1486:/usr/include/c++/9.2.0/bits/basic_string.h ****        *  @brief  Set value from a string_view.
1487:/usr/include/c++/9.2.0/bits/basic_string.h ****        *  @param __svt  The source object convertible to string_view.
1488:/usr/include/c++/9.2.0/bits/basic_string.h ****        *  @return  Reference to this string.
1489:/usr/include/c++/9.2.0/bits/basic_string.h ****        */
1490:/usr/include/c++/9.2.0/bits/basic_string.h ****       template<typename _Tp>
1491:/usr/include/c++/9.2.0/bits/basic_string.h **** 	_If_sv<_Tp, basic_string&>
1492:/usr/include/c++/9.2.0/bits/basic_string.h **** 	assign(const _Tp& __svt)
1493:/usr/include/c++/9.2.0/bits/basic_string.h **** 	{
1494:/usr/include/c++/9.2.0/bits/basic_string.h **** 	  __sv_type __sv = __svt;
1495:/usr/include/c++/9.2.0/bits/basic_string.h **** 	  return this->assign(__sv.data(), __sv.size());
1496:/usr/include/c++/9.2.0/bits/basic_string.h **** 	}
1497:/usr/include/c++/9.2.0/bits/basic_string.h **** 
1498:/usr/include/c++/9.2.0/bits/basic_string.h ****       /**
1499:/usr/include/c++/9.2.0/bits/basic_string.h ****        *  @brief  Set value from a range of characters in a string_view.
1500:/usr/include/c++/9.2.0/bits/basic_string.h ****        *  @param __svt  The source object convertible to string_view.
1501:/usr/include/c++/9.2.0/bits/basic_string.h ****        *  @param __pos  The position in the string_view to assign from.
1502:/usr/include/c++/9.2.0/bits/basic_string.h ****        *  @param __n  The number of characters to assign.
1503:/usr/include/c++/9.2.0/bits/basic_string.h ****        *  @return  Reference to this string.
1504:/usr/include/c++/9.2.0/bits/basic_string.h ****        */
1505:/usr/include/c++/9.2.0/bits/basic_string.h ****       template<typename _Tp>
1506:/usr/include/c++/9.2.0/bits/basic_string.h **** 	_If_sv<_Tp, basic_string&>
1507:/usr/include/c++/9.2.0/bits/basic_string.h **** 	assign(const _Tp& __svt, size_type __pos, size_type __n = npos)
1508:/usr/include/c++/9.2.0/bits/basic_string.h **** 	{
1509:/usr/include/c++/9.2.0/bits/basic_string.h **** 	  __sv_type __sv = __svt;
1510:/usr/include/c++/9.2.0/bits/basic_string.h **** 	  return _M_replace(size_type(0), this->size(),
1511:/usr/include/c++/9.2.0/bits/basic_string.h **** 	      __sv.data()
1512:/usr/include/c++/9.2.0/bits/basic_string.h **** 	      + std::__sv_check(__sv.size(), __pos, "basic_string::assign"),
1513:/usr/include/c++/9.2.0/bits/basic_string.h **** 	      std::__sv_limit(__sv.size(), __pos, __n));
1514:/usr/include/c++/9.2.0/bits/basic_string.h **** 	}
1515:/usr/include/c++/9.2.0/bits/basic_string.h **** #endif // C++17
1516:/usr/include/c++/9.2.0/bits/basic_string.h **** 
1517:/usr/include/c++/9.2.0/bits/basic_string.h **** #if __cplusplus >= 201103L
1518:/usr/include/c++/9.2.0/bits/basic_string.h ****       /**
1519:/usr/include/c++/9.2.0/bits/basic_string.h ****        *  @brief  Insert multiple characters.
1520:/usr/include/c++/9.2.0/bits/basic_string.h ****        *  @param __p  Const_iterator referencing location in string to
1521:/usr/include/c++/9.2.0/bits/basic_string.h ****        *              insert at.
1522:/usr/include/c++/9.2.0/bits/basic_string.h ****        *  @param __n  Number of characters to insert
1523:/usr/include/c++/9.2.0/bits/basic_string.h ****        *  @param __c  The character to insert.
1524:/usr/include/c++/9.2.0/bits/basic_string.h ****        *  @return  Iterator referencing the first inserted char.
1525:/usr/include/c++/9.2.0/bits/basic_string.h ****        *  @throw  std::length_error  If new length exceeds @c max_size().
1526:/usr/include/c++/9.2.0/bits/basic_string.h ****        *
1527:/usr/include/c++/9.2.0/bits/basic_string.h ****        *  Inserts @a __n copies of character @a __c starting at the
1528:/usr/include/c++/9.2.0/bits/basic_string.h ****        *  position referenced by iterator @a __p.  If adding
1529:/usr/include/c++/9.2.0/bits/basic_string.h ****        *  characters causes the length to exceed max_size(),
1530:/usr/include/c++/9.2.0/bits/basic_string.h ****        *  length_error is thrown.  The value of the string doesn't
1531:/usr/include/c++/9.2.0/bits/basic_string.h ****        *  change if an error is thrown.
GAS LISTING /tmp/ccVy0JI6.s 			page 55


1532:/usr/include/c++/9.2.0/bits/basic_string.h ****       */
1533:/usr/include/c++/9.2.0/bits/basic_string.h ****       iterator
1534:/usr/include/c++/9.2.0/bits/basic_string.h ****       insert(const_iterator __p, size_type __n, _CharT __c)
1535:/usr/include/c++/9.2.0/bits/basic_string.h ****       {
1536:/usr/include/c++/9.2.0/bits/basic_string.h **** 	_GLIBCXX_DEBUG_PEDASSERT(__p >= begin() && __p <= end());
1537:/usr/include/c++/9.2.0/bits/basic_string.h **** 	const size_type __pos = __p - begin();
1538:/usr/include/c++/9.2.0/bits/basic_string.h **** 	this->replace(__p, __p, __n, __c);
1539:/usr/include/c++/9.2.0/bits/basic_string.h **** 	return iterator(this->_M_data() + __pos);
1540:/usr/include/c++/9.2.0/bits/basic_string.h ****       }
1541:/usr/include/c++/9.2.0/bits/basic_string.h **** #else
1542:/usr/include/c++/9.2.0/bits/basic_string.h ****       /**
1543:/usr/include/c++/9.2.0/bits/basic_string.h ****        *  @brief  Insert multiple characters.
1544:/usr/include/c++/9.2.0/bits/basic_string.h ****        *  @param __p  Iterator referencing location in string to insert at.
1545:/usr/include/c++/9.2.0/bits/basic_string.h ****        *  @param __n  Number of characters to insert
1546:/usr/include/c++/9.2.0/bits/basic_string.h ****        *  @param __c  The character to insert.
1547:/usr/include/c++/9.2.0/bits/basic_string.h ****        *  @throw  std::length_error  If new length exceeds @c max_size().
1548:/usr/include/c++/9.2.0/bits/basic_string.h ****        *
1549:/usr/include/c++/9.2.0/bits/basic_string.h ****        *  Inserts @a __n copies of character @a __c starting at the
1550:/usr/include/c++/9.2.0/bits/basic_string.h ****        *  position referenced by iterator @a __p.  If adding
1551:/usr/include/c++/9.2.0/bits/basic_string.h ****        *  characters causes the length to exceed max_size(),
1552:/usr/include/c++/9.2.0/bits/basic_string.h ****        *  length_error is thrown.  The value of the string doesn't
1553:/usr/include/c++/9.2.0/bits/basic_string.h ****        *  change if an error is thrown.
1554:/usr/include/c++/9.2.0/bits/basic_string.h ****       */
1555:/usr/include/c++/9.2.0/bits/basic_string.h ****       void
1556:/usr/include/c++/9.2.0/bits/basic_string.h ****       insert(iterator __p, size_type __n, _CharT __c)
1557:/usr/include/c++/9.2.0/bits/basic_string.h ****       {	this->replace(__p, __p, __n, __c);  }
1558:/usr/include/c++/9.2.0/bits/basic_string.h **** #endif
1559:/usr/include/c++/9.2.0/bits/basic_string.h **** 
1560:/usr/include/c++/9.2.0/bits/basic_string.h **** #if __cplusplus >= 201103L
1561:/usr/include/c++/9.2.0/bits/basic_string.h ****       /**
1562:/usr/include/c++/9.2.0/bits/basic_string.h ****        *  @brief  Insert a range of characters.
1563:/usr/include/c++/9.2.0/bits/basic_string.h ****        *  @param __p  Const_iterator referencing location in string to
1564:/usr/include/c++/9.2.0/bits/basic_string.h ****        *              insert at.
1565:/usr/include/c++/9.2.0/bits/basic_string.h ****        *  @param __beg  Start of range.
1566:/usr/include/c++/9.2.0/bits/basic_string.h ****        *  @param __end  End of range.
1567:/usr/include/c++/9.2.0/bits/basic_string.h ****        *  @return  Iterator referencing the first inserted char.
1568:/usr/include/c++/9.2.0/bits/basic_string.h ****        *  @throw  std::length_error  If new length exceeds @c max_size().
1569:/usr/include/c++/9.2.0/bits/basic_string.h ****        *
1570:/usr/include/c++/9.2.0/bits/basic_string.h ****        *  Inserts characters in range [beg,end).  If adding characters
1571:/usr/include/c++/9.2.0/bits/basic_string.h ****        *  causes the length to exceed max_size(), length_error is
1572:/usr/include/c++/9.2.0/bits/basic_string.h ****        *  thrown.  The value of the string doesn't change if an error
1573:/usr/include/c++/9.2.0/bits/basic_string.h ****        *  is thrown.
1574:/usr/include/c++/9.2.0/bits/basic_string.h ****       */
1575:/usr/include/c++/9.2.0/bits/basic_string.h ****       template<class _InputIterator,
1576:/usr/include/c++/9.2.0/bits/basic_string.h **** 	       typename = std::_RequireInputIter<_InputIterator>>
1577:/usr/include/c++/9.2.0/bits/basic_string.h **** 	iterator
1578:/usr/include/c++/9.2.0/bits/basic_string.h ****         insert(const_iterator __p, _InputIterator __beg, _InputIterator __end)
1579:/usr/include/c++/9.2.0/bits/basic_string.h ****         {
1580:/usr/include/c++/9.2.0/bits/basic_string.h **** 	  _GLIBCXX_DEBUG_PEDASSERT(__p >= begin() && __p <= end());
1581:/usr/include/c++/9.2.0/bits/basic_string.h **** 	  const size_type __pos = __p - begin();
1582:/usr/include/c++/9.2.0/bits/basic_string.h **** 	  this->replace(__p, __p, __beg, __end);
1583:/usr/include/c++/9.2.0/bits/basic_string.h **** 	  return iterator(this->_M_data() + __pos);
1584:/usr/include/c++/9.2.0/bits/basic_string.h **** 	}
1585:/usr/include/c++/9.2.0/bits/basic_string.h **** #else
1586:/usr/include/c++/9.2.0/bits/basic_string.h ****       /**
1587:/usr/include/c++/9.2.0/bits/basic_string.h ****        *  @brief  Insert a range of characters.
1588:/usr/include/c++/9.2.0/bits/basic_string.h ****        *  @param __p  Iterator referencing location in string to insert at.
GAS LISTING /tmp/ccVy0JI6.s 			page 56


1589:/usr/include/c++/9.2.0/bits/basic_string.h ****        *  @param __beg  Start of range.
1590:/usr/include/c++/9.2.0/bits/basic_string.h ****        *  @param __end  End of range.
1591:/usr/include/c++/9.2.0/bits/basic_string.h ****        *  @throw  std::length_error  If new length exceeds @c max_size().
1592:/usr/include/c++/9.2.0/bits/basic_string.h ****        *
1593:/usr/include/c++/9.2.0/bits/basic_string.h ****        *  Inserts characters in range [__beg,__end).  If adding
1594:/usr/include/c++/9.2.0/bits/basic_string.h ****        *  characters causes the length to exceed max_size(),
1595:/usr/include/c++/9.2.0/bits/basic_string.h ****        *  length_error is thrown.  The value of the string doesn't
1596:/usr/include/c++/9.2.0/bits/basic_string.h ****        *  change if an error is thrown.
1597:/usr/include/c++/9.2.0/bits/basic_string.h ****       */
1598:/usr/include/c++/9.2.0/bits/basic_string.h ****       template<class _InputIterator>
1599:/usr/include/c++/9.2.0/bits/basic_string.h ****         void
1600:/usr/include/c++/9.2.0/bits/basic_string.h ****         insert(iterator __p, _InputIterator __beg, _InputIterator __end)
1601:/usr/include/c++/9.2.0/bits/basic_string.h ****         { this->replace(__p, __p, __beg, __end); }
1602:/usr/include/c++/9.2.0/bits/basic_string.h **** #endif
1603:/usr/include/c++/9.2.0/bits/basic_string.h **** 
1604:/usr/include/c++/9.2.0/bits/basic_string.h **** #if __cplusplus >= 201103L
1605:/usr/include/c++/9.2.0/bits/basic_string.h ****       /**
1606:/usr/include/c++/9.2.0/bits/basic_string.h ****        *  @brief  Insert an initializer_list of characters.
1607:/usr/include/c++/9.2.0/bits/basic_string.h ****        *  @param __p  Iterator referencing location in string to insert at.
1608:/usr/include/c++/9.2.0/bits/basic_string.h ****        *  @param __l  The initializer_list of characters to insert.
1609:/usr/include/c++/9.2.0/bits/basic_string.h ****        *  @throw  std::length_error  If new length exceeds @c max_size().
1610:/usr/include/c++/9.2.0/bits/basic_string.h ****        */
1611:/usr/include/c++/9.2.0/bits/basic_string.h ****       iterator
1612:/usr/include/c++/9.2.0/bits/basic_string.h ****       insert(const_iterator __p, initializer_list<_CharT> __l)
1613:/usr/include/c++/9.2.0/bits/basic_string.h ****       { return this->insert(__p, __l.begin(), __l.end()); }
1614:/usr/include/c++/9.2.0/bits/basic_string.h **** 
1615:/usr/include/c++/9.2.0/bits/basic_string.h **** #ifdef _GLIBCXX_DEFINING_STRING_INSTANTIATIONS
1616:/usr/include/c++/9.2.0/bits/basic_string.h ****       // See PR libstdc++/83328
1617:/usr/include/c++/9.2.0/bits/basic_string.h ****       void
1618:/usr/include/c++/9.2.0/bits/basic_string.h ****       insert(iterator __p, initializer_list<_CharT> __l)
1619:/usr/include/c++/9.2.0/bits/basic_string.h ****       {
1620:/usr/include/c++/9.2.0/bits/basic_string.h **** 	_GLIBCXX_DEBUG_PEDASSERT(__p >= begin() && __p <= end());
1621:/usr/include/c++/9.2.0/bits/basic_string.h **** 	this->insert(__p - begin(), __l.begin(), __l.size());
1622:/usr/include/c++/9.2.0/bits/basic_string.h ****       }
1623:/usr/include/c++/9.2.0/bits/basic_string.h **** #endif
1624:/usr/include/c++/9.2.0/bits/basic_string.h **** #endif // C++11
1625:/usr/include/c++/9.2.0/bits/basic_string.h **** 
1626:/usr/include/c++/9.2.0/bits/basic_string.h ****       /**
1627:/usr/include/c++/9.2.0/bits/basic_string.h ****        *  @brief  Insert value of a string.
1628:/usr/include/c++/9.2.0/bits/basic_string.h ****        *  @param __pos1  Iterator referencing location in string to insert at.
1629:/usr/include/c++/9.2.0/bits/basic_string.h ****        *  @param __str  The string to insert.
1630:/usr/include/c++/9.2.0/bits/basic_string.h ****        *  @return  Reference to this string.
1631:/usr/include/c++/9.2.0/bits/basic_string.h ****        *  @throw  std::length_error  If new length exceeds @c max_size().
1632:/usr/include/c++/9.2.0/bits/basic_string.h ****        *
1633:/usr/include/c++/9.2.0/bits/basic_string.h ****        *  Inserts value of @a __str starting at @a __pos1.  If adding
1634:/usr/include/c++/9.2.0/bits/basic_string.h ****        *  characters causes the length to exceed max_size(),
1635:/usr/include/c++/9.2.0/bits/basic_string.h ****        *  length_error is thrown.  The value of the string doesn't
1636:/usr/include/c++/9.2.0/bits/basic_string.h ****        *  change if an error is thrown.
1637:/usr/include/c++/9.2.0/bits/basic_string.h ****       */
1638:/usr/include/c++/9.2.0/bits/basic_string.h ****       basic_string&
1639:/usr/include/c++/9.2.0/bits/basic_string.h ****       insert(size_type __pos1, const basic_string& __str)
1640:/usr/include/c++/9.2.0/bits/basic_string.h ****       { return this->replace(__pos1, size_type(0),
1641:/usr/include/c++/9.2.0/bits/basic_string.h **** 			     __str._M_data(), __str.size()); }
1642:/usr/include/c++/9.2.0/bits/basic_string.h **** 
1643:/usr/include/c++/9.2.0/bits/basic_string.h ****       /**
1644:/usr/include/c++/9.2.0/bits/basic_string.h ****        *  @brief  Insert a substring.
1645:/usr/include/c++/9.2.0/bits/basic_string.h ****        *  @param __pos1  Iterator referencing location in string to insert at.
GAS LISTING /tmp/ccVy0JI6.s 			page 57


1646:/usr/include/c++/9.2.0/bits/basic_string.h ****        *  @param __str  The string to insert.
1647:/usr/include/c++/9.2.0/bits/basic_string.h ****        *  @param __pos2  Start of characters in str to insert.
1648:/usr/include/c++/9.2.0/bits/basic_string.h ****        *  @param __n  Number of characters to insert.
1649:/usr/include/c++/9.2.0/bits/basic_string.h ****        *  @return  Reference to this string.
1650:/usr/include/c++/9.2.0/bits/basic_string.h ****        *  @throw  std::length_error  If new length exceeds @c max_size().
1651:/usr/include/c++/9.2.0/bits/basic_string.h ****        *  @throw  std::out_of_range  If @a pos1 > size() or
1652:/usr/include/c++/9.2.0/bits/basic_string.h ****        *  @a __pos2 > @a str.size().
1653:/usr/include/c++/9.2.0/bits/basic_string.h ****        *
1654:/usr/include/c++/9.2.0/bits/basic_string.h ****        *  Starting at @a pos1, insert @a __n character of @a __str
1655:/usr/include/c++/9.2.0/bits/basic_string.h ****        *  beginning with @a __pos2.  If adding characters causes the
1656:/usr/include/c++/9.2.0/bits/basic_string.h ****        *  length to exceed max_size(), length_error is thrown.  If @a
1657:/usr/include/c++/9.2.0/bits/basic_string.h ****        *  __pos1 is beyond the end of this string or @a __pos2 is
1658:/usr/include/c++/9.2.0/bits/basic_string.h ****        *  beyond the end of @a __str, out_of_range is thrown.  The
1659:/usr/include/c++/9.2.0/bits/basic_string.h ****        *  value of the string doesn't change if an error is thrown.
1660:/usr/include/c++/9.2.0/bits/basic_string.h ****       */
1661:/usr/include/c++/9.2.0/bits/basic_string.h ****       basic_string&
1662:/usr/include/c++/9.2.0/bits/basic_string.h ****       insert(size_type __pos1, const basic_string& __str,
1663:/usr/include/c++/9.2.0/bits/basic_string.h **** 	     size_type __pos2, size_type __n = npos)
1664:/usr/include/c++/9.2.0/bits/basic_string.h ****       { return this->replace(__pos1, size_type(0), __str._M_data()
1665:/usr/include/c++/9.2.0/bits/basic_string.h **** 			     + __str._M_check(__pos2, "basic_string::insert"),
1666:/usr/include/c++/9.2.0/bits/basic_string.h **** 			     __str._M_limit(__pos2, __n)); }
1667:/usr/include/c++/9.2.0/bits/basic_string.h **** 
1668:/usr/include/c++/9.2.0/bits/basic_string.h ****       /**
1669:/usr/include/c++/9.2.0/bits/basic_string.h ****        *  @brief  Insert a C substring.
1670:/usr/include/c++/9.2.0/bits/basic_string.h ****        *  @param __pos  Iterator referencing location in string to insert at.
1671:/usr/include/c++/9.2.0/bits/basic_string.h ****        *  @param __s  The C string to insert.
1672:/usr/include/c++/9.2.0/bits/basic_string.h ****        *  @param __n  The number of characters to insert.
1673:/usr/include/c++/9.2.0/bits/basic_string.h ****        *  @return  Reference to this string.
1674:/usr/include/c++/9.2.0/bits/basic_string.h ****        *  @throw  std::length_error  If new length exceeds @c max_size().
1675:/usr/include/c++/9.2.0/bits/basic_string.h ****        *  @throw  std::out_of_range  If @a __pos is beyond the end of this
1676:/usr/include/c++/9.2.0/bits/basic_string.h ****        *  string.
1677:/usr/include/c++/9.2.0/bits/basic_string.h ****        *
1678:/usr/include/c++/9.2.0/bits/basic_string.h ****        *  Inserts the first @a __n characters of @a __s starting at @a
1679:/usr/include/c++/9.2.0/bits/basic_string.h ****        *  __pos.  If adding characters causes the length to exceed
1680:/usr/include/c++/9.2.0/bits/basic_string.h ****        *  max_size(), length_error is thrown.  If @a __pos is beyond
1681:/usr/include/c++/9.2.0/bits/basic_string.h ****        *  end(), out_of_range is thrown.  The value of the string
1682:/usr/include/c++/9.2.0/bits/basic_string.h ****        *  doesn't change if an error is thrown.
1683:/usr/include/c++/9.2.0/bits/basic_string.h ****       */
1684:/usr/include/c++/9.2.0/bits/basic_string.h ****       basic_string&
1685:/usr/include/c++/9.2.0/bits/basic_string.h ****       insert(size_type __pos, const _CharT* __s, size_type __n)
1686:/usr/include/c++/9.2.0/bits/basic_string.h ****       { return this->replace(__pos, size_type(0), __s, __n); }
1687:/usr/include/c++/9.2.0/bits/basic_string.h **** 
1688:/usr/include/c++/9.2.0/bits/basic_string.h ****       /**
1689:/usr/include/c++/9.2.0/bits/basic_string.h ****        *  @brief  Insert a C string.
1690:/usr/include/c++/9.2.0/bits/basic_string.h ****        *  @param __pos  Iterator referencing location in string to insert at.
1691:/usr/include/c++/9.2.0/bits/basic_string.h ****        *  @param __s  The C string to insert.
1692:/usr/include/c++/9.2.0/bits/basic_string.h ****        *  @return  Reference to this string.
1693:/usr/include/c++/9.2.0/bits/basic_string.h ****        *  @throw  std::length_error  If new length exceeds @c max_size().
1694:/usr/include/c++/9.2.0/bits/basic_string.h ****        *  @throw  std::out_of_range  If @a pos is beyond the end of this
1695:/usr/include/c++/9.2.0/bits/basic_string.h ****        *  string.
1696:/usr/include/c++/9.2.0/bits/basic_string.h ****        *
1697:/usr/include/c++/9.2.0/bits/basic_string.h ****        *  Inserts the first @a n characters of @a __s starting at @a __pos.  If
1698:/usr/include/c++/9.2.0/bits/basic_string.h ****        *  adding characters causes the length to exceed max_size(),
1699:/usr/include/c++/9.2.0/bits/basic_string.h ****        *  length_error is thrown.  If @a __pos is beyond end(), out_of_range is
1700:/usr/include/c++/9.2.0/bits/basic_string.h ****        *  thrown.  The value of the string doesn't change if an error is
1701:/usr/include/c++/9.2.0/bits/basic_string.h ****        *  thrown.
1702:/usr/include/c++/9.2.0/bits/basic_string.h ****       */
GAS LISTING /tmp/ccVy0JI6.s 			page 58


1703:/usr/include/c++/9.2.0/bits/basic_string.h ****       basic_string&
1704:/usr/include/c++/9.2.0/bits/basic_string.h ****       insert(size_type __pos, const _CharT* __s)
1705:/usr/include/c++/9.2.0/bits/basic_string.h ****       {
1706:/usr/include/c++/9.2.0/bits/basic_string.h **** 	__glibcxx_requires_string(__s);
1707:/usr/include/c++/9.2.0/bits/basic_string.h **** 	return this->replace(__pos, size_type(0), __s,
1708:/usr/include/c++/9.2.0/bits/basic_string.h **** 			     traits_type::length(__s));
1709:/usr/include/c++/9.2.0/bits/basic_string.h ****       }
1710:/usr/include/c++/9.2.0/bits/basic_string.h **** 
1711:/usr/include/c++/9.2.0/bits/basic_string.h ****       /**
1712:/usr/include/c++/9.2.0/bits/basic_string.h ****        *  @brief  Insert multiple characters.
1713:/usr/include/c++/9.2.0/bits/basic_string.h ****        *  @param __pos  Index in string to insert at.
1714:/usr/include/c++/9.2.0/bits/basic_string.h ****        *  @param __n  Number of characters to insert
1715:/usr/include/c++/9.2.0/bits/basic_string.h ****        *  @param __c  The character to insert.
1716:/usr/include/c++/9.2.0/bits/basic_string.h ****        *  @return  Reference to this string.
1717:/usr/include/c++/9.2.0/bits/basic_string.h ****        *  @throw  std::length_error  If new length exceeds @c max_size().
1718:/usr/include/c++/9.2.0/bits/basic_string.h ****        *  @throw  std::out_of_range  If @a __pos is beyond the end of this
1719:/usr/include/c++/9.2.0/bits/basic_string.h ****        *  string.
1720:/usr/include/c++/9.2.0/bits/basic_string.h ****        *
1721:/usr/include/c++/9.2.0/bits/basic_string.h ****        *  Inserts @a __n copies of character @a __c starting at index
1722:/usr/include/c++/9.2.0/bits/basic_string.h ****        *  @a __pos.  If adding characters causes the length to exceed
1723:/usr/include/c++/9.2.0/bits/basic_string.h ****        *  max_size(), length_error is thrown.  If @a __pos > length(),
1724:/usr/include/c++/9.2.0/bits/basic_string.h ****        *  out_of_range is thrown.  The value of the string doesn't
1725:/usr/include/c++/9.2.0/bits/basic_string.h ****        *  change if an error is thrown.
1726:/usr/include/c++/9.2.0/bits/basic_string.h ****       */
1727:/usr/include/c++/9.2.0/bits/basic_string.h ****       basic_string&
1728:/usr/include/c++/9.2.0/bits/basic_string.h ****       insert(size_type __pos, size_type __n, _CharT __c)
1729:/usr/include/c++/9.2.0/bits/basic_string.h ****       { return _M_replace_aux(_M_check(__pos, "basic_string::insert"),
1730:/usr/include/c++/9.2.0/bits/basic_string.h **** 			      size_type(0), __n, __c); }
1731:/usr/include/c++/9.2.0/bits/basic_string.h **** 
1732:/usr/include/c++/9.2.0/bits/basic_string.h ****       /**
1733:/usr/include/c++/9.2.0/bits/basic_string.h ****        *  @brief  Insert one character.
1734:/usr/include/c++/9.2.0/bits/basic_string.h ****        *  @param __p  Iterator referencing position in string to insert at.
1735:/usr/include/c++/9.2.0/bits/basic_string.h ****        *  @param __c  The character to insert.
1736:/usr/include/c++/9.2.0/bits/basic_string.h ****        *  @return  Iterator referencing newly inserted char.
1737:/usr/include/c++/9.2.0/bits/basic_string.h ****        *  @throw  std::length_error  If new length exceeds @c max_size().
1738:/usr/include/c++/9.2.0/bits/basic_string.h ****        *
1739:/usr/include/c++/9.2.0/bits/basic_string.h ****        *  Inserts character @a __c at position referenced by @a __p.
1740:/usr/include/c++/9.2.0/bits/basic_string.h ****        *  If adding character causes the length to exceed max_size(),
1741:/usr/include/c++/9.2.0/bits/basic_string.h ****        *  length_error is thrown.  If @a __p is beyond end of string,
1742:/usr/include/c++/9.2.0/bits/basic_string.h ****        *  out_of_range is thrown.  The value of the string doesn't
1743:/usr/include/c++/9.2.0/bits/basic_string.h ****        *  change if an error is thrown.
1744:/usr/include/c++/9.2.0/bits/basic_string.h ****       */
1745:/usr/include/c++/9.2.0/bits/basic_string.h ****       iterator
1746:/usr/include/c++/9.2.0/bits/basic_string.h ****       insert(__const_iterator __p, _CharT __c)
1747:/usr/include/c++/9.2.0/bits/basic_string.h ****       {
1748:/usr/include/c++/9.2.0/bits/basic_string.h **** 	_GLIBCXX_DEBUG_PEDASSERT(__p >= begin() && __p <= end());
1749:/usr/include/c++/9.2.0/bits/basic_string.h **** 	const size_type __pos = __p - begin();
1750:/usr/include/c++/9.2.0/bits/basic_string.h **** 	_M_replace_aux(__pos, size_type(0), size_type(1), __c);
1751:/usr/include/c++/9.2.0/bits/basic_string.h **** 	return iterator(_M_data() + __pos);
1752:/usr/include/c++/9.2.0/bits/basic_string.h ****       }
1753:/usr/include/c++/9.2.0/bits/basic_string.h **** 
1754:/usr/include/c++/9.2.0/bits/basic_string.h **** #if __cplusplus >= 201703L
1755:/usr/include/c++/9.2.0/bits/basic_string.h ****       /**
1756:/usr/include/c++/9.2.0/bits/basic_string.h ****        *  @brief  Insert a string_view.
1757:/usr/include/c++/9.2.0/bits/basic_string.h ****        *  @param __pos  Iterator referencing position in string to insert at.
1758:/usr/include/c++/9.2.0/bits/basic_string.h ****        *  @param __svt  The object convertible to string_view to insert.
1759:/usr/include/c++/9.2.0/bits/basic_string.h ****        *  @return  Reference to this string.
GAS LISTING /tmp/ccVy0JI6.s 			page 59


1760:/usr/include/c++/9.2.0/bits/basic_string.h ****       */
1761:/usr/include/c++/9.2.0/bits/basic_string.h ****       template<typename _Tp>
1762:/usr/include/c++/9.2.0/bits/basic_string.h **** 	_If_sv<_Tp, basic_string&>
1763:/usr/include/c++/9.2.0/bits/basic_string.h **** 	insert(size_type __pos, const _Tp& __svt)
1764:/usr/include/c++/9.2.0/bits/basic_string.h **** 	{
1765:/usr/include/c++/9.2.0/bits/basic_string.h **** 	  __sv_type __sv = __svt;
1766:/usr/include/c++/9.2.0/bits/basic_string.h **** 	  return this->insert(__pos, __sv.data(), __sv.size());
1767:/usr/include/c++/9.2.0/bits/basic_string.h **** 	}
1768:/usr/include/c++/9.2.0/bits/basic_string.h **** 
1769:/usr/include/c++/9.2.0/bits/basic_string.h ****       /**
1770:/usr/include/c++/9.2.0/bits/basic_string.h ****        *  @brief  Insert a string_view.
1771:/usr/include/c++/9.2.0/bits/basic_string.h ****        *  @param __pos  Iterator referencing position in string to insert at.
1772:/usr/include/c++/9.2.0/bits/basic_string.h ****        *  @param __svt  The object convertible to string_view to insert from.
1773:/usr/include/c++/9.2.0/bits/basic_string.h ****        *  @param __pos  Iterator referencing position in string_view to insert
1774:/usr/include/c++/9.2.0/bits/basic_string.h ****        *  from.
1775:/usr/include/c++/9.2.0/bits/basic_string.h ****        *  @param __n    The number of characters to insert.
1776:/usr/include/c++/9.2.0/bits/basic_string.h ****        *  @return  Reference to this string.
1777:/usr/include/c++/9.2.0/bits/basic_string.h ****       */
1778:/usr/include/c++/9.2.0/bits/basic_string.h ****       template<typename _Tp>
1779:/usr/include/c++/9.2.0/bits/basic_string.h **** 	_If_sv<_Tp, basic_string&>
1780:/usr/include/c++/9.2.0/bits/basic_string.h **** 	insert(size_type __pos1, const _Tp& __svt,
1781:/usr/include/c++/9.2.0/bits/basic_string.h **** 	       size_type __pos2, size_type __n = npos)
1782:/usr/include/c++/9.2.0/bits/basic_string.h **** 	{
1783:/usr/include/c++/9.2.0/bits/basic_string.h **** 	  __sv_type __sv = __svt;
1784:/usr/include/c++/9.2.0/bits/basic_string.h **** 	  return this->replace(__pos1, size_type(0),
1785:/usr/include/c++/9.2.0/bits/basic_string.h **** 	      __sv.data()
1786:/usr/include/c++/9.2.0/bits/basic_string.h **** 	      + std::__sv_check(__sv.size(), __pos2, "basic_string::insert"),
1787:/usr/include/c++/9.2.0/bits/basic_string.h **** 	      std::__sv_limit(__sv.size(), __pos2, __n));
1788:/usr/include/c++/9.2.0/bits/basic_string.h **** 	}
1789:/usr/include/c++/9.2.0/bits/basic_string.h **** #endif // C++17
1790:/usr/include/c++/9.2.0/bits/basic_string.h **** 
1791:/usr/include/c++/9.2.0/bits/basic_string.h ****       /**
1792:/usr/include/c++/9.2.0/bits/basic_string.h ****        *  @brief  Remove characters.
1793:/usr/include/c++/9.2.0/bits/basic_string.h ****        *  @param __pos  Index of first character to remove (default 0).
1794:/usr/include/c++/9.2.0/bits/basic_string.h ****        *  @param __n  Number of characters to remove (default remainder).
1795:/usr/include/c++/9.2.0/bits/basic_string.h ****        *  @return  Reference to this string.
1796:/usr/include/c++/9.2.0/bits/basic_string.h ****        *  @throw  std::out_of_range  If @a pos is beyond the end of this
1797:/usr/include/c++/9.2.0/bits/basic_string.h ****        *  string.
1798:/usr/include/c++/9.2.0/bits/basic_string.h ****        *
1799:/usr/include/c++/9.2.0/bits/basic_string.h ****        *  Removes @a __n characters from this string starting at @a
1800:/usr/include/c++/9.2.0/bits/basic_string.h ****        *  __pos.  The length of the string is reduced by @a __n.  If
1801:/usr/include/c++/9.2.0/bits/basic_string.h ****        *  there are < @a __n characters to remove, the remainder of
1802:/usr/include/c++/9.2.0/bits/basic_string.h ****        *  the string is truncated.  If @a __p is beyond end of string,
1803:/usr/include/c++/9.2.0/bits/basic_string.h ****        *  out_of_range is thrown.  The value of the string doesn't
1804:/usr/include/c++/9.2.0/bits/basic_string.h ****        *  change if an error is thrown.
1805:/usr/include/c++/9.2.0/bits/basic_string.h ****       */
1806:/usr/include/c++/9.2.0/bits/basic_string.h ****       basic_string&
1807:/usr/include/c++/9.2.0/bits/basic_string.h ****       erase(size_type __pos = 0, size_type __n = npos)
1808:/usr/include/c++/9.2.0/bits/basic_string.h ****       {
1809:/usr/include/c++/9.2.0/bits/basic_string.h **** 	_M_check(__pos, "basic_string::erase");
1810:/usr/include/c++/9.2.0/bits/basic_string.h **** 	if (__n == npos)
1811:/usr/include/c++/9.2.0/bits/basic_string.h **** 	  this->_M_set_length(__pos);
1812:/usr/include/c++/9.2.0/bits/basic_string.h **** 	else if (__n != 0)
1813:/usr/include/c++/9.2.0/bits/basic_string.h **** 	  this->_M_erase(__pos, _M_limit(__pos, __n));
1814:/usr/include/c++/9.2.0/bits/basic_string.h **** 	return *this;
1815:/usr/include/c++/9.2.0/bits/basic_string.h ****       }
1816:/usr/include/c++/9.2.0/bits/basic_string.h **** 
GAS LISTING /tmp/ccVy0JI6.s 			page 60


1817:/usr/include/c++/9.2.0/bits/basic_string.h ****       /**
1818:/usr/include/c++/9.2.0/bits/basic_string.h ****        *  @brief  Remove one character.
1819:/usr/include/c++/9.2.0/bits/basic_string.h ****        *  @param __position  Iterator referencing the character to remove.
1820:/usr/include/c++/9.2.0/bits/basic_string.h ****        *  @return  iterator referencing same location after removal.
1821:/usr/include/c++/9.2.0/bits/basic_string.h ****        *
1822:/usr/include/c++/9.2.0/bits/basic_string.h ****        *  Removes the character at @a __position from this string. The value
1823:/usr/include/c++/9.2.0/bits/basic_string.h ****        *  of the string doesn't change if an error is thrown.
1824:/usr/include/c++/9.2.0/bits/basic_string.h ****       */
1825:/usr/include/c++/9.2.0/bits/basic_string.h ****       iterator
1826:/usr/include/c++/9.2.0/bits/basic_string.h ****       erase(__const_iterator __position)
1827:/usr/include/c++/9.2.0/bits/basic_string.h ****       {
1828:/usr/include/c++/9.2.0/bits/basic_string.h **** 	_GLIBCXX_DEBUG_PEDASSERT(__position >= begin()
1829:/usr/include/c++/9.2.0/bits/basic_string.h **** 				 && __position < end());
1830:/usr/include/c++/9.2.0/bits/basic_string.h **** 	const size_type __pos = __position - begin();
1831:/usr/include/c++/9.2.0/bits/basic_string.h **** 	this->_M_erase(__pos, size_type(1));
1832:/usr/include/c++/9.2.0/bits/basic_string.h **** 	return iterator(_M_data() + __pos);
1833:/usr/include/c++/9.2.0/bits/basic_string.h ****       }
1834:/usr/include/c++/9.2.0/bits/basic_string.h **** 
1835:/usr/include/c++/9.2.0/bits/basic_string.h ****       /**
1836:/usr/include/c++/9.2.0/bits/basic_string.h ****        *  @brief  Remove a range of characters.
1837:/usr/include/c++/9.2.0/bits/basic_string.h ****        *  @param __first  Iterator referencing the first character to remove.
1838:/usr/include/c++/9.2.0/bits/basic_string.h ****        *  @param __last  Iterator referencing the end of the range.
1839:/usr/include/c++/9.2.0/bits/basic_string.h ****        *  @return  Iterator referencing location of first after removal.
1840:/usr/include/c++/9.2.0/bits/basic_string.h ****        *
1841:/usr/include/c++/9.2.0/bits/basic_string.h ****        *  Removes the characters in the range [first,last) from this string.
1842:/usr/include/c++/9.2.0/bits/basic_string.h ****        *  The value of the string doesn't change if an error is thrown.
1843:/usr/include/c++/9.2.0/bits/basic_string.h ****       */
1844:/usr/include/c++/9.2.0/bits/basic_string.h ****       iterator
1845:/usr/include/c++/9.2.0/bits/basic_string.h ****       erase(__const_iterator __first, __const_iterator __last)
1846:/usr/include/c++/9.2.0/bits/basic_string.h ****       {
1847:/usr/include/c++/9.2.0/bits/basic_string.h **** 	_GLIBCXX_DEBUG_PEDASSERT(__first >= begin() && __first <= __last
1848:/usr/include/c++/9.2.0/bits/basic_string.h **** 				 && __last <= end());
1849:/usr/include/c++/9.2.0/bits/basic_string.h ****         const size_type __pos = __first - begin();
1850:/usr/include/c++/9.2.0/bits/basic_string.h **** 	if (__last == end())
1851:/usr/include/c++/9.2.0/bits/basic_string.h **** 	  this->_M_set_length(__pos);
1852:/usr/include/c++/9.2.0/bits/basic_string.h **** 	else
1853:/usr/include/c++/9.2.0/bits/basic_string.h **** 	  this->_M_erase(__pos, __last - __first);
1854:/usr/include/c++/9.2.0/bits/basic_string.h **** 	return iterator(this->_M_data() + __pos);
1855:/usr/include/c++/9.2.0/bits/basic_string.h ****       }
1856:/usr/include/c++/9.2.0/bits/basic_string.h **** 
1857:/usr/include/c++/9.2.0/bits/basic_string.h **** #if __cplusplus >= 201103L
1858:/usr/include/c++/9.2.0/bits/basic_string.h ****       /**
1859:/usr/include/c++/9.2.0/bits/basic_string.h ****        *  @brief  Remove the last character.
1860:/usr/include/c++/9.2.0/bits/basic_string.h ****        *
1861:/usr/include/c++/9.2.0/bits/basic_string.h ****        *  The string must be non-empty.
1862:/usr/include/c++/9.2.0/bits/basic_string.h ****        */
1863:/usr/include/c++/9.2.0/bits/basic_string.h ****       void
1864:/usr/include/c++/9.2.0/bits/basic_string.h ****       pop_back() noexcept
1865:/usr/include/c++/9.2.0/bits/basic_string.h ****       {
1866:/usr/include/c++/9.2.0/bits/basic_string.h **** 	__glibcxx_assert(!empty());
1867:/usr/include/c++/9.2.0/bits/basic_string.h **** 	_M_erase(size() - 1, 1);
1868:/usr/include/c++/9.2.0/bits/basic_string.h ****       }
1869:/usr/include/c++/9.2.0/bits/basic_string.h **** #endif // C++11
1870:/usr/include/c++/9.2.0/bits/basic_string.h **** 
1871:/usr/include/c++/9.2.0/bits/basic_string.h ****       /**
1872:/usr/include/c++/9.2.0/bits/basic_string.h ****        *  @brief  Replace characters with value from another string.
1873:/usr/include/c++/9.2.0/bits/basic_string.h ****        *  @param __pos  Index of first character to replace.
GAS LISTING /tmp/ccVy0JI6.s 			page 61


1874:/usr/include/c++/9.2.0/bits/basic_string.h ****        *  @param __n  Number of characters to be replaced.
1875:/usr/include/c++/9.2.0/bits/basic_string.h ****        *  @param __str  String to insert.
1876:/usr/include/c++/9.2.0/bits/basic_string.h ****        *  @return  Reference to this string.
1877:/usr/include/c++/9.2.0/bits/basic_string.h ****        *  @throw  std::out_of_range  If @a pos is beyond the end of this
1878:/usr/include/c++/9.2.0/bits/basic_string.h ****        *  string.
1879:/usr/include/c++/9.2.0/bits/basic_string.h ****        *  @throw  std::length_error  If new length exceeds @c max_size().
1880:/usr/include/c++/9.2.0/bits/basic_string.h ****        *
1881:/usr/include/c++/9.2.0/bits/basic_string.h ****        *  Removes the characters in the range [__pos,__pos+__n) from
1882:/usr/include/c++/9.2.0/bits/basic_string.h ****        *  this string.  In place, the value of @a __str is inserted.
1883:/usr/include/c++/9.2.0/bits/basic_string.h ****        *  If @a __pos is beyond end of string, out_of_range is thrown.
1884:/usr/include/c++/9.2.0/bits/basic_string.h ****        *  If the length of the result exceeds max_size(), length_error
1885:/usr/include/c++/9.2.0/bits/basic_string.h ****        *  is thrown.  The value of the string doesn't change if an
1886:/usr/include/c++/9.2.0/bits/basic_string.h ****        *  error is thrown.
1887:/usr/include/c++/9.2.0/bits/basic_string.h ****       */
1888:/usr/include/c++/9.2.0/bits/basic_string.h ****       basic_string&
1889:/usr/include/c++/9.2.0/bits/basic_string.h ****       replace(size_type __pos, size_type __n, const basic_string& __str)
1890:/usr/include/c++/9.2.0/bits/basic_string.h ****       { return this->replace(__pos, __n, __str._M_data(), __str.size()); }
1891:/usr/include/c++/9.2.0/bits/basic_string.h **** 
1892:/usr/include/c++/9.2.0/bits/basic_string.h ****       /**
1893:/usr/include/c++/9.2.0/bits/basic_string.h ****        *  @brief  Replace characters with value from another string.
1894:/usr/include/c++/9.2.0/bits/basic_string.h ****        *  @param __pos1  Index of first character to replace.
1895:/usr/include/c++/9.2.0/bits/basic_string.h ****        *  @param __n1  Number of characters to be replaced.
1896:/usr/include/c++/9.2.0/bits/basic_string.h ****        *  @param __str  String to insert.
1897:/usr/include/c++/9.2.0/bits/basic_string.h ****        *  @param __pos2  Index of first character of str to use.
1898:/usr/include/c++/9.2.0/bits/basic_string.h ****        *  @param __n2  Number of characters from str to use.
1899:/usr/include/c++/9.2.0/bits/basic_string.h ****        *  @return  Reference to this string.
1900:/usr/include/c++/9.2.0/bits/basic_string.h ****        *  @throw  std::out_of_range  If @a __pos1 > size() or @a __pos2 >
1901:/usr/include/c++/9.2.0/bits/basic_string.h ****        *  __str.size().
1902:/usr/include/c++/9.2.0/bits/basic_string.h ****        *  @throw  std::length_error  If new length exceeds @c max_size().
1903:/usr/include/c++/9.2.0/bits/basic_string.h ****        *
1904:/usr/include/c++/9.2.0/bits/basic_string.h ****        *  Removes the characters in the range [__pos1,__pos1 + n) from this
1905:/usr/include/c++/9.2.0/bits/basic_string.h ****        *  string.  In place, the value of @a __str is inserted.  If @a __pos is
1906:/usr/include/c++/9.2.0/bits/basic_string.h ****        *  beyond end of string, out_of_range is thrown.  If the length of the
1907:/usr/include/c++/9.2.0/bits/basic_string.h ****        *  result exceeds max_size(), length_error is thrown.  The value of the
1908:/usr/include/c++/9.2.0/bits/basic_string.h ****        *  string doesn't change if an error is thrown.
1909:/usr/include/c++/9.2.0/bits/basic_string.h ****       */
1910:/usr/include/c++/9.2.0/bits/basic_string.h ****       basic_string&
1911:/usr/include/c++/9.2.0/bits/basic_string.h ****       replace(size_type __pos1, size_type __n1, const basic_string& __str,
1912:/usr/include/c++/9.2.0/bits/basic_string.h **** 	      size_type __pos2, size_type __n2 = npos)
1913:/usr/include/c++/9.2.0/bits/basic_string.h ****       { return this->replace(__pos1, __n1, __str._M_data()
1914:/usr/include/c++/9.2.0/bits/basic_string.h **** 			     + __str._M_check(__pos2, "basic_string::replace"),
1915:/usr/include/c++/9.2.0/bits/basic_string.h **** 			     __str._M_limit(__pos2, __n2)); }
1916:/usr/include/c++/9.2.0/bits/basic_string.h **** 
1917:/usr/include/c++/9.2.0/bits/basic_string.h ****       /**
1918:/usr/include/c++/9.2.0/bits/basic_string.h ****        *  @brief  Replace characters with value of a C substring.
1919:/usr/include/c++/9.2.0/bits/basic_string.h ****        *  @param __pos  Index of first character to replace.
1920:/usr/include/c++/9.2.0/bits/basic_string.h ****        *  @param __n1  Number of characters to be replaced.
1921:/usr/include/c++/9.2.0/bits/basic_string.h ****        *  @param __s  C string to insert.
1922:/usr/include/c++/9.2.0/bits/basic_string.h ****        *  @param __n2  Number of characters from @a s to use.
1923:/usr/include/c++/9.2.0/bits/basic_string.h ****        *  @return  Reference to this string.
1924:/usr/include/c++/9.2.0/bits/basic_string.h ****        *  @throw  std::out_of_range  If @a pos1 > size().
1925:/usr/include/c++/9.2.0/bits/basic_string.h ****        *  @throw  std::length_error  If new length exceeds @c max_size().
1926:/usr/include/c++/9.2.0/bits/basic_string.h ****        *
1927:/usr/include/c++/9.2.0/bits/basic_string.h ****        *  Removes the characters in the range [__pos,__pos + __n1)
1928:/usr/include/c++/9.2.0/bits/basic_string.h ****        *  from this string.  In place, the first @a __n2 characters of
1929:/usr/include/c++/9.2.0/bits/basic_string.h ****        *  @a __s are inserted, or all of @a __s if @a __n2 is too large.  If
1930:/usr/include/c++/9.2.0/bits/basic_string.h ****        *  @a __pos is beyond end of string, out_of_range is thrown.  If
GAS LISTING /tmp/ccVy0JI6.s 			page 62


1931:/usr/include/c++/9.2.0/bits/basic_string.h ****        *  the length of result exceeds max_size(), length_error is
1932:/usr/include/c++/9.2.0/bits/basic_string.h ****        *  thrown.  The value of the string doesn't change if an error
1933:/usr/include/c++/9.2.0/bits/basic_string.h ****        *  is thrown.
1934:/usr/include/c++/9.2.0/bits/basic_string.h ****       */
1935:/usr/include/c++/9.2.0/bits/basic_string.h ****       basic_string&
1936:/usr/include/c++/9.2.0/bits/basic_string.h ****       replace(size_type __pos, size_type __n1, const _CharT* __s,
1937:/usr/include/c++/9.2.0/bits/basic_string.h **** 	      size_type __n2)
1938:/usr/include/c++/9.2.0/bits/basic_string.h ****       {
1939:/usr/include/c++/9.2.0/bits/basic_string.h **** 	__glibcxx_requires_string_len(__s, __n2);
1940:/usr/include/c++/9.2.0/bits/basic_string.h **** 	return _M_replace(_M_check(__pos, "basic_string::replace"),
1941:/usr/include/c++/9.2.0/bits/basic_string.h **** 			  _M_limit(__pos, __n1), __s, __n2);
1942:/usr/include/c++/9.2.0/bits/basic_string.h ****       }
1943:/usr/include/c++/9.2.0/bits/basic_string.h **** 
1944:/usr/include/c++/9.2.0/bits/basic_string.h ****       /**
1945:/usr/include/c++/9.2.0/bits/basic_string.h ****        *  @brief  Replace characters with value of a C string.
1946:/usr/include/c++/9.2.0/bits/basic_string.h ****        *  @param __pos  Index of first character to replace.
1947:/usr/include/c++/9.2.0/bits/basic_string.h ****        *  @param __n1  Number of characters to be replaced.
1948:/usr/include/c++/9.2.0/bits/basic_string.h ****        *  @param __s  C string to insert.
1949:/usr/include/c++/9.2.0/bits/basic_string.h ****        *  @return  Reference to this string.
1950:/usr/include/c++/9.2.0/bits/basic_string.h ****        *  @throw  std::out_of_range  If @a pos > size().
1951:/usr/include/c++/9.2.0/bits/basic_string.h ****        *  @throw  std::length_error  If new length exceeds @c max_size().
1952:/usr/include/c++/9.2.0/bits/basic_string.h ****        *
1953:/usr/include/c++/9.2.0/bits/basic_string.h ****        *  Removes the characters in the range [__pos,__pos + __n1)
1954:/usr/include/c++/9.2.0/bits/basic_string.h ****        *  from this string.  In place, the characters of @a __s are
1955:/usr/include/c++/9.2.0/bits/basic_string.h ****        *  inserted.  If @a __pos is beyond end of string, out_of_range
1956:/usr/include/c++/9.2.0/bits/basic_string.h ****        *  is thrown.  If the length of result exceeds max_size(),
1957:/usr/include/c++/9.2.0/bits/basic_string.h ****        *  length_error is thrown.  The value of the string doesn't
1958:/usr/include/c++/9.2.0/bits/basic_string.h ****        *  change if an error is thrown.
1959:/usr/include/c++/9.2.0/bits/basic_string.h ****       */
1960:/usr/include/c++/9.2.0/bits/basic_string.h ****       basic_string&
1961:/usr/include/c++/9.2.0/bits/basic_string.h ****       replace(size_type __pos, size_type __n1, const _CharT* __s)
1962:/usr/include/c++/9.2.0/bits/basic_string.h ****       {
1963:/usr/include/c++/9.2.0/bits/basic_string.h **** 	__glibcxx_requires_string(__s);
1964:/usr/include/c++/9.2.0/bits/basic_string.h **** 	return this->replace(__pos, __n1, __s, traits_type::length(__s));
1965:/usr/include/c++/9.2.0/bits/basic_string.h ****       }
1966:/usr/include/c++/9.2.0/bits/basic_string.h **** 
1967:/usr/include/c++/9.2.0/bits/basic_string.h ****       /**
1968:/usr/include/c++/9.2.0/bits/basic_string.h ****        *  @brief  Replace characters with multiple characters.
1969:/usr/include/c++/9.2.0/bits/basic_string.h ****        *  @param __pos  Index of first character to replace.
1970:/usr/include/c++/9.2.0/bits/basic_string.h ****        *  @param __n1  Number of characters to be replaced.
1971:/usr/include/c++/9.2.0/bits/basic_string.h ****        *  @param __n2  Number of characters to insert.
1972:/usr/include/c++/9.2.0/bits/basic_string.h ****        *  @param __c  Character to insert.
1973:/usr/include/c++/9.2.0/bits/basic_string.h ****        *  @return  Reference to this string.
1974:/usr/include/c++/9.2.0/bits/basic_string.h ****        *  @throw  std::out_of_range  If @a __pos > size().
1975:/usr/include/c++/9.2.0/bits/basic_string.h ****        *  @throw  std::length_error  If new length exceeds @c max_size().
1976:/usr/include/c++/9.2.0/bits/basic_string.h ****        *
1977:/usr/include/c++/9.2.0/bits/basic_string.h ****        *  Removes the characters in the range [pos,pos + n1) from this
1978:/usr/include/c++/9.2.0/bits/basic_string.h ****        *  string.  In place, @a __n2 copies of @a __c are inserted.
1979:/usr/include/c++/9.2.0/bits/basic_string.h ****        *  If @a __pos is beyond end of string, out_of_range is thrown.
1980:/usr/include/c++/9.2.0/bits/basic_string.h ****        *  If the length of result exceeds max_size(), length_error is
1981:/usr/include/c++/9.2.0/bits/basic_string.h ****        *  thrown.  The value of the string doesn't change if an error
1982:/usr/include/c++/9.2.0/bits/basic_string.h ****        *  is thrown.
1983:/usr/include/c++/9.2.0/bits/basic_string.h ****       */
1984:/usr/include/c++/9.2.0/bits/basic_string.h ****       basic_string&
1985:/usr/include/c++/9.2.0/bits/basic_string.h ****       replace(size_type __pos, size_type __n1, size_type __n2, _CharT __c)
1986:/usr/include/c++/9.2.0/bits/basic_string.h ****       { return _M_replace_aux(_M_check(__pos, "basic_string::replace"),
1987:/usr/include/c++/9.2.0/bits/basic_string.h **** 			      _M_limit(__pos, __n1), __n2, __c); }
GAS LISTING /tmp/ccVy0JI6.s 			page 63


1988:/usr/include/c++/9.2.0/bits/basic_string.h **** 
1989:/usr/include/c++/9.2.0/bits/basic_string.h ****       /**
1990:/usr/include/c++/9.2.0/bits/basic_string.h ****        *  @brief  Replace range of characters with string.
1991:/usr/include/c++/9.2.0/bits/basic_string.h ****        *  @param __i1  Iterator referencing start of range to replace.
1992:/usr/include/c++/9.2.0/bits/basic_string.h ****        *  @param __i2  Iterator referencing end of range to replace.
1993:/usr/include/c++/9.2.0/bits/basic_string.h ****        *  @param __str  String value to insert.
1994:/usr/include/c++/9.2.0/bits/basic_string.h ****        *  @return  Reference to this string.
1995:/usr/include/c++/9.2.0/bits/basic_string.h ****        *  @throw  std::length_error  If new length exceeds @c max_size().
1996:/usr/include/c++/9.2.0/bits/basic_string.h ****        *
1997:/usr/include/c++/9.2.0/bits/basic_string.h ****        *  Removes the characters in the range [__i1,__i2).  In place,
1998:/usr/include/c++/9.2.0/bits/basic_string.h ****        *  the value of @a __str is inserted.  If the length of result
1999:/usr/include/c++/9.2.0/bits/basic_string.h ****        *  exceeds max_size(), length_error is thrown.  The value of
2000:/usr/include/c++/9.2.0/bits/basic_string.h ****        *  the string doesn't change if an error is thrown.
2001:/usr/include/c++/9.2.0/bits/basic_string.h ****       */
2002:/usr/include/c++/9.2.0/bits/basic_string.h ****       basic_string&
2003:/usr/include/c++/9.2.0/bits/basic_string.h ****       replace(__const_iterator __i1, __const_iterator __i2,
2004:/usr/include/c++/9.2.0/bits/basic_string.h **** 	      const basic_string& __str)
2005:/usr/include/c++/9.2.0/bits/basic_string.h ****       { return this->replace(__i1, __i2, __str._M_data(), __str.size()); }
2006:/usr/include/c++/9.2.0/bits/basic_string.h **** 
2007:/usr/include/c++/9.2.0/bits/basic_string.h ****       /**
2008:/usr/include/c++/9.2.0/bits/basic_string.h ****        *  @brief  Replace range of characters with C substring.
2009:/usr/include/c++/9.2.0/bits/basic_string.h ****        *  @param __i1  Iterator referencing start of range to replace.
2010:/usr/include/c++/9.2.0/bits/basic_string.h ****        *  @param __i2  Iterator referencing end of range to replace.
2011:/usr/include/c++/9.2.0/bits/basic_string.h ****        *  @param __s  C string value to insert.
2012:/usr/include/c++/9.2.0/bits/basic_string.h ****        *  @param __n  Number of characters from s to insert.
2013:/usr/include/c++/9.2.0/bits/basic_string.h ****        *  @return  Reference to this string.
2014:/usr/include/c++/9.2.0/bits/basic_string.h ****        *  @throw  std::length_error  If new length exceeds @c max_size().
2015:/usr/include/c++/9.2.0/bits/basic_string.h ****        *
2016:/usr/include/c++/9.2.0/bits/basic_string.h ****        *  Removes the characters in the range [__i1,__i2).  In place,
2017:/usr/include/c++/9.2.0/bits/basic_string.h ****        *  the first @a __n characters of @a __s are inserted.  If the
2018:/usr/include/c++/9.2.0/bits/basic_string.h ****        *  length of result exceeds max_size(), length_error is thrown.
2019:/usr/include/c++/9.2.0/bits/basic_string.h ****        *  The value of the string doesn't change if an error is
2020:/usr/include/c++/9.2.0/bits/basic_string.h ****        *  thrown.
2021:/usr/include/c++/9.2.0/bits/basic_string.h ****       */
2022:/usr/include/c++/9.2.0/bits/basic_string.h ****       basic_string&
2023:/usr/include/c++/9.2.0/bits/basic_string.h ****       replace(__const_iterator __i1, __const_iterator __i2,
2024:/usr/include/c++/9.2.0/bits/basic_string.h **** 	      const _CharT* __s, size_type __n)
2025:/usr/include/c++/9.2.0/bits/basic_string.h ****       {
2026:/usr/include/c++/9.2.0/bits/basic_string.h **** 	_GLIBCXX_DEBUG_PEDASSERT(begin() <= __i1 && __i1 <= __i2
2027:/usr/include/c++/9.2.0/bits/basic_string.h **** 				 && __i2 <= end());
2028:/usr/include/c++/9.2.0/bits/basic_string.h **** 	return this->replace(__i1 - begin(), __i2 - __i1, __s, __n);
2029:/usr/include/c++/9.2.0/bits/basic_string.h ****       }
2030:/usr/include/c++/9.2.0/bits/basic_string.h **** 
2031:/usr/include/c++/9.2.0/bits/basic_string.h ****       /**
2032:/usr/include/c++/9.2.0/bits/basic_string.h ****        *  @brief  Replace range of characters with C string.
2033:/usr/include/c++/9.2.0/bits/basic_string.h ****        *  @param __i1  Iterator referencing start of range to replace.
2034:/usr/include/c++/9.2.0/bits/basic_string.h ****        *  @param __i2  Iterator referencing end of range to replace.
2035:/usr/include/c++/9.2.0/bits/basic_string.h ****        *  @param __s  C string value to insert.
2036:/usr/include/c++/9.2.0/bits/basic_string.h ****        *  @return  Reference to this string.
2037:/usr/include/c++/9.2.0/bits/basic_string.h ****        *  @throw  std::length_error  If new length exceeds @c max_size().
2038:/usr/include/c++/9.2.0/bits/basic_string.h ****        *
2039:/usr/include/c++/9.2.0/bits/basic_string.h ****        *  Removes the characters in the range [__i1,__i2).  In place,
2040:/usr/include/c++/9.2.0/bits/basic_string.h ****        *  the characters of @a __s are inserted.  If the length of
2041:/usr/include/c++/9.2.0/bits/basic_string.h ****        *  result exceeds max_size(), length_error is thrown.  The
2042:/usr/include/c++/9.2.0/bits/basic_string.h ****        *  value of the string doesn't change if an error is thrown.
2043:/usr/include/c++/9.2.0/bits/basic_string.h ****       */
2044:/usr/include/c++/9.2.0/bits/basic_string.h ****       basic_string&
GAS LISTING /tmp/ccVy0JI6.s 			page 64


2045:/usr/include/c++/9.2.0/bits/basic_string.h ****       replace(__const_iterator __i1, __const_iterator __i2, const _CharT* __s)
2046:/usr/include/c++/9.2.0/bits/basic_string.h ****       {
2047:/usr/include/c++/9.2.0/bits/basic_string.h **** 	__glibcxx_requires_string(__s);
2048:/usr/include/c++/9.2.0/bits/basic_string.h **** 	return this->replace(__i1, __i2, __s, traits_type::length(__s));
2049:/usr/include/c++/9.2.0/bits/basic_string.h ****       }
2050:/usr/include/c++/9.2.0/bits/basic_string.h **** 
2051:/usr/include/c++/9.2.0/bits/basic_string.h ****       /**
2052:/usr/include/c++/9.2.0/bits/basic_string.h ****        *  @brief  Replace range of characters with multiple characters
2053:/usr/include/c++/9.2.0/bits/basic_string.h ****        *  @param __i1  Iterator referencing start of range to replace.
2054:/usr/include/c++/9.2.0/bits/basic_string.h ****        *  @param __i2  Iterator referencing end of range to replace.
2055:/usr/include/c++/9.2.0/bits/basic_string.h ****        *  @param __n  Number of characters to insert.
2056:/usr/include/c++/9.2.0/bits/basic_string.h ****        *  @param __c  Character to insert.
2057:/usr/include/c++/9.2.0/bits/basic_string.h ****        *  @return  Reference to this string.
2058:/usr/include/c++/9.2.0/bits/basic_string.h ****        *  @throw  std::length_error  If new length exceeds @c max_size().
2059:/usr/include/c++/9.2.0/bits/basic_string.h ****        *
2060:/usr/include/c++/9.2.0/bits/basic_string.h ****        *  Removes the characters in the range [__i1,__i2).  In place,
2061:/usr/include/c++/9.2.0/bits/basic_string.h ****        *  @a __n copies of @a __c are inserted.  If the length of
2062:/usr/include/c++/9.2.0/bits/basic_string.h ****        *  result exceeds max_size(), length_error is thrown.  The
2063:/usr/include/c++/9.2.0/bits/basic_string.h ****        *  value of the string doesn't change if an error is thrown.
2064:/usr/include/c++/9.2.0/bits/basic_string.h ****       */
2065:/usr/include/c++/9.2.0/bits/basic_string.h ****       basic_string&
2066:/usr/include/c++/9.2.0/bits/basic_string.h ****       replace(__const_iterator __i1, __const_iterator __i2, size_type __n,
2067:/usr/include/c++/9.2.0/bits/basic_string.h **** 	      _CharT __c)
2068:/usr/include/c++/9.2.0/bits/basic_string.h ****       {
2069:/usr/include/c++/9.2.0/bits/basic_string.h **** 	_GLIBCXX_DEBUG_PEDASSERT(begin() <= __i1 && __i1 <= __i2
2070:/usr/include/c++/9.2.0/bits/basic_string.h **** 				 && __i2 <= end());
2071:/usr/include/c++/9.2.0/bits/basic_string.h **** 	return _M_replace_aux(__i1 - begin(), __i2 - __i1, __n, __c);
2072:/usr/include/c++/9.2.0/bits/basic_string.h ****       }
2073:/usr/include/c++/9.2.0/bits/basic_string.h **** 
2074:/usr/include/c++/9.2.0/bits/basic_string.h ****       /**
2075:/usr/include/c++/9.2.0/bits/basic_string.h ****        *  @brief  Replace range of characters with range.
2076:/usr/include/c++/9.2.0/bits/basic_string.h ****        *  @param __i1  Iterator referencing start of range to replace.
2077:/usr/include/c++/9.2.0/bits/basic_string.h ****        *  @param __i2  Iterator referencing end of range to replace.
2078:/usr/include/c++/9.2.0/bits/basic_string.h ****        *  @param __k1  Iterator referencing start of range to insert.
2079:/usr/include/c++/9.2.0/bits/basic_string.h ****        *  @param __k2  Iterator referencing end of range to insert.
2080:/usr/include/c++/9.2.0/bits/basic_string.h ****        *  @return  Reference to this string.
2081:/usr/include/c++/9.2.0/bits/basic_string.h ****        *  @throw  std::length_error  If new length exceeds @c max_size().
2082:/usr/include/c++/9.2.0/bits/basic_string.h ****        *
2083:/usr/include/c++/9.2.0/bits/basic_string.h ****        *  Removes the characters in the range [__i1,__i2).  In place,
2084:/usr/include/c++/9.2.0/bits/basic_string.h ****        *  characters in the range [__k1,__k2) are inserted.  If the
2085:/usr/include/c++/9.2.0/bits/basic_string.h ****        *  length of result exceeds max_size(), length_error is thrown.
2086:/usr/include/c++/9.2.0/bits/basic_string.h ****        *  The value of the string doesn't change if an error is
2087:/usr/include/c++/9.2.0/bits/basic_string.h ****        *  thrown.
2088:/usr/include/c++/9.2.0/bits/basic_string.h ****       */
2089:/usr/include/c++/9.2.0/bits/basic_string.h **** #if __cplusplus >= 201103L
2090:/usr/include/c++/9.2.0/bits/basic_string.h ****       template<class _InputIterator,
2091:/usr/include/c++/9.2.0/bits/basic_string.h **** 	       typename = std::_RequireInputIter<_InputIterator>>
2092:/usr/include/c++/9.2.0/bits/basic_string.h ****         basic_string&
2093:/usr/include/c++/9.2.0/bits/basic_string.h ****         replace(const_iterator __i1, const_iterator __i2,
2094:/usr/include/c++/9.2.0/bits/basic_string.h **** 		_InputIterator __k1, _InputIterator __k2)
2095:/usr/include/c++/9.2.0/bits/basic_string.h ****         {
2096:/usr/include/c++/9.2.0/bits/basic_string.h **** 	  _GLIBCXX_DEBUG_PEDASSERT(begin() <= __i1 && __i1 <= __i2
2097:/usr/include/c++/9.2.0/bits/basic_string.h **** 				   && __i2 <= end());
2098:/usr/include/c++/9.2.0/bits/basic_string.h **** 	  __glibcxx_requires_valid_range(__k1, __k2);
2099:/usr/include/c++/9.2.0/bits/basic_string.h **** 	  return this->_M_replace_dispatch(__i1, __i2, __k1, __k2,
2100:/usr/include/c++/9.2.0/bits/basic_string.h **** 					   std::__false_type());
2101:/usr/include/c++/9.2.0/bits/basic_string.h **** 	}
GAS LISTING /tmp/ccVy0JI6.s 			page 65


2102:/usr/include/c++/9.2.0/bits/basic_string.h **** #else
2103:/usr/include/c++/9.2.0/bits/basic_string.h ****       template<class _InputIterator>
2104:/usr/include/c++/9.2.0/bits/basic_string.h **** #ifdef _GLIBCXX_DISAMBIGUATE_REPLACE_INST
2105:/usr/include/c++/9.2.0/bits/basic_string.h ****         typename __enable_if_not_native_iterator<_InputIterator>::__type
2106:/usr/include/c++/9.2.0/bits/basic_string.h **** #else
2107:/usr/include/c++/9.2.0/bits/basic_string.h ****         basic_string&
2108:/usr/include/c++/9.2.0/bits/basic_string.h **** #endif
2109:/usr/include/c++/9.2.0/bits/basic_string.h ****         replace(iterator __i1, iterator __i2,
2110:/usr/include/c++/9.2.0/bits/basic_string.h **** 		_InputIterator __k1, _InputIterator __k2)
2111:/usr/include/c++/9.2.0/bits/basic_string.h ****         {
2112:/usr/include/c++/9.2.0/bits/basic_string.h **** 	  _GLIBCXX_DEBUG_PEDASSERT(begin() <= __i1 && __i1 <= __i2
2113:/usr/include/c++/9.2.0/bits/basic_string.h **** 				   && __i2 <= end());
2114:/usr/include/c++/9.2.0/bits/basic_string.h **** 	  __glibcxx_requires_valid_range(__k1, __k2);
2115:/usr/include/c++/9.2.0/bits/basic_string.h **** 	  typedef typename std::__is_integer<_InputIterator>::__type _Integral;
2116:/usr/include/c++/9.2.0/bits/basic_string.h **** 	  return _M_replace_dispatch(__i1, __i2, __k1, __k2, _Integral());
2117:/usr/include/c++/9.2.0/bits/basic_string.h **** 	}
2118:/usr/include/c++/9.2.0/bits/basic_string.h **** #endif
2119:/usr/include/c++/9.2.0/bits/basic_string.h **** 
2120:/usr/include/c++/9.2.0/bits/basic_string.h ****       // Specializations for the common case of pointer and iterator:
2121:/usr/include/c++/9.2.0/bits/basic_string.h ****       // useful to avoid the overhead of temporary buffering in _M_replace.
2122:/usr/include/c++/9.2.0/bits/basic_string.h ****       basic_string&
2123:/usr/include/c++/9.2.0/bits/basic_string.h ****       replace(__const_iterator __i1, __const_iterator __i2,
2124:/usr/include/c++/9.2.0/bits/basic_string.h **** 	      _CharT* __k1, _CharT* __k2)
2125:/usr/include/c++/9.2.0/bits/basic_string.h ****       {
2126:/usr/include/c++/9.2.0/bits/basic_string.h **** 	_GLIBCXX_DEBUG_PEDASSERT(begin() <= __i1 && __i1 <= __i2
2127:/usr/include/c++/9.2.0/bits/basic_string.h **** 				 && __i2 <= end());
2128:/usr/include/c++/9.2.0/bits/basic_string.h **** 	__glibcxx_requires_valid_range(__k1, __k2);
2129:/usr/include/c++/9.2.0/bits/basic_string.h **** 	return this->replace(__i1 - begin(), __i2 - __i1,
2130:/usr/include/c++/9.2.0/bits/basic_string.h **** 			     __k1, __k2 - __k1);
2131:/usr/include/c++/9.2.0/bits/basic_string.h ****       }
2132:/usr/include/c++/9.2.0/bits/basic_string.h **** 
2133:/usr/include/c++/9.2.0/bits/basic_string.h ****       basic_string&
2134:/usr/include/c++/9.2.0/bits/basic_string.h ****       replace(__const_iterator __i1, __const_iterator __i2,
2135:/usr/include/c++/9.2.0/bits/basic_string.h **** 	      const _CharT* __k1, const _CharT* __k2)
2136:/usr/include/c++/9.2.0/bits/basic_string.h ****       {
2137:/usr/include/c++/9.2.0/bits/basic_string.h **** 	_GLIBCXX_DEBUG_PEDASSERT(begin() <= __i1 && __i1 <= __i2
2138:/usr/include/c++/9.2.0/bits/basic_string.h **** 				 && __i2 <= end());
2139:/usr/include/c++/9.2.0/bits/basic_string.h **** 	__glibcxx_requires_valid_range(__k1, __k2);
2140:/usr/include/c++/9.2.0/bits/basic_string.h **** 	return this->replace(__i1 - begin(), __i2 - __i1,
2141:/usr/include/c++/9.2.0/bits/basic_string.h **** 			     __k1, __k2 - __k1);
2142:/usr/include/c++/9.2.0/bits/basic_string.h ****       }
2143:/usr/include/c++/9.2.0/bits/basic_string.h **** 
2144:/usr/include/c++/9.2.0/bits/basic_string.h ****       basic_string&
2145:/usr/include/c++/9.2.0/bits/basic_string.h ****       replace(__const_iterator __i1, __const_iterator __i2,
2146:/usr/include/c++/9.2.0/bits/basic_string.h **** 	      iterator __k1, iterator __k2)
2147:/usr/include/c++/9.2.0/bits/basic_string.h ****       {
2148:/usr/include/c++/9.2.0/bits/basic_string.h **** 	_GLIBCXX_DEBUG_PEDASSERT(begin() <= __i1 && __i1 <= __i2
2149:/usr/include/c++/9.2.0/bits/basic_string.h **** 				 && __i2 <= end());
2150:/usr/include/c++/9.2.0/bits/basic_string.h **** 	__glibcxx_requires_valid_range(__k1, __k2);
2151:/usr/include/c++/9.2.0/bits/basic_string.h **** 	return this->replace(__i1 - begin(), __i2 - __i1,
2152:/usr/include/c++/9.2.0/bits/basic_string.h **** 			     __k1.base(), __k2 - __k1);
2153:/usr/include/c++/9.2.0/bits/basic_string.h ****       }
2154:/usr/include/c++/9.2.0/bits/basic_string.h **** 
2155:/usr/include/c++/9.2.0/bits/basic_string.h ****       basic_string&
2156:/usr/include/c++/9.2.0/bits/basic_string.h ****       replace(__const_iterator __i1, __const_iterator __i2,
2157:/usr/include/c++/9.2.0/bits/basic_string.h **** 	      const_iterator __k1, const_iterator __k2)
2158:/usr/include/c++/9.2.0/bits/basic_string.h ****       {
GAS LISTING /tmp/ccVy0JI6.s 			page 66


2159:/usr/include/c++/9.2.0/bits/basic_string.h **** 	_GLIBCXX_DEBUG_PEDASSERT(begin() <= __i1 && __i1 <= __i2
2160:/usr/include/c++/9.2.0/bits/basic_string.h **** 				 && __i2 <= end());
2161:/usr/include/c++/9.2.0/bits/basic_string.h **** 	__glibcxx_requires_valid_range(__k1, __k2);
2162:/usr/include/c++/9.2.0/bits/basic_string.h **** 	return this->replace(__i1 - begin(), __i2 - __i1,
2163:/usr/include/c++/9.2.0/bits/basic_string.h **** 			     __k1.base(), __k2 - __k1);
2164:/usr/include/c++/9.2.0/bits/basic_string.h ****       }
2165:/usr/include/c++/9.2.0/bits/basic_string.h **** 
2166:/usr/include/c++/9.2.0/bits/basic_string.h **** #if __cplusplus >= 201103L
2167:/usr/include/c++/9.2.0/bits/basic_string.h ****       /**
2168:/usr/include/c++/9.2.0/bits/basic_string.h ****        *  @brief  Replace range of characters with initializer_list.
2169:/usr/include/c++/9.2.0/bits/basic_string.h ****        *  @param __i1  Iterator referencing start of range to replace.
2170:/usr/include/c++/9.2.0/bits/basic_string.h ****        *  @param __i2  Iterator referencing end of range to replace.
2171:/usr/include/c++/9.2.0/bits/basic_string.h ****        *  @param __l  The initializer_list of characters to insert.
2172:/usr/include/c++/9.2.0/bits/basic_string.h ****        *  @return  Reference to this string.
2173:/usr/include/c++/9.2.0/bits/basic_string.h ****        *  @throw  std::length_error  If new length exceeds @c max_size().
2174:/usr/include/c++/9.2.0/bits/basic_string.h ****        *
2175:/usr/include/c++/9.2.0/bits/basic_string.h ****        *  Removes the characters in the range [__i1,__i2).  In place,
2176:/usr/include/c++/9.2.0/bits/basic_string.h ****        *  characters in the range [__k1,__k2) are inserted.  If the
2177:/usr/include/c++/9.2.0/bits/basic_string.h ****        *  length of result exceeds max_size(), length_error is thrown.
2178:/usr/include/c++/9.2.0/bits/basic_string.h ****        *  The value of the string doesn't change if an error is
2179:/usr/include/c++/9.2.0/bits/basic_string.h ****        *  thrown.
2180:/usr/include/c++/9.2.0/bits/basic_string.h ****       */
2181:/usr/include/c++/9.2.0/bits/basic_string.h ****       basic_string& replace(const_iterator __i1, const_iterator __i2,
2182:/usr/include/c++/9.2.0/bits/basic_string.h **** 			    initializer_list<_CharT> __l)
2183:/usr/include/c++/9.2.0/bits/basic_string.h ****       { return this->replace(__i1, __i2, __l.begin(), __l.size()); }
2184:/usr/include/c++/9.2.0/bits/basic_string.h **** #endif // C++11
2185:/usr/include/c++/9.2.0/bits/basic_string.h **** 
2186:/usr/include/c++/9.2.0/bits/basic_string.h **** #if __cplusplus >= 201703L
2187:/usr/include/c++/9.2.0/bits/basic_string.h ****       /**
2188:/usr/include/c++/9.2.0/bits/basic_string.h ****        *  @brief  Replace range of characters with string_view.
2189:/usr/include/c++/9.2.0/bits/basic_string.h ****        *  @param __pos  The position to replace at.
2190:/usr/include/c++/9.2.0/bits/basic_string.h ****        *  @param __n    The number of characters to replace.
2191:/usr/include/c++/9.2.0/bits/basic_string.h ****        *  @param __svt  The object convertible to string_view to insert.
2192:/usr/include/c++/9.2.0/bits/basic_string.h ****        *  @return  Reference to this string.
2193:/usr/include/c++/9.2.0/bits/basic_string.h ****       */
2194:/usr/include/c++/9.2.0/bits/basic_string.h ****       template<typename _Tp>
2195:/usr/include/c++/9.2.0/bits/basic_string.h **** 	_If_sv<_Tp, basic_string&>
2196:/usr/include/c++/9.2.0/bits/basic_string.h **** 	replace(size_type __pos, size_type __n, const _Tp& __svt)
2197:/usr/include/c++/9.2.0/bits/basic_string.h **** 	{
2198:/usr/include/c++/9.2.0/bits/basic_string.h **** 	  __sv_type __sv = __svt;
2199:/usr/include/c++/9.2.0/bits/basic_string.h **** 	  return this->replace(__pos, __n, __sv.data(), __sv.size());
2200:/usr/include/c++/9.2.0/bits/basic_string.h **** 	}
2201:/usr/include/c++/9.2.0/bits/basic_string.h **** 
2202:/usr/include/c++/9.2.0/bits/basic_string.h ****       /**
2203:/usr/include/c++/9.2.0/bits/basic_string.h ****        *  @brief  Replace range of characters with string_view.
2204:/usr/include/c++/9.2.0/bits/basic_string.h ****        *  @param __pos1  The position to replace at.
2205:/usr/include/c++/9.2.0/bits/basic_string.h ****        *  @param __n1    The number of characters to replace.
2206:/usr/include/c++/9.2.0/bits/basic_string.h ****        *  @param __svt   The object convertible to string_view to insert from.
2207:/usr/include/c++/9.2.0/bits/basic_string.h ****        *  @param __pos2  The position in the string_view to insert from.
2208:/usr/include/c++/9.2.0/bits/basic_string.h ****        *  @param __n2    The number of characters to insert.
2209:/usr/include/c++/9.2.0/bits/basic_string.h ****        *  @return  Reference to this string.
2210:/usr/include/c++/9.2.0/bits/basic_string.h ****       */
2211:/usr/include/c++/9.2.0/bits/basic_string.h ****       template<typename _Tp>
2212:/usr/include/c++/9.2.0/bits/basic_string.h **** 	_If_sv<_Tp, basic_string&>
2213:/usr/include/c++/9.2.0/bits/basic_string.h **** 	replace(size_type __pos1, size_type __n1, const _Tp& __svt,
2214:/usr/include/c++/9.2.0/bits/basic_string.h **** 		size_type __pos2, size_type __n2 = npos)
2215:/usr/include/c++/9.2.0/bits/basic_string.h **** 	{
GAS LISTING /tmp/ccVy0JI6.s 			page 67


2216:/usr/include/c++/9.2.0/bits/basic_string.h **** 	  __sv_type __sv = __svt;
2217:/usr/include/c++/9.2.0/bits/basic_string.h **** 	  return this->replace(__pos1, __n1,
2218:/usr/include/c++/9.2.0/bits/basic_string.h **** 	      __sv.data()
2219:/usr/include/c++/9.2.0/bits/basic_string.h **** 	      + std::__sv_check(__sv.size(), __pos2, "basic_string::replace"),
2220:/usr/include/c++/9.2.0/bits/basic_string.h **** 	      std::__sv_limit(__sv.size(), __pos2, __n2));
2221:/usr/include/c++/9.2.0/bits/basic_string.h **** 	}
2222:/usr/include/c++/9.2.0/bits/basic_string.h **** 
2223:/usr/include/c++/9.2.0/bits/basic_string.h ****       /**
2224:/usr/include/c++/9.2.0/bits/basic_string.h ****        *  @brief  Replace range of characters with string_view.
2225:/usr/include/c++/9.2.0/bits/basic_string.h ****        *  @param __i1    An iterator referencing the start position
2226:/usr/include/c++/9.2.0/bits/basic_string.h ****           to replace at.
2227:/usr/include/c++/9.2.0/bits/basic_string.h ****        *  @param __i2    An iterator referencing the end position
2228:/usr/include/c++/9.2.0/bits/basic_string.h ****           for the replace.
2229:/usr/include/c++/9.2.0/bits/basic_string.h ****        *  @param __svt   The object convertible to string_view to insert from.
2230:/usr/include/c++/9.2.0/bits/basic_string.h ****        *  @return  Reference to this string.
2231:/usr/include/c++/9.2.0/bits/basic_string.h ****       */
2232:/usr/include/c++/9.2.0/bits/basic_string.h ****       template<typename _Tp>
2233:/usr/include/c++/9.2.0/bits/basic_string.h **** 	_If_sv<_Tp, basic_string&>
2234:/usr/include/c++/9.2.0/bits/basic_string.h **** 	replace(const_iterator __i1, const_iterator __i2, const _Tp& __svt)
2235:/usr/include/c++/9.2.0/bits/basic_string.h **** 	{
2236:/usr/include/c++/9.2.0/bits/basic_string.h **** 	  __sv_type __sv = __svt;
2237:/usr/include/c++/9.2.0/bits/basic_string.h **** 	  return this->replace(__i1 - begin(), __i2 - __i1, __sv);
2238:/usr/include/c++/9.2.0/bits/basic_string.h **** 	}
2239:/usr/include/c++/9.2.0/bits/basic_string.h **** #endif // C++17
2240:/usr/include/c++/9.2.0/bits/basic_string.h **** 
2241:/usr/include/c++/9.2.0/bits/basic_string.h ****     private:
2242:/usr/include/c++/9.2.0/bits/basic_string.h ****       template<class _Integer>
2243:/usr/include/c++/9.2.0/bits/basic_string.h **** 	basic_string&
2244:/usr/include/c++/9.2.0/bits/basic_string.h **** 	_M_replace_dispatch(const_iterator __i1, const_iterator __i2,
2245:/usr/include/c++/9.2.0/bits/basic_string.h **** 			    _Integer __n, _Integer __val, __true_type)
2246:/usr/include/c++/9.2.0/bits/basic_string.h ****         { return _M_replace_aux(__i1 - begin(), __i2 - __i1, __n, __val); }
2247:/usr/include/c++/9.2.0/bits/basic_string.h **** 
2248:/usr/include/c++/9.2.0/bits/basic_string.h ****       template<class _InputIterator>
2249:/usr/include/c++/9.2.0/bits/basic_string.h **** 	basic_string&
2250:/usr/include/c++/9.2.0/bits/basic_string.h **** 	_M_replace_dispatch(const_iterator __i1, const_iterator __i2,
2251:/usr/include/c++/9.2.0/bits/basic_string.h **** 			    _InputIterator __k1, _InputIterator __k2,
2252:/usr/include/c++/9.2.0/bits/basic_string.h **** 			    __false_type);
2253:/usr/include/c++/9.2.0/bits/basic_string.h **** 
2254:/usr/include/c++/9.2.0/bits/basic_string.h ****       basic_string&
2255:/usr/include/c++/9.2.0/bits/basic_string.h ****       _M_replace_aux(size_type __pos1, size_type __n1, size_type __n2,
2256:/usr/include/c++/9.2.0/bits/basic_string.h **** 		     _CharT __c);
2257:/usr/include/c++/9.2.0/bits/basic_string.h **** 
2258:/usr/include/c++/9.2.0/bits/basic_string.h ****       basic_string&
2259:/usr/include/c++/9.2.0/bits/basic_string.h ****       _M_replace(size_type __pos, size_type __len1, const _CharT* __s,
2260:/usr/include/c++/9.2.0/bits/basic_string.h **** 		 const size_type __len2);
2261:/usr/include/c++/9.2.0/bits/basic_string.h **** 
2262:/usr/include/c++/9.2.0/bits/basic_string.h ****       basic_string&
2263:/usr/include/c++/9.2.0/bits/basic_string.h ****       _M_append(const _CharT* __s, size_type __n);
2264:/usr/include/c++/9.2.0/bits/basic_string.h **** 
2265:/usr/include/c++/9.2.0/bits/basic_string.h ****     public:
2266:/usr/include/c++/9.2.0/bits/basic_string.h **** 
2267:/usr/include/c++/9.2.0/bits/basic_string.h ****       /**
2268:/usr/include/c++/9.2.0/bits/basic_string.h ****        *  @brief  Copy substring into C string.
2269:/usr/include/c++/9.2.0/bits/basic_string.h ****        *  @param __s  C string to copy value into.
2270:/usr/include/c++/9.2.0/bits/basic_string.h ****        *  @param __n  Number of characters to copy.
2271:/usr/include/c++/9.2.0/bits/basic_string.h ****        *  @param __pos  Index of first character to copy.
2272:/usr/include/c++/9.2.0/bits/basic_string.h ****        *  @return  Number of characters actually copied
GAS LISTING /tmp/ccVy0JI6.s 			page 68


2273:/usr/include/c++/9.2.0/bits/basic_string.h ****        *  @throw  std::out_of_range  If __pos > size().
2274:/usr/include/c++/9.2.0/bits/basic_string.h ****        *
2275:/usr/include/c++/9.2.0/bits/basic_string.h ****        *  Copies up to @a __n characters starting at @a __pos into the
2276:/usr/include/c++/9.2.0/bits/basic_string.h ****        *  C string @a __s.  If @a __pos is %greater than size(),
2277:/usr/include/c++/9.2.0/bits/basic_string.h ****        *  out_of_range is thrown.
2278:/usr/include/c++/9.2.0/bits/basic_string.h ****       */
2279:/usr/include/c++/9.2.0/bits/basic_string.h ****       size_type
2280:/usr/include/c++/9.2.0/bits/basic_string.h ****       copy(_CharT* __s, size_type __n, size_type __pos = 0) const;
2281:/usr/include/c++/9.2.0/bits/basic_string.h **** 
2282:/usr/include/c++/9.2.0/bits/basic_string.h ****       /**
2283:/usr/include/c++/9.2.0/bits/basic_string.h ****        *  @brief  Swap contents with another string.
2284:/usr/include/c++/9.2.0/bits/basic_string.h ****        *  @param __s  String to swap with.
2285:/usr/include/c++/9.2.0/bits/basic_string.h ****        *
2286:/usr/include/c++/9.2.0/bits/basic_string.h ****        *  Exchanges the contents of this string with that of @a __s in constant
2287:/usr/include/c++/9.2.0/bits/basic_string.h ****        *  time.
2288:/usr/include/c++/9.2.0/bits/basic_string.h ****       */
2289:/usr/include/c++/9.2.0/bits/basic_string.h ****       void
2290:/usr/include/c++/9.2.0/bits/basic_string.h ****       swap(basic_string& __s) _GLIBCXX_NOEXCEPT;
2291:/usr/include/c++/9.2.0/bits/basic_string.h **** 
2292:/usr/include/c++/9.2.0/bits/basic_string.h ****       // String operations:
2293:/usr/include/c++/9.2.0/bits/basic_string.h ****       /**
2294:/usr/include/c++/9.2.0/bits/basic_string.h ****        *  @brief  Return const pointer to null-terminated contents.
2295:/usr/include/c++/9.2.0/bits/basic_string.h ****        *
2296:/usr/include/c++/9.2.0/bits/basic_string.h ****        *  This is a handle to internal data.  Do not modify or dire things may
2297:/usr/include/c++/9.2.0/bits/basic_string.h ****        *  happen.
2298:/usr/include/c++/9.2.0/bits/basic_string.h ****       */
2299:/usr/include/c++/9.2.0/bits/basic_string.h ****       const _CharT*
2300:/usr/include/c++/9.2.0/bits/basic_string.h ****       c_str() const _GLIBCXX_NOEXCEPT
 765              		.loc 4 2300 7 is_stmt 1 view .LVU214
 766              	.LBB57:
 767              	.LBI57:
 186:/usr/include/c++/9.2.0/bits/basic_string.h ****       { return _M_dataplus._M_p; }
 768              		.loc 4 186 7 view .LVU215
 769              	.LBB58:
 187:/usr/include/c++/9.2.0/bits/basic_string.h **** 
 770              		.loc 4 187 28 is_stmt 0 view .LVU216
 771 05b6 498B17   		movq	(%r15), %rdx
 772              	.LVL88:
 187:/usr/include/c++/9.2.0/bits/basic_string.h **** 
 773              		.loc 4 187 28 view .LVU217
 774              	.LBE58:
 775              	.LBE57:
 776              	.LBE56:
 777              		.loc 1 102 39 view .LVU218
 778 05b9 488D7DB0 		leaq	-80(%rbp), %rdi
 779 05bd 4C89E6   		movq	%r12, %rsi
 780 05c0 FF75A0   		pushq	-96(%rbp)
 781 05c3 FF7598   		pushq	-104(%rbp)
 782 05c6 6A00     		pushq	$0
 783 05c8 FF7580   		pushq	-128(%rbp)
 784 05cb FFB578FF 		pushq	-136(%rbp)
 784      FFFF
 785 05d1 6A00     		pushq	$0
 786 05d3 41B8FFFF 		movl	$65535, %r8d
 786      0000
 787 05d9 B9FFFFFF 		movl	$-1, %ecx
 787      FF
GAS LISTING /tmp/ccVy0JI6.s 			page 69


 788              		.cfi_escape 0x2e,0x30
 789 05de E8000000 		call	_ZN6FTFont6RenderEPKwi7FTPointS2_i@PLT
 789      00
 790              	.LVL89:
 791 05e3 4883C430 		addq	$48, %rsp
 103:Src/routines.cpp **** 		glPopMatrix();
 792              		.loc 1 103 3 is_stmt 1 view .LVU219
 793              		.cfi_escape 0x2e,0
 794              		.loc 1 103 14 is_stmt 0 view .LVU220
 795 05e7 E8000000 		call	glPopMatrix@PLT
 795      00
 796              	.LVL90:
 797              	.LEHE1:
 798              	.L28:
  94:Src/routines.cpp **** 	if(!hack_italic_font.Error())
 799              		.loc 1 94 72 view .LVU221
 800 05ec 488DBD60 		leaq	-160(%rbp), %rdi
 800      FFFFFF
 801 05f3 E8000000 		call	_ZN12FTPixmapFontD1Ev@PLT
 801      00
 802              	.LVL91:
 104:Src/routines.cpp **** 	}
 105:Src/routines.cpp **** 	else
 106:Src/routines.cpp **** 	{
 107:Src/routines.cpp **** 		// std::cout << "FONT ERR\n";
 108:Src/routines.cpp **** 	}
 109:Src/routines.cpp **** }
 803              		.loc 1 109 1 view .LVU222
 804 05f8 488B45C8 		movq	-56(%rbp), %rax
 805 05fc 64483304 		xorq	%fs:40, %rax
 805      25280000 
 805      00
 806 0605 7526     		jne	.L34
 807 0607 488D65D8 		leaq	-40(%rbp), %rsp
 808 060b 5B       		popq	%rbx
 809              	.LVL92:
 810              		.loc 1 109 1 view .LVU223
 811 060c 415C     		popq	%r12
 812 060e 415D     		popq	%r13
 813              	.LVL93:
 814              		.loc 1 109 1 view .LVU224
 815 0610 415E     		popq	%r14
 816              	.LVL94:
 817              		.loc 1 109 1 view .LVU225
 818 0612 415F     		popq	%r15
 819              	.LVL95:
 820              		.loc 1 109 1 view .LVU226
 821 0614 5D       		popq	%rbp
 822              		.cfi_remember_state
 823              		.cfi_def_cfa 7, 8
 824 0615 C3       		ret
 825              	.LVL96:
 826              	.L31:
 827              		.cfi_restore_state
 828              		.loc 1 109 1 view .LVU227
 829 0616 4889C3   		movq	%rax, %rbx
 830              	.LVL97:
GAS LISTING /tmp/ccVy0JI6.s 			page 70


  94:Src/routines.cpp **** 	if(!hack_italic_font.Error())
 831              		.loc 1 94 72 view .LVU228
 832 0619 488DBD60 		leaq	-160(%rbp), %rdi
 832      FFFFFF
 833 0620 E8000000 		call	_ZN12FTPixmapFontD1Ev@PLT
 833      00
 834              	.LVL98:
 835 0625 4889DF   		movq	%rbx, %rdi
 836              	.LEHB2:
 837 0628 E8000000 		call	_Unwind_Resume@PLT
 837      00
 838              	.LVL99:
 839              	.LEHE2:
 840              	.L34:
 841              		.loc 1 109 1 view .LVU229
 842 062d E8000000 		call	__stack_chk_fail@PLT
 842      00
 843              	.LVL100:
 844              		.cfi_endproc
 845              	.LFE1967:
 846              		.globl	__gxx_personality_v0
 847              		.section	.gcc_except_table,"a",@progbits
 848              	.LLSDA1967:
 849 0000 FF       		.byte	0xff
 850 0001 FF       		.byte	0xff
 851 0002 01       		.byte	0x1
 852 0003 0F       		.uleb128 .LLSDACSE1967-.LLSDACSB1967
 853              	.LLSDACSB1967:
 854 0004 3C       		.uleb128 .LEHB0-.LFB1967
 855 0005 05       		.uleb128 .LEHE0-.LEHB0
 856 0006 00       		.uleb128 0
 857 0007 00       		.uleb128 0
 858 0008 44       		.uleb128 .LEHB1-.LFB1967
 859 0009 9101     		.uleb128 .LEHE1-.LEHB1
 860 000b FF01     		.uleb128 .L31-.LFB1967
 861 000d 00       		.uleb128 0
 862 000e 9102     		.uleb128 .LEHB2-.LFB1967
 863 0010 05       		.uleb128 .LEHE2-.LEHB2
 864 0011 00       		.uleb128 0
 865 0012 00       		.uleb128 0
 866              	.LLSDACSE1967:
 867              		.text
 869              		.section	.rodata.cst4,"aM",@progbits,4
 870              		.align 4
 871              	.LC0:
 872 0000 00007F43 		.long	1132396544
 873              		.align 4
 874              	.LC1:
 875 0004 0000003F 		.long	1056964608
 876              		.align 4
 877              	.LC2:
 878 0008 DA0FC940 		.long	1086918618
 879              		.align 4
 880              	.LC3:
 881 000c 0000803F 		.long	1065353216
 882              		.align 4
 883              	.LC4:
GAS LISTING /tmp/ccVy0JI6.s 			page 71


 884 0010 67B16FBF 		.long	3211768167
 885              		.align 4
 886              	.LC5:
 887 0014 69D0B3BE 		.long	3199455337
 888              		.text
 889              	.Letext0:
 890              		.file 5 "/usr/lib/gcc/x86_64-pc-linux-gnu/9.2.0/include/stddef.h"
 891              		.file 6 "/usr/include/bits/types.h"
 892              		.file 7 "/usr/include/bits/stdint-intn.h"
 893              		.file 8 "/usr/include/bits/stdint-uintn.h"
 894              		.file 9 "/usr/include/stdint.h"
 895              		.file 10 "/usr/include/GL/glew.h"
 896              		.file 11 "/usr/include/GL/freeglut_std.h"
 897              		.file 12 "/usr/include/c++/9.2.0/cstdlib"
 898              		.file 13 "/usr/include/c++/9.2.0/bits/std_abs.h"
 899              		.file 14 "/usr/include/c++/9.2.0/type_traits"
 900              		.file 15 "/usr/include/c++/9.2.0/x86_64-pc-linux-gnu/bits/c++config.h"
 901              		.file 16 "/usr/include/c++/9.2.0/bits/stl_pair.h"
 902              		.file 17 "/usr/include/c++/9.2.0/debug/debug.h"
 903              		.file 18 "/usr/include/c++/9.2.0/cwchar"
 904              		.file 19 "/usr/include/c++/9.2.0/bits/char_traits.h"
 905              		.file 20 "/usr/include/c++/9.2.0/cstdint"
 906              		.file 21 "/usr/include/c++/9.2.0/bits/exception_ptr.h"
 907              		.file 22 "/usr/include/c++/9.2.0/new"
 908              		.file 23 "/usr/include/c++/9.2.0/bits/allocator.h"
 909              		.file 24 "/usr/include/c++/9.2.0/clocale"
 910              		.file 25 "/usr/include/c++/9.2.0/cstdio"
 911              		.file 26 "/usr/include/c++/9.2.0/bits/alloc_traits.h"
 912              		.file 27 "/usr/include/c++/9.2.0/initializer_list"
 913              		.file 28 "/usr/include/c++/9.2.0/bits/stringfwd.h"
 914              		.file 29 "/usr/include/c++/9.2.0/bits/stl_iterator_base_types.h"
 915              		.file 30 "/usr/include/c++/9.2.0/bits/predefined_ops.h"
 916              		.file 31 "/usr/include/c++/9.2.0/ext/new_allocator.h"
 917              		.file 32 "/usr/include/c++/9.2.0/ext/numeric_traits.h"
 918              		.file 33 "/usr/include/c++/9.2.0/ext/alloc_traits.h"
 919              		.file 34 "/usr/include/c++/9.2.0/bits/stl_iterator.h"
 920              		.file 35 "/usr/include/stdlib.h"
 921              		.file 36 "/usr/include/bits/stdlib-float.h"
 922              		.file 37 "/usr/include/bits/stdlib-bsearch.h"
 923              		.file 38 "/usr/include/c++/9.2.0/stdlib.h"
 924              		.file 39 "<built-in>"
 925              		.file 40 "/usr/include/bits/types/wint_t.h"
 926              		.file 41 "/usr/include/bits/types/__mbstate_t.h"
 927              		.file 42 "/usr/include/bits/types/mbstate_t.h"
 928              		.file 43 "/usr/include/bits/types/__FILE.h"
 929              		.file 44 "/usr/include/bits/types/struct_FILE.h"
 930              		.file 45 "/usr/include/bits/types/FILE.h"
 931              		.file 46 "/usr/include/wchar.h"
 932              		.file 47 "/usr/include/bits/types/struct_tm.h"
 933              		.file 48 "/usr/include/locale.h"
 934              		.file 49 "/usr/include/time.h"
 935              		.file 50 "/usr/include/bits/types/__fpos_t.h"
 936              		.file 51 "/usr/include/stdio.h"
 937              		.file 52 "/usr/include/bits/sys_errlist.h"
 938              		.file 53 "/usr/include/bits/stdio.h"
 939              		.file 54 "/usr/include/errno.h"
 940              		.file 55 "/usr/include/freetype/ftimage.h"
GAS LISTING /tmp/ccVy0JI6.s 			page 72


 941              		.file 56 "/usr/include/FTGL/ftgl.h"
 942              		.file 57 "/usr/include/math.h"
 943              		.file 58 "/usr/include/c++/9.2.0/math.h"
 944              		.file 59 "/usr/include/bits/mathcalls.h"
 83375              		.align 8
 83378              	DW.ref.__gxx_personality_v0:
 83379 0000 00000000 		.quad	__gxx_personality_v0
 83379      00000000 
 83380              		.ident	"GCC: (GNU) 9.2.0"
 83381              		.section	.note.GNU-stack,"",@progbits
GAS LISTING /tmp/ccVy0JI6.s 			page 73


DEFINED SYMBOLS
                            *ABS*:0000000000000000 routines.cpp
     /tmp/ccVy0JI6.s:6      .text:0000000000000000 _Z10glSetColorj
     /tmp/ccVy0JI6.s:47     .text:000000000000004c _Z8drawRectffff
     /tmp/ccVy0JI6.s:123    .text:000000000000010c _Z12drawTrianglefff
     /tmp/ccVy0JI6.s:186    .text:00000000000001a2 _Z10drawCirclefffi
     /tmp/ccVy0JI6.s:292    .text:0000000000000241 _Z16drawCircleFilledfffi
     /tmp/ccVy0JI6.s:398    .text:00000000000002e0 _Z8drawLineffff
     /tmp/ccVy0JI6.s:462    .text:000000000000037b _Z7drawOctfff
     /tmp/ccVy0JI6.s:626    .text:0000000000000506 _Z8drawQuadfff
     /tmp/ccVy0JI6.s:653    .text:0000000000000517 _Z8drawTextNSt7__cxx1112basic_stringIwSt11char_traitsIwESaIwEEEiii
     /tmp/ccVy0JI6.s:83378  .data.rel.local.DW.ref.__gxx_personality_v0:0000000000000000 DW.ref.__gxx_personality_v0
     /tmp/ccVy0JI6.s:871    .rodata.cst4:0000000000000000 .LC0
     /tmp/ccVy0JI6.s:874    .rodata.cst4:0000000000000004 .LC1
     /tmp/ccVy0JI6.s:877    .rodata.cst4:0000000000000008 .LC2
     /tmp/ccVy0JI6.s:880    .rodata.cst4:000000000000000c .LC3
     /tmp/ccVy0JI6.s:883    .rodata.cst4:0000000000000010 .LC4
     /tmp/ccVy0JI6.s:886    .rodata.cst4:0000000000000014 .LC5
     /tmp/ccVy0JI6.s:648    .rodata.str1.8:0000000000000000 .LC6

UNDEFINED SYMBOLS
_GLOBAL_OFFSET_TABLE_
glColor3f
glBegin
glVertex2d
glEnd
cosf
sinf
glVertex2f
_ZN12FTPixmapFontC1EPKc
_ZNK6FTFont5ErrorEv
glPushMatrix
_ZN6FTFont8FaceSizeEjj
glRasterPos2f
_ZN6FTFont6RenderEPKwi7FTPointS2_i
glPopMatrix
_ZN12FTPixmapFontD1Ev
_Unwind_Resume
__stack_chk_fail
__gxx_personality_v0
